TI ARM Assembler PC v18.1.3 Wed Nov 28 13:34:39 2018

Tools Copyright (c) 1996-2017 Texas Instruments Incorporated
C:\Users\Adrian\AppData\Local\Temp\{DE9C6956-9654-4461-9319-00DA2038484A} PAGE    1

       1                    ;******************************************************************************
       2                    ;* TI ARM C/C++ Codegen                                        PC v18.1.3.LTS *
       3                    ;* Date/Time created: Wed Nov 28 13:34:39 2018                                *
       4                    ;******************************************************************************
       5                            .compiler_opts --abi=eabi --arm_vmrs_si_workaround=off --code_state=16 --diag_wrap=off --embed
       6 00000000                   .thumb
       7                    
       8                    $C$DW$CU        .dwtag  DW_TAG_compile_unit
       9                            .dwattr $C$DW$CU, DW_AT_name("../Application/uart_printf.c")
      10                            .dwattr $C$DW$CU, DW_AT_producer("TI TI ARM C/C++ Codegen PC v18.1.3.LTS Copyright (c) 1996-20
      11                            .dwattr $C$DW$CU, DW_AT_TI_version(0x01)
      12                            .dwattr $C$DW$CU, DW_AT_comp_dir("C:\Users\Adrian\workspace_v8\sensor_cc1350lp\sensor_cc1350lp
      13                    
      14                    $C$DW$1 .dwtag  DW_TAG_subprogram
      15                            .dwattr $C$DW$1, DW_AT_name("UART_write")
      16                            .dwattr $C$DW$1, DW_AT_TI_symbol_name("UART_write")
      17                            .dwattr $C$DW$1, DW_AT_type(*$C$DW$T$164)
      18                            .dwattr $C$DW$1, DW_AT_declaration
      19                            .dwattr $C$DW$1, DW_AT_external
      20                            .dwattr $C$DW$1, DW_AT_decl_file("C:/ti/simplelink_cc13x0_sdk_2_30_00_20/source/ti/drivers/UAR
      21                            .dwattr $C$DW$1, DW_AT_decl_line(0x349)
      22                            .dwattr $C$DW$1, DW_AT_decl_column(0x15)
      23                    $C$DW$2 .dwtag  DW_TAG_formal_parameter
      24                            .dwattr $C$DW$2, DW_AT_type(*$C$DW$T$116)
      25                    
      26                    $C$DW$3 .dwtag  DW_TAG_formal_parameter
      27                            .dwattr $C$DW$3, DW_AT_type(*$C$DW$T$139)
      28                    
      29                    $C$DW$4 .dwtag  DW_TAG_formal_parameter
      30                            .dwattr $C$DW$4, DW_AT_type(*$C$DW$T$105)
      31                    
      32                            .dwendtag $C$DW$1
      33                    
      34 00000000                   .sect   ".data:$O1$$", RW
      35                            .align  4
      36                            .elfsym ||$O1$$||,SYM_SIZE(1032)
      37 00000000           ||$O1$$||:
      38 00000000 00000000          .bits   0,16                    ; $O1$$.uartPrintf_head @ 0
      39 00000000 00000000          .bits   0,16                    ; $O1$$.uartPrintf_tail @ 16
      40 00000004 00000000          .bits   0,32                    ; $O1$$.hUart @ 32
      41 00000008                   .space  1024
      42                    
      43                    
      44                    ;*********************************************************************
      45                    ;* GROUPED GLOBALS FOR $O1$$                                         *
      46                    ;*********************************************************************
      47          00000000! uartPrintf_head:        .set    ||$O1$$||+0
      48                    $C$DW$5 .dwtag  DW_TAG_variable
      49                            .dwattr $C$DW$5, DW_AT_name("uartPrintf_head")
      50                            .dwattr $C$DW$5, DW_AT_TI_symbol_name("uartPrintf_head")
      51                            .dwattr $C$DW$5, DW_AT_type(*$C$DW$T$43)
      52                            .dwattr $C$DW$5, DW_AT_location[DW_OP_addr uartPrintf_head]
      53                            .dwattr $C$DW$5, DW_AT_decl_file("../Application/uart_printf.c")
      54                            .dwattr $C$DW$5, DW_AT_decl_line(0x43)
      55                            .dwattr $C$DW$5, DW_AT_decl_column(0x11)
TI ARM Assembler PC v18.1.3 Wed Nov 28 13:34:39 2018

Tools Copyright (c) 1996-2017 Texas Instruments Incorporated
C:\Users\Adrian\AppData\Local\Temp\{DE9C6956-9654-4461-9319-00DA2038484A} PAGE    2

      56                    
      57          00000002! uartPrintf_tail:        .set    ||$O1$$||+2
      58                    $C$DW$6 .dwtag  DW_TAG_variable
      59                            .dwattr $C$DW$6, DW_AT_name("uartPrintf_tail")
      60                            .dwattr $C$DW$6, DW_AT_TI_symbol_name("uartPrintf_tail")
      61                            .dwattr $C$DW$6, DW_AT_type(*$C$DW$T$43)
      62                            .dwattr $C$DW$6, DW_AT_location[DW_OP_addr uartPrintf_tail]
      63                            .dwattr $C$DW$6, DW_AT_decl_file("../Application/uart_printf.c")
      64                            .dwattr $C$DW$6, DW_AT_decl_line(0x44)
      65                            .dwattr $C$DW$6, DW_AT_decl_column(0x11)
      66                    
      67          00000004! hUart:  .set    ||$O1$$||+4
      68                            .global hUart
      69                    $C$DW$7 .dwtag  DW_TAG_variable
      70                            .dwattr $C$DW$7, DW_AT_name("hUart")
      71                            .dwattr $C$DW$7, DW_AT_TI_symbol_name("hUart")
      72                            .dwattr $C$DW$7, DW_AT_location[DW_OP_addr hUart]
      73                            .dwattr $C$DW$7, DW_AT_type(*$C$DW$T$116)
      74                            .dwattr $C$DW$7, DW_AT_external
      75                            .dwattr $C$DW$7, DW_AT_decl_file("../Application/uart_printf.c")
      76                            .dwattr $C$DW$7, DW_AT_decl_line(0x45)
      77                            .dwattr $C$DW$7, DW_AT_decl_column(0x0d)
      78                    
      79          00000008! uartPrintf_outArray:    .set    ||$O1$$||+8
      80                    $C$DW$8 .dwtag  DW_TAG_variable
      81                            .dwattr $C$DW$8, DW_AT_name("uartPrintf_outArray")
      82                            .dwattr $C$DW$8, DW_AT_TI_symbol_name("uartPrintf_outArray")
      83                            .dwattr $C$DW$8, DW_AT_type(*$C$DW$T$265)
      84                            .dwattr $C$DW$8, DW_AT_location[DW_OP_addr uartPrintf_outArray]
      85                            .dwattr $C$DW$8, DW_AT_decl_file("../Application/uart_printf.c")
      86                            .dwattr $C$DW$8, DW_AT_decl_line(0x42)
      87                            .dwattr $C$DW$8, DW_AT_decl_column(0x11)
      88                    
      89                    ;       C:\ti\ccsv8\tools\compiler\ti-cgt-arm_18.1.3.LTS\bin\armopt.exe C:/Users/Adrian/workspace_v8/s
      90 00000000                   .sect   ".text:UartPrintf_putch"
      91                            .clink
      92                            .thumbfunc UartPrintf_putch
      93 00000000                   .thumb
      94                            .global UartPrintf_putch
      95                    
      96                    $C$DW$9 .dwtag  DW_TAG_subprogram
      97                            .dwattr $C$DW$9, DW_AT_name("UartPrintf_putch")
      98                            .dwattr $C$DW$9, DW_AT_low_pc(UartPrintf_putch)
      99                            .dwattr $C$DW$9, DW_AT_high_pc(0x00)
     100                            .dwattr $C$DW$9, DW_AT_TI_symbol_name("UartPrintf_putch")
     101                            .dwattr $C$DW$9, DW_AT_external
     102                            .dwattr $C$DW$9, DW_AT_TI_begin_file("../Application/uart_printf.c")
     103                            .dwattr $C$DW$9, DW_AT_TI_begin_line(0x6f)
     104                            .dwattr $C$DW$9, DW_AT_TI_begin_column(0x06)
     105                            .dwattr $C$DW$9, DW_AT_decl_file("../Application/uart_printf.c")
     106                            .dwattr $C$DW$9, DW_AT_decl_line(0x6f)
     107                            .dwattr $C$DW$9, DW_AT_decl_column(0x06)
     108                            .dwattr $C$DW$9, DW_AT_TI_max_frame_size(0x08)
     109                            .dwpsn  file "../Application/uart_printf.c",line 112,column 1,is_stmt,address UartPrintf_putch
     110                    
TI ARM Assembler PC v18.1.3 Wed Nov 28 13:34:39 2018

Tools Copyright (c) 1996-2017 Texas Instruments Incorporated
C:\Users\Adrian\AppData\Local\Temp\{DE9C6956-9654-4461-9319-00DA2038484A} PAGE    3

     111                            .dwfde $C$DW$CIE, UartPrintf_putch
     112                    $C$DW$10        .dwtag  DW_TAG_formal_parameter
     113                            .dwattr $C$DW$10, DW_AT_name("ch")
     114                            .dwattr $C$DW$10, DW_AT_TI_symbol_name("ch")
     115                            .dwattr $C$DW$10, DW_AT_type(*$C$DW$T$10)
     116                            .dwattr $C$DW$10, DW_AT_location[DW_OP_reg0]
     117                    
     118                    
     119                    ;*****************************************************************************
     120                    ;* FUNCTION NAME: UartPrintf_putch                                           *
     121                    ;*                                                                           *
     122                    ;*   Regs Modified     : A1,A2,A3,A4,V1,SP,SR                                *
     123                    ;*   Regs Used         : A1,A2,A3,A4,V1,SP,LR,SR                             *
     124                    ;*   Local Frame Size  : 0 Args + 0 Auto + 8 Save = 8 byte                   *
     125                    ;*****************************************************************************
     126                    UartPrintf_putch:
     127                    ;* --------------------------------------------------------------------------*
     128                    ;* A1    assigned to $O$C1
     129                    ;* A3    assigned to $O$C2
     130                    ;* A2    assigned to $O$C3
     131                    ;* A2    assigned to $O$K3
     132                    ;* A1    assigned to ch
     133                    $C$DW$11        .dwtag  DW_TAG_variable
     134                            .dwattr $C$DW$11, DW_AT_name("ch")
     135                            .dwattr $C$DW$11, DW_AT_TI_symbol_name("ch")
     136                            .dwattr $C$DW$11, DW_AT_type(*$C$DW$T$362)
     137                            .dwattr $C$DW$11, DW_AT_location[DW_OP_reg0]
     138                    
     139                            .dwcfi  cfa_offset, 0
     140                            .dwpsn  file "../Application/uart_printf.c",line 118,column 5,is_stmt,isa 1
     141 00000000 4909              LDR       A2, $C$CON1           ; [DPU_V7M3_PIPE] |118|  ; [ORIG 16-BIT INS]
     142 00000002 B510              PUSH      {V1, LR}              ; [DPU_V7M3_PIPE]  ; [ORIG 16-BIT INS]
     143                            .dwcfi  cfa_offset, 8
     144                            .dwcfi  save_reg_to_mem, 14, -4
     145                            .dwcfi  save_reg_to_mem, 4, -8
     146 00000004 880A              LDRH      A3, [A2, #0]          ; [DPU_V7M3_PIPE] |118|  ; [ORIG 16-BIT INS]
     147 00000006 884C              LDRH      V1, [A2, #2]          ; [DPU_V7M3_PIPE] |118|  ; [ORIG 16-BIT INS]
     148 00000008 1C53              ADDS      A4, A3, #1            ; [DPU_V7M3_PIPE] |118|  ; [ORIG 16-BIT INS]
     149 0000000a 239FF36F          BFC       A4, #10, #22          ; [DPU_V7M3_PIPE] |118|  ; [KEEP 32-BIT INS]
     150 0000000e 429C              CMP       V1, A4                ; [DPU_V7M3_PIPE] |118|  ; [ORIG 16-BIT INS]
     151 00000010 D009              BEQ       ||$C$L1||             ; [DPU_V7M3_PIPE] |118|  ; [ORIG 16-BIT INS]
     152                            ; BRANCHCC OCCURS {||$C$L1||}    ; [] |118| 
     153                    ;* --------------------------------------------------------------------------*
     154                            .dwpsn  file "../Application/uart_printf.c",line 123,column 5,is_stmt,isa 1
     155 00000012 1852              ADDS      A3, A3, A2            ; [DPU_V7M3_PIPE] |123|  ; [ORIG 16-BIT INS]
     156                            .dwpsn  file "../Application/uart_printf.c",line 126,column 5,is_stmt,isa 1
     157 00000014 880C              LDRH      V1, [A2, #0]          ; [DPU_V7M3_PIPE] |126|  ; [ORIG 16-BIT INS]
     158                            .dwpsn  file "../Application/uart_printf.c",line 123,column 5,is_stmt,isa 1
     159 00000016 7210              STRB      A1, [A3, #8]          ; [DPU_V7M3_PIPE] |123|  ; [ORIG 16-BIT INS]
     160                            .dwpsn  file "../Application/uart_printf.c",line 126,column 5,is_stmt,isa 1
     161 00000018 1C60              ADDS      A1, V1, #1            ; [DPU_V7M3_PIPE] |126|  ; [ORIG 16-BIT INS]
     162 0000001a B280              UXTH      A1, A1                ; [DPU_V7M3_PIPE] |126|  ; [ORIG 16-BIT INS]
     163 0000001c 6F80F5B0          CMP       A1, #1024             ; [DPU_V7M3_PIPE] |126|  ; [KEEP 32-BIT INS]
     164 00000020 BFA8              IT        GE                    ; [DPU_V7M3_PIPE]  ; [ORIG 16-BIT INS]
     165                            .dwpsn  file "../Application/uart_printf.c",line 128,column 9,is_stmt,isa 1
TI ARM Assembler PC v18.1.3 Wed Nov 28 13:34:39 2018

Tools Copyright (c) 1996-2017 Texas Instruments Incorporated
C:\Users\Adrian\AppData\Local\Temp\{DE9C6956-9654-4461-9319-00DA2038484A} PAGE    4

     166 00000022 2000              MOVGE     A1, #0                ; [DPU_V7M3_PIPE] |128|  ; [ORIG 16-BIT INS]
     167 00000024 8008              STRH      A1, [A2, #0]          ; [DPU_V7M3_PIPE] |128|  ; [ORIG 16-BIT INS]
     168                    ;* --------------------------------------------------------------------------*
     169                    ||$C$L1||:    
     170                    $C$DW$12        .dwtag  DW_TAG_TI_branch
     171                            .dwattr $C$DW$12, DW_AT_low_pc(0x00)
     172                            .dwattr $C$DW$12, DW_AT_TI_return
     173                    
     174 00000026 BD10              POP       {V1, PC}              ; [DPU_V7M3_PIPE]  ; [ORIG 16-BIT INS]
     175                            .dwcfi  cfa_offset, 0
     176                            .dwcfi  restore_reg, 4
     177                            ; BRANCH OCCURS                  ; [] 
     178                            .dwattr $C$DW$9, DW_AT_TI_end_file("../Application/uart_printf.c")
     179                            .dwattr $C$DW$9, DW_AT_TI_end_line(0x83)
     180                            .dwattr $C$DW$9, DW_AT_TI_end_column(0x01)
     181                            .dwendentry
     182                            .dwendtag $C$DW$9
     183                    
     184 00000000                   .sect   ".text:UartPrintf_init"
     185                            .clink
     186                            .thumbfunc UartPrintf_init
     187 00000000                   .thumb
     188                            .global UartPrintf_init
     189                    
     190                    $C$DW$13        .dwtag  DW_TAG_subprogram
     191                            .dwattr $C$DW$13, DW_AT_name("UartPrintf_init")
     192                            .dwattr $C$DW$13, DW_AT_low_pc(UartPrintf_init)
     193                            .dwattr $C$DW$13, DW_AT_high_pc(0x00)
     194                            .dwattr $C$DW$13, DW_AT_TI_symbol_name("UartPrintf_init")
     195                            .dwattr $C$DW$13, DW_AT_external
     196                            .dwattr $C$DW$13, DW_AT_TI_begin_file("../Application/uart_printf.c")
     197                            .dwattr $C$DW$13, DW_AT_TI_begin_line(0x51)
     198                            .dwattr $C$DW$13, DW_AT_TI_begin_column(0x06)
     199                            .dwattr $C$DW$13, DW_AT_decl_file("../Application/uart_printf.c")
     200                            .dwattr $C$DW$13, DW_AT_decl_line(0x51)
     201                            .dwattr $C$DW$13, DW_AT_decl_column(0x06)
     202                            .dwattr $C$DW$13, DW_AT_TI_max_frame_size(0x00)
     203                            .dwpsn  file "../Application/uart_printf.c",line 82,column 1,is_stmt,address UartPrintf_init,i
     204                    
     205                            .dwfde $C$DW$CIE, UartPrintf_init
     206                    $C$DW$14        .dwtag  DW_TAG_formal_parameter
     207                            .dwattr $C$DW$14, DW_AT_name("handle")
     208                            .dwattr $C$DW$14, DW_AT_TI_symbol_name("handle")
     209                            .dwattr $C$DW$14, DW_AT_type(*$C$DW$T$116)
     210                            .dwattr $C$DW$14, DW_AT_location[DW_OP_reg0]
     211                    
     212                    
     213                    ;*****************************************************************************
     214                    ;* FUNCTION NAME: UartPrintf_init                                            *
     215                    ;*                                                                           *
     216                    ;*   Regs Modified     : A2,SR                                               *
     217                    ;*   Regs Used         : A1,A2,LR,SR                                         *
     218                    ;*   Local Frame Size  : 0 Args + 0 Auto + 0 Save = 0 byte                   *
     219                    ;*****************************************************************************
     220                    UartPrintf_init:
TI ARM Assembler PC v18.1.3 Wed Nov 28 13:34:39 2018

Tools Copyright (c) 1996-2017 Texas Instruments Incorporated
C:\Users\Adrian\AppData\Local\Temp\{DE9C6956-9654-4461-9319-00DA2038484A} PAGE    5

     221                    ;* --------------------------------------------------------------------------*
     222                    ;* A1    assigned to handle
     223                    $C$DW$15        .dwtag  DW_TAG_variable
     224                            .dwattr $C$DW$15, DW_AT_name("handle")
     225                            .dwattr $C$DW$15, DW_AT_TI_symbol_name("handle")
     226                            .dwattr $C$DW$15, DW_AT_type(*$C$DW$T$237)
     227                            .dwattr $C$DW$15, DW_AT_location[DW_OP_reg0]
     228                    
     229                            .dwcfi  cfa_offset, 0
     230                            .dwpsn  file "../Application/uart_printf.c",line 84,column 5,is_stmt,isa 1
     231 00000000 4901              LDR       A2, $C$CON3           ; [DPU_V7M3_PIPE] |84|  ; [ORIG 16-BIT INS]
     232 00000002 1D09              ADDS      A2, A2, #4            ; [DPU_V7M3_PIPE]  ; [ORIG 16-BIT INS]
     233 00000004 6008              STR       A1, [A2, #0]          ; [DPU_V7M3_PIPE] |84|  ; [ORIG 16-BIT INS]
     234                    $C$DW$16        .dwtag  DW_TAG_TI_branch
     235                            .dwattr $C$DW$16, DW_AT_low_pc(0x00)
     236                            .dwattr $C$DW$16, DW_AT_TI_return
     237                    
     238 00000006 4770              BX        LR                    ; [DPU_V7M3_PIPE]  ; [ORIG 16-BIT INS]
     239                            ; BRANCH OCCURS                  ; [] 
     240                            .dwattr $C$DW$13, DW_AT_TI_end_file("../Application/uart_printf.c")
     241                            .dwattr $C$DW$13, DW_AT_TI_end_line(0x56)
     242                            .dwattr $C$DW$13, DW_AT_TI_end_column(0x01)
     243                            .dwendentry
     244                            .dwendtag $C$DW$13
     245                    
     246 00000000                   .sect   ".text:UartPrintf_flush"
     247                            .clink
     248                            .thumbfunc UartPrintf_flush
     249 00000000                   .thumb
     250                            .global UartPrintf_flush
     251                    
     252                    $C$DW$17        .dwtag  DW_TAG_subprogram
     253                            .dwattr $C$DW$17, DW_AT_name("UartPrintf_flush")
     254                            .dwattr $C$DW$17, DW_AT_low_pc(UartPrintf_flush)
     255                            .dwattr $C$DW$17, DW_AT_high_pc(0x00)
     256                            .dwattr $C$DW$17, DW_AT_TI_symbol_name("UartPrintf_flush")
     257                            .dwattr $C$DW$17, DW_AT_external
     258                            .dwattr $C$DW$17, DW_AT_TI_begin_file("../Application/uart_printf.c")
     259                            .dwattr $C$DW$17, DW_AT_TI_begin_line(0x94)
     260                            .dwattr $C$DW$17, DW_AT_TI_begin_column(0x06)
     261                            .dwattr $C$DW$17, DW_AT_decl_file("../Application/uart_printf.c")
     262                            .dwattr $C$DW$17, DW_AT_decl_line(0x94)
     263                            .dwattr $C$DW$17, DW_AT_decl_column(0x06)
     264                            .dwattr $C$DW$17, DW_AT_TI_max_frame_size(0x10)
     265                            .dwpsn  file "../Application/uart_printf.c",line 149,column 1,is_stmt,address UartPrintf_flush
     266                    
     267                            .dwfde $C$DW$CIE, UartPrintf_flush
     268                    
     269                    ;*****************************************************************************
     270                    ;* FUNCTION NAME: UartPrintf_flush                                           *
     271                    ;*                                                                           *
     272                    ;*   Regs Modified     : A1,A2,A3,A4,V1,V2,V4,V9,SP,LR,SR                    *
     273                    ;*   Regs Used         : A1,A2,A3,A4,V1,V2,V4,V9,SP,LR,SR                    *
     274                    ;*   Local Frame Size  : 0 Args + 0 Auto + 16 Save = 16 byte                 *
     275                    ;*****************************************************************************
TI ARM Assembler PC v18.1.3 Wed Nov 28 13:34:39 2018

Tools Copyright (c) 1996-2017 Texas Instruments Incorporated
C:\Users\Adrian\AppData\Local\Temp\{DE9C6956-9654-4461-9319-00DA2038484A} PAGE    6

     276                    UartPrintf_flush:
     277                    ;* --------------------------------------------------------------------------*
     278                    ;* V1    assigned to $O$C1
     279                    ;* V1    assigned to $O$K2
     280                    ;* A1    assigned to $O$v3
     281                    ;* A3    assigned to $O$v1
     282                    ;* V2    assigned to curHead
     283                    $C$DW$18        .dwtag  DW_TAG_variable
     284                            .dwattr $C$DW$18, DW_AT_name("curHead")
     285                            .dwattr $C$DW$18, DW_AT_TI_symbol_name("curHead")
     286                            .dwattr $C$DW$18, DW_AT_type(*$C$DW$T$10)
     287                            .dwattr $C$DW$18, DW_AT_location[DW_OP_reg5]
     288                    
     289                    ;* A4    assigned to needWrap
     290                    $C$DW$19        .dwtag  DW_TAG_variable
     291                            .dwattr $C$DW$19, DW_AT_name("needWrap")
     292                            .dwattr $C$DW$19, DW_AT_TI_symbol_name("needWrap")
     293                            .dwattr $C$DW$19, DW_AT_type(*$C$DW$T$10)
     294                            .dwattr $C$DW$19, DW_AT_location[DW_OP_reg3]
     295                    
     296                    ;* V4    assigned to outLen
     297                    $C$DW$20        .dwtag  DW_TAG_variable
     298                            .dwattr $C$DW$20, DW_AT_name("outLen")
     299                            .dwattr $C$DW$20, DW_AT_TI_symbol_name("outLen")
     300                            .dwattr $C$DW$20, DW_AT_type(*$C$DW$T$10)
     301                            .dwattr $C$DW$20, DW_AT_location[DW_OP_reg7]
     302                    
     303                            .dwcfi  cfa_offset, 0
     304 00000000 B5B0              PUSH      {V1, V2, V4, LR}      ; [DPU_V7M3_PIPE]  ; [ORIG 16-BIT INS]
     305                            .dwcfi  cfa_offset, 16
     306                            .dwcfi  save_reg_to_mem, 14, -4
     307                            .dwcfi  save_reg_to_mem, 7, -8
     308                            .dwcfi  save_reg_to_mem, 5, -12
     309                            .dwcfi  save_reg_to_mem, 4, -16
     310                            .dwpsn  file "../Application/uart_printf.c",line 152,column 5,is_stmt,isa 1
     311 00000002 4C13              LDR       V1, $C$CON6           ; [DPU_V7M3_PIPE] |152|  ; [ORIG 16-BIT INS]
     312 00000004 6860              LDR       A1, [V1, #4]          ; [DPU_V7M3_PIPE] |152|  ; [ORIG 16-BIT INS]
     313 00000006 8862              LDRH      A3, [V1, #2]          ; [DPU_V7M3_PIPE] |152|  ; [ORIG 16-BIT INS]
     314 00000008 B308              CBZ       A1, ||$C$L5||         ; []  ; [ORIG 16-BIT INS]
     315                            ; BRANCHCC OCCURS {||$C$L5||}    ; [] |152| 
     316                    ;* --------------------------------------------------------------------------*
     317                            .dwpsn  file "../Application/uart_printf.c",line 159,column 26,is_stmt,isa 1
     318 0000000a 8825              LDRH      V2, [V1, #0]          ; [DPU_V7M3_PIPE] |159|  ; [ORIG 16-BIT INS]
     319                            .dwpsn  file "../Application/uart_printf.c",line 163,column 23,is_stmt,isa 1
     320 0000000c 2100              MOVS      A2, #0                ; [DPU_V7M3_PIPE] |163|  ; [ORIG 16-BIT INS]
     321 0000000e 42AA              CMP       A3, V2                ; [DPU_V7M3_PIPE] |163|  ; [ORIG 16-BIT INS]
     322 00000010 BFC8              IT        GT                    ; [DPU_V7M3_PIPE]  ; [ORIG 16-BIT INS]
     323 00000012 2101              MOVGT     A2, #1                ; [DPU_V7M3_PIPE] |163|  ; [ORIG 16-BIT INS]
     324 00000014 460B              MOV       A4, A2                ; [DPU_V7M3_PIPE] |163|  ; [ORIG 16-BIT INS]
     325                            .dwpsn  file "../Application/uart_printf.c",line 165,column 13,is_stmt,isa 1
     326 00000016 42AA              CMP       A3, V2                ; [DPU_V7M3_PIPE] |165|  ; [ORIG 16-BIT INS]
     327 00000018 BFC6              ITTE      GT                    ; [DPU_V7M3_PIPE]  ; [ORIG 16-BIT INS]
     328 0000001a 1AA9              SUBGT     A2, V2, A3            ; [DPU_V7M3_PIPE] |165|  ; [ORIG 16-BIT INS]
     329 0000001c 6180F501          ADDGT     A2, A2, #1024         ; [DPU_V7M3_PIPE] |165|  ; [KEEP 32-BIT INS]
     330 00000020 1AA9              SUBLE     A2, V2, A3            ; [DPU_V7M3_PIPE] |165|  ; [ORIG 16-BIT INS]
TI ARM Assembler PC v18.1.3 Wed Nov 28 13:34:39 2018

Tools Copyright (c) 1996-2017 Texas Instruments Incorporated
C:\Users\Adrian\AppData\Local\Temp\{DE9C6956-9654-4461-9319-00DA2038484A} PAGE    7

     331 00000022 B28F              UXTH      V4, A2                ; [DPU_V7M3_PIPE] |165|  ; [ORIG 16-BIT INS]
     332 00000024 B197              CBZ       V4, ||$C$L4||         ; []  ; [ORIG 16-BIT INS]
     333                            .dwpsn  file "../Application/uart_printf.c",line 168,column 9,is_stmt,isa 1
     334                            ; BRANCHCC OCCURS {||$C$L4||}    ; [] |168| 
     335                    ;* --------------------------------------------------------------------------*
     336                            .dwpsn  file "../Application/uart_printf.c",line 170,column 13,is_stmt,isa 1
     337 00000026 2B01              CMP       A4, #1                ; [DPU_V7M3_PIPE] |170|  ; [ORIG 16-BIT INS]
     338 00000028 D004              BEQ       ||$C$L2||             ; [DPU_V7M3_PIPE] |170|  ; [ORIG 16-BIT INS]
     339                            ; BRANCHCC OCCURS {||$C$L2||}    ; [] |170| 
     340                    ;* --------------------------------------------------------------------------*
     341                            .dwpsn  file "../Application/uart_printf.c",line 178,column 17,is_stmt,isa 1
     342 0000002a 1912              ADDS      A3, A3, V1            ; [DPU_V7M3_PIPE] |178|  ; [ORIG 16-BIT INS]
     343 0000002c 0108F102          ADD       A2, A3, #8            ; [DPU_V7M3_PIPE] |178|  ; [KEEP 32-BIT INS]
     344 00000030 463A              MOV       A3, V4                ; [DPU_V7M3_PIPE] |178|  ; [ORIG 16-BIT INS]
     345 00000032 E009              B         ||$C$L3||             ; [DPU_V7M3_PIPE] |178|  ; [ORIG 16-BIT INS]
     346                            ; BRANCH OCCURS {||$C$L3||}      ; [] |178| 
     347                    ;* --------------------------------------------------------------------------*
     348 00000034           ||$C$L2||:    
     349                            .dwpsn  file "../Application/uart_printf.c",line 172,column 17,is_stmt,isa 1
     350 00000034 1911              ADDS      A2, A3, V1            ; [DPU_V7M3_PIPE] |172|  ; [ORIG 16-BIT INS]
     351 00000036 6280F5C2          RSB       A3, A3, #1024         ; [DPU_V7M3_PIPE] |172|  ; [KEEP 32-BIT INS]
     352 0000003a 3108              ADDS      A2, A2, #8            ; [DPU_V7M3_PIPE] |172|  ; [ORIG 16-BIT INS]
     353                    $C$DW$21        .dwtag  DW_TAG_TI_branch
     354                            .dwattr $C$DW$21, DW_AT_low_pc(0x00)
     355                            .dwattr $C$DW$21, DW_AT_name("UART_write")
     356                            .dwattr $C$DW$21, DW_AT_TI_call
     357                    
     358 0000003c FFFEF7FF!         BL        UART_write            ; [DPU_V7M3_PIPE] |172|  ; [KEEP 32-BIT INS]
     359                            ; CALL OCCURS {UART_write }      ; [] |172| 
     360                            .dwpsn  file "../Application/uart_printf.c",line 174,column 17,is_stmt,isa 1
     361 00000040 6860              LDR       A1, [V1, #4]          ; [DPU_V7M3_PIPE] |174|  ; [ORIG 16-BIT INS]
     362 00000042 0108F104          ADD       A2, V1, #8            ; [DPU_V7M3_PIPE]  ; [KEEP 32-BIT INS]
     363 00000046 462A              MOV       A3, V2                ; [DPU_V7M3_PIPE] |174|  ; [ORIG 16-BIT INS]
     364                    ;* --------------------------------------------------------------------------*
     365                    ||$C$L3||:    
     366                    $C$DW$22        .dwtag  DW_TAG_TI_branch
     367                            .dwattr $C$DW$22, DW_AT_low_pc(0x00)
     368                            .dwattr $C$DW$22, DW_AT_name("UART_write")
     369                            .dwattr $C$DW$22, DW_AT_TI_call
     370                    
     371 00000048 FFFEF7FF!         BL        UART_write            ; [DPU_V7M3_PIPE] |174|  ; [KEEP 32-BIT INS]
     372                            ; CALL OCCURS {UART_write }      ; [] |174| 
     373                    ;* --------------------------------------------------------------------------*
     374 0000004c           ||$C$L4||:    
     375                            .dwpsn  file "../Application/uart_printf.c",line 183,column 9,is_stmt,isa 1
     376 0000004c 8065              STRH      V2, [V1, #2]          ; [DPU_V7M3_PIPE] |183|  ; [ORIG 16-BIT INS]
     377                    ;* --------------------------------------------------------------------------*
     378                    ||$C$L5||:    
     379                    $C$DW$23        .dwtag  DW_TAG_TI_branch
     380                            .dwattr $C$DW$23, DW_AT_low_pc(0x00)
     381                            .dwattr $C$DW$23, DW_AT_TI_return
     382                    
     383 0000004e BDB0              POP       {V1, V2, V4, PC}      ; [DPU_V7M3_PIPE]  ; [ORIG 16-BIT INS]
     384                            .dwcfi  cfa_offset, 0
     385                            .dwcfi  restore_reg, 7
TI ARM Assembler PC v18.1.3 Wed Nov 28 13:34:39 2018

Tools Copyright (c) 1996-2017 Texas Instruments Incorporated
C:\Users\Adrian\AppData\Local\Temp\{DE9C6956-9654-4461-9319-00DA2038484A} PAGE    8

     386                            .dwcfi  restore_reg, 5
     387                            .dwcfi  restore_reg, 4
     388                            ; BRANCH OCCURS                  ; [] 
     389                            .dwattr $C$DW$17, DW_AT_TI_end_file("../Application/uart_printf.c")
     390                            .dwattr $C$DW$17, DW_AT_TI_end_line(0xba)
     391                            .dwattr $C$DW$17, DW_AT_TI_end_column(0x01)
     392                            .dwendentry
     393                            .dwendtag $C$DW$17
     394                    
     395                    ;******************************************************************************
     396                    ;* CONSTANT TABLE                                                             *
     397                    ;******************************************************************************
     398 00000028                   .sect   ".text:UartPrintf_putch"
     399                            .align  4
     400 00000028 00000000! ||$C$CON1||:    .bits   ||$O1$$||,32
     401                    ;******************************************************************************
     402                    ;* CONSTANT TABLE                                                             *
     403                    ;******************************************************************************
     404 00000008                   .sect   ".text:UartPrintf_init"
     405                            .align  4
     406 00000008 00000000! ||$C$CON3||:    .bits   ||$O1$$||,32
     407                    ;******************************************************************************
     408                    ;* CONSTANT TABLE                                                             *
     409                    ;******************************************************************************
     410 00000050                   .sect   ".text:UartPrintf_flush"
     411                            .align  4
     412 00000050 00000000! ||$C$CON6||:    .bits   ||$O1$$||,32
     413                    ;*****************************************************************************
     414                    ;* UNDEFINED EXTERNAL REFERENCES                                             *
     415                    ;*****************************************************************************
     416                            .global UART_write
     417                    
     418                    ;******************************************************************************
     419                    ;* BUILD ATTRIBUTES                                                           *
     420                    ;******************************************************************************
     421                            .battr "aeabi", Tag_File, 1, Tag_ABI_PCS_wchar_t(2)
     422                            .battr "aeabi", Tag_File, 1, Tag_ABI_FP_rounding(0)
     423                            .battr "aeabi", Tag_File, 1, Tag_ABI_FP_denormal(0)
     424                            .battr "aeabi", Tag_File, 1, Tag_ABI_FP_exceptions(0)
     425                            .battr "aeabi", Tag_File, 1, Tag_ABI_FP_number_model(1)
     426                            .battr "aeabi", Tag_File, 1, Tag_ABI_enum_size(1)
     427                            .battr "aeabi", Tag_File, 1, Tag_ABI_optimization_goals(0)
     428                            .battr "aeabi", Tag_File, 1, Tag_ABI_FP_optimization_goals(0)
     429                            .battr "TI", Tag_File, 1, Tag_Bitfield_layout(2)
     430                            .battr "aeabi", Tag_File, 1, Tag_ABI_VFP_args(3)
     431                            .battr "TI", Tag_File, 1, Tag_FP_interface(1)
     432                    
     433                    ;******************************************************************************
     434                    ;* TYPE INFORMATION                                                           *
     435                    ;******************************************************************************
     436                    
     437                    $C$DW$T$180     .dwtag  DW_TAG_enumeration_type
     438                            .dwattr $C$DW$T$180, DW_AT_byte_size(0x01)
     439                    $C$DW$24        .dwtag  DW_TAG_enumerator
     440                            .dwattr $C$DW$24, DW_AT_name("PIN_SUCCESS")
TI ARM Assembler PC v18.1.3 Wed Nov 28 13:34:39 2018

Tools Copyright (c) 1996-2017 Texas Instruments Incorporated
C:\Users\Adrian\AppData\Local\Temp\{DE9C6956-9654-4461-9319-00DA2038484A} PAGE    9

     441                            .dwattr $C$DW$24, DW_AT_const_value(0x00)
     442                            .dwattr $C$DW$24, DW_AT_decl_file("C:/ti/simplelink_cc13x0_sdk_2_30_00_20/source/ti/drivers/PI
     443                            .dwattr $C$DW$24, DW_AT_decl_line(0x2cd)
     444                            .dwattr $C$DW$24, DW_AT_decl_column(0x05)
     445                    
     446                    $C$DW$25        .dwtag  DW_TAG_enumerator
     447                            .dwattr $C$DW$25, DW_AT_name("PIN_ALREADY_ALLOCATED")
     448                            .dwattr $C$DW$25, DW_AT_const_value(0x01)
     449                            .dwattr $C$DW$25, DW_AT_decl_file("C:/ti/simplelink_cc13x0_sdk_2_30_00_20/source/ti/drivers/PI
     450                            .dwattr $C$DW$25, DW_AT_decl_line(0x2ce)
     451                            .dwattr $C$DW$25, DW_AT_decl_column(0x05)
     452                    
     453                    $C$DW$26        .dwtag  DW_TAG_enumerator
     454                            .dwattr $C$DW$26, DW_AT_name("PIN_NO_ACCESS")
     455                            .dwattr $C$DW$26, DW_AT_const_value(0x02)
     456                            .dwattr $C$DW$26, DW_AT_decl_file("C:/ti/simplelink_cc13x0_sdk_2_30_00_20/source/ti/drivers/PI
     457                            .dwattr $C$DW$26, DW_AT_decl_line(0x2cf)
     458                            .dwattr $C$DW$26, DW_AT_decl_column(0x05)
     459                    
     460                    $C$DW$27        .dwtag  DW_TAG_enumerator
     461                            .dwattr $C$DW$27, DW_AT_name("PIN_UNSUPPORTED")
     462                            .dwattr $C$DW$27, DW_AT_const_value(0x03)
     463                            .dwattr $C$DW$27, DW_AT_decl_file("C:/ti/simplelink_cc13x0_sdk_2_30_00_20/source/ti/drivers/PI
     464                            .dwattr $C$DW$27, DW_AT_decl_line(0x2d0)
     465                            .dwattr $C$DW$27, DW_AT_decl_column(0x05)
     466                    
     467                            .dwattr $C$DW$T$180, DW_AT_decl_file("C:/ti/simplelink_cc13x0_sdk_2_30_00_20/source/ti/drivers
     468                            .dwattr $C$DW$T$180, DW_AT_decl_line(0x2cc)
     469                            .dwattr $C$DW$T$180, DW_AT_decl_column(0x0e)
     470                            .dwendtag $C$DW$T$180
     471                    
     472                    $C$DW$T$181     .dwtag  DW_TAG_typedef
     473                            .dwattr $C$DW$T$181, DW_AT_name("PIN_Status")
     474                            .dwattr $C$DW$T$181, DW_AT_type(*$C$DW$T$180)
     475                            .dwattr $C$DW$T$181, DW_AT_language(DW_LANG_C)
     476                            .dwattr $C$DW$T$181, DW_AT_decl_file("C:/ti/simplelink_cc13x0_sdk_2_30_00_20/source/ti/drivers
     477                            .dwattr $C$DW$T$181, DW_AT_decl_line(0x2d1)
     478                            .dwattr $C$DW$T$181, DW_AT_decl_column(0x03)
     479                    
     480                    
     481                    $C$DW$T$21      .dwtag  DW_TAG_structure_type
     482                            .dwattr $C$DW$T$21, DW_AT_byte_size(0x10)
     483                    $C$DW$28        .dwtag  DW_TAG_member
     484                            .dwattr $C$DW$28, DW_AT_type(*$C$DW$T$14)
     485                            .dwattr $C$DW$28, DW_AT_name("__max_align1")
     486                            .dwattr $C$DW$28, DW_AT_TI_symbol_name("__max_align1")
     487                            .dwattr $C$DW$28, DW_AT_data_member_location[DW_OP_plus_uconst 0x0]
     488                            .dwattr $C$DW$28, DW_AT_accessibility(DW_ACCESS_public)
     489                            .dwattr $C$DW$28, DW_AT_decl_file("C:/ti/ccsv8/tools/compiler/ti-cgt-arm_18.1.3.LTS/include/sy
     490                            .dwattr $C$DW$28, DW_AT_decl_line(0x70)
     491                            .dwattr $C$DW$28, DW_AT_decl_column(0x0c)
     492                    
     493                    $C$DW$29        .dwtag  DW_TAG_member
     494                            .dwattr $C$DW$29, DW_AT_type(*$C$DW$T$18)
     495                            .dwattr $C$DW$29, DW_AT_name("__max_align2")
TI ARM Assembler PC v18.1.3 Wed Nov 28 13:34:39 2018

Tools Copyright (c) 1996-2017 Texas Instruments Incorporated
C:\Users\Adrian\AppData\Local\Temp\{DE9C6956-9654-4461-9319-00DA2038484A} PAGE   10

     496                            .dwattr $C$DW$29, DW_AT_TI_symbol_name("__max_align2")
     497                            .dwattr $C$DW$29, DW_AT_data_member_location[DW_OP_plus_uconst 0x8]
     498                            .dwattr $C$DW$29, DW_AT_accessibility(DW_ACCESS_public)
     499                            .dwattr $C$DW$29, DW_AT_decl_file("C:/ti/ccsv8/tools/compiler/ti-cgt-arm_18.1.3.LTS/include/sy
     500                            .dwattr $C$DW$29, DW_AT_decl_line(0x71)
     501                            .dwattr $C$DW$29, DW_AT_decl_column(0x0e)
     502                    
     503                            .dwattr $C$DW$T$21, DW_AT_decl_file("C:/ti/ccsv8/tools/compiler/ti-cgt-arm_18.1.3.LTS/include/
     504                            .dwattr $C$DW$T$21, DW_AT_decl_line(0x6f)
     505                            .dwattr $C$DW$T$21, DW_AT_decl_column(0x10)
     506                            .dwendtag $C$DW$T$21
     507                    
     508                    $C$DW$T$182     .dwtag  DW_TAG_typedef
     509                            .dwattr $C$DW$T$182, DW_AT_name("__max_align_t")
     510                            .dwattr $C$DW$T$182, DW_AT_type(*$C$DW$T$21)
     511                            .dwattr $C$DW$T$182, DW_AT_language(DW_LANG_C)
     512                            .dwattr $C$DW$T$182, DW_AT_decl_file("C:/ti/ccsv8/tools/compiler/ti-cgt-arm_18.1.3.LTS/include
     513                            .dwattr $C$DW$T$182, DW_AT_decl_line(0x72)
     514                            .dwattr $C$DW$T$182, DW_AT_decl_column(0x03)
     515                    
     516                    
     517                    $C$DW$T$66      .dwtag  DW_TAG_structure_type
     518                            .dwattr $C$DW$T$66, DW_AT_byte_size(0x4c)
     519                    $C$DW$30        .dwtag  DW_TAG_member
     520                            .dwattr $C$DW$30, DW_AT_type(*$C$DW$T$29)
     521                            .dwattr $C$DW$30, DW_AT_name("Crc32")
     522                            .dwattr $C$DW$30, DW_AT_TI_symbol_name("Crc32")
     523                            .dwattr $C$DW$30, DW_AT_data_member_location[DW_OP_plus_uconst 0x0]
     524                            .dwattr $C$DW$30, DW_AT_accessibility(DW_ACCESS_public)
     525                            .dwattr $C$DW$30, DW_AT_decl_file("C:\ti\simplelink_cc13x0_sdk_2_30_00_20\source\ti\devices\cc
     526                            .dwattr $C$DW$30, DW_AT_decl_line(0x76)
     527                            .dwattr $C$DW$30, DW_AT_decl_column(0x25)
     528                    
     529                    $C$DW$31        .dwtag  DW_TAG_member
     530                            .dwattr $C$DW$31, DW_AT_type(*$C$DW$T$32)
     531                            .dwattr $C$DW$31, DW_AT_name("FlashGetSize")
     532                            .dwattr $C$DW$31, DW_AT_TI_symbol_name("FlashGetSize")
     533                            .dwattr $C$DW$31, DW_AT_data_member_location[DW_OP_plus_uconst 0x4]
     534                            .dwattr $C$DW$31, DW_AT_accessibility(DW_ACCESS_public)
     535                            .dwattr $C$DW$31, DW_AT_decl_file("C:\ti\simplelink_cc13x0_sdk_2_30_00_20\source\ti\devices\cc
     536                            .dwattr $C$DW$31, DW_AT_decl_line(0x77)
     537                            .dwattr $C$DW$31, DW_AT_decl_column(0x25)
     538                    
     539                    $C$DW$32        .dwtag  DW_TAG_member
     540                            .dwattr $C$DW$32, DW_AT_type(*$C$DW$T$33)
     541                            .dwattr $C$DW$32, DW_AT_name("GetChipId")
     542                            .dwattr $C$DW$32, DW_AT_TI_symbol_name("GetChipId")
     543                            .dwattr $C$DW$32, DW_AT_data_member_location[DW_OP_plus_uconst 0x8]
     544                            .dwattr $C$DW$32, DW_AT_accessibility(DW_ACCESS_public)
     545                            .dwattr $C$DW$32, DW_AT_decl_file("C:\ti\simplelink_cc13x0_sdk_2_30_00_20\source\ti\devices\cc
     546                            .dwattr $C$DW$32, DW_AT_decl_line(0x78)
     547                            .dwattr $C$DW$32, DW_AT_decl_column(0x25)
     548                    
     549                    $C$DW$33        .dwtag  DW_TAG_member
     550                            .dwattr $C$DW$33, DW_AT_type(*$C$DW$T$36)
TI ARM Assembler PC v18.1.3 Wed Nov 28 13:34:39 2018

Tools Copyright (c) 1996-2017 Texas Instruments Incorporated
C:\Users\Adrian\AppData\Local\Temp\{DE9C6956-9654-4461-9319-00DA2038484A} PAGE   11

     551                            .dwattr $C$DW$33, DW_AT_name("ReservedLocation1")
     552                            .dwattr $C$DW$33, DW_AT_TI_symbol_name("ReservedLocation1")
     553                            .dwattr $C$DW$33, DW_AT_data_member_location[DW_OP_plus_uconst 0xc]
     554                            .dwattr $C$DW$33, DW_AT_accessibility(DW_ACCESS_public)
     555                            .dwattr $C$DW$33, DW_AT_decl_file("C:\ti\simplelink_cc13x0_sdk_2_30_00_20\source\ti\devices\cc
     556                            .dwattr $C$DW$33, DW_AT_decl_line(0x79)
     557                            .dwattr $C$DW$33, DW_AT_decl_column(0x25)
     558                    
     559                    $C$DW$34        .dwtag  DW_TAG_member
     560                            .dwattr $C$DW$34, DW_AT_type(*$C$DW$T$37)
     561                            .dwattr $C$DW$34, DW_AT_name("ReservedLocation2")
     562                            .dwattr $C$DW$34, DW_AT_TI_symbol_name("ReservedLocation2")
     563                            .dwattr $C$DW$34, DW_AT_data_member_location[DW_OP_plus_uconst 0x10]
     564                            .dwattr $C$DW$34, DW_AT_accessibility(DW_ACCESS_public)
     565                            .dwattr $C$DW$34, DW_AT_decl_file("C:\ti\simplelink_cc13x0_sdk_2_30_00_20\source\ti\devices\cc
     566                            .dwattr $C$DW$34, DW_AT_decl_line(0x7a)
     567                            .dwattr $C$DW$34, DW_AT_decl_column(0x25)
     568                    
     569                    $C$DW$35        .dwtag  DW_TAG_member
     570                            .dwattr $C$DW$35, DW_AT_type(*$C$DW$T$38)
     571                            .dwattr $C$DW$35, DW_AT_name("ReservedLocation3")
     572                            .dwattr $C$DW$35, DW_AT_TI_symbol_name("ReservedLocation3")
     573                            .dwattr $C$DW$35, DW_AT_data_member_location[DW_OP_plus_uconst 0x14]
     574                            .dwattr $C$DW$35, DW_AT_accessibility(DW_ACCESS_public)
     575                            .dwattr $C$DW$35, DW_AT_decl_file("C:\ti\simplelink_cc13x0_sdk_2_30_00_20\source\ti\devices\cc
     576                            .dwattr $C$DW$35, DW_AT_decl_line(0x7b)
     577                            .dwattr $C$DW$35, DW_AT_decl_column(0x25)
     578                    
     579                    $C$DW$36        .dwtag  DW_TAG_member
     580                            .dwattr $C$DW$36, DW_AT_type(*$C$DW$T$41)
     581                            .dwattr $C$DW$36, DW_AT_name("ResetDevice")
     582                            .dwattr $C$DW$36, DW_AT_TI_symbol_name("ResetDevice")
     583                            .dwattr $C$DW$36, DW_AT_data_member_location[DW_OP_plus_uconst 0x18]
     584                            .dwattr $C$DW$36, DW_AT_accessibility(DW_ACCESS_public)
     585                            .dwattr $C$DW$36, DW_AT_decl_file("C:\ti\simplelink_cc13x0_sdk_2_30_00_20\source\ti\devices\cc
     586                            .dwattr $C$DW$36, DW_AT_decl_line(0x7c)
     587                            .dwattr $C$DW$36, DW_AT_decl_column(0x25)
     588                    
     589                    $C$DW$37        .dwtag  DW_TAG_member
     590                            .dwattr $C$DW$37, DW_AT_type(*$C$DW$T$47)
     591                            .dwattr $C$DW$37, DW_AT_name("Fletcher32")
     592                            .dwattr $C$DW$37, DW_AT_TI_symbol_name("Fletcher32")
     593                            .dwattr $C$DW$37, DW_AT_data_member_location[DW_OP_plus_uconst 0x1c]
     594                            .dwattr $C$DW$37, DW_AT_accessibility(DW_ACCESS_public)
     595                            .dwattr $C$DW$37, DW_AT_decl_file("C:\ti\simplelink_cc13x0_sdk_2_30_00_20\source\ti\devices\cc
     596                            .dwattr $C$DW$37, DW_AT_decl_line(0x7d)
     597                            .dwattr $C$DW$37, DW_AT_decl_column(0x25)
     598                    
     599                    $C$DW$38        .dwtag  DW_TAG_member
     600                            .dwattr $C$DW$38, DW_AT_type(*$C$DW$T$51)
     601                            .dwattr $C$DW$38, DW_AT_name("MinValue")
     602                            .dwattr $C$DW$38, DW_AT_TI_symbol_name("MinValue")
     603                            .dwattr $C$DW$38, DW_AT_data_member_location[DW_OP_plus_uconst 0x20]
     604                            .dwattr $C$DW$38, DW_AT_accessibility(DW_ACCESS_public)
     605                            .dwattr $C$DW$38, DW_AT_decl_file("C:\ti\simplelink_cc13x0_sdk_2_30_00_20\source\ti\devices\cc
TI ARM Assembler PC v18.1.3 Wed Nov 28 13:34:39 2018

Tools Copyright (c) 1996-2017 Texas Instruments Incorporated
C:\Users\Adrian\AppData\Local\Temp\{DE9C6956-9654-4461-9319-00DA2038484A} PAGE   12

     606                            .dwattr $C$DW$38, DW_AT_decl_line(0x7e)
     607                            .dwattr $C$DW$38, DW_AT_decl_column(0x25)
     608                    
     609                    $C$DW$39        .dwtag  DW_TAG_member
     610                            .dwattr $C$DW$39, DW_AT_type(*$C$DW$T$52)
     611                            .dwattr $C$DW$39, DW_AT_name("MaxValue")
     612                            .dwattr $C$DW$39, DW_AT_TI_symbol_name("MaxValue")
     613                            .dwattr $C$DW$39, DW_AT_data_member_location[DW_OP_plus_uconst 0x24]
     614                            .dwattr $C$DW$39, DW_AT_accessibility(DW_ACCESS_public)
     615                            .dwattr $C$DW$39, DW_AT_decl_file("C:\ti\simplelink_cc13x0_sdk_2_30_00_20\source\ti\devices\cc
     616                            .dwattr $C$DW$39, DW_AT_decl_line(0x7f)
     617                            .dwattr $C$DW$39, DW_AT_decl_column(0x25)
     618                    
     619                    $C$DW$40        .dwtag  DW_TAG_member
     620                            .dwattr $C$DW$40, DW_AT_type(*$C$DW$T$53)
     621                            .dwattr $C$DW$40, DW_AT_name("MeanValue")
     622                            .dwattr $C$DW$40, DW_AT_TI_symbol_name("MeanValue")
     623                            .dwattr $C$DW$40, DW_AT_data_member_location[DW_OP_plus_uconst 0x28]
     624                            .dwattr $C$DW$40, DW_AT_accessibility(DW_ACCESS_public)
     625                            .dwattr $C$DW$40, DW_AT_decl_file("C:\ti\simplelink_cc13x0_sdk_2_30_00_20\source\ti\devices\cc
     626                            .dwattr $C$DW$40, DW_AT_decl_line(0x80)
     627                            .dwattr $C$DW$40, DW_AT_decl_column(0x25)
     628                    
     629                    $C$DW$41        .dwtag  DW_TAG_member
     630                            .dwattr $C$DW$41, DW_AT_type(*$C$DW$T$54)
     631                            .dwattr $C$DW$41, DW_AT_name("StandDeviationValue")
     632                            .dwattr $C$DW$41, DW_AT_TI_symbol_name("StandDeviationValue")
     633                            .dwattr $C$DW$41, DW_AT_data_member_location[DW_OP_plus_uconst 0x2c]
     634                            .dwattr $C$DW$41, DW_AT_accessibility(DW_ACCESS_public)
     635                            .dwattr $C$DW$41, DW_AT_decl_file("C:\ti\simplelink_cc13x0_sdk_2_30_00_20\source\ti\devices\cc
     636                            .dwattr $C$DW$41, DW_AT_decl_line(0x81)
     637                            .dwattr $C$DW$41, DW_AT_decl_column(0x25)
     638                    
     639                    $C$DW$42        .dwtag  DW_TAG_member
     640                            .dwattr $C$DW$42, DW_AT_type(*$C$DW$T$57)
     641                            .dwattr $C$DW$42, DW_AT_name("ReservedLocation4")
     642                            .dwattr $C$DW$42, DW_AT_TI_symbol_name("ReservedLocation4")
     643                            .dwattr $C$DW$42, DW_AT_data_member_location[DW_OP_plus_uconst 0x30]
     644                            .dwattr $C$DW$42, DW_AT_accessibility(DW_ACCESS_public)
     645                            .dwattr $C$DW$42, DW_AT_decl_file("C:\ti\simplelink_cc13x0_sdk_2_30_00_20\source\ti\devices\cc
     646                            .dwattr $C$DW$42, DW_AT_decl_line(0x82)
     647                            .dwattr $C$DW$42, DW_AT_decl_column(0x25)
     648                    
     649                    $C$DW$43        .dwtag  DW_TAG_member
     650                            .dwattr $C$DW$43, DW_AT_type(*$C$DW$T$58)
     651                            .dwattr $C$DW$43, DW_AT_name("ReservedLocation5")
     652                            .dwattr $C$DW$43, DW_AT_TI_symbol_name("ReservedLocation5")
     653                            .dwattr $C$DW$43, DW_AT_data_member_location[DW_OP_plus_uconst 0x34]
     654                            .dwattr $C$DW$43, DW_AT_accessibility(DW_ACCESS_public)
     655                            .dwattr $C$DW$43, DW_AT_decl_file("C:\ti\simplelink_cc13x0_sdk_2_30_00_20\source\ti\devices\cc
     656                            .dwattr $C$DW$43, DW_AT_decl_line(0x83)
     657                            .dwattr $C$DW$43, DW_AT_decl_column(0x25)
     658                    
     659                    $C$DW$44        .dwtag  DW_TAG_member
     660                            .dwattr $C$DW$44, DW_AT_type(*$C$DW$T$59)
TI ARM Assembler PC v18.1.3 Wed Nov 28 13:34:39 2018

Tools Copyright (c) 1996-2017 Texas Instruments Incorporated
C:\Users\Adrian\AppData\Local\Temp\{DE9C6956-9654-4461-9319-00DA2038484A} PAGE   13

     661                            .dwattr $C$DW$44, DW_AT_name("HFSourceSafeSwitch")
     662                            .dwattr $C$DW$44, DW_AT_TI_symbol_name("HFSourceSafeSwitch")
     663                            .dwattr $C$DW$44, DW_AT_data_member_location[DW_OP_plus_uconst 0x38]
     664                            .dwattr $C$DW$44, DW_AT_accessibility(DW_ACCESS_public)
     665                            .dwattr $C$DW$44, DW_AT_decl_file("C:\ti\simplelink_cc13x0_sdk_2_30_00_20\source\ti\devices\cc
     666                            .dwattr $C$DW$44, DW_AT_decl_line(0x84)
     667                            .dwattr $C$DW$44, DW_AT_decl_column(0x25)
     668                    
     669                    $C$DW$45        .dwtag  DW_TAG_member
     670                            .dwattr $C$DW$45, DW_AT_type(*$C$DW$T$62)
     671                            .dwattr $C$DW$45, DW_AT_name("SelectCompAInput")
     672                            .dwattr $C$DW$45, DW_AT_TI_symbol_name("SelectCompAInput")
     673                            .dwattr $C$DW$45, DW_AT_data_member_location[DW_OP_plus_uconst 0x3c]
     674                            .dwattr $C$DW$45, DW_AT_accessibility(DW_ACCESS_public)
     675                            .dwattr $C$DW$45, DW_AT_decl_file("C:\ti\simplelink_cc13x0_sdk_2_30_00_20\source\ti\devices\cc
     676                            .dwattr $C$DW$45, DW_AT_decl_line(0x85)
     677                            .dwattr $C$DW$45, DW_AT_decl_column(0x25)
     678                    
     679                    $C$DW$46        .dwtag  DW_TAG_member
     680                            .dwattr $C$DW$46, DW_AT_type(*$C$DW$T$63)
     681                            .dwattr $C$DW$46, DW_AT_name("SelectCompARef")
     682                            .dwattr $C$DW$46, DW_AT_TI_symbol_name("SelectCompARef")
     683                            .dwattr $C$DW$46, DW_AT_data_member_location[DW_OP_plus_uconst 0x40]
     684                            .dwattr $C$DW$46, DW_AT_accessibility(DW_ACCESS_public)
     685                            .dwattr $C$DW$46, DW_AT_decl_file("C:\ti\simplelink_cc13x0_sdk_2_30_00_20\source\ti\devices\cc
     686                            .dwattr $C$DW$46, DW_AT_decl_line(0x86)
     687                            .dwattr $C$DW$46, DW_AT_decl_column(0x25)
     688                    
     689                    $C$DW$47        .dwtag  DW_TAG_member
     690                            .dwattr $C$DW$47, DW_AT_type(*$C$DW$T$64)
     691                            .dwattr $C$DW$47, DW_AT_name("SelectADCCompBInput")
     692                            .dwattr $C$DW$47, DW_AT_TI_symbol_name("SelectADCCompBInput")
     693                            .dwattr $C$DW$47, DW_AT_data_member_location[DW_OP_plus_uconst 0x44]
     694                            .dwattr $C$DW$47, DW_AT_accessibility(DW_ACCESS_public)
     695                            .dwattr $C$DW$47, DW_AT_decl_file("C:\ti\simplelink_cc13x0_sdk_2_30_00_20\source\ti\devices\cc
     696                            .dwattr $C$DW$47, DW_AT_decl_line(0x87)
     697                            .dwattr $C$DW$47, DW_AT_decl_column(0x25)
     698                    
     699                    $C$DW$48        .dwtag  DW_TAG_member
     700                            .dwattr $C$DW$48, DW_AT_type(*$C$DW$T$65)
     701                            .dwattr $C$DW$48, DW_AT_name("SelectCompBRef")
     702                            .dwattr $C$DW$48, DW_AT_TI_symbol_name("SelectCompBRef")
     703                            .dwattr $C$DW$48, DW_AT_data_member_location[DW_OP_plus_uconst 0x48]
     704                            .dwattr $C$DW$48, DW_AT_accessibility(DW_ACCESS_public)
     705                            .dwattr $C$DW$48, DW_AT_decl_file("C:\ti\simplelink_cc13x0_sdk_2_30_00_20\source\ti\devices\cc
     706                            .dwattr $C$DW$48, DW_AT_decl_line(0x88)
     707                            .dwattr $C$DW$48, DW_AT_decl_column(0x25)
     708                    
     709                            .dwattr $C$DW$T$66, DW_AT_decl_file("C:\ti\simplelink_cc13x0_sdk_2_30_00_20\source\ti\devices\
     710                            .dwattr $C$DW$T$66, DW_AT_decl_line(0x75)
     711                            .dwattr $C$DW$T$66, DW_AT_decl_column(0x01)
     712                            .dwendtag $C$DW$T$66
     713                    
     714                    $C$DW$T$183     .dwtag  DW_TAG_typedef
     715                            .dwattr $C$DW$T$183, DW_AT_name("HARD_API_T")
TI ARM Assembler PC v18.1.3 Wed Nov 28 13:34:39 2018

Tools Copyright (c) 1996-2017 Texas Instruments Incorporated
C:\Users\Adrian\AppData\Local\Temp\{DE9C6956-9654-4461-9319-00DA2038484A} PAGE   14

     716                            .dwattr $C$DW$T$183, DW_AT_type(*$C$DW$T$66)
     717                            .dwattr $C$DW$T$183, DW_AT_language(DW_LANG_C)
     718                            .dwattr $C$DW$T$183, DW_AT_decl_file("C:\ti\simplelink_cc13x0_sdk_2_30_00_20\source\ti\devices
     719                            .dwattr $C$DW$T$183, DW_AT_decl_line(0x89)
     720                            .dwattr $C$DW$T$183, DW_AT_decl_column(0x03)
     721                    
     722                    
     723                    $C$DW$T$69      .dwtag  DW_TAG_structure_type
     724                            .dwattr $C$DW$T$69, DW_AT_name(".ggroup1")
     725                            .dwattr $C$DW$T$69, DW_AT_byte_size(0x408)
     726                    $C$DW$49        .dwtag  DW_TAG_member
     727                            .dwattr $C$DW$49, DW_AT_type(*$C$DW$T$9)
     728                            .dwattr $C$DW$49, DW_AT_name("uartPrintf_head")
     729                            .dwattr $C$DW$49, DW_AT_TI_symbol_name("uartPrintf_head")
     730                            .dwattr $C$DW$49, DW_AT_data_member_location[DW_OP_plus_uconst 0x0]
     731                            .dwattr $C$DW$49, DW_AT_accessibility(DW_ACCESS_public)
     732                    
     733                    $C$DW$50        .dwtag  DW_TAG_member
     734                            .dwattr $C$DW$50, DW_AT_type(*$C$DW$T$9)
     735                            .dwattr $C$DW$50, DW_AT_name("uartPrintf_tail")
     736                            .dwattr $C$DW$50, DW_AT_TI_symbol_name("uartPrintf_tail")
     737                            .dwattr $C$DW$50, DW_AT_data_member_location[DW_OP_plus_uconst 0x2]
     738                            .dwattr $C$DW$50, DW_AT_accessibility(DW_ACCESS_public)
     739                    
     740                    $C$DW$51        .dwtag  DW_TAG_member
     741                            .dwattr $C$DW$51, DW_AT_type(*$C$DW$T$67)
     742                            .dwattr $C$DW$51, DW_AT_name("hUart")
     743                            .dwattr $C$DW$51, DW_AT_TI_symbol_name("hUart")
     744                            .dwattr $C$DW$51, DW_AT_data_member_location[DW_OP_plus_uconst 0x4]
     745                            .dwattr $C$DW$51, DW_AT_accessibility(DW_ACCESS_public)
     746                    
     747                    $C$DW$52        .dwtag  DW_TAG_member
     748                            .dwattr $C$DW$52, DW_AT_type(*$C$DW$T$68)
     749                            .dwattr $C$DW$52, DW_AT_name("uartPrintf_outArray")
     750                            .dwattr $C$DW$52, DW_AT_TI_symbol_name("uartPrintf_outArray")
     751                            .dwattr $C$DW$52, DW_AT_data_member_location[DW_OP_plus_uconst 0x8]
     752                            .dwattr $C$DW$52, DW_AT_accessibility(DW_ACCESS_public)
     753                    
     754                            .dwendtag $C$DW$T$69
     755                    
     756                    
     757                    $C$DW$T$185     .dwtag  DW_TAG_enumeration_type
     758                            .dwattr $C$DW$T$185, DW_AT_name("CC1350_LAUNCHXL_ADCBuf0ChannelName")
     759                            .dwattr $C$DW$T$185, DW_AT_byte_size(0x01)
     760                    $C$DW$53        .dwtag  DW_TAG_enumerator
     761                            .dwattr $C$DW$53, DW_AT_name("CC1350_LAUNCHXL_ADCBUF0CHANNEL0")
     762                            .dwattr $C$DW$53, DW_AT_const_value(0x00)
     763                            .dwattr $C$DW$53, DW_AT_decl_file("C:\ti\simplelink_cc13x0_sdk_2_30_00_20\examples\rtos\CC1350
     764                            .dwattr $C$DW$53, DW_AT_decl_line(0xba)
     765                            .dwattr $C$DW$53, DW_AT_decl_column(0x05)
     766                    
     767                    $C$DW$54        .dwtag  DW_TAG_enumerator
     768                            .dwattr $C$DW$54, DW_AT_name("CC1350_LAUNCHXL_ADCBUF0CHANNEL1")
     769                            .dwattr $C$DW$54, DW_AT_const_value(0x01)
     770                            .dwattr $C$DW$54, DW_AT_decl_file("C:\ti\simplelink_cc13x0_sdk_2_30_00_20\examples\rtos\CC1350
TI ARM Assembler PC v18.1.3 Wed Nov 28 13:34:39 2018

Tools Copyright (c) 1996-2017 Texas Instruments Incorporated
C:\Users\Adrian\AppData\Local\Temp\{DE9C6956-9654-4461-9319-00DA2038484A} PAGE   15

     771                            .dwattr $C$DW$54, DW_AT_decl_line(0xbb)
     772                            .dwattr $C$DW$54, DW_AT_decl_column(0x05)
     773                    
     774                    $C$DW$55        .dwtag  DW_TAG_enumerator
     775                            .dwattr $C$DW$55, DW_AT_name("CC1350_LAUNCHXL_ADCBUF0CHANNEL2")
     776                            .dwattr $C$DW$55, DW_AT_const_value(0x02)
     777                            .dwattr $C$DW$55, DW_AT_decl_file("C:\ti\simplelink_cc13x0_sdk_2_30_00_20\examples\rtos\CC1350
     778                            .dwattr $C$DW$55, DW_AT_decl_line(0xbc)
     779                            .dwattr $C$DW$55, DW_AT_decl_column(0x05)
     780                    
     781                    $C$DW$56        .dwtag  DW_TAG_enumerator
     782                            .dwattr $C$DW$56, DW_AT_name("CC1350_LAUNCHXL_ADCBUF0CHANNEL3")
     783                            .dwattr $C$DW$56, DW_AT_const_value(0x03)
     784                            .dwattr $C$DW$56, DW_AT_decl_file("C:\ti\simplelink_cc13x0_sdk_2_30_00_20\examples\rtos\CC1350
     785                            .dwattr $C$DW$56, DW_AT_decl_line(0xbd)
     786                            .dwattr $C$DW$56, DW_AT_decl_column(0x05)
     787                    
     788                    $C$DW$57        .dwtag  DW_TAG_enumerator
     789                            .dwattr $C$DW$57, DW_AT_name("CC1350_LAUNCHXL_ADCBUF0CHANNEL4")
     790                            .dwattr $C$DW$57, DW_AT_const_value(0x04)
     791                            .dwattr $C$DW$57, DW_AT_decl_file("C:\ti\simplelink_cc13x0_sdk_2_30_00_20\examples\rtos\CC1350
     792                            .dwattr $C$DW$57, DW_AT_decl_line(0xbe)
     793                            .dwattr $C$DW$57, DW_AT_decl_column(0x05)
     794                    
     795                    $C$DW$58        .dwtag  DW_TAG_enumerator
     796                            .dwattr $C$DW$58, DW_AT_name("CC1350_LAUNCHXL_ADCBUF0CHANNEL5")
     797                            .dwattr $C$DW$58, DW_AT_const_value(0x05)
     798                            .dwattr $C$DW$58, DW_AT_decl_file("C:\ti\simplelink_cc13x0_sdk_2_30_00_20\examples\rtos\CC1350
     799                            .dwattr $C$DW$58, DW_AT_decl_line(0xbf)
     800                            .dwattr $C$DW$58, DW_AT_decl_column(0x05)
     801                    
     802                    $C$DW$59        .dwtag  DW_TAG_enumerator
     803                            .dwattr $C$DW$59, DW_AT_name("CC1350_LAUNCHXL_ADCBUF0CHANNEL6")
     804                            .dwattr $C$DW$59, DW_AT_const_value(0x06)
     805                            .dwattr $C$DW$59, DW_AT_decl_file("C:\ti\simplelink_cc13x0_sdk_2_30_00_20\examples\rtos\CC1350
     806                            .dwattr $C$DW$59, DW_AT_decl_line(0xc0)
     807                            .dwattr $C$DW$59, DW_AT_decl_column(0x05)
     808                    
     809                    $C$DW$60        .dwtag  DW_TAG_enumerator
     810                            .dwattr $C$DW$60, DW_AT_name("CC1350_LAUNCHXL_ADCBUF0CHANNEL7")
     811                            .dwattr $C$DW$60, DW_AT_const_value(0x07)
     812                            .dwattr $C$DW$60, DW_AT_decl_file("C:\ti\simplelink_cc13x0_sdk_2_30_00_20\examples\rtos\CC1350
     813                            .dwattr $C$DW$60, DW_AT_decl_line(0xc1)
     814                            .dwattr $C$DW$60, DW_AT_decl_column(0x05)
     815                    
     816                    $C$DW$61        .dwtag  DW_TAG_enumerator
     817                            .dwattr $C$DW$61, DW_AT_name("CC1350_LAUNCHXL_ADCBUF0CHANNELVDDS")
     818                            .dwattr $C$DW$61, DW_AT_const_value(0x08)
     819                            .dwattr $C$DW$61, DW_AT_decl_file("C:\ti\simplelink_cc13x0_sdk_2_30_00_20\examples\rtos\CC1350
     820                            .dwattr $C$DW$61, DW_AT_decl_line(0xc2)
     821                            .dwattr $C$DW$61, DW_AT_decl_column(0x05)
     822                    
     823                    $C$DW$62        .dwtag  DW_TAG_enumerator
     824                            .dwattr $C$DW$62, DW_AT_name("CC1350_LAUNCHXL_ADCBUF0CHANNELDCOUPL")
     825                            .dwattr $C$DW$62, DW_AT_const_value(0x09)
TI ARM Assembler PC v18.1.3 Wed Nov 28 13:34:39 2018

Tools Copyright (c) 1996-2017 Texas Instruments Incorporated
C:\Users\Adrian\AppData\Local\Temp\{DE9C6956-9654-4461-9319-00DA2038484A} PAGE   16

     826                            .dwattr $C$DW$62, DW_AT_decl_file("C:\ti\simplelink_cc13x0_sdk_2_30_00_20\examples\rtos\CC1350
     827                            .dwattr $C$DW$62, DW_AT_decl_line(0xc3)
     828                            .dwattr $C$DW$62, DW_AT_decl_column(0x05)
     829                    
     830                    $C$DW$63        .dwtag  DW_TAG_enumerator
     831                            .dwattr $C$DW$63, DW_AT_name("CC1350_LAUNCHXL_ADCBUF0CHANNELVSS")
     832                            .dwattr $C$DW$63, DW_AT_const_value(0x0a)
     833                            .dwattr $C$DW$63, DW_AT_decl_file("C:\ti\simplelink_cc13x0_sdk_2_30_00_20\examples\rtos\CC1350
     834                            .dwattr $C$DW$63, DW_AT_decl_line(0xc4)
     835                            .dwattr $C$DW$63, DW_AT_decl_column(0x05)
     836                    
     837                    $C$DW$64        .dwtag  DW_TAG_enumerator
     838                            .dwattr $C$DW$64, DW_AT_name("CC1350_LAUNCHXL_ADCBUF0CHANNELCOUNT")
     839                            .dwattr $C$DW$64, DW_AT_const_value(0x0b)
     840                            .dwattr $C$DW$64, DW_AT_decl_file("C:\ti\simplelink_cc13x0_sdk_2_30_00_20\examples\rtos\CC1350
     841                            .dwattr $C$DW$64, DW_AT_decl_line(0xc6)
     842                            .dwattr $C$DW$64, DW_AT_decl_column(0x05)
     843                    
     844                            .dwattr $C$DW$T$185, DW_AT_decl_file("C:\ti\simplelink_cc13x0_sdk_2_30_00_20\examples\rtos\CC1
     845                            .dwattr $C$DW$T$185, DW_AT_decl_line(0xb9)
     846                            .dwattr $C$DW$T$185, DW_AT_decl_column(0x0e)
     847                            .dwendtag $C$DW$T$185
     848                    
     849                    $C$DW$T$186     .dwtag  DW_TAG_typedef
     850                            .dwattr $C$DW$T$186, DW_AT_name("CC1350_LAUNCHXL_ADCBuf0ChannelName")
     851                            .dwattr $C$DW$T$186, DW_AT_type(*$C$DW$T$185)
     852                            .dwattr $C$DW$T$186, DW_AT_language(DW_LANG_C)
     853                            .dwattr $C$DW$T$186, DW_AT_decl_file("C:\ti\simplelink_cc13x0_sdk_2_30_00_20\examples\rtos\CC1
     854                            .dwattr $C$DW$T$186, DW_AT_decl_line(0xc7)
     855                            .dwattr $C$DW$T$186, DW_AT_decl_column(0x03)
     856                    
     857                    
     858                    $C$DW$T$187     .dwtag  DW_TAG_enumeration_type
     859                            .dwattr $C$DW$T$187, DW_AT_name("CC1350_LAUNCHXL_ADCBufName")
     860                            .dwattr $C$DW$T$187, DW_AT_byte_size(0x01)
     861                    $C$DW$65        .dwtag  DW_TAG_enumerator
     862                            .dwattr $C$DW$65, DW_AT_name("CC1350_LAUNCHXL_ADCBUF0")
     863                            .dwattr $C$DW$65, DW_AT_const_value(0x00)
     864                            .dwattr $C$DW$65, DW_AT_decl_file("C:\ti\simplelink_cc13x0_sdk_2_30_00_20\examples\rtos\CC1350
     865                            .dwattr $C$DW$65, DW_AT_decl_line(0xb0)
     866                            .dwattr $C$DW$65, DW_AT_decl_column(0x05)
     867                    
     868                    $C$DW$66        .dwtag  DW_TAG_enumerator
     869                            .dwattr $C$DW$66, DW_AT_name("CC1350_LAUNCHXL_ADCBUFCOUNT")
     870                            .dwattr $C$DW$66, DW_AT_const_value(0x01)
     871                            .dwattr $C$DW$66, DW_AT_decl_file("C:\ti\simplelink_cc13x0_sdk_2_30_00_20\examples\rtos\CC1350
     872                            .dwattr $C$DW$66, DW_AT_decl_line(0xb2)
     873                            .dwattr $C$DW$66, DW_AT_decl_column(0x05)
     874                    
     875                            .dwattr $C$DW$T$187, DW_AT_decl_file("C:\ti\simplelink_cc13x0_sdk_2_30_00_20\examples\rtos\CC1
     876                            .dwattr $C$DW$T$187, DW_AT_decl_line(0xaf)
     877                            .dwattr $C$DW$T$187, DW_AT_decl_column(0x0e)
     878                            .dwendtag $C$DW$T$187
     879                    
     880                    $C$DW$T$188     .dwtag  DW_TAG_typedef
TI ARM Assembler PC v18.1.3 Wed Nov 28 13:34:39 2018

Tools Copyright (c) 1996-2017 Texas Instruments Incorporated
C:\Users\Adrian\AppData\Local\Temp\{DE9C6956-9654-4461-9319-00DA2038484A} PAGE   17

     881                            .dwattr $C$DW$T$188, DW_AT_name("CC1350_LAUNCHXL_ADCBufName")
     882                            .dwattr $C$DW$T$188, DW_AT_type(*$C$DW$T$187)
     883                            .dwattr $C$DW$T$188, DW_AT_language(DW_LANG_C)
     884                            .dwattr $C$DW$T$188, DW_AT_decl_file("C:\ti\simplelink_cc13x0_sdk_2_30_00_20\examples\rtos\CC1
     885                            .dwattr $C$DW$T$188, DW_AT_decl_line(0xb3)
     886                            .dwattr $C$DW$T$188, DW_AT_decl_column(0x03)
     887                    
     888                    
     889                    $C$DW$T$189     .dwtag  DW_TAG_enumeration_type
     890                            .dwattr $C$DW$T$189, DW_AT_name("CC1350_LAUNCHXL_ADCName")
     891                            .dwattr $C$DW$T$189, DW_AT_byte_size(0x01)
     892                    $C$DW$67        .dwtag  DW_TAG_enumerator
     893                            .dwattr $C$DW$67, DW_AT_name("CC1350_LAUNCHXL_ADC0")
     894                            .dwattr $C$DW$67, DW_AT_const_value(0x00)
     895                            .dwattr $C$DW$67, DW_AT_decl_file("C:\ti\simplelink_cc13x0_sdk_2_30_00_20\examples\rtos\CC1350
     896                            .dwattr $C$DW$67, DW_AT_decl_line(0xce)
     897                            .dwattr $C$DW$67, DW_AT_decl_column(0x05)
     898                    
     899                    $C$DW$68        .dwtag  DW_TAG_enumerator
     900                            .dwattr $C$DW$68, DW_AT_name("CC1350_LAUNCHXL_ADC1")
     901                            .dwattr $C$DW$68, DW_AT_const_value(0x01)
     902                            .dwattr $C$DW$68, DW_AT_decl_file("C:\ti\simplelink_cc13x0_sdk_2_30_00_20\examples\rtos\CC1350
     903                            .dwattr $C$DW$68, DW_AT_decl_line(0xcf)
     904                            .dwattr $C$DW$68, DW_AT_decl_column(0x05)
     905                    
     906                    $C$DW$69        .dwtag  DW_TAG_enumerator
     907                            .dwattr $C$DW$69, DW_AT_name("CC1350_LAUNCHXL_ADC2")
     908                            .dwattr $C$DW$69, DW_AT_const_value(0x02)
     909                            .dwattr $C$DW$69, DW_AT_decl_file("C:\ti\simplelink_cc13x0_sdk_2_30_00_20\examples\rtos\CC1350
     910                            .dwattr $C$DW$69, DW_AT_decl_line(0xd0)
     911                            .dwattr $C$DW$69, DW_AT_decl_column(0x05)
     912                    
     913                    $C$DW$70        .dwtag  DW_TAG_enumerator
     914                            .dwattr $C$DW$70, DW_AT_name("CC1350_LAUNCHXL_ADC3")
     915                            .dwattr $C$DW$70, DW_AT_const_value(0x03)
     916                            .dwattr $C$DW$70, DW_AT_decl_file("C:\ti\simplelink_cc13x0_sdk_2_30_00_20\examples\rtos\CC1350
     917                            .dwattr $C$DW$70, DW_AT_decl_line(0xd1)
     918                            .dwattr $C$DW$70, DW_AT_decl_column(0x05)
     919                    
     920                    $C$DW$71        .dwtag  DW_TAG_enumerator
     921                            .dwattr $C$DW$71, DW_AT_name("CC1350_LAUNCHXL_ADC4")
     922                            .dwattr $C$DW$71, DW_AT_const_value(0x04)
     923                            .dwattr $C$DW$71, DW_AT_decl_file("C:\ti\simplelink_cc13x0_sdk_2_30_00_20\examples\rtos\CC1350
     924                            .dwattr $C$DW$71, DW_AT_decl_line(0xd2)
     925                            .dwattr $C$DW$71, DW_AT_decl_column(0x05)
     926                    
     927                    $C$DW$72        .dwtag  DW_TAG_enumerator
     928                            .dwattr $C$DW$72, DW_AT_name("CC1350_LAUNCHXL_ADC5")
     929                            .dwattr $C$DW$72, DW_AT_const_value(0x05)
     930                            .dwattr $C$DW$72, DW_AT_decl_file("C:\ti\simplelink_cc13x0_sdk_2_30_00_20\examples\rtos\CC1350
     931                            .dwattr $C$DW$72, DW_AT_decl_line(0xd3)
     932                            .dwattr $C$DW$72, DW_AT_decl_column(0x05)
     933                    
     934                    $C$DW$73        .dwtag  DW_TAG_enumerator
     935                            .dwattr $C$DW$73, DW_AT_name("CC1350_LAUNCHXL_ADC6")
TI ARM Assembler PC v18.1.3 Wed Nov 28 13:34:39 2018

Tools Copyright (c) 1996-2017 Texas Instruments Incorporated
C:\Users\Adrian\AppData\Local\Temp\{DE9C6956-9654-4461-9319-00DA2038484A} PAGE   18

     936                            .dwattr $C$DW$73, DW_AT_const_value(0x06)
     937                            .dwattr $C$DW$73, DW_AT_decl_file("C:\ti\simplelink_cc13x0_sdk_2_30_00_20\examples\rtos\CC1350
     938                            .dwattr $C$DW$73, DW_AT_decl_line(0xd4)
     939                            .dwattr $C$DW$73, DW_AT_decl_column(0x05)
     940                    
     941                    $C$DW$74        .dwtag  DW_TAG_enumerator
     942                            .dwattr $C$DW$74, DW_AT_name("CC1350_LAUNCHXL_ADC7")
     943                            .dwattr $C$DW$74, DW_AT_const_value(0x07)
     944                            .dwattr $C$DW$74, DW_AT_decl_file("C:\ti\simplelink_cc13x0_sdk_2_30_00_20\examples\rtos\CC1350
     945                            .dwattr $C$DW$74, DW_AT_decl_line(0xd5)
     946                            .dwattr $C$DW$74, DW_AT_decl_column(0x05)
     947                    
     948                    $C$DW$75        .dwtag  DW_TAG_enumerator
     949                            .dwattr $C$DW$75, DW_AT_name("CC1350_LAUNCHXL_ADCDCOUPL")
     950                            .dwattr $C$DW$75, DW_AT_const_value(0x08)
     951                            .dwattr $C$DW$75, DW_AT_decl_file("C:\ti\simplelink_cc13x0_sdk_2_30_00_20\examples\rtos\CC1350
     952                            .dwattr $C$DW$75, DW_AT_decl_line(0xd6)
     953                            .dwattr $C$DW$75, DW_AT_decl_column(0x05)
     954                    
     955                    $C$DW$76        .dwtag  DW_TAG_enumerator
     956                            .dwattr $C$DW$76, DW_AT_name("CC1350_LAUNCHXL_ADCVSS")
     957                            .dwattr $C$DW$76, DW_AT_const_value(0x09)
     958                            .dwattr $C$DW$76, DW_AT_decl_file("C:\ti\simplelink_cc13x0_sdk_2_30_00_20\examples\rtos\CC1350
     959                            .dwattr $C$DW$76, DW_AT_decl_line(0xd7)
     960                            .dwattr $C$DW$76, DW_AT_decl_column(0x05)
     961                    
     962                    $C$DW$77        .dwtag  DW_TAG_enumerator
     963                            .dwattr $C$DW$77, DW_AT_name("CC1350_LAUNCHXL_ADCVDDS")
     964                            .dwattr $C$DW$77, DW_AT_const_value(0x0a)
     965                            .dwattr $C$DW$77, DW_AT_decl_file("C:\ti\simplelink_cc13x0_sdk_2_30_00_20\examples\rtos\CC1350
     966                            .dwattr $C$DW$77, DW_AT_decl_line(0xd8)
     967                            .dwattr $C$DW$77, DW_AT_decl_column(0x05)
     968                    
     969                    $C$DW$78        .dwtag  DW_TAG_enumerator
     970                            .dwattr $C$DW$78, DW_AT_name("CC1350_LAUNCHXL_ADCCOUNT")
     971                            .dwattr $C$DW$78, DW_AT_const_value(0x0b)
     972                            .dwattr $C$DW$78, DW_AT_decl_file("C:\ti\simplelink_cc13x0_sdk_2_30_00_20\examples\rtos\CC1350
     973                            .dwattr $C$DW$78, DW_AT_decl_line(0xda)
     974                            .dwattr $C$DW$78, DW_AT_decl_column(0x05)
     975                    
     976                            .dwattr $C$DW$T$189, DW_AT_decl_file("C:\ti\simplelink_cc13x0_sdk_2_30_00_20\examples\rtos\CC1
     977                            .dwattr $C$DW$T$189, DW_AT_decl_line(0xcd)
     978                            .dwattr $C$DW$T$189, DW_AT_decl_column(0x0e)
     979                            .dwendtag $C$DW$T$189
     980                    
     981                    $C$DW$T$190     .dwtag  DW_TAG_typedef
     982                            .dwattr $C$DW$T$190, DW_AT_name("CC1350_LAUNCHXL_ADCName")
     983                            .dwattr $C$DW$T$190, DW_AT_type(*$C$DW$T$189)
     984                            .dwattr $C$DW$T$190, DW_AT_language(DW_LANG_C)
     985                            .dwattr $C$DW$T$190, DW_AT_decl_file("C:\ti\simplelink_cc13x0_sdk_2_30_00_20\examples\rtos\CC1
     986                            .dwattr $C$DW$T$190, DW_AT_decl_line(0xdb)
     987                            .dwattr $C$DW$T$190, DW_AT_decl_column(0x03)
     988                    
     989                    
     990                    $C$DW$T$191     .dwtag  DW_TAG_enumeration_type
TI ARM Assembler PC v18.1.3 Wed Nov 28 13:34:39 2018

Tools Copyright (c) 1996-2017 Texas Instruments Incorporated
C:\Users\Adrian\AppData\Local\Temp\{DE9C6956-9654-4461-9319-00DA2038484A} PAGE   19

     991                            .dwattr $C$DW$T$191, DW_AT_name("CC1350_LAUNCHXL_CryptoName")
     992                            .dwattr $C$DW$T$191, DW_AT_byte_size(0x01)
     993                    $C$DW$79        .dwtag  DW_TAG_enumerator
     994                            .dwattr $C$DW$79, DW_AT_name("CC1350_LAUNCHXL_CRYPTO0")
     995                            .dwattr $C$DW$79, DW_AT_const_value(0x00)
     996                            .dwattr $C$DW$79, DW_AT_decl_file("C:\ti\simplelink_cc13x0_sdk_2_30_00_20\examples\rtos\CC1350
     997                            .dwattr $C$DW$79, DW_AT_decl_line(0xe2)
     998                            .dwattr $C$DW$79, DW_AT_decl_column(0x05)
     999                    
    1000                    $C$DW$80        .dwtag  DW_TAG_enumerator
    1001                            .dwattr $C$DW$80, DW_AT_name("CC1350_LAUNCHXL_CRYPTOCOUNT")
    1002                            .dwattr $C$DW$80, DW_AT_const_value(0x01)
    1003                            .dwattr $C$DW$80, DW_AT_decl_file("C:\ti\simplelink_cc13x0_sdk_2_30_00_20\examples\rtos\CC1350
    1004                            .dwattr $C$DW$80, DW_AT_decl_line(0xe4)
    1005                            .dwattr $C$DW$80, DW_AT_decl_column(0x05)
    1006                    
    1007                            .dwattr $C$DW$T$191, DW_AT_decl_file("C:\ti\simplelink_cc13x0_sdk_2_30_00_20\examples\rtos\CC1
    1008                            .dwattr $C$DW$T$191, DW_AT_decl_line(0xe1)
    1009                            .dwattr $C$DW$T$191, DW_AT_decl_column(0x0e)
    1010                            .dwendtag $C$DW$T$191
    1011                    
    1012                    $C$DW$T$192     .dwtag  DW_TAG_typedef
    1013                            .dwattr $C$DW$T$192, DW_AT_name("CC1350_LAUNCHXL_CryptoName")
    1014                            .dwattr $C$DW$T$192, DW_AT_type(*$C$DW$T$191)
    1015                            .dwattr $C$DW$T$192, DW_AT_language(DW_LANG_C)
    1016                            .dwattr $C$DW$T$192, DW_AT_decl_file("C:\ti\simplelink_cc13x0_sdk_2_30_00_20\examples\rtos\CC1
    1017                            .dwattr $C$DW$T$192, DW_AT_decl_line(0xe5)
    1018                            .dwattr $C$DW$T$192, DW_AT_decl_column(0x03)
    1019                    
    1020                    
    1021                    $C$DW$T$193     .dwtag  DW_TAG_enumeration_type
    1022                            .dwattr $C$DW$T$193, DW_AT_name("CC1350_LAUNCHXL_GPIOName")
    1023                            .dwattr $C$DW$T$193, DW_AT_byte_size(0x01)
    1024                    $C$DW$81        .dwtag  DW_TAG_enumerator
    1025                            .dwattr $C$DW$81, DW_AT_name("CC1350_LAUNCHXL_GPIO_S1")
    1026                            .dwattr $C$DW$81, DW_AT_const_value(0x00)
    1027                            .dwattr $C$DW$81, DW_AT_decl_file("C:\ti\simplelink_cc13x0_sdk_2_30_00_20\examples\rtos\CC1350
    1028                            .dwattr $C$DW$81, DW_AT_decl_line(0xec)
    1029                            .dwattr $C$DW$81, DW_AT_decl_column(0x05)
    1030                    
    1031                    $C$DW$82        .dwtag  DW_TAG_enumerator
    1032                            .dwattr $C$DW$82, DW_AT_name("CC1350_LAUNCHXL_GPIO_S2")
    1033                            .dwattr $C$DW$82, DW_AT_const_value(0x01)
    1034                            .dwattr $C$DW$82, DW_AT_decl_file("C:\ti\simplelink_cc13x0_sdk_2_30_00_20\examples\rtos\CC1350
    1035                            .dwattr $C$DW$82, DW_AT_decl_line(0xed)
    1036                            .dwattr $C$DW$82, DW_AT_decl_column(0x05)
    1037                    
    1038                    $C$DW$83        .dwtag  DW_TAG_enumerator
    1039                            .dwattr $C$DW$83, DW_AT_name("CC1350_LAUNCHXL_SPI_MASTER_READY")
    1040                            .dwattr $C$DW$83, DW_AT_const_value(0x02)
    1041                            .dwattr $C$DW$83, DW_AT_decl_file("C:\ti\simplelink_cc13x0_sdk_2_30_00_20\examples\rtos\CC1350
    1042                            .dwattr $C$DW$83, DW_AT_decl_line(0xee)
    1043                            .dwattr $C$DW$83, DW_AT_decl_column(0x05)
    1044                    
    1045                    $C$DW$84        .dwtag  DW_TAG_enumerator
TI ARM Assembler PC v18.1.3 Wed Nov 28 13:34:39 2018

Tools Copyright (c) 1996-2017 Texas Instruments Incorporated
C:\Users\Adrian\AppData\Local\Temp\{DE9C6956-9654-4461-9319-00DA2038484A} PAGE   20

    1046                            .dwattr $C$DW$84, DW_AT_name("CC1350_LAUNCHXL_SPI_SLAVE_READY")
    1047                            .dwattr $C$DW$84, DW_AT_const_value(0x03)
    1048                            .dwattr $C$DW$84, DW_AT_decl_file("C:\ti\simplelink_cc13x0_sdk_2_30_00_20\examples\rtos\CC1350
    1049                            .dwattr $C$DW$84, DW_AT_decl_line(0xef)
    1050                            .dwattr $C$DW$84, DW_AT_decl_column(0x05)
    1051                    
    1052                    $C$DW$85        .dwtag  DW_TAG_enumerator
    1053                            .dwattr $C$DW$85, DW_AT_name("CC1350_LAUNCHXL_GPIO_LED_GREEN")
    1054                            .dwattr $C$DW$85, DW_AT_const_value(0x04)
    1055                            .dwattr $C$DW$85, DW_AT_decl_file("C:\ti\simplelink_cc13x0_sdk_2_30_00_20\examples\rtos\CC1350
    1056                            .dwattr $C$DW$85, DW_AT_decl_line(0xf0)
    1057                            .dwattr $C$DW$85, DW_AT_decl_column(0x05)
    1058                    
    1059                    $C$DW$86        .dwtag  DW_TAG_enumerator
    1060                            .dwattr $C$DW$86, DW_AT_name("CC1350_LAUNCHXL_GPIO_LED_RED")
    1061                            .dwattr $C$DW$86, DW_AT_const_value(0x05)
    1062                            .dwattr $C$DW$86, DW_AT_decl_file("C:\ti\simplelink_cc13x0_sdk_2_30_00_20\examples\rtos\CC1350
    1063                            .dwattr $C$DW$86, DW_AT_decl_line(0xf1)
    1064                            .dwattr $C$DW$86, DW_AT_decl_column(0x05)
    1065                    
    1066                    $C$DW$87        .dwtag  DW_TAG_enumerator
    1067                            .dwattr $C$DW$87, DW_AT_name("CC1350_LAUNCHXL_GPIO_SPI_FLASH_CS")
    1068                            .dwattr $C$DW$87, DW_AT_const_value(0x06)
    1069                            .dwattr $C$DW$87, DW_AT_decl_file("C:\ti\simplelink_cc13x0_sdk_2_30_00_20\examples\rtos\CC1350
    1070                            .dwattr $C$DW$87, DW_AT_decl_line(0xf2)
    1071                            .dwattr $C$DW$87, DW_AT_decl_column(0x05)
    1072                    
    1073                    $C$DW$88        .dwtag  DW_TAG_enumerator
    1074                            .dwattr $C$DW$88, DW_AT_name("CC1350_LAUNCHXL_SDSPI_CS")
    1075                            .dwattr $C$DW$88, DW_AT_const_value(0x07)
    1076                            .dwattr $C$DW$88, DW_AT_decl_file("C:\ti\simplelink_cc13x0_sdk_2_30_00_20\examples\rtos\CC1350
    1077                            .dwattr $C$DW$88, DW_AT_decl_line(0xf3)
    1078                            .dwattr $C$DW$88, DW_AT_decl_column(0x05)
    1079                    
    1080                    $C$DW$89        .dwtag  DW_TAG_enumerator
    1081                            .dwattr $C$DW$89, DW_AT_name("CC1350_LAUNCHXL_GPIO_LCD_CS")
    1082                            .dwattr $C$DW$89, DW_AT_const_value(0x08)
    1083                            .dwattr $C$DW$89, DW_AT_decl_file("C:\ti\simplelink_cc13x0_sdk_2_30_00_20\examples\rtos\CC1350
    1084                            .dwattr $C$DW$89, DW_AT_decl_line(0xf4)
    1085                            .dwattr $C$DW$89, DW_AT_decl_column(0x05)
    1086                    
    1087                    $C$DW$90        .dwtag  DW_TAG_enumerator
    1088                            .dwattr $C$DW$90, DW_AT_name("CC1350_LAUNCHXL_GPIO_LCD_POWER")
    1089                            .dwattr $C$DW$90, DW_AT_const_value(0x09)
    1090                            .dwattr $C$DW$90, DW_AT_decl_file("C:\ti\simplelink_cc13x0_sdk_2_30_00_20\examples\rtos\CC1350
    1091                            .dwattr $C$DW$90, DW_AT_decl_line(0xf5)
    1092                            .dwattr $C$DW$90, DW_AT_decl_column(0x05)
    1093                    
    1094                    $C$DW$91        .dwtag  DW_TAG_enumerator
    1095                            .dwattr $C$DW$91, DW_AT_name("CC1350_LAUNCHXL_GPIO_LCD_ENABLE")
    1096                            .dwattr $C$DW$91, DW_AT_const_value(0x0a)
    1097                            .dwattr $C$DW$91, DW_AT_decl_file("C:\ti\simplelink_cc13x0_sdk_2_30_00_20\examples\rtos\CC1350
    1098                            .dwattr $C$DW$91, DW_AT_decl_line(0xf6)
    1099                            .dwattr $C$DW$91, DW_AT_decl_column(0x05)
    1100                    
TI ARM Assembler PC v18.1.3 Wed Nov 28 13:34:39 2018

Tools Copyright (c) 1996-2017 Texas Instruments Incorporated
C:\Users\Adrian\AppData\Local\Temp\{DE9C6956-9654-4461-9319-00DA2038484A} PAGE   21

    1101                    $C$DW$92        .dwtag  DW_TAG_enumerator
    1102                            .dwattr $C$DW$92, DW_AT_name("CC1350_LAUNCHXL_GPIOCOUNT")
    1103                            .dwattr $C$DW$92, DW_AT_const_value(0x0b)
    1104                            .dwattr $C$DW$92, DW_AT_decl_file("C:\ti\simplelink_cc13x0_sdk_2_30_00_20\examples\rtos\CC1350
    1105                            .dwattr $C$DW$92, DW_AT_decl_line(0xf7)
    1106                            .dwattr $C$DW$92, DW_AT_decl_column(0x05)
    1107                    
    1108                            .dwattr $C$DW$T$193, DW_AT_decl_file("C:\ti\simplelink_cc13x0_sdk_2_30_00_20\examples\rtos\CC1
    1109                            .dwattr $C$DW$T$193, DW_AT_decl_line(0xeb)
    1110                            .dwattr $C$DW$T$193, DW_AT_decl_column(0x0e)
    1111                            .dwendtag $C$DW$T$193
    1112                    
    1113                    $C$DW$T$194     .dwtag  DW_TAG_typedef
    1114                            .dwattr $C$DW$T$194, DW_AT_name("CC1350_LAUNCHXL_GPIOName")
    1115                            .dwattr $C$DW$T$194, DW_AT_type(*$C$DW$T$193)
    1116                            .dwattr $C$DW$T$194, DW_AT_language(DW_LANG_C)
    1117                            .dwattr $C$DW$T$194, DW_AT_decl_file("C:\ti\simplelink_cc13x0_sdk_2_30_00_20\examples\rtos\CC1
    1118                            .dwattr $C$DW$T$194, DW_AT_decl_line(0xf8)
    1119                            .dwattr $C$DW$T$194, DW_AT_decl_column(0x03)
    1120                    
    1121                    
    1122                    $C$DW$T$195     .dwtag  DW_TAG_enumeration_type
    1123                            .dwattr $C$DW$T$195, DW_AT_name("CC1350_LAUNCHXL_GPTimerName")
    1124                            .dwattr $C$DW$T$195, DW_AT_byte_size(0x01)
    1125                    $C$DW$93        .dwtag  DW_TAG_enumerator
    1126                            .dwattr $C$DW$93, DW_AT_name("CC1350_LAUNCHXL_GPTIMER0A")
    1127                            .dwattr $C$DW$93, DW_AT_const_value(0x00)
    1128                            .dwattr $C$DW$93, DW_AT_decl_file("C:\ti\simplelink_cc13x0_sdk_2_30_00_20\examples\rtos\CC1350
    1129                            .dwattr $C$DW$93, DW_AT_decl_line(0xff)
    1130                            .dwattr $C$DW$93, DW_AT_decl_column(0x05)
    1131                    
    1132                    $C$DW$94        .dwtag  DW_TAG_enumerator
    1133                            .dwattr $C$DW$94, DW_AT_name("CC1350_LAUNCHXL_GPTIMER0B")
    1134                            .dwattr $C$DW$94, DW_AT_const_value(0x01)
    1135                            .dwattr $C$DW$94, DW_AT_decl_file("C:\ti\simplelink_cc13x0_sdk_2_30_00_20\examples\rtos\CC1350
    1136                            .dwattr $C$DW$94, DW_AT_decl_line(0x100)
    1137                            .dwattr $C$DW$94, DW_AT_decl_column(0x05)
    1138                    
    1139                    $C$DW$95        .dwtag  DW_TAG_enumerator
    1140                            .dwattr $C$DW$95, DW_AT_name("CC1350_LAUNCHXL_GPTIMER1A")
    1141                            .dwattr $C$DW$95, DW_AT_const_value(0x02)
    1142                            .dwattr $C$DW$95, DW_AT_decl_file("C:\ti\simplelink_cc13x0_sdk_2_30_00_20\examples\rtos\CC1350
    1143                            .dwattr $C$DW$95, DW_AT_decl_line(0x101)
    1144                            .dwattr $C$DW$95, DW_AT_decl_column(0x05)
    1145                    
    1146                    $C$DW$96        .dwtag  DW_TAG_enumerator
    1147                            .dwattr $C$DW$96, DW_AT_name("CC1350_LAUNCHXL_GPTIMER1B")
    1148                            .dwattr $C$DW$96, DW_AT_const_value(0x03)
    1149                            .dwattr $C$DW$96, DW_AT_decl_file("C:\ti\simplelink_cc13x0_sdk_2_30_00_20\examples\rtos\CC1350
    1150                            .dwattr $C$DW$96, DW_AT_decl_line(0x102)
    1151                            .dwattr $C$DW$96, DW_AT_decl_column(0x05)
    1152                    
    1153                    $C$DW$97        .dwtag  DW_TAG_enumerator
    1154                            .dwattr $C$DW$97, DW_AT_name("CC1350_LAUNCHXL_GPTIMER2A")
    1155                            .dwattr $C$DW$97, DW_AT_const_value(0x04)
TI ARM Assembler PC v18.1.3 Wed Nov 28 13:34:39 2018

Tools Copyright (c) 1996-2017 Texas Instruments Incorporated
C:\Users\Adrian\AppData\Local\Temp\{DE9C6956-9654-4461-9319-00DA2038484A} PAGE   22

    1156                            .dwattr $C$DW$97, DW_AT_decl_file("C:\ti\simplelink_cc13x0_sdk_2_30_00_20\examples\rtos\CC1350
    1157                            .dwattr $C$DW$97, DW_AT_decl_line(0x103)
    1158                            .dwattr $C$DW$97, DW_AT_decl_column(0x05)
    1159                    
    1160                    $C$DW$98        .dwtag  DW_TAG_enumerator
    1161                            .dwattr $C$DW$98, DW_AT_name("CC1350_LAUNCHXL_GPTIMER2B")
    1162                            .dwattr $C$DW$98, DW_AT_const_value(0x05)
    1163                            .dwattr $C$DW$98, DW_AT_decl_file("C:\ti\simplelink_cc13x0_sdk_2_30_00_20\examples\rtos\CC1350
    1164                            .dwattr $C$DW$98, DW_AT_decl_line(0x104)
    1165                            .dwattr $C$DW$98, DW_AT_decl_column(0x05)
    1166                    
    1167                    $C$DW$99        .dwtag  DW_TAG_enumerator
    1168                            .dwattr $C$DW$99, DW_AT_name("CC1350_LAUNCHXL_GPTIMER3A")
    1169                            .dwattr $C$DW$99, DW_AT_const_value(0x06)
    1170                            .dwattr $C$DW$99, DW_AT_decl_file("C:\ti\simplelink_cc13x0_sdk_2_30_00_20\examples\rtos\CC1350
    1171                            .dwattr $C$DW$99, DW_AT_decl_line(0x105)
    1172                            .dwattr $C$DW$99, DW_AT_decl_column(0x05)
    1173                    
    1174                    $C$DW$100       .dwtag  DW_TAG_enumerator
    1175                            .dwattr $C$DW$100, DW_AT_name("CC1350_LAUNCHXL_GPTIMER3B")
    1176                            .dwattr $C$DW$100, DW_AT_const_value(0x07)
    1177                            .dwattr $C$DW$100, DW_AT_decl_file("C:\ti\simplelink_cc13x0_sdk_2_30_00_20\examples\rtos\CC135
    1178                            .dwattr $C$DW$100, DW_AT_decl_line(0x106)
    1179                            .dwattr $C$DW$100, DW_AT_decl_column(0x05)
    1180                    
    1181                    $C$DW$101       .dwtag  DW_TAG_enumerator
    1182                            .dwattr $C$DW$101, DW_AT_name("CC1350_LAUNCHXL_GPTIMERPARTSCOUNT")
    1183                            .dwattr $C$DW$101, DW_AT_const_value(0x08)
    1184                            .dwattr $C$DW$101, DW_AT_decl_file("C:\ti\simplelink_cc13x0_sdk_2_30_00_20\examples\rtos\CC135
    1185                            .dwattr $C$DW$101, DW_AT_decl_line(0x108)
    1186                            .dwattr $C$DW$101, DW_AT_decl_column(0x05)
    1187                    
    1188                            .dwattr $C$DW$T$195, DW_AT_decl_file("C:\ti\simplelink_cc13x0_sdk_2_30_00_20\examples\rtos\CC1
    1189                            .dwattr $C$DW$T$195, DW_AT_decl_line(0xfe)
    1190                            .dwattr $C$DW$T$195, DW_AT_decl_column(0x0e)
    1191                            .dwendtag $C$DW$T$195
    1192                    
    1193                    $C$DW$T$196     .dwtag  DW_TAG_typedef
    1194                            .dwattr $C$DW$T$196, DW_AT_name("CC1350_LAUNCHXL_GPTimerName")
    1195                            .dwattr $C$DW$T$196, DW_AT_type(*$C$DW$T$195)
    1196                            .dwattr $C$DW$T$196, DW_AT_language(DW_LANG_C)
    1197                            .dwattr $C$DW$T$196, DW_AT_decl_file("C:\ti\simplelink_cc13x0_sdk_2_30_00_20\examples\rtos\CC1
    1198                            .dwattr $C$DW$T$196, DW_AT_decl_line(0x109)
    1199                            .dwattr $C$DW$T$196, DW_AT_decl_column(0x03)
    1200                    
    1201                    
    1202                    $C$DW$T$197     .dwtag  DW_TAG_enumeration_type
    1203                            .dwattr $C$DW$T$197, DW_AT_name("CC1350_LAUNCHXL_GPTimers")
    1204                            .dwattr $C$DW$T$197, DW_AT_byte_size(0x01)
    1205                    $C$DW$102       .dwtag  DW_TAG_enumerator
    1206                            .dwattr $C$DW$102, DW_AT_name("CC1350_LAUNCHXL_GPTIMER0")
    1207                            .dwattr $C$DW$102, DW_AT_const_value(0x00)
    1208                            .dwattr $C$DW$102, DW_AT_decl_file("C:\ti\simplelink_cc13x0_sdk_2_30_00_20\examples\rtos\CC135
    1209                            .dwattr $C$DW$102, DW_AT_decl_line(0x110)
    1210                            .dwattr $C$DW$102, DW_AT_decl_column(0x05)
TI ARM Assembler PC v18.1.3 Wed Nov 28 13:34:39 2018

Tools Copyright (c) 1996-2017 Texas Instruments Incorporated
C:\Users\Adrian\AppData\Local\Temp\{DE9C6956-9654-4461-9319-00DA2038484A} PAGE   23

    1211                    
    1212                    $C$DW$103       .dwtag  DW_TAG_enumerator
    1213                            .dwattr $C$DW$103, DW_AT_name("CC1350_LAUNCHXL_GPTIMER1")
    1214                            .dwattr $C$DW$103, DW_AT_const_value(0x01)
    1215                            .dwattr $C$DW$103, DW_AT_decl_file("C:\ti\simplelink_cc13x0_sdk_2_30_00_20\examples\rtos\CC135
    1216                            .dwattr $C$DW$103, DW_AT_decl_line(0x111)
    1217                            .dwattr $C$DW$103, DW_AT_decl_column(0x05)
    1218                    
    1219                    $C$DW$104       .dwtag  DW_TAG_enumerator
    1220                            .dwattr $C$DW$104, DW_AT_name("CC1350_LAUNCHXL_GPTIMER2")
    1221                            .dwattr $C$DW$104, DW_AT_const_value(0x02)
    1222                            .dwattr $C$DW$104, DW_AT_decl_file("C:\ti\simplelink_cc13x0_sdk_2_30_00_20\examples\rtos\CC135
    1223                            .dwattr $C$DW$104, DW_AT_decl_line(0x112)
    1224                            .dwattr $C$DW$104, DW_AT_decl_column(0x05)
    1225                    
    1226                    $C$DW$105       .dwtag  DW_TAG_enumerator
    1227                            .dwattr $C$DW$105, DW_AT_name("CC1350_LAUNCHXL_GPTIMER3")
    1228                            .dwattr $C$DW$105, DW_AT_const_value(0x03)
    1229                            .dwattr $C$DW$105, DW_AT_decl_file("C:\ti\simplelink_cc13x0_sdk_2_30_00_20\examples\rtos\CC135
    1230                            .dwattr $C$DW$105, DW_AT_decl_line(0x113)
    1231                            .dwattr $C$DW$105, DW_AT_decl_column(0x05)
    1232                    
    1233                    $C$DW$106       .dwtag  DW_TAG_enumerator
    1234                            .dwattr $C$DW$106, DW_AT_name("CC1350_LAUNCHXL_GPTIMERCOUNT")
    1235                            .dwattr $C$DW$106, DW_AT_const_value(0x04)
    1236                            .dwattr $C$DW$106, DW_AT_decl_file("C:\ti\simplelink_cc13x0_sdk_2_30_00_20\examples\rtos\CC135
    1237                            .dwattr $C$DW$106, DW_AT_decl_line(0x115)
    1238                            .dwattr $C$DW$106, DW_AT_decl_column(0x05)
    1239                    
    1240                            .dwattr $C$DW$T$197, DW_AT_decl_file("C:\ti\simplelink_cc13x0_sdk_2_30_00_20\examples\rtos\CC1
    1241                            .dwattr $C$DW$T$197, DW_AT_decl_line(0x10f)
    1242                            .dwattr $C$DW$T$197, DW_AT_decl_column(0x0e)
    1243                            .dwendtag $C$DW$T$197
    1244                    
    1245                    $C$DW$T$198     .dwtag  DW_TAG_typedef
    1246                            .dwattr $C$DW$T$198, DW_AT_name("CC1350_LAUNCHXL_GPTimers")
    1247                            .dwattr $C$DW$T$198, DW_AT_type(*$C$DW$T$197)
    1248                            .dwattr $C$DW$T$198, DW_AT_language(DW_LANG_C)
    1249                            .dwattr $C$DW$T$198, DW_AT_decl_file("C:\ti\simplelink_cc13x0_sdk_2_30_00_20\examples\rtos\CC1
    1250                            .dwattr $C$DW$T$198, DW_AT_decl_line(0x116)
    1251                            .dwattr $C$DW$T$198, DW_AT_decl_column(0x03)
    1252                    
    1253                    
    1254                    $C$DW$T$199     .dwtag  DW_TAG_enumeration_type
    1255                            .dwattr $C$DW$T$199, DW_AT_name("CC1350_LAUNCHXL_I2CName")
    1256                            .dwattr $C$DW$T$199, DW_AT_byte_size(0x01)
    1257                    $C$DW$107       .dwtag  DW_TAG_enumerator
    1258                            .dwattr $C$DW$107, DW_AT_name("CC1350_LAUNCHXL_I2C0")
    1259                            .dwattr $C$DW$107, DW_AT_const_value(0x00)
    1260                            .dwattr $C$DW$107, DW_AT_decl_file("C:\ti\simplelink_cc13x0_sdk_2_30_00_20\examples\rtos\CC135
    1261                            .dwattr $C$DW$107, DW_AT_decl_line(0x11d)
    1262                            .dwattr $C$DW$107, DW_AT_decl_column(0x05)
    1263                    
    1264                    $C$DW$108       .dwtag  DW_TAG_enumerator
    1265                            .dwattr $C$DW$108, DW_AT_name("CC1350_LAUNCHXL_I2CCOUNT")
TI ARM Assembler PC v18.1.3 Wed Nov 28 13:34:39 2018

Tools Copyright (c) 1996-2017 Texas Instruments Incorporated
C:\Users\Adrian\AppData\Local\Temp\{DE9C6956-9654-4461-9319-00DA2038484A} PAGE   24

    1266                            .dwattr $C$DW$108, DW_AT_const_value(0x01)
    1267                            .dwattr $C$DW$108, DW_AT_decl_file("C:\ti\simplelink_cc13x0_sdk_2_30_00_20\examples\rtos\CC135
    1268                            .dwattr $C$DW$108, DW_AT_decl_line(0x11f)
    1269                            .dwattr $C$DW$108, DW_AT_decl_column(0x05)
    1270                    
    1271                            .dwattr $C$DW$T$199, DW_AT_decl_file("C:\ti\simplelink_cc13x0_sdk_2_30_00_20\examples\rtos\CC1
    1272                            .dwattr $C$DW$T$199, DW_AT_decl_line(0x11c)
    1273                            .dwattr $C$DW$T$199, DW_AT_decl_column(0x0e)
    1274                            .dwendtag $C$DW$T$199
    1275                    
    1276                    $C$DW$T$200     .dwtag  DW_TAG_typedef
    1277                            .dwattr $C$DW$T$200, DW_AT_name("CC1350_LAUNCHXL_I2CName")
    1278                            .dwattr $C$DW$T$200, DW_AT_type(*$C$DW$T$199)
    1279                            .dwattr $C$DW$T$200, DW_AT_language(DW_LANG_C)
    1280                            .dwattr $C$DW$T$200, DW_AT_decl_file("C:\ti\simplelink_cc13x0_sdk_2_30_00_20\examples\rtos\CC1
    1281                            .dwattr $C$DW$T$200, DW_AT_decl_line(0x120)
    1282                            .dwattr $C$DW$T$200, DW_AT_decl_column(0x03)
    1283                    
    1284                    
    1285                    $C$DW$T$201     .dwtag  DW_TAG_enumeration_type
    1286                            .dwattr $C$DW$T$201, DW_AT_name("CC1350_LAUNCHXL_NVSName")
    1287                            .dwattr $C$DW$T$201, DW_AT_byte_size(0x01)
    1288                    $C$DW$109       .dwtag  DW_TAG_enumerator
    1289                            .dwattr $C$DW$109, DW_AT_name("CC1350_LAUNCHXL_NVSCC26XX0")
    1290                            .dwattr $C$DW$109, DW_AT_const_value(0x00)
    1291                            .dwattr $C$DW$109, DW_AT_decl_file("C:\ti\simplelink_cc13x0_sdk_2_30_00_20\examples\rtos\CC135
    1292                            .dwattr $C$DW$109, DW_AT_decl_line(0x128)
    1293                            .dwattr $C$DW$109, DW_AT_decl_column(0x05)
    1294                    
    1295                    $C$DW$110       .dwtag  DW_TAG_enumerator
    1296                            .dwattr $C$DW$110, DW_AT_name("CC1350_LAUNCHXL_NVSCOUNT")
    1297                            .dwattr $C$DW$110, DW_AT_const_value(0x01)
    1298                            .dwattr $C$DW$110, DW_AT_decl_file("C:\ti\simplelink_cc13x0_sdk_2_30_00_20\examples\rtos\CC135
    1299                            .dwattr $C$DW$110, DW_AT_decl_line(0x12e)
    1300                            .dwattr $C$DW$110, DW_AT_decl_column(0x05)
    1301                    
    1302                            .dwattr $C$DW$T$201, DW_AT_decl_file("C:\ti\simplelink_cc13x0_sdk_2_30_00_20\examples\rtos\CC1
    1303                            .dwattr $C$DW$T$201, DW_AT_decl_line(0x126)
    1304                            .dwattr $C$DW$T$201, DW_AT_decl_column(0x0e)
    1305                            .dwendtag $C$DW$T$201
    1306                    
    1307                    $C$DW$T$202     .dwtag  DW_TAG_typedef
    1308                            .dwattr $C$DW$T$202, DW_AT_name("CC1350_LAUNCHXL_NVSName")
    1309                            .dwattr $C$DW$T$202, DW_AT_type(*$C$DW$T$201)
    1310                            .dwattr $C$DW$T$202, DW_AT_language(DW_LANG_C)
    1311                            .dwattr $C$DW$T$202, DW_AT_decl_file("C:\ti\simplelink_cc13x0_sdk_2_30_00_20\examples\rtos\CC1
    1312                            .dwattr $C$DW$T$202, DW_AT_decl_line(0x12f)
    1313                            .dwattr $C$DW$T$202, DW_AT_decl_column(0x03)
    1314                    
    1315                    
    1316                    $C$DW$T$203     .dwtag  DW_TAG_enumeration_type
    1317                            .dwattr $C$DW$T$203, DW_AT_name("CC1350_LAUNCHXL_PWMName")
    1318                            .dwattr $C$DW$T$203, DW_AT_byte_size(0x01)
    1319                    $C$DW$111       .dwtag  DW_TAG_enumerator
    1320                            .dwattr $C$DW$111, DW_AT_name("CC1350_LAUNCHXL_PWM0")
TI ARM Assembler PC v18.1.3 Wed Nov 28 13:34:39 2018

Tools Copyright (c) 1996-2017 Texas Instruments Incorporated
C:\Users\Adrian\AppData\Local\Temp\{DE9C6956-9654-4461-9319-00DA2038484A} PAGE   25

    1321                            .dwattr $C$DW$111, DW_AT_const_value(0x00)
    1322                            .dwattr $C$DW$111, DW_AT_decl_file("C:\ti\simplelink_cc13x0_sdk_2_30_00_20\examples\rtos\CC135
    1323                            .dwattr $C$DW$111, DW_AT_decl_line(0x136)
    1324                            .dwattr $C$DW$111, DW_AT_decl_column(0x05)
    1325                    
    1326                    $C$DW$112       .dwtag  DW_TAG_enumerator
    1327                            .dwattr $C$DW$112, DW_AT_name("CC1350_LAUNCHXL_PWM1")
    1328                            .dwattr $C$DW$112, DW_AT_const_value(0x01)
    1329                            .dwattr $C$DW$112, DW_AT_decl_file("C:\ti\simplelink_cc13x0_sdk_2_30_00_20\examples\rtos\CC135
    1330                            .dwattr $C$DW$112, DW_AT_decl_line(0x137)
    1331                            .dwattr $C$DW$112, DW_AT_decl_column(0x05)
    1332                    
    1333                    $C$DW$113       .dwtag  DW_TAG_enumerator
    1334                            .dwattr $C$DW$113, DW_AT_name("CC1350_LAUNCHXL_PWM2")
    1335                            .dwattr $C$DW$113, DW_AT_const_value(0x02)
    1336                            .dwattr $C$DW$113, DW_AT_decl_file("C:\ti\simplelink_cc13x0_sdk_2_30_00_20\examples\rtos\CC135
    1337                            .dwattr $C$DW$113, DW_AT_decl_line(0x138)
    1338                            .dwattr $C$DW$113, DW_AT_decl_column(0x05)
    1339                    
    1340                    $C$DW$114       .dwtag  DW_TAG_enumerator
    1341                            .dwattr $C$DW$114, DW_AT_name("CC1350_LAUNCHXL_PWM3")
    1342                            .dwattr $C$DW$114, DW_AT_const_value(0x03)
    1343                            .dwattr $C$DW$114, DW_AT_decl_file("C:\ti\simplelink_cc13x0_sdk_2_30_00_20\examples\rtos\CC135
    1344                            .dwattr $C$DW$114, DW_AT_decl_line(0x139)
    1345                            .dwattr $C$DW$114, DW_AT_decl_column(0x05)
    1346                    
    1347                    $C$DW$115       .dwtag  DW_TAG_enumerator
    1348                            .dwattr $C$DW$115, DW_AT_name("CC1350_LAUNCHXL_PWM4")
    1349                            .dwattr $C$DW$115, DW_AT_const_value(0x04)
    1350                            .dwattr $C$DW$115, DW_AT_decl_file("C:\ti\simplelink_cc13x0_sdk_2_30_00_20\examples\rtos\CC135
    1351                            .dwattr $C$DW$115, DW_AT_decl_line(0x13a)
    1352                            .dwattr $C$DW$115, DW_AT_decl_column(0x05)
    1353                    
    1354                    $C$DW$116       .dwtag  DW_TAG_enumerator
    1355                            .dwattr $C$DW$116, DW_AT_name("CC1350_LAUNCHXL_PWM5")
    1356                            .dwattr $C$DW$116, DW_AT_const_value(0x05)
    1357                            .dwattr $C$DW$116, DW_AT_decl_file("C:\ti\simplelink_cc13x0_sdk_2_30_00_20\examples\rtos\CC135
    1358                            .dwattr $C$DW$116, DW_AT_decl_line(0x13b)
    1359                            .dwattr $C$DW$116, DW_AT_decl_column(0x05)
    1360                    
    1361                    $C$DW$117       .dwtag  DW_TAG_enumerator
    1362                            .dwattr $C$DW$117, DW_AT_name("CC1350_LAUNCHXL_PWM6")
    1363                            .dwattr $C$DW$117, DW_AT_const_value(0x06)
    1364                            .dwattr $C$DW$117, DW_AT_decl_file("C:\ti\simplelink_cc13x0_sdk_2_30_00_20\examples\rtos\CC135
    1365                            .dwattr $C$DW$117, DW_AT_decl_line(0x13c)
    1366                            .dwattr $C$DW$117, DW_AT_decl_column(0x05)
    1367                    
    1368                    $C$DW$118       .dwtag  DW_TAG_enumerator
    1369                            .dwattr $C$DW$118, DW_AT_name("CC1350_LAUNCHXL_PWM7")
    1370                            .dwattr $C$DW$118, DW_AT_const_value(0x07)
    1371                            .dwattr $C$DW$118, DW_AT_decl_file("C:\ti\simplelink_cc13x0_sdk_2_30_00_20\examples\rtos\CC135
    1372                            .dwattr $C$DW$118, DW_AT_decl_line(0x13d)
    1373                            .dwattr $C$DW$118, DW_AT_decl_column(0x05)
    1374                    
    1375                    $C$DW$119       .dwtag  DW_TAG_enumerator
TI ARM Assembler PC v18.1.3 Wed Nov 28 13:34:39 2018

Tools Copyright (c) 1996-2017 Texas Instruments Incorporated
C:\Users\Adrian\AppData\Local\Temp\{DE9C6956-9654-4461-9319-00DA2038484A} PAGE   26

    1376                            .dwattr $C$DW$119, DW_AT_name("CC1350_LAUNCHXL_PWMCOUNT")
    1377                            .dwattr $C$DW$119, DW_AT_const_value(0x08)
    1378                            .dwattr $C$DW$119, DW_AT_decl_file("C:\ti\simplelink_cc13x0_sdk_2_30_00_20\examples\rtos\CC135
    1379                            .dwattr $C$DW$119, DW_AT_decl_line(0x13f)
    1380                            .dwattr $C$DW$119, DW_AT_decl_column(0x05)
    1381                    
    1382                            .dwattr $C$DW$T$203, DW_AT_decl_file("C:\ti\simplelink_cc13x0_sdk_2_30_00_20\examples\rtos\CC1
    1383                            .dwattr $C$DW$T$203, DW_AT_decl_line(0x135)
    1384                            .dwattr $C$DW$T$203, DW_AT_decl_column(0x0e)
    1385                            .dwendtag $C$DW$T$203
    1386                    
    1387                    $C$DW$T$204     .dwtag  DW_TAG_typedef
    1388                            .dwattr $C$DW$T$204, DW_AT_name("CC1350_LAUNCHXL_PWMName")
    1389                            .dwattr $C$DW$T$204, DW_AT_type(*$C$DW$T$203)
    1390                            .dwattr $C$DW$T$204, DW_AT_language(DW_LANG_C)
    1391                            .dwattr $C$DW$T$204, DW_AT_decl_file("C:\ti\simplelink_cc13x0_sdk_2_30_00_20\examples\rtos\CC1
    1392                            .dwattr $C$DW$T$204, DW_AT_decl_line(0x140)
    1393                            .dwattr $C$DW$T$204, DW_AT_decl_column(0x03)
    1394                    
    1395                    
    1396                    $C$DW$T$205     .dwtag  DW_TAG_enumeration_type
    1397                            .dwattr $C$DW$T$205, DW_AT_name("CC1350_LAUNCHXL_SDName")
    1398                            .dwattr $C$DW$T$205, DW_AT_byte_size(0x01)
    1399                    $C$DW$120       .dwtag  DW_TAG_enumerator
    1400                            .dwattr $C$DW$120, DW_AT_name("CC1350_LAUNCHXL_SDSPI0")
    1401                            .dwattr $C$DW$120, DW_AT_const_value(0x00)
    1402                            .dwattr $C$DW$120, DW_AT_decl_file("C:\ti\simplelink_cc13x0_sdk_2_30_00_20\examples\rtos\CC135
    1403                            .dwattr $C$DW$120, DW_AT_decl_line(0x147)
    1404                            .dwattr $C$DW$120, DW_AT_decl_column(0x05)
    1405                    
    1406                    $C$DW$121       .dwtag  DW_TAG_enumerator
    1407                            .dwattr $C$DW$121, DW_AT_name("CC1350_LAUNCHXL_SDCOUNT")
    1408                            .dwattr $C$DW$121, DW_AT_const_value(0x01)
    1409                            .dwattr $C$DW$121, DW_AT_decl_file("C:\ti\simplelink_cc13x0_sdk_2_30_00_20\examples\rtos\CC135
    1410                            .dwattr $C$DW$121, DW_AT_decl_line(0x149)
    1411                            .dwattr $C$DW$121, DW_AT_decl_column(0x05)
    1412                    
    1413                            .dwattr $C$DW$T$205, DW_AT_decl_file("C:\ti\simplelink_cc13x0_sdk_2_30_00_20\examples\rtos\CC1
    1414                            .dwattr $C$DW$T$205, DW_AT_decl_line(0x146)
    1415                            .dwattr $C$DW$T$205, DW_AT_decl_column(0x0e)
    1416                            .dwendtag $C$DW$T$205
    1417                    
    1418                    $C$DW$T$206     .dwtag  DW_TAG_typedef
    1419                            .dwattr $C$DW$T$206, DW_AT_name("CC1350_LAUNCHXL_SDName")
    1420                            .dwattr $C$DW$T$206, DW_AT_type(*$C$DW$T$205)
    1421                            .dwattr $C$DW$T$206, DW_AT_language(DW_LANG_C)
    1422                            .dwattr $C$DW$T$206, DW_AT_decl_file("C:\ti\simplelink_cc13x0_sdk_2_30_00_20\examples\rtos\CC1
    1423                            .dwattr $C$DW$T$206, DW_AT_decl_line(0x14a)
    1424                            .dwattr $C$DW$T$206, DW_AT_decl_column(0x03)
    1425                    
    1426                    
    1427                    $C$DW$T$207     .dwtag  DW_TAG_enumeration_type
    1428                            .dwattr $C$DW$T$207, DW_AT_name("CC1350_LAUNCHXL_SPIName")
    1429                            .dwattr $C$DW$T$207, DW_AT_byte_size(0x01)
    1430                    $C$DW$122       .dwtag  DW_TAG_enumerator
TI ARM Assembler PC v18.1.3 Wed Nov 28 13:34:39 2018

Tools Copyright (c) 1996-2017 Texas Instruments Incorporated
C:\Users\Adrian\AppData\Local\Temp\{DE9C6956-9654-4461-9319-00DA2038484A} PAGE   27

    1431                            .dwattr $C$DW$122, DW_AT_name("CC1350_LAUNCHXL_SPI0")
    1432                            .dwattr $C$DW$122, DW_AT_const_value(0x00)
    1433                            .dwattr $C$DW$122, DW_AT_decl_file("C:\ti\simplelink_cc13x0_sdk_2_30_00_20\examples\rtos\CC135
    1434                            .dwattr $C$DW$122, DW_AT_decl_line(0x151)
    1435                            .dwattr $C$DW$122, DW_AT_decl_column(0x05)
    1436                    
    1437                    $C$DW$123       .dwtag  DW_TAG_enumerator
    1438                            .dwattr $C$DW$123, DW_AT_name("CC1350_LAUNCHXL_SPI1")
    1439                            .dwattr $C$DW$123, DW_AT_const_value(0x01)
    1440                            .dwattr $C$DW$123, DW_AT_decl_file("C:\ti\simplelink_cc13x0_sdk_2_30_00_20\examples\rtos\CC135
    1441                            .dwattr $C$DW$123, DW_AT_decl_line(0x152)
    1442                            .dwattr $C$DW$123, DW_AT_decl_column(0x05)
    1443                    
    1444                    $C$DW$124       .dwtag  DW_TAG_enumerator
    1445                            .dwattr $C$DW$124, DW_AT_name("CC1350_LAUNCHXL_SPICOUNT")
    1446                            .dwattr $C$DW$124, DW_AT_const_value(0x02)
    1447                            .dwattr $C$DW$124, DW_AT_decl_file("C:\ti\simplelink_cc13x0_sdk_2_30_00_20\examples\rtos\CC135
    1448                            .dwattr $C$DW$124, DW_AT_decl_line(0x154)
    1449                            .dwattr $C$DW$124, DW_AT_decl_column(0x05)
    1450                    
    1451                            .dwattr $C$DW$T$207, DW_AT_decl_file("C:\ti\simplelink_cc13x0_sdk_2_30_00_20\examples\rtos\CC1
    1452                            .dwattr $C$DW$T$207, DW_AT_decl_line(0x150)
    1453                            .dwattr $C$DW$T$207, DW_AT_decl_column(0x0e)
    1454                            .dwendtag $C$DW$T$207
    1455                    
    1456                    $C$DW$T$208     .dwtag  DW_TAG_typedef
    1457                            .dwattr $C$DW$T$208, DW_AT_name("CC1350_LAUNCHXL_SPIName")
    1458                            .dwattr $C$DW$T$208, DW_AT_type(*$C$DW$T$207)
    1459                            .dwattr $C$DW$T$208, DW_AT_language(DW_LANG_C)
    1460                            .dwattr $C$DW$T$208, DW_AT_decl_file("C:\ti\simplelink_cc13x0_sdk_2_30_00_20\examples\rtos\CC1
    1461                            .dwattr $C$DW$T$208, DW_AT_decl_line(0x155)
    1462                            .dwattr $C$DW$T$208, DW_AT_decl_column(0x03)
    1463                    
    1464                    
    1465                    $C$DW$T$209     .dwtag  DW_TAG_enumeration_type
    1466                            .dwattr $C$DW$T$209, DW_AT_name("CC1350_LAUNCHXL_UARTName")
    1467                            .dwattr $C$DW$T$209, DW_AT_byte_size(0x01)
    1468                    $C$DW$125       .dwtag  DW_TAG_enumerator
    1469                            .dwattr $C$DW$125, DW_AT_name("CC1350_LAUNCHXL_UART0")
    1470                            .dwattr $C$DW$125, DW_AT_const_value(0x00)
    1471                            .dwattr $C$DW$125, DW_AT_decl_file("C:\ti\simplelink_cc13x0_sdk_2_30_00_20\examples\rtos\CC135
    1472                            .dwattr $C$DW$125, DW_AT_decl_line(0x15c)
    1473                            .dwattr $C$DW$125, DW_AT_decl_column(0x05)
    1474                    
    1475                    $C$DW$126       .dwtag  DW_TAG_enumerator
    1476                            .dwattr $C$DW$126, DW_AT_name("CC1350_LAUNCHXL_UARTCOUNT")
    1477                            .dwattr $C$DW$126, DW_AT_const_value(0x01)
    1478                            .dwattr $C$DW$126, DW_AT_decl_file("C:\ti\simplelink_cc13x0_sdk_2_30_00_20\examples\rtos\CC135
    1479                            .dwattr $C$DW$126, DW_AT_decl_line(0x15e)
    1480                            .dwattr $C$DW$126, DW_AT_decl_column(0x05)
    1481                    
    1482                            .dwattr $C$DW$T$209, DW_AT_decl_file("C:\ti\simplelink_cc13x0_sdk_2_30_00_20\examples\rtos\CC1
    1483                            .dwattr $C$DW$T$209, DW_AT_decl_line(0x15b)
    1484                            .dwattr $C$DW$T$209, DW_AT_decl_column(0x0e)
    1485                            .dwendtag $C$DW$T$209
TI ARM Assembler PC v18.1.3 Wed Nov 28 13:34:39 2018

Tools Copyright (c) 1996-2017 Texas Instruments Incorporated
C:\Users\Adrian\AppData\Local\Temp\{DE9C6956-9654-4461-9319-00DA2038484A} PAGE   28

    1486                    
    1487                    $C$DW$T$210     .dwtag  DW_TAG_typedef
    1488                            .dwattr $C$DW$T$210, DW_AT_name("CC1350_LAUNCHXL_UARTName")
    1489                            .dwattr $C$DW$T$210, DW_AT_type(*$C$DW$T$209)
    1490                            .dwattr $C$DW$T$210, DW_AT_language(DW_LANG_C)
    1491                            .dwattr $C$DW$T$210, DW_AT_decl_file("C:\ti\simplelink_cc13x0_sdk_2_30_00_20\examples\rtos\CC1
    1492                            .dwattr $C$DW$T$210, DW_AT_decl_line(0x15f)
    1493                            .dwattr $C$DW$T$210, DW_AT_decl_column(0x03)
    1494                    
    1495                    
    1496                    $C$DW$T$211     .dwtag  DW_TAG_enumeration_type
    1497                            .dwattr $C$DW$T$211, DW_AT_name("CC1350_LAUNCHXL_UDMAName")
    1498                            .dwattr $C$DW$T$211, DW_AT_byte_size(0x01)
    1499                    $C$DW$127       .dwtag  DW_TAG_enumerator
    1500                            .dwattr $C$DW$127, DW_AT_name("CC1350_LAUNCHXL_UDMA0")
    1501                            .dwattr $C$DW$127, DW_AT_const_value(0x00)
    1502                            .dwattr $C$DW$127, DW_AT_decl_file("C:\ti\simplelink_cc13x0_sdk_2_30_00_20\examples\rtos\CC135
    1503                            .dwattr $C$DW$127, DW_AT_decl_line(0x166)
    1504                            .dwattr $C$DW$127, DW_AT_decl_column(0x05)
    1505                    
    1506                    $C$DW$128       .dwtag  DW_TAG_enumerator
    1507                            .dwattr $C$DW$128, DW_AT_name("CC1350_LAUNCHXL_UDMACOUNT")
    1508                            .dwattr $C$DW$128, DW_AT_const_value(0x01)
    1509                            .dwattr $C$DW$128, DW_AT_decl_file("C:\ti\simplelink_cc13x0_sdk_2_30_00_20\examples\rtos\CC135
    1510                            .dwattr $C$DW$128, DW_AT_decl_line(0x168)
    1511                            .dwattr $C$DW$128, DW_AT_decl_column(0x05)
    1512                    
    1513                            .dwattr $C$DW$T$211, DW_AT_decl_file("C:\ti\simplelink_cc13x0_sdk_2_30_00_20\examples\rtos\CC1
    1514                            .dwattr $C$DW$T$211, DW_AT_decl_line(0x165)
    1515                            .dwattr $C$DW$T$211, DW_AT_decl_column(0x0e)
    1516                            .dwendtag $C$DW$T$211
    1517                    
    1518                    $C$DW$T$212     .dwtag  DW_TAG_typedef
    1519                            .dwattr $C$DW$T$212, DW_AT_name("CC1350_LAUNCHXL_UDMAName")
    1520                            .dwattr $C$DW$T$212, DW_AT_type(*$C$DW$T$211)
    1521                            .dwattr $C$DW$T$212, DW_AT_language(DW_LANG_C)
    1522                            .dwattr $C$DW$T$212, DW_AT_decl_file("C:\ti\simplelink_cc13x0_sdk_2_30_00_20\examples\rtos\CC1
    1523                            .dwattr $C$DW$T$212, DW_AT_decl_line(0x169)
    1524                            .dwattr $C$DW$T$212, DW_AT_decl_column(0x03)
    1525                    
    1526                    
    1527                    $C$DW$T$213     .dwtag  DW_TAG_enumeration_type
    1528                            .dwattr $C$DW$T$213, DW_AT_name("CC1350_LAUNCHXL_WatchdogName")
    1529                            .dwattr $C$DW$T$213, DW_AT_byte_size(0x01)
    1530                    $C$DW$129       .dwtag  DW_TAG_enumerator
    1531                            .dwattr $C$DW$129, DW_AT_name("CC1350_LAUNCHXL_WATCHDOG0")
    1532                            .dwattr $C$DW$129, DW_AT_const_value(0x00)
    1533                            .dwattr $C$DW$129, DW_AT_decl_file("C:\ti\simplelink_cc13x0_sdk_2_30_00_20\examples\rtos\CC135
    1534                            .dwattr $C$DW$129, DW_AT_decl_line(0x170)
    1535                            .dwattr $C$DW$129, DW_AT_decl_column(0x05)
    1536                    
    1537                    $C$DW$130       .dwtag  DW_TAG_enumerator
    1538                            .dwattr $C$DW$130, DW_AT_name("CC1350_LAUNCHXL_WATCHDOGCOUNT")
    1539                            .dwattr $C$DW$130, DW_AT_const_value(0x01)
    1540                            .dwattr $C$DW$130, DW_AT_decl_file("C:\ti\simplelink_cc13x0_sdk_2_30_00_20\examples\rtos\CC135
TI ARM Assembler PC v18.1.3 Wed Nov 28 13:34:39 2018

Tools Copyright (c) 1996-2017 Texas Instruments Incorporated
C:\Users\Adrian\AppData\Local\Temp\{DE9C6956-9654-4461-9319-00DA2038484A} PAGE   29

    1541                            .dwattr $C$DW$130, DW_AT_decl_line(0x172)
    1542                            .dwattr $C$DW$130, DW_AT_decl_column(0x05)
    1543                    
    1544                            .dwattr $C$DW$T$213, DW_AT_decl_file("C:\ti\simplelink_cc13x0_sdk_2_30_00_20\examples\rtos\CC1
    1545                            .dwattr $C$DW$T$213, DW_AT_decl_line(0x16f)
    1546                            .dwattr $C$DW$T$213, DW_AT_decl_column(0x0e)
    1547                            .dwendtag $C$DW$T$213
    1548                    
    1549                    $C$DW$T$214     .dwtag  DW_TAG_typedef
    1550                            .dwattr $C$DW$T$214, DW_AT_name("CC1350_LAUNCHXL_WatchdogName")
    1551                            .dwattr $C$DW$T$214, DW_AT_type(*$C$DW$T$213)
    1552                            .dwattr $C$DW$T$214, DW_AT_language(DW_LANG_C)
    1553                            .dwattr $C$DW$T$214, DW_AT_decl_file("C:\ti\simplelink_cc13x0_sdk_2_30_00_20\examples\rtos\CC1
    1554                            .dwattr $C$DW$T$214, DW_AT_decl_line(0x173)
    1555                            .dwattr $C$DW$T$214, DW_AT_decl_column(0x03)
    1556                    
    1557                    
    1558                    $C$DW$T$70      .dwtag  DW_TAG_structure_type
    1559                            .dwattr $C$DW$T$70, DW_AT_name("ClockP_FreqHz")
    1560                            .dwattr $C$DW$T$70, DW_AT_byte_size(0x08)
    1561                    $C$DW$131       .dwtag  DW_TAG_member
    1562                            .dwattr $C$DW$131, DW_AT_type(*$C$DW$T$23)
    1563                            .dwattr $C$DW$131, DW_AT_name("hi")
    1564                            .dwattr $C$DW$131, DW_AT_TI_symbol_name("hi")
    1565                            .dwattr $C$DW$131, DW_AT_data_member_location[DW_OP_plus_uconst 0x0]
    1566                            .dwattr $C$DW$131, DW_AT_accessibility(DW_ACCESS_public)
    1567                            .dwattr $C$DW$131, DW_AT_decl_file("C:/ti/simplelink_cc13x0_sdk_2_30_00_20/source/ti/drivers/d
    1568                            .dwattr $C$DW$131, DW_AT_decl_line(0x5c)
    1569                            .dwattr $C$DW$131, DW_AT_decl_column(0x0e)
    1570                    
    1571                    $C$DW$132       .dwtag  DW_TAG_member
    1572                            .dwattr $C$DW$132, DW_AT_type(*$C$DW$T$23)
    1573                            .dwattr $C$DW$132, DW_AT_name("lo")
    1574                            .dwattr $C$DW$132, DW_AT_TI_symbol_name("lo")
    1575                            .dwattr $C$DW$132, DW_AT_data_member_location[DW_OP_plus_uconst 0x4]
    1576                            .dwattr $C$DW$132, DW_AT_accessibility(DW_ACCESS_public)
    1577                            .dwattr $C$DW$132, DW_AT_decl_file("C:/ti/simplelink_cc13x0_sdk_2_30_00_20/source/ti/drivers/d
    1578                            .dwattr $C$DW$132, DW_AT_decl_line(0x5d)
    1579                            .dwattr $C$DW$132, DW_AT_decl_column(0x0e)
    1580                    
    1581                            .dwattr $C$DW$T$70, DW_AT_decl_file("C:/ti/simplelink_cc13x0_sdk_2_30_00_20/source/ti/drivers/
    1582                            .dwattr $C$DW$T$70, DW_AT_decl_line(0x5b)
    1583                            .dwattr $C$DW$T$70, DW_AT_decl_column(0x10)
    1584                            .dwendtag $C$DW$T$70
    1585                    
    1586                    $C$DW$T$215     .dwtag  DW_TAG_typedef
    1587                            .dwattr $C$DW$T$215, DW_AT_name("ClockP_FreqHz")
    1588                            .dwattr $C$DW$T$215, DW_AT_type(*$C$DW$T$70)
    1589                            .dwattr $C$DW$T$215, DW_AT_language(DW_LANG_C)
    1590                            .dwattr $C$DW$T$215, DW_AT_decl_file("C:/ti/simplelink_cc13x0_sdk_2_30_00_20/source/ti/drivers
    1591                            .dwattr $C$DW$T$215, DW_AT_decl_line(0x5e)
    1592                            .dwattr $C$DW$T$215, DW_AT_decl_column(0x03)
    1593                    
    1594                    
    1595                    $C$DW$T$74      .dwtag  DW_TAG_structure_type
TI ARM Assembler PC v18.1.3 Wed Nov 28 13:34:39 2018

Tools Copyright (c) 1996-2017 Texas Instruments Incorporated
C:\Users\Adrian\AppData\Local\Temp\{DE9C6956-9654-4461-9319-00DA2038484A} PAGE   30

    1596                            .dwattr $C$DW$T$74, DW_AT_name("ClockP_Params")
    1597                            .dwattr $C$DW$T$74, DW_AT_byte_size(0x0c)
    1598                    $C$DW$133       .dwtag  DW_TAG_member
    1599                            .dwattr $C$DW$133, DW_AT_type(*$C$DW$T$71)
    1600                            .dwattr $C$DW$133, DW_AT_name("startFlag")
    1601                            .dwattr $C$DW$133, DW_AT_TI_symbol_name("startFlag")
    1602                            .dwattr $C$DW$133, DW_AT_data_member_location[DW_OP_plus_uconst 0x0]
    1603                            .dwattr $C$DW$133, DW_AT_accessibility(DW_ACCESS_public)
    1604                            .dwattr $C$DW$133, DW_AT_decl_file("C:/ti/simplelink_cc13x0_sdk_2_30_00_20/source/ti/drivers/d
    1605                            .dwattr $C$DW$133, DW_AT_decl_line(0x8d)
    1606                            .dwattr $C$DW$133, DW_AT_decl_column(0x0f)
    1607                    
    1608                    $C$DW$134       .dwtag  DW_TAG_member
    1609                            .dwattr $C$DW$134, DW_AT_type(*$C$DW$T$23)
    1610                            .dwattr $C$DW$134, DW_AT_name("period")
    1611                            .dwattr $C$DW$134, DW_AT_TI_symbol_name("period")
    1612                            .dwattr $C$DW$134, DW_AT_data_member_location[DW_OP_plus_uconst 0x4]
    1613                            .dwattr $C$DW$134, DW_AT_accessibility(DW_ACCESS_public)
    1614                            .dwattr $C$DW$134, DW_AT_decl_file("C:/ti/simplelink_cc13x0_sdk_2_30_00_20/source/ti/drivers/d
    1615                            .dwattr $C$DW$134, DW_AT_decl_line(0x8e)
    1616                            .dwattr $C$DW$134, DW_AT_decl_column(0x0f)
    1617                    
    1618                    $C$DW$135       .dwtag  DW_TAG_member
    1619                            .dwattr $C$DW$135, DW_AT_type(*$C$DW$T$73)
    1620                            .dwattr $C$DW$135, DW_AT_name("arg")
    1621                            .dwattr $C$DW$135, DW_AT_TI_symbol_name("arg")
    1622                            .dwattr $C$DW$135, DW_AT_data_member_location[DW_OP_plus_uconst 0x8]
    1623                            .dwattr $C$DW$135, DW_AT_accessibility(DW_ACCESS_public)
    1624                            .dwattr $C$DW$135, DW_AT_decl_file("C:/ti/simplelink_cc13x0_sdk_2_30_00_20/source/ti/drivers/d
    1625                            .dwattr $C$DW$135, DW_AT_decl_line(0x8f)
    1626                            .dwattr $C$DW$135, DW_AT_decl_column(0x0f)
    1627                    
    1628                            .dwattr $C$DW$T$74, DW_AT_decl_file("C:/ti/simplelink_cc13x0_sdk_2_30_00_20/source/ti/drivers/
    1629                            .dwattr $C$DW$T$74, DW_AT_decl_line(0x8c)
    1630                            .dwattr $C$DW$T$74, DW_AT_decl_column(0x10)
    1631                            .dwendtag $C$DW$T$74
    1632                    
    1633                    $C$DW$T$216     .dwtag  DW_TAG_typedef
    1634                            .dwattr $C$DW$T$216, DW_AT_name("ClockP_Params")
    1635                            .dwattr $C$DW$T$216, DW_AT_type(*$C$DW$T$74)
    1636                            .dwattr $C$DW$T$216, DW_AT_language(DW_LANG_C)
    1637                            .dwattr $C$DW$T$216, DW_AT_decl_file("C:/ti/simplelink_cc13x0_sdk_2_30_00_20/source/ti/drivers
    1638                            .dwattr $C$DW$T$216, DW_AT_decl_line(0x90)
    1639                            .dwattr $C$DW$T$216, DW_AT_decl_column(0x03)
    1640                    
    1641                    
    1642                    $C$DW$T$217     .dwtag  DW_TAG_enumeration_type
    1643                            .dwattr $C$DW$T$217, DW_AT_name("ClockP_Status")
    1644                            .dwattr $C$DW$T$217, DW_AT_byte_size(0x01)
    1645                    $C$DW$136       .dwtag  DW_TAG_enumerator
    1646                            .dwattr $C$DW$136, DW_AT_name("ClockP_OK")
    1647                            .dwattr $C$DW$136, DW_AT_const_value(0x00)
    1648                            .dwattr $C$DW$136, DW_AT_decl_file("C:/ti/simplelink_cc13x0_sdk_2_30_00_20/source/ti/drivers/d
    1649                            .dwattr $C$DW$136, DW_AT_decl_line(0x64)
    1650                            .dwattr $C$DW$136, DW_AT_decl_column(0x05)
TI ARM Assembler PC v18.1.3 Wed Nov 28 13:34:39 2018

Tools Copyright (c) 1996-2017 Texas Instruments Incorporated
C:\Users\Adrian\AppData\Local\Temp\{DE9C6956-9654-4461-9319-00DA2038484A} PAGE   31

    1651                    
    1652                    $C$DW$137       .dwtag  DW_TAG_enumerator
    1653                            .dwattr $C$DW$137, DW_AT_name("ClockP_FAILURE")
    1654                            .dwattr $C$DW$137, DW_AT_const_value(-1)
    1655                            .dwattr $C$DW$137, DW_AT_decl_file("C:/ti/simplelink_cc13x0_sdk_2_30_00_20/source/ti/drivers/d
    1656                            .dwattr $C$DW$137, DW_AT_decl_line(0x65)
    1657                            .dwattr $C$DW$137, DW_AT_decl_column(0x05)
    1658                    
    1659                            .dwattr $C$DW$T$217, DW_AT_decl_file("C:/ti/simplelink_cc13x0_sdk_2_30_00_20/source/ti/drivers
    1660                            .dwattr $C$DW$T$217, DW_AT_decl_line(0x63)
    1661                            .dwattr $C$DW$T$217, DW_AT_decl_column(0x0e)
    1662                            .dwendtag $C$DW$T$217
    1663                    
    1664                    $C$DW$T$218     .dwtag  DW_TAG_typedef
    1665                            .dwattr $C$DW$T$218, DW_AT_name("ClockP_Status")
    1666                            .dwattr $C$DW$T$218, DW_AT_type(*$C$DW$T$217)
    1667                            .dwattr $C$DW$T$218, DW_AT_language(DW_LANG_C)
    1668                            .dwattr $C$DW$T$218, DW_AT_decl_file("C:/ti/simplelink_cc13x0_sdk_2_30_00_20/source/ti/drivers
    1669                            .dwattr $C$DW$T$218, DW_AT_decl_line(0x66)
    1670                            .dwattr $C$DW$T$218, DW_AT_decl_column(0x03)
    1671                    
    1672                    
    1673                    $C$DW$T$77      .dwtag  DW_TAG_union_type
    1674                            .dwattr $C$DW$T$77, DW_AT_name("ClockP_Struct")
    1675                            .dwattr $C$DW$T$77, DW_AT_byte_size(0x24)
    1676                    $C$DW$138       .dwtag  DW_TAG_member
    1677                            .dwattr $C$DW$138, DW_AT_type(*$C$DW$T$23)
    1678                            .dwattr $C$DW$138, DW_AT_name("dummy")
    1679                            .dwattr $C$DW$138, DW_AT_TI_symbol_name("dummy")
    1680                            .dwattr $C$DW$138, DW_AT_data_member_location[DW_OP_plus_uconst 0x0]
    1681                            .dwattr $C$DW$138, DW_AT_accessibility(DW_ACCESS_public)
    1682                            .dwattr $C$DW$138, DW_AT_decl_file("C:/ti/simplelink_cc13x0_sdk_2_30_00_20/source/ti/drivers/d
    1683                            .dwattr $C$DW$138, DW_AT_decl_line(0x54)
    1684                            .dwattr $C$DW$138, DW_AT_decl_column(0x0e)
    1685                    
    1686                    $C$DW$139       .dwtag  DW_TAG_member
    1687                            .dwattr $C$DW$139, DW_AT_type(*$C$DW$T$76)
    1688                            .dwattr $C$DW$139, DW_AT_name("data")
    1689                            .dwattr $C$DW$139, DW_AT_TI_symbol_name("data")
    1690                            .dwattr $C$DW$139, DW_AT_data_member_location[DW_OP_plus_uconst 0x0]
    1691                            .dwattr $C$DW$139, DW_AT_accessibility(DW_ACCESS_public)
    1692                            .dwattr $C$DW$139, DW_AT_decl_file("C:/ti/simplelink_cc13x0_sdk_2_30_00_20/source/ti/drivers/d
    1693                            .dwattr $C$DW$139, DW_AT_decl_line(0x55)
    1694                            .dwattr $C$DW$139, DW_AT_decl_column(0x0e)
    1695                    
    1696                            .dwattr $C$DW$T$77, DW_AT_decl_file("C:/ti/simplelink_cc13x0_sdk_2_30_00_20/source/ti/drivers/
    1697                            .dwattr $C$DW$T$77, DW_AT_decl_line(0x53)
    1698                            .dwattr $C$DW$T$77, DW_AT_decl_column(0x0f)
    1699                            .dwendtag $C$DW$T$77
    1700                    
    1701                    $C$DW$T$145     .dwtag  DW_TAG_typedef
    1702                            .dwattr $C$DW$T$145, DW_AT_name("ClockP_Struct")
    1703                            .dwattr $C$DW$T$145, DW_AT_type(*$C$DW$T$77)
    1704                            .dwattr $C$DW$T$145, DW_AT_language(DW_LANG_C)
    1705                            .dwattr $C$DW$T$145, DW_AT_decl_file("C:/ti/simplelink_cc13x0_sdk_2_30_00_20/source/ti/drivers
TI ARM Assembler PC v18.1.3 Wed Nov 28 13:34:39 2018

Tools Copyright (c) 1996-2017 Texas Instruments Incorporated
C:\Users\Adrian\AppData\Local\Temp\{DE9C6956-9654-4461-9319-00DA2038484A} PAGE   32

    1706                            .dwattr $C$DW$T$145, DW_AT_decl_line(0x56)
    1707                            .dwattr $C$DW$T$145, DW_AT_decl_column(0x03)
    1708                    
    1709                    
    1710                    $C$DW$T$78      .dwtag  DW_TAG_structure_type
    1711                            .dwattr $C$DW$T$78, DW_AT_name("HwiP_Params")
    1712                            .dwattr $C$DW$T$78, DW_AT_byte_size(0x0c)
    1713                    $C$DW$140       .dwtag  DW_TAG_member
    1714                            .dwattr $C$DW$140, DW_AT_type(*$C$DW$T$73)
    1715                            .dwattr $C$DW$140, DW_AT_name("arg")
    1716                            .dwattr $C$DW$140, DW_AT_TI_symbol_name("arg")
    1717                            .dwattr $C$DW$140, DW_AT_data_member_location[DW_OP_plus_uconst 0x0]
    1718                            .dwattr $C$DW$140, DW_AT_accessibility(DW_ACCESS_public)
    1719                            .dwattr $C$DW$140, DW_AT_decl_file("C:/ti/simplelink_cc13x0_sdk_2_30_00_20/source/ti/drivers/d
    1720                            .dwattr $C$DW$140, DW_AT_decl_line(0x72)
    1721                            .dwattr $C$DW$140, DW_AT_decl_column(0x10)
    1722                    
    1723                    $C$DW$141       .dwtag  DW_TAG_member
    1724                            .dwattr $C$DW$141, DW_AT_type(*$C$DW$T$23)
    1725                            .dwattr $C$DW$141, DW_AT_name("priority")
    1726                            .dwattr $C$DW$141, DW_AT_TI_symbol_name("priority")
    1727                            .dwattr $C$DW$141, DW_AT_data_member_location[DW_OP_plus_uconst 0x4]
    1728                            .dwattr $C$DW$141, DW_AT_accessibility(DW_ACCESS_public)
    1729                            .dwattr $C$DW$141, DW_AT_decl_file("C:/ti/simplelink_cc13x0_sdk_2_30_00_20/source/ti/drivers/d
    1730                            .dwattr $C$DW$141, DW_AT_decl_line(0x73)
    1731                            .dwattr $C$DW$141, DW_AT_decl_column(0x10)
    1732                    
    1733                    $C$DW$142       .dwtag  DW_TAG_member
    1734                            .dwattr $C$DW$142, DW_AT_type(*$C$DW$T$71)
    1735                            .dwattr $C$DW$142, DW_AT_name("enableInt")
    1736                            .dwattr $C$DW$142, DW_AT_TI_symbol_name("enableInt")
    1737                            .dwattr $C$DW$142, DW_AT_data_member_location[DW_OP_plus_uconst 0x8]
    1738                            .dwattr $C$DW$142, DW_AT_accessibility(DW_ACCESS_public)
    1739                            .dwattr $C$DW$142, DW_AT_decl_file("C:/ti/simplelink_cc13x0_sdk_2_30_00_20/source/ti/drivers/d
    1740                            .dwattr $C$DW$142, DW_AT_decl_line(0x74)
    1741                            .dwattr $C$DW$142, DW_AT_decl_column(0x10)
    1742                    
    1743                            .dwattr $C$DW$T$78, DW_AT_decl_file("C:/ti/simplelink_cc13x0_sdk_2_30_00_20/source/ti/drivers/
    1744                            .dwattr $C$DW$T$78, DW_AT_decl_line(0x71)
    1745                            .dwattr $C$DW$T$78, DW_AT_decl_column(0x10)
    1746                            .dwendtag $C$DW$T$78
    1747                    
    1748                    $C$DW$T$219     .dwtag  DW_TAG_typedef
    1749                            .dwattr $C$DW$T$219, DW_AT_name("HwiP_Params")
    1750                            .dwattr $C$DW$T$219, DW_AT_type(*$C$DW$T$78)
    1751                            .dwattr $C$DW$T$219, DW_AT_language(DW_LANG_C)
    1752                            .dwattr $C$DW$T$219, DW_AT_decl_file("C:/ti/simplelink_cc13x0_sdk_2_30_00_20/source/ti/drivers
    1753                            .dwattr $C$DW$T$219, DW_AT_decl_line(0x75)
    1754                            .dwattr $C$DW$T$219, DW_AT_decl_column(0x03)
    1755                    
    1756                    
    1757                    $C$DW$T$220     .dwtag  DW_TAG_enumeration_type
    1758                            .dwattr $C$DW$T$220, DW_AT_name("HwiP_Status")
    1759                            .dwattr $C$DW$T$220, DW_AT_byte_size(0x01)
    1760                    $C$DW$143       .dwtag  DW_TAG_enumerator
TI ARM Assembler PC v18.1.3 Wed Nov 28 13:34:39 2018

Tools Copyright (c) 1996-2017 Texas Instruments Incorporated
C:\Users\Adrian\AppData\Local\Temp\{DE9C6956-9654-4461-9319-00DA2038484A} PAGE   33

    1761                            .dwattr $C$DW$143, DW_AT_name("HwiP_OK")
    1762                            .dwattr $C$DW$143, DW_AT_const_value(0x00)
    1763                            .dwattr $C$DW$143, DW_AT_decl_file("C:/ti/simplelink_cc13x0_sdk_2_30_00_20/source/ti/drivers/d
    1764                            .dwattr $C$DW$143, DW_AT_decl_line(0x5c)
    1765                            .dwattr $C$DW$143, DW_AT_decl_column(0x05)
    1766                    
    1767                    $C$DW$144       .dwtag  DW_TAG_enumerator
    1768                            .dwattr $C$DW$144, DW_AT_name("HwiP_FAILURE")
    1769                            .dwattr $C$DW$144, DW_AT_const_value(-1)
    1770                            .dwattr $C$DW$144, DW_AT_decl_file("C:/ti/simplelink_cc13x0_sdk_2_30_00_20/source/ti/drivers/d
    1771                            .dwattr $C$DW$144, DW_AT_decl_line(0x5d)
    1772                            .dwattr $C$DW$144, DW_AT_decl_column(0x05)
    1773                    
    1774                            .dwattr $C$DW$T$220, DW_AT_decl_file("C:/ti/simplelink_cc13x0_sdk_2_30_00_20/source/ti/drivers
    1775                            .dwattr $C$DW$T$220, DW_AT_decl_line(0x5b)
    1776                            .dwattr $C$DW$T$220, DW_AT_decl_column(0x0e)
    1777                            .dwendtag $C$DW$T$220
    1778                    
    1779                    $C$DW$T$221     .dwtag  DW_TAG_typedef
    1780                            .dwattr $C$DW$T$221, DW_AT_name("HwiP_Status")
    1781                            .dwattr $C$DW$T$221, DW_AT_type(*$C$DW$T$220)
    1782                            .dwattr $C$DW$T$221, DW_AT_language(DW_LANG_C)
    1783                            .dwattr $C$DW$T$221, DW_AT_decl_file("C:/ti/simplelink_cc13x0_sdk_2_30_00_20/source/ti/drivers
    1784                            .dwattr $C$DW$T$221, DW_AT_decl_line(0x5e)
    1785                            .dwattr $C$DW$T$221, DW_AT_decl_column(0x03)
    1786                    
    1787                    
    1788                    $C$DW$T$80      .dwtag  DW_TAG_union_type
    1789                            .dwattr $C$DW$T$80, DW_AT_name("HwiP_Struct")
    1790                            .dwattr $C$DW$T$80, DW_AT_byte_size(0x1c)
    1791                    $C$DW$145       .dwtag  DW_TAG_member
    1792                            .dwattr $C$DW$145, DW_AT_type(*$C$DW$T$23)
    1793                            .dwattr $C$DW$145, DW_AT_name("dummy")
    1794                            .dwattr $C$DW$145, DW_AT_TI_symbol_name("dummy")
    1795                            .dwattr $C$DW$145, DW_AT_data_member_location[DW_OP_plus_uconst 0x0]
    1796                            .dwattr $C$DW$145, DW_AT_accessibility(DW_ACCESS_public)
    1797                            .dwattr $C$DW$145, DW_AT_decl_file("C:/ti/simplelink_cc13x0_sdk_2_30_00_20/source/ti/drivers/d
    1798                            .dwattr $C$DW$145, DW_AT_decl_line(0x4d)
    1799                            .dwattr $C$DW$145, DW_AT_decl_column(0x0e)
    1800                    
    1801                    $C$DW$146       .dwtag  DW_TAG_member
    1802                            .dwattr $C$DW$146, DW_AT_type(*$C$DW$T$79)
    1803                            .dwattr $C$DW$146, DW_AT_name("data")
    1804                            .dwattr $C$DW$146, DW_AT_TI_symbol_name("data")
    1805                            .dwattr $C$DW$146, DW_AT_data_member_location[DW_OP_plus_uconst 0x0]
    1806                            .dwattr $C$DW$146, DW_AT_accessibility(DW_ACCESS_public)
    1807                            .dwattr $C$DW$146, DW_AT_decl_file("C:/ti/simplelink_cc13x0_sdk_2_30_00_20/source/ti/drivers/d
    1808                            .dwattr $C$DW$146, DW_AT_decl_line(0x4e)
    1809                            .dwattr $C$DW$146, DW_AT_decl_column(0x0e)
    1810                    
    1811                            .dwattr $C$DW$T$80, DW_AT_decl_file("C:/ti/simplelink_cc13x0_sdk_2_30_00_20/source/ti/drivers/
    1812                            .dwattr $C$DW$T$80, DW_AT_decl_line(0x4c)
    1813                            .dwattr $C$DW$T$80, DW_AT_decl_column(0x0f)
    1814                            .dwendtag $C$DW$T$80
    1815                    
TI ARM Assembler PC v18.1.3 Wed Nov 28 13:34:39 2018

Tools Copyright (c) 1996-2017 Texas Instruments Incorporated
C:\Users\Adrian\AppData\Local\Temp\{DE9C6956-9654-4461-9319-00DA2038484A} PAGE   34

    1816                    $C$DW$T$142     .dwtag  DW_TAG_typedef
    1817                            .dwattr $C$DW$T$142, DW_AT_name("HwiP_Struct")
    1818                            .dwattr $C$DW$T$142, DW_AT_type(*$C$DW$T$80)
    1819                            .dwattr $C$DW$T$142, DW_AT_language(DW_LANG_C)
    1820                            .dwattr $C$DW$T$142, DW_AT_decl_file("C:/ti/simplelink_cc13x0_sdk_2_30_00_20/source/ti/drivers
    1821                            .dwattr $C$DW$T$142, DW_AT_decl_line(0x4f)
    1822                            .dwattr $C$DW$T$142, DW_AT_decl_column(0x03)
    1823                    
    1824                    
    1825                    $C$DW$T$82      .dwtag  DW_TAG_structure_type
    1826                            .dwattr $C$DW$T$82, DW_AT_name("List_Elem")
    1827                            .dwattr $C$DW$T$82, DW_AT_byte_size(0x08)
    1828                    $C$DW$147       .dwtag  DW_TAG_member
    1829                            .dwattr $C$DW$147, DW_AT_type(*$C$DW$T$81)
    1830                            .dwattr $C$DW$147, DW_AT_name("next")
    1831                            .dwattr $C$DW$147, DW_AT_TI_symbol_name("next")
    1832                            .dwattr $C$DW$147, DW_AT_data_member_location[DW_OP_plus_uconst 0x0]
    1833                            .dwattr $C$DW$147, DW_AT_accessibility(DW_ACCESS_public)
    1834                            .dwattr $C$DW$147, DW_AT_decl_file("C:/ti/simplelink_cc13x0_sdk_2_30_00_20/source/ti/drivers/u
    1835                            .dwattr $C$DW$147, DW_AT_decl_line(0x7f)
    1836                            .dwattr $C$DW$147, DW_AT_decl_column(0x17)
    1837                    
    1838                    $C$DW$148       .dwtag  DW_TAG_member
    1839                            .dwattr $C$DW$148, DW_AT_type(*$C$DW$T$81)
    1840                            .dwattr $C$DW$148, DW_AT_name("prev")
    1841                            .dwattr $C$DW$148, DW_AT_TI_symbol_name("prev")
    1842                            .dwattr $C$DW$148, DW_AT_data_member_location[DW_OP_plus_uconst 0x4]
    1843                            .dwattr $C$DW$148, DW_AT_accessibility(DW_ACCESS_public)
    1844                            .dwattr $C$DW$148, DW_AT_decl_file("C:/ti/simplelink_cc13x0_sdk_2_30_00_20/source/ti/drivers/u
    1845                            .dwattr $C$DW$148, DW_AT_decl_line(0x80)
    1846                            .dwattr $C$DW$148, DW_AT_decl_column(0x17)
    1847                    
    1848                            .dwattr $C$DW$T$82, DW_AT_decl_file("C:/ti/simplelink_cc13x0_sdk_2_30_00_20/source/ti/drivers/
    1849                            .dwattr $C$DW$T$82, DW_AT_decl_line(0x7e)
    1850                            .dwattr $C$DW$T$82, DW_AT_decl_column(0x10)
    1851                            .dwendtag $C$DW$T$82
    1852                    
    1853                    $C$DW$T$83      .dwtag  DW_TAG_typedef
    1854                            .dwattr $C$DW$T$83, DW_AT_name("List_Elem")
    1855                            .dwattr $C$DW$T$83, DW_AT_type(*$C$DW$T$82)
    1856                            .dwattr $C$DW$T$83, DW_AT_language(DW_LANG_C)
    1857                            .dwattr $C$DW$T$83, DW_AT_decl_file("C:/ti/simplelink_cc13x0_sdk_2_30_00_20/source/ti/drivers/
    1858                            .dwattr $C$DW$T$83, DW_AT_decl_line(0x81)
    1859                            .dwattr $C$DW$T$83, DW_AT_decl_column(0x03)
    1860                    
    1861                    $C$DW$T$84      .dwtag  DW_TAG_pointer_type
    1862                            .dwattr $C$DW$T$84, DW_AT_type(*$C$DW$T$83)
    1863                            .dwattr $C$DW$T$84, DW_AT_address_class(0x20)
    1864                    
    1865                    $C$DW$T$81      .dwtag  DW_TAG_pointer_type
    1866                            .dwattr $C$DW$T$81, DW_AT_type(*$C$DW$T$82)
    1867                            .dwattr $C$DW$T$81, DW_AT_address_class(0x20)
    1868                    
    1869                    
    1870                    $C$DW$T$85      .dwtag  DW_TAG_structure_type
TI ARM Assembler PC v18.1.3 Wed Nov 28 13:34:39 2018

Tools Copyright (c) 1996-2017 Texas Instruments Incorporated
C:\Users\Adrian\AppData\Local\Temp\{DE9C6956-9654-4461-9319-00DA2038484A} PAGE   35

    1871                            .dwattr $C$DW$T$85, DW_AT_name("List_List")
    1872                            .dwattr $C$DW$T$85, DW_AT_byte_size(0x08)
    1873                    $C$DW$149       .dwtag  DW_TAG_member
    1874                            .dwattr $C$DW$149, DW_AT_type(*$C$DW$T$84)
    1875                            .dwattr $C$DW$149, DW_AT_name("head")
    1876                            .dwattr $C$DW$149, DW_AT_TI_symbol_name("head")
    1877                            .dwattr $C$DW$149, DW_AT_data_member_location[DW_OP_plus_uconst 0x0]
    1878                            .dwattr $C$DW$149, DW_AT_accessibility(DW_ACCESS_public)
    1879                            .dwattr $C$DW$149, DW_AT_decl_file("C:/ti/simplelink_cc13x0_sdk_2_30_00_20/source/ti/drivers/u
    1880                            .dwattr $C$DW$149, DW_AT_decl_line(0x84)
    1881                            .dwattr $C$DW$149, DW_AT_decl_column(0x10)
    1882                    
    1883                    $C$DW$150       .dwtag  DW_TAG_member
    1884                            .dwattr $C$DW$150, DW_AT_type(*$C$DW$T$84)
    1885                            .dwattr $C$DW$150, DW_AT_name("tail")
    1886                            .dwattr $C$DW$150, DW_AT_TI_symbol_name("tail")
    1887                            .dwattr $C$DW$150, DW_AT_data_member_location[DW_OP_plus_uconst 0x4]
    1888                            .dwattr $C$DW$150, DW_AT_accessibility(DW_ACCESS_public)
    1889                            .dwattr $C$DW$150, DW_AT_decl_file("C:/ti/simplelink_cc13x0_sdk_2_30_00_20/source/ti/drivers/u
    1890                            .dwattr $C$DW$150, DW_AT_decl_line(0x85)
    1891                            .dwattr $C$DW$150, DW_AT_decl_column(0x10)
    1892                    
    1893                            .dwattr $C$DW$T$85, DW_AT_decl_file("C:/ti/simplelink_cc13x0_sdk_2_30_00_20/source/ti/drivers/
    1894                            .dwattr $C$DW$T$85, DW_AT_decl_line(0x83)
    1895                            .dwattr $C$DW$T$85, DW_AT_decl_column(0x10)
    1896                            .dwendtag $C$DW$T$85
    1897                    
    1898                    $C$DW$T$222     .dwtag  DW_TAG_typedef
    1899                            .dwattr $C$DW$T$222, DW_AT_name("List_List")
    1900                            .dwattr $C$DW$T$222, DW_AT_type(*$C$DW$T$85)
    1901                            .dwattr $C$DW$T$222, DW_AT_language(DW_LANG_C)
    1902                            .dwattr $C$DW$T$222, DW_AT_decl_file("C:/ti/simplelink_cc13x0_sdk_2_30_00_20/source/ti/drivers
    1903                            .dwattr $C$DW$T$222, DW_AT_decl_line(0x86)
    1904                            .dwattr $C$DW$T$222, DW_AT_decl_column(0x03)
    1905                    
    1906                    
    1907                    $C$DW$T$86      .dwtag  DW_TAG_structure_type
    1908                            .dwattr $C$DW$T$86, DW_AT_name("PINCC26XX_HWAttrs")
    1909                            .dwattr $C$DW$T$86, DW_AT_byte_size(0x08)
    1910                    $C$DW$151       .dwtag  DW_TAG_member
    1911                            .dwattr $C$DW$151, DW_AT_type(*$C$DW$T$25)
    1912                            .dwattr $C$DW$151, DW_AT_name("intPriority")
    1913                            .dwattr $C$DW$151, DW_AT_TI_symbol_name("intPriority")
    1914                            .dwattr $C$DW$151, DW_AT_data_member_location[DW_OP_plus_uconst 0x0]
    1915                            .dwattr $C$DW$151, DW_AT_accessibility(DW_ACCESS_public)
    1916                            .dwattr $C$DW$151, DW_AT_decl_file("C:/ti/simplelink_cc13x0_sdk_2_30_00_20/source/ti/drivers/p
    1917                            .dwattr $C$DW$151, DW_AT_decl_line(0x175)
    1918                            .dwattr $C$DW$151, DW_AT_decl_column(0x16)
    1919                    
    1920                    $C$DW$152       .dwtag  DW_TAG_member
    1921                            .dwattr $C$DW$152, DW_AT_type(*$C$DW$T$23)
    1922                            .dwattr $C$DW$152, DW_AT_name("swiPriority")
    1923                            .dwattr $C$DW$152, DW_AT_TI_symbol_name("swiPriority")
    1924                            .dwattr $C$DW$152, DW_AT_data_member_location[DW_OP_plus_uconst 0x4]
    1925                            .dwattr $C$DW$152, DW_AT_accessibility(DW_ACCESS_public)
TI ARM Assembler PC v18.1.3 Wed Nov 28 13:34:39 2018

Tools Copyright (c) 1996-2017 Texas Instruments Incorporated
C:\Users\Adrian\AppData\Local\Temp\{DE9C6956-9654-4461-9319-00DA2038484A} PAGE   36

    1926                            .dwattr $C$DW$152, DW_AT_decl_file("C:/ti/simplelink_cc13x0_sdk_2_30_00_20/source/ti/drivers/p
    1927                            .dwattr $C$DW$152, DW_AT_decl_line(0x17b)
    1928                            .dwattr $C$DW$152, DW_AT_decl_column(0x16)
    1929                    
    1930                            .dwattr $C$DW$T$86, DW_AT_decl_file("C:/ti/simplelink_cc13x0_sdk_2_30_00_20/source/ti/drivers/
    1931                            .dwattr $C$DW$T$86, DW_AT_decl_line(0x167)
    1932                            .dwattr $C$DW$T$86, DW_AT_decl_column(0x10)
    1933                            .dwendtag $C$DW$T$86
    1934                    
    1935                    $C$DW$T$223     .dwtag  DW_TAG_typedef
    1936                            .dwattr $C$DW$T$223, DW_AT_name("PINCC26XX_HWAttrs")
    1937                            .dwattr $C$DW$T$223, DW_AT_type(*$C$DW$T$86)
    1938                            .dwattr $C$DW$T$223, DW_AT_language(DW_LANG_C)
    1939                            .dwattr $C$DW$T$223, DW_AT_decl_file("C:/ti/simplelink_cc13x0_sdk_2_30_00_20/source/ti/drivers
    1940                            .dwattr $C$DW$T$223, DW_AT_decl_line(0x17c)
    1941                            .dwattr $C$DW$T$223, DW_AT_decl_column(0x03)
    1942                    
    1943                    
    1944                    $C$DW$T$94      .dwtag  DW_TAG_structure_type
    1945                            .dwattr $C$DW$T$94, DW_AT_name("PIN_State_s")
    1946                            .dwattr $C$DW$T$94, DW_AT_byte_size(0x0c)
    1947                    $C$DW$153       .dwtag  DW_TAG_member
    1948                            .dwattr $C$DW$153, DW_AT_type(*$C$DW$T$93)
    1949                            .dwattr $C$DW$153, DW_AT_name("callbackFxn")
    1950                            .dwattr $C$DW$153, DW_AT_TI_symbol_name("callbackFxn")
    1951                            .dwattr $C$DW$153, DW_AT_data_member_location[DW_OP_plus_uconst 0x0]
    1952                            .dwattr $C$DW$153, DW_AT_accessibility(DW_ACCESS_public)
    1953                            .dwattr $C$DW$153, DW_AT_decl_file("C:/ti/simplelink_cc13x0_sdk_2_30_00_20/source/ti/drivers/P
    1954                            .dwattr $C$DW$153, DW_AT_decl_line(0x2c5)
    1955                            .dwattr $C$DW$153, DW_AT_decl_column(0x11)
    1956                    
    1957                    $C$DW$154       .dwtag  DW_TAG_member
    1958                            .dwattr $C$DW$154, DW_AT_type(*$C$DW$T$23)
    1959                            .dwattr $C$DW$154, DW_AT_name("portMask")
    1960                            .dwattr $C$DW$154, DW_AT_TI_symbol_name("portMask")
    1961                            .dwattr $C$DW$154, DW_AT_data_member_location[DW_OP_plus_uconst 0x4]
    1962                            .dwattr $C$DW$154, DW_AT_accessibility(DW_ACCESS_public)
    1963                            .dwattr $C$DW$154, DW_AT_decl_file("C:/ti/simplelink_cc13x0_sdk_2_30_00_20/source/ti/drivers/P
    1964                            .dwattr $C$DW$154, DW_AT_decl_line(0x2c6)
    1965                            .dwattr $C$DW$154, DW_AT_decl_column(0x11)
    1966                    
    1967                    $C$DW$155       .dwtag  DW_TAG_member
    1968                            .dwattr $C$DW$155, DW_AT_type(*$C$DW$T$73)
    1969                            .dwattr $C$DW$155, DW_AT_name("userArg")
    1970                            .dwattr $C$DW$155, DW_AT_TI_symbol_name("userArg")
    1971                            .dwattr $C$DW$155, DW_AT_data_member_location[DW_OP_plus_uconst 0x8]
    1972                            .dwattr $C$DW$155, DW_AT_accessibility(DW_ACCESS_public)
    1973                            .dwattr $C$DW$155, DW_AT_decl_file("C:/ti/simplelink_cc13x0_sdk_2_30_00_20/source/ti/drivers/P
    1974                            .dwattr $C$DW$155, DW_AT_decl_line(0x2c7)
    1975                            .dwattr $C$DW$155, DW_AT_decl_column(0x11)
    1976                    
    1977                            .dwattr $C$DW$T$94, DW_AT_decl_file("C:/ti/simplelink_cc13x0_sdk_2_30_00_20/source/ti/drivers/
    1978                            .dwattr $C$DW$T$94, DW_AT_decl_line(0x2c4)
    1979                            .dwattr $C$DW$T$94, DW_AT_decl_column(0x08)
    1980                            .dwendtag $C$DW$T$94
TI ARM Assembler PC v18.1.3 Wed Nov 28 13:34:39 2018

Tools Copyright (c) 1996-2017 Texas Instruments Incorporated
C:\Users\Adrian\AppData\Local\Temp\{DE9C6956-9654-4461-9319-00DA2038484A} PAGE   37

    1981                    
    1982                    $C$DW$T$87      .dwtag  DW_TAG_typedef
    1983                            .dwattr $C$DW$T$87, DW_AT_name("PIN_State")
    1984                            .dwattr $C$DW$T$87, DW_AT_type(*$C$DW$T$94)
    1985                            .dwattr $C$DW$T$87, DW_AT_language(DW_LANG_C)
    1986                            .dwattr $C$DW$T$87, DW_AT_decl_file("C:/ti/simplelink_cc13x0_sdk_2_30_00_20/source/ti/drivers/
    1987                            .dwattr $C$DW$T$87, DW_AT_decl_line(0x2ad)
    1988                            .dwattr $C$DW$T$87, DW_AT_decl_column(0x1c)
    1989                    
    1990                    $C$DW$T$88      .dwtag  DW_TAG_pointer_type
    1991                            .dwattr $C$DW$T$88, DW_AT_type(*$C$DW$T$87)
    1992                            .dwattr $C$DW$T$88, DW_AT_address_class(0x20)
    1993                    
    1994                    $C$DW$T$89      .dwtag  DW_TAG_typedef
    1995                            .dwattr $C$DW$T$89, DW_AT_name("PIN_Handle")
    1996                            .dwattr $C$DW$T$89, DW_AT_type(*$C$DW$T$88)
    1997                            .dwattr $C$DW$T$89, DW_AT_language(DW_LANG_C)
    1998                            .dwattr $C$DW$T$89, DW_AT_decl_file("C:/ti/simplelink_cc13x0_sdk_2_30_00_20/source/ti/drivers/
    1999                            .dwattr $C$DW$T$89, DW_AT_decl_line(0x2b3)
    2000                            .dwattr $C$DW$T$89, DW_AT_decl_column(0x14)
    2001                    
    2002                    
    2003                    $C$DW$T$103     .dwtag  DW_TAG_structure_type
    2004                            .dwattr $C$DW$T$103, DW_AT_name("Power_NotifyObj_")
    2005                            .dwattr $C$DW$T$103, DW_AT_byte_size(0x14)
    2006                    $C$DW$156       .dwtag  DW_TAG_member
    2007                            .dwattr $C$DW$156, DW_AT_type(*$C$DW$T$83)
    2008                            .dwattr $C$DW$156, DW_AT_name("link")
    2009                            .dwattr $C$DW$156, DW_AT_TI_symbol_name("link")
    2010                            .dwattr $C$DW$156, DW_AT_data_member_location[DW_OP_plus_uconst 0x0]
    2011                            .dwattr $C$DW$156, DW_AT_accessibility(DW_ACCESS_public)
    2012                            .dwattr $C$DW$156, DW_AT_decl_file("C:/ti/simplelink_cc13x0_sdk_2_30_00_20/source/ti/drivers/P
    2013                            .dwattr $C$DW$156, DW_AT_decl_line(0x7a)
    2014                            .dwattr $C$DW$156, DW_AT_decl_column(0x0f)
    2015                    
    2016                    $C$DW$157       .dwtag  DW_TAG_member
    2017                            .dwattr $C$DW$157, DW_AT_type(*$C$DW$T$96)
    2018                            .dwattr $C$DW$157, DW_AT_name("eventTypes")
    2019                            .dwattr $C$DW$157, DW_AT_TI_symbol_name("eventTypes")
    2020                            .dwattr $C$DW$157, DW_AT_data_member_location[DW_OP_plus_uconst 0x8]
    2021                            .dwattr $C$DW$157, DW_AT_accessibility(DW_ACCESS_public)
    2022                            .dwattr $C$DW$157, DW_AT_decl_file("C:/ti/simplelink_cc13x0_sdk_2_30_00_20/source/ti/drivers/P
    2023                            .dwattr $C$DW$157, DW_AT_decl_line(0x7b)
    2024                            .dwattr $C$DW$157, DW_AT_decl_column(0x13)
    2025                    
    2026                    $C$DW$158       .dwtag  DW_TAG_member
    2027                            .dwattr $C$DW$158, DW_AT_type(*$C$DW$T$102)
    2028                            .dwattr $C$DW$158, DW_AT_name("notifyFxn")
    2029                            .dwattr $C$DW$158, DW_AT_TI_symbol_name("notifyFxn")
    2030                            .dwattr $C$DW$158, DW_AT_data_member_location[DW_OP_plus_uconst 0xc]
    2031                            .dwattr $C$DW$158, DW_AT_accessibility(DW_ACCESS_public)
    2032                            .dwattr $C$DW$158, DW_AT_decl_file("C:/ti/simplelink_cc13x0_sdk_2_30_00_20/source/ti/drivers/P
    2033                            .dwattr $C$DW$158, DW_AT_decl_line(0x7c)
    2034                            .dwattr $C$DW$158, DW_AT_decl_column(0x15)
    2035                    
TI ARM Assembler PC v18.1.3 Wed Nov 28 13:34:39 2018

Tools Copyright (c) 1996-2017 Texas Instruments Incorporated
C:\Users\Adrian\AppData\Local\Temp\{DE9C6956-9654-4461-9319-00DA2038484A} PAGE   38

    2036                    $C$DW$159       .dwtag  DW_TAG_member
    2037                            .dwattr $C$DW$159, DW_AT_type(*$C$DW$T$73)
    2038                            .dwattr $C$DW$159, DW_AT_name("clientArg")
    2039                            .dwattr $C$DW$159, DW_AT_TI_symbol_name("clientArg")
    2040                            .dwattr $C$DW$159, DW_AT_data_member_location[DW_OP_plus_uconst 0x10]
    2041                            .dwattr $C$DW$159, DW_AT_accessibility(DW_ACCESS_public)
    2042                            .dwattr $C$DW$159, DW_AT_decl_file("C:/ti/simplelink_cc13x0_sdk_2_30_00_20/source/ti/drivers/P
    2043                            .dwattr $C$DW$159, DW_AT_decl_line(0x7d)
    2044                            .dwattr $C$DW$159, DW_AT_decl_column(0x0f)
    2045                    
    2046                            .dwattr $C$DW$T$103, DW_AT_decl_file("C:/ti/simplelink_cc13x0_sdk_2_30_00_20/source/ti/drivers
    2047                            .dwattr $C$DW$T$103, DW_AT_decl_line(0x79)
    2048                            .dwattr $C$DW$T$103, DW_AT_decl_column(0x10)
    2049                            .dwendtag $C$DW$T$103
    2050                    
    2051                    $C$DW$T$141     .dwtag  DW_TAG_typedef
    2052                            .dwattr $C$DW$T$141, DW_AT_name("Power_NotifyObj")
    2053                            .dwattr $C$DW$T$141, DW_AT_type(*$C$DW$T$103)
    2054                            .dwattr $C$DW$T$141, DW_AT_language(DW_LANG_C)
    2055                            .dwattr $C$DW$T$141, DW_AT_decl_file("C:/ti/simplelink_cc13x0_sdk_2_30_00_20/source/ti/drivers
    2056                            .dwattr $C$DW$T$141, DW_AT_decl_line(0x7e)
    2057                            .dwattr $C$DW$T$141, DW_AT_decl_column(0x03)
    2058                    
    2059                    
    2060                    $C$DW$T$106     .dwtag  DW_TAG_structure_type
    2061                            .dwattr $C$DW$T$106, DW_AT_name("RingBuf_Object")
    2062                            .dwattr $C$DW$T$106, DW_AT_byte_size(0x18)
    2063                    $C$DW$160       .dwtag  DW_TAG_member
    2064                            .dwattr $C$DW$160, DW_AT_type(*$C$DW$T$104)
    2065                            .dwattr $C$DW$160, DW_AT_name("buffer")
    2066                            .dwattr $C$DW$160, DW_AT_TI_symbol_name("buffer")
    2067                            .dwattr $C$DW$160, DW_AT_data_member_location[DW_OP_plus_uconst 0x0]
    2068                            .dwattr $C$DW$160, DW_AT_accessibility(DW_ACCESS_public)
    2069                            .dwattr $C$DW$160, DW_AT_decl_file("C:/ti/simplelink_cc13x0_sdk_2_30_00_20/source/ti/drivers/u
    2070                            .dwattr $C$DW$160, DW_AT_decl_line(0x2d)
    2071                            .dwattr $C$DW$160, DW_AT_decl_column(0x19)
    2072                    
    2073                    $C$DW$161       .dwtag  DW_TAG_member
    2074                            .dwattr $C$DW$161, DW_AT_type(*$C$DW$T$105)
    2075                            .dwattr $C$DW$161, DW_AT_name("length")
    2076                            .dwattr $C$DW$161, DW_AT_TI_symbol_name("length")
    2077                            .dwattr $C$DW$161, DW_AT_data_member_location[DW_OP_plus_uconst 0x4]
    2078                            .dwattr $C$DW$161, DW_AT_accessibility(DW_ACCESS_public)
    2079                            .dwattr $C$DW$161, DW_AT_decl_file("C:/ti/simplelink_cc13x0_sdk_2_30_00_20/source/ti/drivers/u
    2080                            .dwattr $C$DW$161, DW_AT_decl_line(0x2e)
    2081                            .dwattr $C$DW$161, DW_AT_decl_column(0x19)
    2082                    
    2083                    $C$DW$162       .dwtag  DW_TAG_member
    2084                            .dwattr $C$DW$162, DW_AT_type(*$C$DW$T$105)
    2085                            .dwattr $C$DW$162, DW_AT_name("count")
    2086                            .dwattr $C$DW$162, DW_AT_TI_symbol_name("count")
    2087                            .dwattr $C$DW$162, DW_AT_data_member_location[DW_OP_plus_uconst 0x8]
    2088                            .dwattr $C$DW$162, DW_AT_accessibility(DW_ACCESS_public)
    2089                            .dwattr $C$DW$162, DW_AT_decl_file("C:/ti/simplelink_cc13x0_sdk_2_30_00_20/source/ti/drivers/u
    2090                            .dwattr $C$DW$162, DW_AT_decl_line(0x2f)
TI ARM Assembler PC v18.1.3 Wed Nov 28 13:34:39 2018

Tools Copyright (c) 1996-2017 Texas Instruments Incorporated
C:\Users\Adrian\AppData\Local\Temp\{DE9C6956-9654-4461-9319-00DA2038484A} PAGE   39

    2091                            .dwattr $C$DW$162, DW_AT_decl_column(0x19)
    2092                    
    2093                    $C$DW$163       .dwtag  DW_TAG_member
    2094                            .dwattr $C$DW$163, DW_AT_type(*$C$DW$T$105)
    2095                            .dwattr $C$DW$163, DW_AT_name("head")
    2096                            .dwattr $C$DW$163, DW_AT_TI_symbol_name("head")
    2097                            .dwattr $C$DW$163, DW_AT_data_member_location[DW_OP_plus_uconst 0xc]
    2098                            .dwattr $C$DW$163, DW_AT_accessibility(DW_ACCESS_public)
    2099                            .dwattr $C$DW$163, DW_AT_decl_file("C:/ti/simplelink_cc13x0_sdk_2_30_00_20/source/ti/drivers/u
    2100                            .dwattr $C$DW$163, DW_AT_decl_line(0x30)
    2101                            .dwattr $C$DW$163, DW_AT_decl_column(0x19)
    2102                    
    2103                    $C$DW$164       .dwtag  DW_TAG_member
    2104                            .dwattr $C$DW$164, DW_AT_type(*$C$DW$T$105)
    2105                            .dwattr $C$DW$164, DW_AT_name("tail")
    2106                            .dwattr $C$DW$164, DW_AT_TI_symbol_name("tail")
    2107                            .dwattr $C$DW$164, DW_AT_data_member_location[DW_OP_plus_uconst 0x10]
    2108                            .dwattr $C$DW$164, DW_AT_accessibility(DW_ACCESS_public)
    2109                            .dwattr $C$DW$164, DW_AT_decl_file("C:/ti/simplelink_cc13x0_sdk_2_30_00_20/source/ti/drivers/u
    2110                            .dwattr $C$DW$164, DW_AT_decl_line(0x31)
    2111                            .dwattr $C$DW$164, DW_AT_decl_column(0x19)
    2112                    
    2113                    $C$DW$165       .dwtag  DW_TAG_member
    2114                            .dwattr $C$DW$165, DW_AT_type(*$C$DW$T$105)
    2115                            .dwattr $C$DW$165, DW_AT_name("maxCount")
    2116                            .dwattr $C$DW$165, DW_AT_TI_symbol_name("maxCount")
    2117                            .dwattr $C$DW$165, DW_AT_data_member_location[DW_OP_plus_uconst 0x14]
    2118                            .dwattr $C$DW$165, DW_AT_accessibility(DW_ACCESS_public)
    2119                            .dwattr $C$DW$165, DW_AT_decl_file("C:/ti/simplelink_cc13x0_sdk_2_30_00_20/source/ti/drivers/u
    2120                            .dwattr $C$DW$165, DW_AT_decl_line(0x32)
    2121                            .dwattr $C$DW$165, DW_AT_decl_column(0x19)
    2122                    
    2123                            .dwattr $C$DW$T$106, DW_AT_decl_file("C:/ti/simplelink_cc13x0_sdk_2_30_00_20/source/ti/drivers
    2124                            .dwattr $C$DW$T$106, DW_AT_decl_line(0x2c)
    2125                            .dwattr $C$DW$T$106, DW_AT_decl_column(0x10)
    2126                            .dwendtag $C$DW$T$106
    2127                    
    2128                    $C$DW$T$140     .dwtag  DW_TAG_typedef
    2129                            .dwattr $C$DW$T$140, DW_AT_name("RingBuf_Object")
    2130                            .dwattr $C$DW$T$140, DW_AT_type(*$C$DW$T$106)
    2131                            .dwattr $C$DW$T$140, DW_AT_language(DW_LANG_C)
    2132                            .dwattr $C$DW$T$140, DW_AT_decl_file("C:/ti/simplelink_cc13x0_sdk_2_30_00_20/source/ti/drivers
    2133                            .dwattr $C$DW$T$140, DW_AT_decl_line(0x33)
    2134                            .dwattr $C$DW$T$140, DW_AT_decl_column(0x03)
    2135                    
    2136                    $C$DW$T$224     .dwtag  DW_TAG_pointer_type
    2137                            .dwattr $C$DW$T$224, DW_AT_type(*$C$DW$T$106)
    2138                            .dwattr $C$DW$T$224, DW_AT_address_class(0x20)
    2139                    
    2140                    $C$DW$T$225     .dwtag  DW_TAG_typedef
    2141                            .dwattr $C$DW$T$225, DW_AT_name("RingBuf_Handle")
    2142                            .dwattr $C$DW$T$225, DW_AT_type(*$C$DW$T$224)
    2143                            .dwattr $C$DW$T$225, DW_AT_language(DW_LANG_C)
    2144                            .dwattr $C$DW$T$225, DW_AT_decl_file("C:/ti/simplelink_cc13x0_sdk_2_30_00_20/source/ti/drivers
    2145                            .dwattr $C$DW$T$225, DW_AT_decl_line(0x33)
TI ARM Assembler PC v18.1.3 Wed Nov 28 13:34:39 2018

Tools Copyright (c) 1996-2017 Texas Instruments Incorporated
C:\Users\Adrian\AppData\Local\Temp\{DE9C6956-9654-4461-9319-00DA2038484A} PAGE   40

    2146                            .dwattr $C$DW$T$225, DW_AT_decl_column(0x14)
    2147                    
    2148                    
    2149                    $C$DW$T$107     .dwtag  DW_TAG_enumeration_type
    2150                            .dwattr $C$DW$T$107, DW_AT_name("SemaphoreP_Mode")
    2151                            .dwattr $C$DW$T$107, DW_AT_byte_size(0x01)
    2152                    $C$DW$166       .dwtag  DW_TAG_enumerator
    2153                            .dwattr $C$DW$166, DW_AT_name("SemaphoreP_Mode_COUNTING")
    2154                            .dwattr $C$DW$166, DW_AT_const_value(0x00)
    2155                            .dwattr $C$DW$166, DW_AT_decl_file("C:/ti/simplelink_cc13x0_sdk_2_30_00_20/source/ti/drivers/d
    2156                            .dwattr $C$DW$166, DW_AT_decl_line(0x78)
    2157                            .dwattr $C$DW$166, DW_AT_decl_column(0x05)
    2158                    
    2159                    $C$DW$167       .dwtag  DW_TAG_enumerator
    2160                            .dwattr $C$DW$167, DW_AT_name("SemaphoreP_Mode_BINARY")
    2161                            .dwattr $C$DW$167, DW_AT_const_value(0x01)
    2162                            .dwattr $C$DW$167, DW_AT_decl_file("C:/ti/simplelink_cc13x0_sdk_2_30_00_20/source/ti/drivers/d
    2163                            .dwattr $C$DW$167, DW_AT_decl_line(0x79)
    2164                            .dwattr $C$DW$167, DW_AT_decl_column(0x05)
    2165                    
    2166                            .dwattr $C$DW$T$107, DW_AT_decl_file("C:/ti/simplelink_cc13x0_sdk_2_30_00_20/source/ti/drivers
    2167                            .dwattr $C$DW$T$107, DW_AT_decl_line(0x77)
    2168                            .dwattr $C$DW$T$107, DW_AT_decl_column(0x0e)
    2169                            .dwendtag $C$DW$T$107
    2170                    
    2171                    $C$DW$T$108     .dwtag  DW_TAG_typedef
    2172                            .dwattr $C$DW$T$108, DW_AT_name("SemaphoreP_Mode")
    2173                            .dwattr $C$DW$T$108, DW_AT_type(*$C$DW$T$107)
    2174                            .dwattr $C$DW$T$108, DW_AT_language(DW_LANG_C)
    2175                            .dwattr $C$DW$T$108, DW_AT_decl_file("C:/ti/simplelink_cc13x0_sdk_2_30_00_20/source/ti/drivers
    2176                            .dwattr $C$DW$T$108, DW_AT_decl_line(0x7a)
    2177                            .dwattr $C$DW$T$108, DW_AT_decl_column(0x03)
    2178                    
    2179                    
    2180                    $C$DW$T$109     .dwtag  DW_TAG_structure_type
    2181                            .dwattr $C$DW$T$109, DW_AT_name("SemaphoreP_Params")
    2182                            .dwattr $C$DW$T$109, DW_AT_byte_size(0x08)
    2183                    $C$DW$168       .dwtag  DW_TAG_member
    2184                            .dwattr $C$DW$168, DW_AT_type(*$C$DW$T$108)
    2185                            .dwattr $C$DW$168, DW_AT_name("mode")
    2186                            .dwattr $C$DW$168, DW_AT_TI_symbol_name("mode")
    2187                            .dwattr $C$DW$168, DW_AT_data_member_location[DW_OP_plus_uconst 0x0]
    2188                            .dwattr $C$DW$168, DW_AT_accessibility(DW_ACCESS_public)
    2189                            .dwattr $C$DW$168, DW_AT_decl_file("C:/ti/simplelink_cc13x0_sdk_2_30_00_20/source/ti/drivers/d
    2190                            .dwattr $C$DW$168, DW_AT_decl_line(0x86)
    2191                            .dwattr $C$DW$168, DW_AT_decl_column(0x15)
    2192                    
    2193                    $C$DW$169       .dwtag  DW_TAG_member
    2194                            .dwattr $C$DW$169, DW_AT_type(*$C$DW$T$40)
    2195                            .dwattr $C$DW$169, DW_AT_name("callback")
    2196                            .dwattr $C$DW$169, DW_AT_TI_symbol_name("callback")
    2197                            .dwattr $C$DW$169, DW_AT_data_member_location[DW_OP_plus_uconst 0x4]
    2198                            .dwattr $C$DW$169, DW_AT_accessibility(DW_ACCESS_public)
    2199                            .dwattr $C$DW$169, DW_AT_decl_file("C:/ti/simplelink_cc13x0_sdk_2_30_00_20/source/ti/drivers/d
    2200                            .dwattr $C$DW$169, DW_AT_decl_line(0x87)
TI ARM Assembler PC v18.1.3 Wed Nov 28 13:34:39 2018

Tools Copyright (c) 1996-2017 Texas Instruments Incorporated
C:\Users\Adrian\AppData\Local\Temp\{DE9C6956-9654-4461-9319-00DA2038484A} PAGE   41

    2201                            .dwattr $C$DW$169, DW_AT_decl_column(0x0c)
    2202                    
    2203                            .dwattr $C$DW$T$109, DW_AT_decl_file("C:/ti/simplelink_cc13x0_sdk_2_30_00_20/source/ti/drivers
    2204                            .dwattr $C$DW$T$109, DW_AT_decl_line(0x85)
    2205                            .dwattr $C$DW$T$109, DW_AT_decl_column(0x10)
    2206                            .dwendtag $C$DW$T$109
    2207                    
    2208                    $C$DW$T$226     .dwtag  DW_TAG_typedef
    2209                            .dwattr $C$DW$T$226, DW_AT_name("SemaphoreP_Params")
    2210                            .dwattr $C$DW$T$226, DW_AT_type(*$C$DW$T$109)
    2211                            .dwattr $C$DW$T$226, DW_AT_language(DW_LANG_C)
    2212                            .dwattr $C$DW$T$226, DW_AT_decl_file("C:/ti/simplelink_cc13x0_sdk_2_30_00_20/source/ti/drivers
    2213                            .dwattr $C$DW$T$226, DW_AT_decl_line(0x88)
    2214                            .dwattr $C$DW$T$226, DW_AT_decl_column(0x03)
    2215                    
    2216                    
    2217                    $C$DW$T$227     .dwtag  DW_TAG_enumeration_type
    2218                            .dwattr $C$DW$T$227, DW_AT_name("SemaphoreP_Status")
    2219                            .dwattr $C$DW$T$227, DW_AT_byte_size(0x01)
    2220                    $C$DW$170       .dwtag  DW_TAG_enumerator
    2221                            .dwattr $C$DW$170, DW_AT_name("SemaphoreP_OK")
    2222                            .dwattr $C$DW$170, DW_AT_const_value(0x00)
    2223                            .dwattr $C$DW$170, DW_AT_decl_file("C:/ti/simplelink_cc13x0_sdk_2_30_00_20/source/ti/drivers/d
    2224                            .dwattr $C$DW$170, DW_AT_decl_line(0x66)
    2225                            .dwattr $C$DW$170, DW_AT_decl_column(0x05)
    2226                    
    2227                    $C$DW$171       .dwtag  DW_TAG_enumerator
    2228                            .dwattr $C$DW$171, DW_AT_name("SemaphoreP_TIMEOUT")
    2229                            .dwattr $C$DW$171, DW_AT_const_value(-1)
    2230                            .dwattr $C$DW$171, DW_AT_decl_file("C:/ti/simplelink_cc13x0_sdk_2_30_00_20/source/ti/drivers/d
    2231                            .dwattr $C$DW$171, DW_AT_decl_line(0x68)
    2232                            .dwattr $C$DW$171, DW_AT_decl_column(0x05)
    2233                    
    2234                            .dwattr $C$DW$T$227, DW_AT_decl_file("C:/ti/simplelink_cc13x0_sdk_2_30_00_20/source/ti/drivers
    2235                            .dwattr $C$DW$T$227, DW_AT_decl_line(0x64)
    2236                            .dwattr $C$DW$T$227, DW_AT_decl_column(0x0e)
    2237                            .dwendtag $C$DW$T$227
    2238                    
    2239                    $C$DW$T$228     .dwtag  DW_TAG_typedef
    2240                            .dwattr $C$DW$T$228, DW_AT_name("SemaphoreP_Status")
    2241                            .dwattr $C$DW$T$228, DW_AT_type(*$C$DW$T$227)
    2242                            .dwattr $C$DW$T$228, DW_AT_language(DW_LANG_C)
    2243                            .dwattr $C$DW$T$228, DW_AT_decl_file("C:/ti/simplelink_cc13x0_sdk_2_30_00_20/source/ti/drivers
    2244                            .dwattr $C$DW$T$228, DW_AT_decl_line(0x69)
    2245                            .dwattr $C$DW$T$228, DW_AT_decl_column(0x03)
    2246                    
    2247                    
    2248                    $C$DW$T$110     .dwtag  DW_TAG_union_type
    2249                            .dwattr $C$DW$T$110, DW_AT_name("SemaphoreP_Struct")
    2250                            .dwattr $C$DW$T$110, DW_AT_byte_size(0x1c)
    2251                    $C$DW$172       .dwtag  DW_TAG_member
    2252                            .dwattr $C$DW$172, DW_AT_type(*$C$DW$T$23)
    2253                            .dwattr $C$DW$172, DW_AT_name("dummy")
    2254                            .dwattr $C$DW$172, DW_AT_TI_symbol_name("dummy")
    2255                            .dwattr $C$DW$172, DW_AT_data_member_location[DW_OP_plus_uconst 0x0]
TI ARM Assembler PC v18.1.3 Wed Nov 28 13:34:39 2018

Tools Copyright (c) 1996-2017 Texas Instruments Incorporated
C:\Users\Adrian\AppData\Local\Temp\{DE9C6956-9654-4461-9319-00DA2038484A} PAGE   42

    2256                            .dwattr $C$DW$172, DW_AT_accessibility(DW_ACCESS_public)
    2257                            .dwattr $C$DW$172, DW_AT_decl_file("C:/ti/simplelink_cc13x0_sdk_2_30_00_20/source/ti/drivers/d
    2258                            .dwattr $C$DW$172, DW_AT_decl_line(0x53)
    2259                            .dwattr $C$DW$172, DW_AT_decl_column(0x0e)
    2260                    
    2261                    $C$DW$173       .dwtag  DW_TAG_member
    2262                            .dwattr $C$DW$173, DW_AT_type(*$C$DW$T$79)
    2263                            .dwattr $C$DW$173, DW_AT_name("data")
    2264                            .dwattr $C$DW$173, DW_AT_TI_symbol_name("data")
    2265                            .dwattr $C$DW$173, DW_AT_data_member_location[DW_OP_plus_uconst 0x0]
    2266                            .dwattr $C$DW$173, DW_AT_accessibility(DW_ACCESS_public)
    2267                            .dwattr $C$DW$173, DW_AT_decl_file("C:/ti/simplelink_cc13x0_sdk_2_30_00_20/source/ti/drivers/d
    2268                            .dwattr $C$DW$173, DW_AT_decl_line(0x54)
    2269                            .dwattr $C$DW$173, DW_AT_decl_column(0x0e)
    2270                    
    2271                            .dwattr $C$DW$T$110, DW_AT_decl_file("C:/ti/simplelink_cc13x0_sdk_2_30_00_20/source/ti/drivers
    2272                            .dwattr $C$DW$T$110, DW_AT_decl_line(0x52)
    2273                            .dwattr $C$DW$T$110, DW_AT_decl_column(0x0f)
    2274                            .dwendtag $C$DW$T$110
    2275                    
    2276                    $C$DW$T$144     .dwtag  DW_TAG_typedef
    2277                            .dwattr $C$DW$T$144, DW_AT_name("SemaphoreP_Struct")
    2278                            .dwattr $C$DW$T$144, DW_AT_type(*$C$DW$T$110)
    2279                            .dwattr $C$DW$T$144, DW_AT_language(DW_LANG_C)
    2280                            .dwattr $C$DW$T$144, DW_AT_decl_file("C:/ti/simplelink_cc13x0_sdk_2_30_00_20/source/ti/drivers
    2281                            .dwattr $C$DW$T$144, DW_AT_decl_line(0x55)
    2282                            .dwattr $C$DW$T$144, DW_AT_decl_column(0x03)
    2283                    
    2284                    
    2285                    $C$DW$T$111     .dwtag  DW_TAG_structure_type
    2286                            .dwattr $C$DW$T$111, DW_AT_name("SwiP_Params")
    2287                            .dwattr $C$DW$T$111, DW_AT_byte_size(0x10)
    2288                    $C$DW$174       .dwtag  DW_TAG_member
    2289                            .dwattr $C$DW$174, DW_AT_type(*$C$DW$T$73)
    2290                            .dwattr $C$DW$174, DW_AT_name("arg0")
    2291                            .dwattr $C$DW$174, DW_AT_TI_symbol_name("arg0")
    2292                            .dwattr $C$DW$174, DW_AT_data_member_location[DW_OP_plus_uconst 0x0]
    2293                            .dwattr $C$DW$174, DW_AT_accessibility(DW_ACCESS_public)
    2294                            .dwattr $C$DW$174, DW_AT_decl_file("C:/ti/simplelink_cc13x0_sdk_2_30_00_20/source/ti/drivers/d
    2295                            .dwattr $C$DW$174, DW_AT_decl_line(0x71)
    2296                            .dwattr $C$DW$174, DW_AT_decl_column(0x10)
    2297                    
    2298                    $C$DW$175       .dwtag  DW_TAG_member
    2299                            .dwattr $C$DW$175, DW_AT_type(*$C$DW$T$73)
    2300                            .dwattr $C$DW$175, DW_AT_name("arg1")
    2301                            .dwattr $C$DW$175, DW_AT_TI_symbol_name("arg1")
    2302                            .dwattr $C$DW$175, DW_AT_data_member_location[DW_OP_plus_uconst 0x4]
    2303                            .dwattr $C$DW$175, DW_AT_accessibility(DW_ACCESS_public)
    2304                            .dwattr $C$DW$175, DW_AT_decl_file("C:/ti/simplelink_cc13x0_sdk_2_30_00_20/source/ti/drivers/d
    2305                            .dwattr $C$DW$175, DW_AT_decl_line(0x72)
    2306                            .dwattr $C$DW$175, DW_AT_decl_column(0x10)
    2307                    
    2308                    $C$DW$176       .dwtag  DW_TAG_member
    2309                            .dwattr $C$DW$176, DW_AT_type(*$C$DW$T$23)
    2310                            .dwattr $C$DW$176, DW_AT_name("priority")
TI ARM Assembler PC v18.1.3 Wed Nov 28 13:34:39 2018

Tools Copyright (c) 1996-2017 Texas Instruments Incorporated
C:\Users\Adrian\AppData\Local\Temp\{DE9C6956-9654-4461-9319-00DA2038484A} PAGE   43

    2311                            .dwattr $C$DW$176, DW_AT_TI_symbol_name("priority")
    2312                            .dwattr $C$DW$176, DW_AT_data_member_location[DW_OP_plus_uconst 0x8]
    2313                            .dwattr $C$DW$176, DW_AT_accessibility(DW_ACCESS_public)
    2314                            .dwattr $C$DW$176, DW_AT_decl_file("C:/ti/simplelink_cc13x0_sdk_2_30_00_20/source/ti/drivers/d
    2315                            .dwattr $C$DW$176, DW_AT_decl_line(0x73)
    2316                            .dwattr $C$DW$176, DW_AT_decl_column(0x10)
    2317                    
    2318                    $C$DW$177       .dwtag  DW_TAG_member
    2319                            .dwattr $C$DW$177, DW_AT_type(*$C$DW$T$23)
    2320                            .dwattr $C$DW$177, DW_AT_name("trigger")
    2321                            .dwattr $C$DW$177, DW_AT_TI_symbol_name("trigger")
    2322                            .dwattr $C$DW$177, DW_AT_data_member_location[DW_OP_plus_uconst 0xc]
    2323                            .dwattr $C$DW$177, DW_AT_accessibility(DW_ACCESS_public)
    2324                            .dwattr $C$DW$177, DW_AT_decl_file("C:/ti/simplelink_cc13x0_sdk_2_30_00_20/source/ti/drivers/d
    2325                            .dwattr $C$DW$177, DW_AT_decl_line(0x74)
    2326                            .dwattr $C$DW$177, DW_AT_decl_column(0x10)
    2327                    
    2328                            .dwattr $C$DW$T$111, DW_AT_decl_file("C:/ti/simplelink_cc13x0_sdk_2_30_00_20/source/ti/drivers
    2329                            .dwattr $C$DW$T$111, DW_AT_decl_line(0x70)
    2330                            .dwattr $C$DW$T$111, DW_AT_decl_column(0x10)
    2331                            .dwendtag $C$DW$T$111
    2332                    
    2333                    $C$DW$T$229     .dwtag  DW_TAG_typedef
    2334                            .dwattr $C$DW$T$229, DW_AT_name("SwiP_Params")
    2335                            .dwattr $C$DW$T$229, DW_AT_type(*$C$DW$T$111)
    2336                            .dwattr $C$DW$T$229, DW_AT_language(DW_LANG_C)
    2337                            .dwattr $C$DW$T$229, DW_AT_decl_file("C:/ti/simplelink_cc13x0_sdk_2_30_00_20/source/ti/drivers
    2338                            .dwattr $C$DW$T$229, DW_AT_decl_line(0x75)
    2339                            .dwattr $C$DW$T$229, DW_AT_decl_column(0x03)
    2340                    
    2341                    
    2342                    $C$DW$T$230     .dwtag  DW_TAG_enumeration_type
    2343                            .dwattr $C$DW$T$230, DW_AT_name("SwiP_Status")
    2344                            .dwattr $C$DW$T$230, DW_AT_byte_size(0x01)
    2345                    $C$DW$178       .dwtag  DW_TAG_enumerator
    2346                            .dwattr $C$DW$178, DW_AT_name("SwiP_OK")
    2347                            .dwattr $C$DW$178, DW_AT_const_value(0x00)
    2348                            .dwattr $C$DW$178, DW_AT_decl_file("C:/ti/simplelink_cc13x0_sdk_2_30_00_20/source/ti/drivers/d
    2349                            .dwattr $C$DW$178, DW_AT_decl_line(0x55)
    2350                            .dwattr $C$DW$178, DW_AT_decl_column(0x05)
    2351                    
    2352                    $C$DW$179       .dwtag  DW_TAG_enumerator
    2353                            .dwattr $C$DW$179, DW_AT_name("SwiP_FAILURE")
    2354                            .dwattr $C$DW$179, DW_AT_const_value(-1)
    2355                            .dwattr $C$DW$179, DW_AT_decl_file("C:/ti/simplelink_cc13x0_sdk_2_30_00_20/source/ti/drivers/d
    2356                            .dwattr $C$DW$179, DW_AT_decl_line(0x56)
    2357                            .dwattr $C$DW$179, DW_AT_decl_column(0x05)
    2358                    
    2359                            .dwattr $C$DW$T$230, DW_AT_decl_file("C:/ti/simplelink_cc13x0_sdk_2_30_00_20/source/ti/drivers
    2360                            .dwattr $C$DW$T$230, DW_AT_decl_line(0x54)
    2361                            .dwattr $C$DW$T$230, DW_AT_decl_column(0x0e)
    2362                            .dwendtag $C$DW$T$230
    2363                    
    2364                    $C$DW$T$231     .dwtag  DW_TAG_typedef
    2365                            .dwattr $C$DW$T$231, DW_AT_name("SwiP_Status")
TI ARM Assembler PC v18.1.3 Wed Nov 28 13:34:39 2018

Tools Copyright (c) 1996-2017 Texas Instruments Incorporated
C:\Users\Adrian\AppData\Local\Temp\{DE9C6956-9654-4461-9319-00DA2038484A} PAGE   44

    2366                            .dwattr $C$DW$T$231, DW_AT_type(*$C$DW$T$230)
    2367                            .dwattr $C$DW$T$231, DW_AT_language(DW_LANG_C)
    2368                            .dwattr $C$DW$T$231, DW_AT_decl_file("C:/ti/simplelink_cc13x0_sdk_2_30_00_20/source/ti/drivers
    2369                            .dwattr $C$DW$T$231, DW_AT_decl_line(0x57)
    2370                            .dwattr $C$DW$T$231, DW_AT_decl_column(0x03)
    2371                    
    2372                    
    2373                    $C$DW$T$113     .dwtag  DW_TAG_union_type
    2374                            .dwattr $C$DW$T$113, DW_AT_name("SwiP_Struct")
    2375                            .dwattr $C$DW$T$113, DW_AT_byte_size(0x34)
    2376                    $C$DW$180       .dwtag  DW_TAG_member
    2377                            .dwattr $C$DW$180, DW_AT_type(*$C$DW$T$23)
    2378                            .dwattr $C$DW$180, DW_AT_name("dummy")
    2379                            .dwattr $C$DW$180, DW_AT_TI_symbol_name("dummy")
    2380                            .dwattr $C$DW$180, DW_AT_data_member_location[DW_OP_plus_uconst 0x0]
    2381                            .dwattr $C$DW$180, DW_AT_accessibility(DW_ACCESS_public)
    2382                            .dwattr $C$DW$180, DW_AT_decl_file("C:/ti/simplelink_cc13x0_sdk_2_30_00_20/source/ti/drivers/d
    2383                            .dwattr $C$DW$180, DW_AT_decl_line(0x41)
    2384                            .dwattr $C$DW$180, DW_AT_decl_column(0x0e)
    2385                    
    2386                    $C$DW$181       .dwtag  DW_TAG_member
    2387                            .dwattr $C$DW$181, DW_AT_type(*$C$DW$T$112)
    2388                            .dwattr $C$DW$181, DW_AT_name("data")
    2389                            .dwattr $C$DW$181, DW_AT_TI_symbol_name("data")
    2390                            .dwattr $C$DW$181, DW_AT_data_member_location[DW_OP_plus_uconst 0x0]
    2391                            .dwattr $C$DW$181, DW_AT_accessibility(DW_ACCESS_public)
    2392                            .dwattr $C$DW$181, DW_AT_decl_file("C:/ti/simplelink_cc13x0_sdk_2_30_00_20/source/ti/drivers/d
    2393                            .dwattr $C$DW$181, DW_AT_decl_line(0x42)
    2394                            .dwattr $C$DW$181, DW_AT_decl_column(0x0e)
    2395                    
    2396                            .dwattr $C$DW$T$113, DW_AT_decl_file("C:/ti/simplelink_cc13x0_sdk_2_30_00_20/source/ti/drivers
    2397                            .dwattr $C$DW$T$113, DW_AT_decl_line(0x40)
    2398                            .dwattr $C$DW$T$113, DW_AT_decl_column(0x0f)
    2399                            .dwendtag $C$DW$T$113
    2400                    
    2401                    $C$DW$T$143     .dwtag  DW_TAG_typedef
    2402                            .dwattr $C$DW$T$143, DW_AT_name("SwiP_Struct")
    2403                            .dwattr $C$DW$T$143, DW_AT_type(*$C$DW$T$113)
    2404                            .dwattr $C$DW$T$143, DW_AT_language(DW_LANG_C)
    2405                            .dwattr $C$DW$T$143, DW_AT_decl_file("C:/ti/simplelink_cc13x0_sdk_2_30_00_20/source/ti/drivers
    2406                            .dwattr $C$DW$T$143, DW_AT_decl_line(0x43)
    2407                            .dwattr $C$DW$T$143, DW_AT_decl_column(0x03)
    2408                    
    2409                    
    2410                    $C$DW$T$114     .dwtag  DW_TAG_enumeration_type
    2411                            .dwattr $C$DW$T$114, DW_AT_name("UARTCC26XX_FifoThreshold")
    2412                            .dwattr $C$DW$T$114, DW_AT_byte_size(0x01)
    2413                    $C$DW$182       .dwtag  DW_TAG_enumerator
    2414                            .dwattr $C$DW$182, DW_AT_name("UARTCC26XX_FIFO_THRESHOLD_DEFAULT")
    2415                            .dwattr $C$DW$182, DW_AT_const_value(0x00)
    2416                            .dwattr $C$DW$182, DW_AT_decl_file("C:/ti/simplelink_cc13x0_sdk_2_30_00_20/source/ti/drivers/u
    2417                            .dwattr $C$DW$182, DW_AT_decl_line(0x1c7)
    2418                            .dwattr $C$DW$182, DW_AT_decl_column(0x05)
    2419                    
    2420                    $C$DW$183       .dwtag  DW_TAG_enumerator
TI ARM Assembler PC v18.1.3 Wed Nov 28 13:34:39 2018

Tools Copyright (c) 1996-2017 Texas Instruments Incorporated
C:\Users\Adrian\AppData\Local\Temp\{DE9C6956-9654-4461-9319-00DA2038484A} PAGE   45

    2421                            .dwattr $C$DW$183, DW_AT_name("UARTCC26XX_FIFO_THRESHOLD_1_8")
    2422                            .dwattr $C$DW$183, DW_AT_const_value(0x01)
    2423                            .dwattr $C$DW$183, DW_AT_decl_file("C:/ti/simplelink_cc13x0_sdk_2_30_00_20/source/ti/drivers/u
    2424                            .dwattr $C$DW$183, DW_AT_decl_line(0x1cb)
    2425                            .dwattr $C$DW$183, DW_AT_decl_column(0x05)
    2426                    
    2427                    $C$DW$184       .dwtag  DW_TAG_enumerator
    2428                            .dwattr $C$DW$184, DW_AT_name("UARTCC26XX_FIFO_THRESHOLD_2_8")
    2429                            .dwattr $C$DW$184, DW_AT_const_value(0x02)
    2430                            .dwattr $C$DW$184, DW_AT_decl_file("C:/ti/simplelink_cc13x0_sdk_2_30_00_20/source/ti/drivers/u
    2431                            .dwattr $C$DW$184, DW_AT_decl_line(0x1cc)
    2432                            .dwattr $C$DW$184, DW_AT_decl_column(0x05)
    2433                    
    2434                    $C$DW$185       .dwtag  DW_TAG_enumerator
    2435                            .dwattr $C$DW$185, DW_AT_name("UARTCC26XX_FIFO_THRESHOLD_4_8")
    2436                            .dwattr $C$DW$185, DW_AT_const_value(0x03)
    2437                            .dwattr $C$DW$185, DW_AT_decl_file("C:/ti/simplelink_cc13x0_sdk_2_30_00_20/source/ti/drivers/u
    2438                            .dwattr $C$DW$185, DW_AT_decl_line(0x1cd)
    2439                            .dwattr $C$DW$185, DW_AT_decl_column(0x05)
    2440                    
    2441                    $C$DW$186       .dwtag  DW_TAG_enumerator
    2442                            .dwattr $C$DW$186, DW_AT_name("UARTCC26XX_FIFO_THRESHOLD_6_8")
    2443                            .dwattr $C$DW$186, DW_AT_const_value(0x04)
    2444                            .dwattr $C$DW$186, DW_AT_decl_file("C:/ti/simplelink_cc13x0_sdk_2_30_00_20/source/ti/drivers/u
    2445                            .dwattr $C$DW$186, DW_AT_decl_line(0x1ce)
    2446                            .dwattr $C$DW$186, DW_AT_decl_column(0x05)
    2447                    
    2448                    $C$DW$187       .dwtag  DW_TAG_enumerator
    2449                            .dwattr $C$DW$187, DW_AT_name("UARTCC26XX_FIFO_THRESHOLD_7_8")
    2450                            .dwattr $C$DW$187, DW_AT_const_value(0x05)
    2451                            .dwattr $C$DW$187, DW_AT_decl_file("C:/ti/simplelink_cc13x0_sdk_2_30_00_20/source/ti/drivers/u
    2452                            .dwattr $C$DW$187, DW_AT_decl_line(0x1cf)
    2453                            .dwattr $C$DW$187, DW_AT_decl_column(0x05)
    2454                    
    2455                            .dwattr $C$DW$T$114, DW_AT_decl_file("C:/ti/simplelink_cc13x0_sdk_2_30_00_20/source/ti/drivers
    2456                            .dwattr $C$DW$T$114, DW_AT_decl_line(0x1c6)
    2457                            .dwattr $C$DW$T$114, DW_AT_decl_column(0x0e)
    2458                            .dwendtag $C$DW$T$114
    2459                    
    2460                    $C$DW$T$115     .dwtag  DW_TAG_typedef
    2461                            .dwattr $C$DW$T$115, DW_AT_name("UARTCC26XX_FifoThreshold")
    2462                            .dwattr $C$DW$T$115, DW_AT_type(*$C$DW$T$114)
    2463                            .dwattr $C$DW$T$115, DW_AT_language(DW_LANG_C)
    2464                            .dwattr $C$DW$T$115, DW_AT_decl_file("C:/ti/simplelink_cc13x0_sdk_2_30_00_20/source/ti/drivers
    2465                            .dwattr $C$DW$T$115, DW_AT_decl_line(0x1d0)
    2466                            .dwattr $C$DW$T$115, DW_AT_decl_column(0x03)
    2467                    
    2468                    
    2469                    $C$DW$T$120     .dwtag  DW_TAG_structure_type
    2470                            .dwattr $C$DW$T$120, DW_AT_name("UARTCC26XX_HWAttrsV2")
    2471                            .dwattr $C$DW$T$120, DW_AT_byte_size(0x28)
    2472                    $C$DW$188       .dwtag  DW_TAG_member
    2473                            .dwattr $C$DW$188, DW_AT_type(*$C$DW$T$23)
    2474                            .dwattr $C$DW$188, DW_AT_name("baseAddr")
    2475                            .dwattr $C$DW$188, DW_AT_TI_symbol_name("baseAddr")
TI ARM Assembler PC v18.1.3 Wed Nov 28 13:34:39 2018

Tools Copyright (c) 1996-2017 Texas Instruments Incorporated
C:\Users\Adrian\AppData\Local\Temp\{DE9C6956-9654-4461-9319-00DA2038484A} PAGE   46

    2476                            .dwattr $C$DW$188, DW_AT_data_member_location[DW_OP_plus_uconst 0x0]
    2477                            .dwattr $C$DW$188, DW_AT_accessibility(DW_ACCESS_public)
    2478                            .dwattr $C$DW$188, DW_AT_decl_file("C:/ti/simplelink_cc13x0_sdk_2_30_00_20/source/ti/drivers/u
    2479                            .dwattr $C$DW$188, DW_AT_decl_line(0x212)
    2480                            .dwattr $C$DW$188, DW_AT_decl_column(0x12)
    2481                    
    2482                    $C$DW$189       .dwtag  DW_TAG_member
    2483                            .dwattr $C$DW$189, DW_AT_type(*$C$DW$T$23)
    2484                            .dwattr $C$DW$189, DW_AT_name("powerMngrId")
    2485                            .dwattr $C$DW$189, DW_AT_TI_symbol_name("powerMngrId")
    2486                            .dwattr $C$DW$189, DW_AT_data_member_location[DW_OP_plus_uconst 0x4]
    2487                            .dwattr $C$DW$189, DW_AT_accessibility(DW_ACCESS_public)
    2488                            .dwattr $C$DW$189, DW_AT_decl_file("C:/ti/simplelink_cc13x0_sdk_2_30_00_20/source/ti/drivers/u
    2489                            .dwattr $C$DW$189, DW_AT_decl_line(0x213)
    2490                            .dwattr $C$DW$189, DW_AT_decl_column(0x12)
    2491                    
    2492                    $C$DW$190       .dwtag  DW_TAG_member
    2493                            .dwattr $C$DW$190, DW_AT_type(*$C$DW$T$10)
    2494                            .dwattr $C$DW$190, DW_AT_name("intNum")
    2495                            .dwattr $C$DW$190, DW_AT_TI_symbol_name("intNum")
    2496                            .dwattr $C$DW$190, DW_AT_data_member_location[DW_OP_plus_uconst 0x8]
    2497                            .dwattr $C$DW$190, DW_AT_accessibility(DW_ACCESS_public)
    2498                            .dwattr $C$DW$190, DW_AT_decl_file("C:/ti/simplelink_cc13x0_sdk_2_30_00_20/source/ti/drivers/u
    2499                            .dwattr $C$DW$190, DW_AT_decl_line(0x214)
    2500                            .dwattr $C$DW$190, DW_AT_decl_column(0x12)
    2501                    
    2502                    $C$DW$191       .dwtag  DW_TAG_member
    2503                            .dwattr $C$DW$191, DW_AT_type(*$C$DW$T$25)
    2504                            .dwattr $C$DW$191, DW_AT_name("intPriority")
    2505                            .dwattr $C$DW$191, DW_AT_TI_symbol_name("intPriority")
    2506                            .dwattr $C$DW$191, DW_AT_data_member_location[DW_OP_plus_uconst 0xc]
    2507                            .dwattr $C$DW$191, DW_AT_accessibility(DW_ACCESS_public)
    2508                            .dwattr $C$DW$191, DW_AT_decl_file("C:/ti/simplelink_cc13x0_sdk_2_30_00_20/source/ti/drivers/u
    2509                            .dwattr $C$DW$191, DW_AT_decl_line(0x221)
    2510                            .dwattr $C$DW$191, DW_AT_decl_column(0x12)
    2511                    
    2512                    $C$DW$192       .dwtag  DW_TAG_member
    2513                            .dwattr $C$DW$192, DW_AT_type(*$C$DW$T$23)
    2514                            .dwattr $C$DW$192, DW_AT_name("swiPriority")
    2515                            .dwattr $C$DW$192, DW_AT_TI_symbol_name("swiPriority")
    2516                            .dwattr $C$DW$192, DW_AT_data_member_location[DW_OP_plus_uconst 0x10]
    2517                            .dwattr $C$DW$192, DW_AT_accessibility(DW_ACCESS_public)
    2518                            .dwattr $C$DW$192, DW_AT_decl_file("C:/ti/simplelink_cc13x0_sdk_2_30_00_20/source/ti/drivers/u
    2519                            .dwattr $C$DW$192, DW_AT_decl_line(0x227)
    2520                            .dwattr $C$DW$192, DW_AT_decl_column(0x1e)
    2521                    
    2522                    $C$DW$193       .dwtag  DW_TAG_member
    2523                            .dwattr $C$DW$193, DW_AT_type(*$C$DW$T$25)
    2524                            .dwattr $C$DW$193, DW_AT_name("txPin")
    2525                            .dwattr $C$DW$193, DW_AT_TI_symbol_name("txPin")
    2526                            .dwattr $C$DW$193, DW_AT_data_member_location[DW_OP_plus_uconst 0x14]
    2527                            .dwattr $C$DW$193, DW_AT_accessibility(DW_ACCESS_public)
    2528                            .dwattr $C$DW$193, DW_AT_decl_file("C:/ti/simplelink_cc13x0_sdk_2_30_00_20/source/ti/drivers/u
    2529                            .dwattr $C$DW$193, DW_AT_decl_line(0x228)
    2530                            .dwattr $C$DW$193, DW_AT_decl_column(0x1e)
TI ARM Assembler PC v18.1.3 Wed Nov 28 13:34:39 2018

Tools Copyright (c) 1996-2017 Texas Instruments Incorporated
C:\Users\Adrian\AppData\Local\Temp\{DE9C6956-9654-4461-9319-00DA2038484A} PAGE   47

    2531                    
    2532                    $C$DW$194       .dwtag  DW_TAG_member
    2533                            .dwattr $C$DW$194, DW_AT_type(*$C$DW$T$25)
    2534                            .dwattr $C$DW$194, DW_AT_name("rxPin")
    2535                            .dwattr $C$DW$194, DW_AT_TI_symbol_name("rxPin")
    2536                            .dwattr $C$DW$194, DW_AT_data_member_location[DW_OP_plus_uconst 0x15]
    2537                            .dwattr $C$DW$194, DW_AT_accessibility(DW_ACCESS_public)
    2538                            .dwattr $C$DW$194, DW_AT_decl_file("C:/ti/simplelink_cc13x0_sdk_2_30_00_20/source/ti/drivers/u
    2539                            .dwattr $C$DW$194, DW_AT_decl_line(0x229)
    2540                            .dwattr $C$DW$194, DW_AT_decl_column(0x1e)
    2541                    
    2542                    $C$DW$195       .dwtag  DW_TAG_member
    2543                            .dwattr $C$DW$195, DW_AT_type(*$C$DW$T$25)
    2544                            .dwattr $C$DW$195, DW_AT_name("ctsPin")
    2545                            .dwattr $C$DW$195, DW_AT_TI_symbol_name("ctsPin")
    2546                            .dwattr $C$DW$195, DW_AT_data_member_location[DW_OP_plus_uconst 0x16]
    2547                            .dwattr $C$DW$195, DW_AT_accessibility(DW_ACCESS_public)
    2548                            .dwattr $C$DW$195, DW_AT_decl_file("C:/ti/simplelink_cc13x0_sdk_2_30_00_20/source/ti/drivers/u
    2549                            .dwattr $C$DW$195, DW_AT_decl_line(0x22a)
    2550                            .dwattr $C$DW$195, DW_AT_decl_column(0x1e)
    2551                    
    2552                    $C$DW$196       .dwtag  DW_TAG_member
    2553                            .dwattr $C$DW$196, DW_AT_type(*$C$DW$T$25)
    2554                            .dwattr $C$DW$196, DW_AT_name("rtsPin")
    2555                            .dwattr $C$DW$196, DW_AT_TI_symbol_name("rtsPin")
    2556                            .dwattr $C$DW$196, DW_AT_data_member_location[DW_OP_plus_uconst 0x17]
    2557                            .dwattr $C$DW$196, DW_AT_accessibility(DW_ACCESS_public)
    2558                            .dwattr $C$DW$196, DW_AT_decl_file("C:/ti/simplelink_cc13x0_sdk_2_30_00_20/source/ti/drivers/u
    2559                            .dwattr $C$DW$196, DW_AT_decl_line(0x22b)
    2560                            .dwattr $C$DW$196, DW_AT_decl_column(0x1e)
    2561                    
    2562                    $C$DW$197       .dwtag  DW_TAG_member
    2563                            .dwattr $C$DW$197, DW_AT_type(*$C$DW$T$104)
    2564                            .dwattr $C$DW$197, DW_AT_name("ringBufPtr")
    2565                            .dwattr $C$DW$197, DW_AT_TI_symbol_name("ringBufPtr")
    2566                            .dwattr $C$DW$197, DW_AT_data_member_location[DW_OP_plus_uconst 0x18]
    2567                            .dwattr $C$DW$197, DW_AT_accessibility(DW_ACCESS_public)
    2568                            .dwattr $C$DW$197, DW_AT_decl_file("C:/ti/simplelink_cc13x0_sdk_2_30_00_20/source/ti/drivers/u
    2569                            .dwattr $C$DW$197, DW_AT_decl_line(0x22c)
    2570                            .dwattr $C$DW$197, DW_AT_decl_column(0x1e)
    2571                    
    2572                    $C$DW$198       .dwtag  DW_TAG_member
    2573                            .dwattr $C$DW$198, DW_AT_type(*$C$DW$T$105)
    2574                            .dwattr $C$DW$198, DW_AT_name("ringBufSize")
    2575                            .dwattr $C$DW$198, DW_AT_TI_symbol_name("ringBufSize")
    2576                            .dwattr $C$DW$198, DW_AT_data_member_location[DW_OP_plus_uconst 0x1c]
    2577                            .dwattr $C$DW$198, DW_AT_accessibility(DW_ACCESS_public)
    2578                            .dwattr $C$DW$198, DW_AT_decl_file("C:/ti/simplelink_cc13x0_sdk_2_30_00_20/source/ti/drivers/u
    2579                            .dwattr $C$DW$198, DW_AT_decl_line(0x22d)
    2580                            .dwattr $C$DW$198, DW_AT_decl_column(0x1e)
    2581                    
    2582                    $C$DW$199       .dwtag  DW_TAG_member
    2583                            .dwattr $C$DW$199, DW_AT_type(*$C$DW$T$115)
    2584                            .dwattr $C$DW$199, DW_AT_name("txIntFifoThr")
    2585                            .dwattr $C$DW$199, DW_AT_TI_symbol_name("txIntFifoThr")
TI ARM Assembler PC v18.1.3 Wed Nov 28 13:34:39 2018

Tools Copyright (c) 1996-2017 Texas Instruments Incorporated
C:\Users\Adrian\AppData\Local\Temp\{DE9C6956-9654-4461-9319-00DA2038484A} PAGE   48

    2586                            .dwattr $C$DW$199, DW_AT_data_member_location[DW_OP_plus_uconst 0x20]
    2587                            .dwattr $C$DW$199, DW_AT_accessibility(DW_ACCESS_public)
    2588                            .dwattr $C$DW$199, DW_AT_decl_file("C:/ti/simplelink_cc13x0_sdk_2_30_00_20/source/ti/drivers/u
    2589                            .dwattr $C$DW$199, DW_AT_decl_line(0x22e)
    2590                            .dwattr $C$DW$199, DW_AT_decl_column(0x1e)
    2591                    
    2592                    $C$DW$200       .dwtag  DW_TAG_member
    2593                            .dwattr $C$DW$200, DW_AT_type(*$C$DW$T$115)
    2594                            .dwattr $C$DW$200, DW_AT_name("rxIntFifoThr")
    2595                            .dwattr $C$DW$200, DW_AT_TI_symbol_name("rxIntFifoThr")
    2596                            .dwattr $C$DW$200, DW_AT_data_member_location[DW_OP_plus_uconst 0x21]
    2597                            .dwattr $C$DW$200, DW_AT_accessibility(DW_ACCESS_public)
    2598                            .dwattr $C$DW$200, DW_AT_decl_file("C:/ti/simplelink_cc13x0_sdk_2_30_00_20/source/ti/drivers/u
    2599                            .dwattr $C$DW$200, DW_AT_decl_line(0x22f)
    2600                            .dwattr $C$DW$200, DW_AT_decl_column(0x1e)
    2601                    
    2602                    $C$DW$201       .dwtag  DW_TAG_member
    2603                            .dwattr $C$DW$201, DW_AT_type(*$C$DW$T$119)
    2604                            .dwattr $C$DW$201, DW_AT_name("errorFxn")
    2605                            .dwattr $C$DW$201, DW_AT_TI_symbol_name("errorFxn")
    2606                            .dwattr $C$DW$201, DW_AT_data_member_location[DW_OP_plus_uconst 0x24]
    2607                            .dwattr $C$DW$201, DW_AT_accessibility(DW_ACCESS_public)
    2608                            .dwattr $C$DW$201, DW_AT_decl_file("C:/ti/simplelink_cc13x0_sdk_2_30_00_20/source/ti/drivers/u
    2609                            .dwattr $C$DW$201, DW_AT_decl_line(0x231)
    2610                            .dwattr $C$DW$201, DW_AT_decl_column(0x1e)
    2611                    
    2612                            .dwattr $C$DW$T$120, DW_AT_decl_file("C:/ti/simplelink_cc13x0_sdk_2_30_00_20/source/ti/drivers
    2613                            .dwattr $C$DW$T$120, DW_AT_decl_line(0x211)
    2614                            .dwattr $C$DW$T$120, DW_AT_decl_column(0x10)
    2615                            .dwendtag $C$DW$T$120
    2616                    
    2617                    $C$DW$T$232     .dwtag  DW_TAG_typedef
    2618                            .dwattr $C$DW$T$232, DW_AT_name("UARTCC26XX_HWAttrsV2")
    2619                            .dwattr $C$DW$T$232, DW_AT_type(*$C$DW$T$120)
    2620                            .dwattr $C$DW$T$232, DW_AT_language(DW_LANG_C)
    2621                            .dwattr $C$DW$T$232, DW_AT_decl_file("C:/ti/simplelink_cc13x0_sdk_2_30_00_20/source/ti/drivers
    2622                            .dwattr $C$DW$T$232, DW_AT_decl_line(0x232)
    2623                            .dwattr $C$DW$T$232, DW_AT_decl_column(0x03)
    2624                    
    2625                    
    2626                    $C$DW$T$146     .dwtag  DW_TAG_structure_type
    2627                            .dwattr $C$DW$T$146, DW_AT_name("UARTCC26XX_Object")
    2628                            .dwattr $C$DW$T$146, DW_AT_byte_size(0x128)
    2629                    $C$DW$202       .dwtag  DW_TAG_member
    2630                            .dwattr $C$DW$202, DW_AT_type(*$C$DW$T$71)
    2631                            .dwattr $C$DW$202, DW_AT_name("opened")
    2632                            .dwattr $C$DW$202, DW_AT_TI_symbol_name("opened")
    2633                            .dwattr $C$DW$202, DW_AT_data_member_location[DW_OP_plus_uconst 0x0]
    2634                            .dwattr $C$DW$202, DW_AT_accessibility(DW_ACCESS_public)
    2635                            .dwattr $C$DW$202, DW_AT_decl_file("C:/ti/simplelink_cc13x0_sdk_2_30_00_20/source/ti/drivers/u
    2636                            .dwattr $C$DW$202, DW_AT_decl_line(0x249)
    2637                            .dwattr $C$DW$202, DW_AT_decl_column(0x19)
    2638                    
    2639                    $C$DW$203       .dwtag  DW_TAG_member
    2640                            .dwattr $C$DW$203, DW_AT_type(*$C$DW$T$122)
TI ARM Assembler PC v18.1.3 Wed Nov 28 13:34:39 2018

Tools Copyright (c) 1996-2017 Texas Instruments Incorporated
C:\Users\Adrian\AppData\Local\Temp\{DE9C6956-9654-4461-9319-00DA2038484A} PAGE   49

    2641                            .dwattr $C$DW$203, DW_AT_name("readMode")
    2642                            .dwattr $C$DW$203, DW_AT_TI_symbol_name("readMode")
    2643                            .dwattr $C$DW$203, DW_AT_data_member_location[DW_OP_plus_uconst 0x1]
    2644                            .dwattr $C$DW$203, DW_AT_accessibility(DW_ACCESS_public)
    2645                            .dwattr $C$DW$203, DW_AT_decl_file("C:/ti/simplelink_cc13x0_sdk_2_30_00_20/source/ti/drivers/u
    2646                            .dwattr $C$DW$203, DW_AT_decl_line(0x24a)
    2647                            .dwattr $C$DW$203, DW_AT_decl_column(0x19)
    2648                    
    2649                    $C$DW$204       .dwtag  DW_TAG_member
    2650                            .dwattr $C$DW$204, DW_AT_type(*$C$DW$T$122)
    2651                            .dwattr $C$DW$204, DW_AT_name("writeMode")
    2652                            .dwattr $C$DW$204, DW_AT_TI_symbol_name("writeMode")
    2653                            .dwattr $C$DW$204, DW_AT_data_member_location[DW_OP_plus_uconst 0x2]
    2654                            .dwattr $C$DW$204, DW_AT_accessibility(DW_ACCESS_public)
    2655                            .dwattr $C$DW$204, DW_AT_decl_file("C:/ti/simplelink_cc13x0_sdk_2_30_00_20/source/ti/drivers/u
    2656                            .dwattr $C$DW$204, DW_AT_decl_line(0x24b)
    2657                            .dwattr $C$DW$204, DW_AT_decl_column(0x19)
    2658                    
    2659                    $C$DW$205       .dwtag  DW_TAG_member
    2660                            .dwattr $C$DW$205, DW_AT_type(*$C$DW$T$11)
    2661                            .dwattr $C$DW$205, DW_AT_name("readTimeout")
    2662                            .dwattr $C$DW$205, DW_AT_TI_symbol_name("readTimeout")
    2663                            .dwattr $C$DW$205, DW_AT_data_member_location[DW_OP_plus_uconst 0x4]
    2664                            .dwattr $C$DW$205, DW_AT_accessibility(DW_ACCESS_public)
    2665                            .dwattr $C$DW$205, DW_AT_decl_file("C:/ti/simplelink_cc13x0_sdk_2_30_00_20/source/ti/drivers/u
    2666                            .dwattr $C$DW$205, DW_AT_decl_line(0x24c)
    2667                            .dwattr $C$DW$205, DW_AT_decl_column(0x19)
    2668                    
    2669                    $C$DW$206       .dwtag  DW_TAG_member
    2670                            .dwattr $C$DW$206, DW_AT_type(*$C$DW$T$11)
    2671                            .dwattr $C$DW$206, DW_AT_name("writeTimeout")
    2672                            .dwattr $C$DW$206, DW_AT_TI_symbol_name("writeTimeout")
    2673                            .dwattr $C$DW$206, DW_AT_data_member_location[DW_OP_plus_uconst 0x8]
    2674                            .dwattr $C$DW$206, DW_AT_accessibility(DW_ACCESS_public)
    2675                            .dwattr $C$DW$206, DW_AT_decl_file("C:/ti/simplelink_cc13x0_sdk_2_30_00_20/source/ti/drivers/u
    2676                            .dwattr $C$DW$206, DW_AT_decl_line(0x24d)
    2677                            .dwattr $C$DW$206, DW_AT_decl_column(0x19)
    2678                    
    2679                    $C$DW$207       .dwtag  DW_TAG_member
    2680                            .dwattr $C$DW$207, DW_AT_type(*$C$DW$T$125)
    2681                            .dwattr $C$DW$207, DW_AT_name("readCallback")
    2682                            .dwattr $C$DW$207, DW_AT_TI_symbol_name("readCallback")
    2683                            .dwattr $C$DW$207, DW_AT_data_member_location[DW_OP_plus_uconst 0xc]
    2684                            .dwattr $C$DW$207, DW_AT_accessibility(DW_ACCESS_public)
    2685                            .dwattr $C$DW$207, DW_AT_decl_file("C:/ti/simplelink_cc13x0_sdk_2_30_00_20/source/ti/drivers/u
    2686                            .dwattr $C$DW$207, DW_AT_decl_line(0x24e)
    2687                            .dwattr $C$DW$207, DW_AT_decl_column(0x19)
    2688                    
    2689                    $C$DW$208       .dwtag  DW_TAG_member
    2690                            .dwattr $C$DW$208, DW_AT_type(*$C$DW$T$125)
    2691                            .dwattr $C$DW$208, DW_AT_name("writeCallback")
    2692                            .dwattr $C$DW$208, DW_AT_TI_symbol_name("writeCallback")
    2693                            .dwattr $C$DW$208, DW_AT_data_member_location[DW_OP_plus_uconst 0x10]
    2694                            .dwattr $C$DW$208, DW_AT_accessibility(DW_ACCESS_public)
    2695                            .dwattr $C$DW$208, DW_AT_decl_file("C:/ti/simplelink_cc13x0_sdk_2_30_00_20/source/ti/drivers/u
TI ARM Assembler PC v18.1.3 Wed Nov 28 13:34:39 2018

Tools Copyright (c) 1996-2017 Texas Instruments Incorporated
C:\Users\Adrian\AppData\Local\Temp\{DE9C6956-9654-4461-9319-00DA2038484A} PAGE   50

    2696                            .dwattr $C$DW$208, DW_AT_decl_line(0x24f)
    2697                            .dwattr $C$DW$208, DW_AT_decl_column(0x19)
    2698                    
    2699                    $C$DW$209       .dwtag  DW_TAG_member
    2700                            .dwattr $C$DW$209, DW_AT_type(*$C$DW$T$127)
    2701                            .dwattr $C$DW$209, DW_AT_name("readReturnMode")
    2702                            .dwattr $C$DW$209, DW_AT_TI_symbol_name("readReturnMode")
    2703                            .dwattr $C$DW$209, DW_AT_data_member_location[DW_OP_plus_uconst 0x14]
    2704                            .dwattr $C$DW$209, DW_AT_accessibility(DW_ACCESS_public)
    2705                            .dwattr $C$DW$209, DW_AT_decl_file("C:/ti/simplelink_cc13x0_sdk_2_30_00_20/source/ti/drivers/u
    2706                            .dwattr $C$DW$209, DW_AT_decl_line(0x250)
    2707                            .dwattr $C$DW$209, DW_AT_decl_column(0x19)
    2708                    
    2709                    $C$DW$210       .dwtag  DW_TAG_member
    2710                            .dwattr $C$DW$210, DW_AT_type(*$C$DW$T$129)
    2711                            .dwattr $C$DW$210, DW_AT_name("readDataMode")
    2712                            .dwattr $C$DW$210, DW_AT_TI_symbol_name("readDataMode")
    2713                            .dwattr $C$DW$210, DW_AT_data_member_location[DW_OP_plus_uconst 0x15]
    2714                            .dwattr $C$DW$210, DW_AT_accessibility(DW_ACCESS_public)
    2715                            .dwattr $C$DW$210, DW_AT_decl_file("C:/ti/simplelink_cc13x0_sdk_2_30_00_20/source/ti/drivers/u
    2716                            .dwattr $C$DW$210, DW_AT_decl_line(0x251)
    2717                            .dwattr $C$DW$210, DW_AT_decl_column(0x19)
    2718                    
    2719                    $C$DW$211       .dwtag  DW_TAG_member
    2720                            .dwattr $C$DW$211, DW_AT_type(*$C$DW$T$129)
    2721                            .dwattr $C$DW$211, DW_AT_name("writeDataMode")
    2722                            .dwattr $C$DW$211, DW_AT_TI_symbol_name("writeDataMode")
    2723                            .dwattr $C$DW$211, DW_AT_data_member_location[DW_OP_plus_uconst 0x16]
    2724                            .dwattr $C$DW$211, DW_AT_accessibility(DW_ACCESS_public)
    2725                            .dwattr $C$DW$211, DW_AT_decl_file("C:/ti/simplelink_cc13x0_sdk_2_30_00_20/source/ti/drivers/u
    2726                            .dwattr $C$DW$211, DW_AT_decl_line(0x252)
    2727                            .dwattr $C$DW$211, DW_AT_decl_column(0x19)
    2728                    
    2729                    $C$DW$212       .dwtag  DW_TAG_member
    2730                            .dwattr $C$DW$212, DW_AT_type(*$C$DW$T$23)
    2731                            .dwattr $C$DW$212, DW_AT_name("baudRate")
    2732                            .dwattr $C$DW$212, DW_AT_TI_symbol_name("baudRate")
    2733                            .dwattr $C$DW$212, DW_AT_data_member_location[DW_OP_plus_uconst 0x18]
    2734                            .dwattr $C$DW$212, DW_AT_accessibility(DW_ACCESS_public)
    2735                            .dwattr $C$DW$212, DW_AT_decl_file("C:/ti/simplelink_cc13x0_sdk_2_30_00_20/source/ti/drivers/u
    2736                            .dwattr $C$DW$212, DW_AT_decl_line(0x25a)
    2737                            .dwattr $C$DW$212, DW_AT_decl_column(0x19)
    2738                    
    2739                    $C$DW$213       .dwtag  DW_TAG_member
    2740                            .dwattr $C$DW$213, DW_AT_type(*$C$DW$T$131)
    2741                            .dwattr $C$DW$213, DW_AT_name("dataLength")
    2742                            .dwattr $C$DW$213, DW_AT_TI_symbol_name("dataLength")
    2743                            .dwattr $C$DW$213, DW_AT_data_member_location[DW_OP_plus_uconst 0x1c]
    2744                            .dwattr $C$DW$213, DW_AT_accessibility(DW_ACCESS_public)
    2745                            .dwattr $C$DW$213, DW_AT_decl_file("C:/ti/simplelink_cc13x0_sdk_2_30_00_20/source/ti/drivers/u
    2746                            .dwattr $C$DW$213, DW_AT_decl_line(0x25b)
    2747                            .dwattr $C$DW$213, DW_AT_decl_column(0x19)
    2748                    
    2749                    $C$DW$214       .dwtag  DW_TAG_member
    2750                            .dwattr $C$DW$214, DW_AT_type(*$C$DW$T$133)
TI ARM Assembler PC v18.1.3 Wed Nov 28 13:34:39 2018

Tools Copyright (c) 1996-2017 Texas Instruments Incorporated
C:\Users\Adrian\AppData\Local\Temp\{DE9C6956-9654-4461-9319-00DA2038484A} PAGE   51

    2751                            .dwattr $C$DW$214, DW_AT_name("stopBits")
    2752                            .dwattr $C$DW$214, DW_AT_TI_symbol_name("stopBits")
    2753                            .dwattr $C$DW$214, DW_AT_data_member_location[DW_OP_plus_uconst 0x1d]
    2754                            .dwattr $C$DW$214, DW_AT_accessibility(DW_ACCESS_public)
    2755                            .dwattr $C$DW$214, DW_AT_decl_file("C:/ti/simplelink_cc13x0_sdk_2_30_00_20/source/ti/drivers/u
    2756                            .dwattr $C$DW$214, DW_AT_decl_line(0x25c)
    2757                            .dwattr $C$DW$214, DW_AT_decl_column(0x19)
    2758                    
    2759                    $C$DW$215       .dwtag  DW_TAG_member
    2760                            .dwattr $C$DW$215, DW_AT_type(*$C$DW$T$135)
    2761                            .dwattr $C$DW$215, DW_AT_name("parityType")
    2762                            .dwattr $C$DW$215, DW_AT_TI_symbol_name("parityType")
    2763                            .dwattr $C$DW$215, DW_AT_data_member_location[DW_OP_plus_uconst 0x1e]
    2764                            .dwattr $C$DW$215, DW_AT_accessibility(DW_ACCESS_public)
    2765                            .dwattr $C$DW$215, DW_AT_decl_file("C:/ti/simplelink_cc13x0_sdk_2_30_00_20/source/ti/drivers/u
    2766                            .dwattr $C$DW$215, DW_AT_decl_line(0x25d)
    2767                            .dwattr $C$DW$215, DW_AT_decl_column(0x19)
    2768                    
    2769                    $C$DW$216       .dwtag  DW_TAG_member
    2770                            .dwattr $C$DW$216, DW_AT_type(*$C$DW$T$137)
    2771                            .dwattr $C$DW$216, DW_AT_name("status")
    2772                            .dwattr $C$DW$216, DW_AT_TI_symbol_name("status")
    2773                            .dwattr $C$DW$216, DW_AT_data_member_location[DW_OP_plus_uconst 0x1f]
    2774                            .dwattr $C$DW$216, DW_AT_accessibility(DW_ACCESS_public)
    2775                            .dwattr $C$DW$216, DW_AT_decl_file("C:/ti/simplelink_cc13x0_sdk_2_30_00_20/source/ti/drivers/u
    2776                            .dwattr $C$DW$216, DW_AT_decl_line(0x25e)
    2777                            .dwattr $C$DW$216, DW_AT_decl_column(0x19)
    2778                    
    2779                    $C$DW$217       .dwtag  DW_TAG_member
    2780                            .dwattr $C$DW$217, DW_AT_type(*$C$DW$T$139)
    2781                            .dwattr $C$DW$217, DW_AT_name("writeBuf")
    2782                            .dwattr $C$DW$217, DW_AT_TI_symbol_name("writeBuf")
    2783                            .dwattr $C$DW$217, DW_AT_data_member_location[DW_OP_plus_uconst 0x20]
    2784                            .dwattr $C$DW$217, DW_AT_accessibility(DW_ACCESS_public)
    2785                            .dwattr $C$DW$217, DW_AT_decl_file("C:/ti/simplelink_cc13x0_sdk_2_30_00_20/source/ti/drivers/u
    2786                            .dwattr $C$DW$217, DW_AT_decl_line(0x261)
    2787                            .dwattr $C$DW$217, DW_AT_decl_column(0x19)
    2788                    
    2789                    $C$DW$218       .dwtag  DW_TAG_member
    2790                            .dwattr $C$DW$218, DW_AT_type(*$C$DW$T$105)
    2791                            .dwattr $C$DW$218, DW_AT_name("writeCount")
    2792                            .dwattr $C$DW$218, DW_AT_TI_symbol_name("writeCount")
    2793                            .dwattr $C$DW$218, DW_AT_data_member_location[DW_OP_plus_uconst 0x24]
    2794                            .dwattr $C$DW$218, DW_AT_accessibility(DW_ACCESS_public)
    2795                            .dwattr $C$DW$218, DW_AT_decl_file("C:/ti/simplelink_cc13x0_sdk_2_30_00_20/source/ti/drivers/u
    2796                            .dwattr $C$DW$218, DW_AT_decl_line(0x262)
    2797                            .dwattr $C$DW$218, DW_AT_decl_column(0x19)
    2798                    
    2799                    $C$DW$219       .dwtag  DW_TAG_member
    2800                            .dwattr $C$DW$219, DW_AT_type(*$C$DW$T$105)
    2801                            .dwattr $C$DW$219, DW_AT_name("writeSize")
    2802                            .dwattr $C$DW$219, DW_AT_TI_symbol_name("writeSize")
    2803                            .dwattr $C$DW$219, DW_AT_data_member_location[DW_OP_plus_uconst 0x28]
    2804                            .dwattr $C$DW$219, DW_AT_accessibility(DW_ACCESS_public)
    2805                            .dwattr $C$DW$219, DW_AT_decl_file("C:/ti/simplelink_cc13x0_sdk_2_30_00_20/source/ti/drivers/u
TI ARM Assembler PC v18.1.3 Wed Nov 28 13:34:39 2018

Tools Copyright (c) 1996-2017 Texas Instruments Incorporated
C:\Users\Adrian\AppData\Local\Temp\{DE9C6956-9654-4461-9319-00DA2038484A} PAGE   52

    2806                            .dwattr $C$DW$219, DW_AT_decl_line(0x263)
    2807                            .dwattr $C$DW$219, DW_AT_decl_column(0x19)
    2808                    
    2809                    $C$DW$220       .dwtag  DW_TAG_member
    2810                            .dwattr $C$DW$220, DW_AT_type(*$C$DW$T$71)
    2811                            .dwattr $C$DW$220, DW_AT_name("writeCR")
    2812                            .dwattr $C$DW$220, DW_AT_TI_symbol_name("writeCR")
    2813                            .dwattr $C$DW$220, DW_AT_data_member_location[DW_OP_plus_uconst 0x2c]
    2814                            .dwattr $C$DW$220, DW_AT_accessibility(DW_ACCESS_public)
    2815                            .dwattr $C$DW$220, DW_AT_decl_file("C:/ti/simplelink_cc13x0_sdk_2_30_00_20/source/ti/drivers/u
    2816                            .dwattr $C$DW$220, DW_AT_decl_line(0x264)
    2817                            .dwattr $C$DW$220, DW_AT_decl_column(0x19)
    2818                    
    2819                    $C$DW$221       .dwtag  DW_TAG_member
    2820                            .dwattr $C$DW$221, DW_AT_type(*$C$DW$T$71)
    2821                            .dwattr $C$DW$221, DW_AT_name("readRetPartial")
    2822                            .dwattr $C$DW$221, DW_AT_TI_symbol_name("readRetPartial")
    2823                            .dwattr $C$DW$221, DW_AT_data_member_location[DW_OP_plus_uconst 0x2d]
    2824                            .dwattr $C$DW$221, DW_AT_accessibility(DW_ACCESS_public)
    2825                            .dwattr $C$DW$221, DW_AT_decl_file("C:/ti/simplelink_cc13x0_sdk_2_30_00_20/source/ti/drivers/u
    2826                            .dwattr $C$DW$221, DW_AT_decl_line(0x267)
    2827                            .dwattr $C$DW$221, DW_AT_decl_column(0x1b)
    2828                    
    2829                    $C$DW$222       .dwtag  DW_TAG_member
    2830                            .dwattr $C$DW$222, DW_AT_type(*$C$DW$T$3)
    2831                            .dwattr $C$DW$222, DW_AT_name("readBuf")
    2832                            .dwattr $C$DW$222, DW_AT_TI_symbol_name("readBuf")
    2833                            .dwattr $C$DW$222, DW_AT_data_member_location[DW_OP_plus_uconst 0x30]
    2834                            .dwattr $C$DW$222, DW_AT_accessibility(DW_ACCESS_public)
    2835                            .dwattr $C$DW$222, DW_AT_decl_file("C:/ti/simplelink_cc13x0_sdk_2_30_00_20/source/ti/drivers/u
    2836                            .dwattr $C$DW$222, DW_AT_decl_line(0x268)
    2837                            .dwattr $C$DW$222, DW_AT_decl_column(0x1c)
    2838                    
    2839                    $C$DW$223       .dwtag  DW_TAG_member
    2840                            .dwattr $C$DW$223, DW_AT_type(*$C$DW$T$105)
    2841                            .dwattr $C$DW$223, DW_AT_name("readCount")
    2842                            .dwattr $C$DW$223, DW_AT_TI_symbol_name("readCount")
    2843                            .dwattr $C$DW$223, DW_AT_data_member_location[DW_OP_plus_uconst 0x34]
    2844                            .dwattr $C$DW$223, DW_AT_accessibility(DW_ACCESS_public)
    2845                            .dwattr $C$DW$223, DW_AT_decl_file("C:/ti/simplelink_cc13x0_sdk_2_30_00_20/source/ti/drivers/u
    2846                            .dwattr $C$DW$223, DW_AT_decl_line(0x269)
    2847                            .dwattr $C$DW$223, DW_AT_decl_column(0x1b)
    2848                    
    2849                    $C$DW$224       .dwtag  DW_TAG_member
    2850                            .dwattr $C$DW$224, DW_AT_type(*$C$DW$T$105)
    2851                            .dwattr $C$DW$224, DW_AT_name("readSize")
    2852                            .dwattr $C$DW$224, DW_AT_TI_symbol_name("readSize")
    2853                            .dwattr $C$DW$224, DW_AT_data_member_location[DW_OP_plus_uconst 0x38]
    2854                            .dwattr $C$DW$224, DW_AT_accessibility(DW_ACCESS_public)
    2855                            .dwattr $C$DW$224, DW_AT_decl_file("C:/ti/simplelink_cc13x0_sdk_2_30_00_20/source/ti/drivers/u
    2856                            .dwattr $C$DW$224, DW_AT_decl_line(0x26a)
    2857                            .dwattr $C$DW$224, DW_AT_decl_column(0x1b)
    2858                    
    2859                    $C$DW$225       .dwtag  DW_TAG_member
    2860                            .dwattr $C$DW$225, DW_AT_type(*$C$DW$T$140)
TI ARM Assembler PC v18.1.3 Wed Nov 28 13:34:39 2018

Tools Copyright (c) 1996-2017 Texas Instruments Incorporated
C:\Users\Adrian\AppData\Local\Temp\{DE9C6956-9654-4461-9319-00DA2038484A} PAGE   53

    2861                            .dwattr $C$DW$225, DW_AT_name("ringBuffer")
    2862                            .dwattr $C$DW$225, DW_AT_TI_symbol_name("ringBuffer")
    2863                            .dwattr $C$DW$225, DW_AT_data_member_location[DW_OP_plus_uconst 0x3c]
    2864                            .dwattr $C$DW$225, DW_AT_accessibility(DW_ACCESS_public)
    2865                            .dwattr $C$DW$225, DW_AT_decl_file("C:/ti/simplelink_cc13x0_sdk_2_30_00_20/source/ti/drivers/u
    2866                            .dwattr $C$DW$225, DW_AT_decl_line(0x26b)
    2867                            .dwattr $C$DW$225, DW_AT_decl_column(0x1b)
    2868                    
    2869                    $C$DW$226       .dwtag  DW_TAG_member
    2870                            .dwattr $C$DW$226, DW_AT_type(*$C$DW$T$87)
    2871                            .dwattr $C$DW$226, DW_AT_name("pinState")
    2872                            .dwattr $C$DW$226, DW_AT_TI_symbol_name("pinState")
    2873                            .dwattr $C$DW$226, DW_AT_data_member_location[DW_OP_plus_uconst 0x54]
    2874                            .dwattr $C$DW$226, DW_AT_accessibility(DW_ACCESS_public)
    2875                            .dwattr $C$DW$226, DW_AT_decl_file("C:/ti/simplelink_cc13x0_sdk_2_30_00_20/source/ti/drivers/u
    2876                            .dwattr $C$DW$226, DW_AT_decl_line(0x26e)
    2877                            .dwattr $C$DW$226, DW_AT_decl_column(0x1c)
    2878                    
    2879                    $C$DW$227       .dwtag  DW_TAG_member
    2880                            .dwattr $C$DW$227, DW_AT_type(*$C$DW$T$89)
    2881                            .dwattr $C$DW$227, DW_AT_name("hPin")
    2882                            .dwattr $C$DW$227, DW_AT_TI_symbol_name("hPin")
    2883                            .dwattr $C$DW$227, DW_AT_data_member_location[DW_OP_plus_uconst 0x60]
    2884                            .dwattr $C$DW$227, DW_AT_accessibility(DW_ACCESS_public)
    2885                            .dwattr $C$DW$227, DW_AT_decl_file("C:/ti/simplelink_cc13x0_sdk_2_30_00_20/source/ti/drivers/u
    2886                            .dwattr $C$DW$227, DW_AT_decl_line(0x26f)
    2887                            .dwattr $C$DW$227, DW_AT_decl_column(0x1c)
    2888                    
    2889                    $C$DW$228       .dwtag  DW_TAG_member
    2890                            .dwattr $C$DW$228, DW_AT_type(*$C$DW$T$3)
    2891                            .dwattr $C$DW$228, DW_AT_name("uartPostFxn")
    2892                            .dwattr $C$DW$228, DW_AT_TI_symbol_name("uartPostFxn")
    2893                            .dwattr $C$DW$228, DW_AT_data_member_location[DW_OP_plus_uconst 0x64]
    2894                            .dwattr $C$DW$228, DW_AT_accessibility(DW_ACCESS_public)
    2895                            .dwattr $C$DW$228, DW_AT_decl_file("C:/ti/simplelink_cc13x0_sdk_2_30_00_20/source/ti/drivers/u
    2896                            .dwattr $C$DW$228, DW_AT_decl_line(0x272)
    2897                            .dwattr $C$DW$228, DW_AT_decl_column(0x17)
    2898                    
    2899                    $C$DW$229       .dwtag  DW_TAG_member
    2900                            .dwattr $C$DW$229, DW_AT_type(*$C$DW$T$141)
    2901                            .dwattr $C$DW$229, DW_AT_name("uartPostObj")
    2902                            .dwattr $C$DW$229, DW_AT_TI_symbol_name("uartPostObj")
    2903                            .dwattr $C$DW$229, DW_AT_data_member_location[DW_OP_plus_uconst 0x68]
    2904                            .dwattr $C$DW$229, DW_AT_accessibility(DW_ACCESS_public)
    2905                            .dwattr $C$DW$229, DW_AT_decl_file("C:/ti/simplelink_cc13x0_sdk_2_30_00_20/source/ti/drivers/u
    2906                            .dwattr $C$DW$229, DW_AT_decl_line(0x274)
    2907                            .dwattr $C$DW$229, DW_AT_decl_column(0x16)
    2908                    
    2909                    $C$DW$230       .dwtag  DW_TAG_member
    2910                            .dwattr $C$DW$230, DW_AT_type(*$C$DW$T$142)
    2911                            .dwattr $C$DW$230, DW_AT_name("hwi")
    2912                            .dwattr $C$DW$230, DW_AT_TI_symbol_name("hwi")
    2913                            .dwattr $C$DW$230, DW_AT_data_member_location[DW_OP_plus_uconst 0x7c]
    2914                            .dwattr $C$DW$230, DW_AT_accessibility(DW_ACCESS_public)
    2915                            .dwattr $C$DW$230, DW_AT_decl_file("C:/ti/simplelink_cc13x0_sdk_2_30_00_20/source/ti/drivers/u
TI ARM Assembler PC v18.1.3 Wed Nov 28 13:34:39 2018

Tools Copyright (c) 1996-2017 Texas Instruments Incorporated
C:\Users\Adrian\AppData\Local\Temp\{DE9C6956-9654-4461-9319-00DA2038484A} PAGE   54

    2916                            .dwattr $C$DW$230, DW_AT_decl_line(0x277)
    2917                            .dwattr $C$DW$230, DW_AT_decl_column(0x11)
    2918                    
    2919                    $C$DW$231       .dwtag  DW_TAG_member
    2920                            .dwattr $C$DW$231, DW_AT_type(*$C$DW$T$143)
    2921                            .dwattr $C$DW$231, DW_AT_name("swi")
    2922                            .dwattr $C$DW$231, DW_AT_TI_symbol_name("swi")
    2923                            .dwattr $C$DW$231, DW_AT_data_member_location[DW_OP_plus_uconst 0x98]
    2924                            .dwattr $C$DW$231, DW_AT_accessibility(DW_ACCESS_public)
    2925                            .dwattr $C$DW$231, DW_AT_decl_file("C:/ti/simplelink_cc13x0_sdk_2_30_00_20/source/ti/drivers/u
    2926                            .dwattr $C$DW$231, DW_AT_decl_line(0x278)
    2927                            .dwattr $C$DW$231, DW_AT_decl_column(0x1b)
    2928                    
    2929                    $C$DW$232       .dwtag  DW_TAG_member
    2930                            .dwattr $C$DW$232, DW_AT_type(*$C$DW$T$144)
    2931                            .dwattr $C$DW$232, DW_AT_name("writeSem")
    2932                            .dwattr $C$DW$232, DW_AT_TI_symbol_name("writeSem")
    2933                            .dwattr $C$DW$232, DW_AT_data_member_location[DW_OP_plus_uconst 0xcc]
    2934                            .dwattr $C$DW$232, DW_AT_accessibility(DW_ACCESS_public)
    2935                            .dwattr $C$DW$232, DW_AT_decl_file("C:/ti/simplelink_cc13x0_sdk_2_30_00_20/source/ti/drivers/u
    2936                            .dwattr $C$DW$232, DW_AT_decl_line(0x279)
    2937                            .dwattr $C$DW$232, DW_AT_decl_column(0x1b)
    2938                    
    2939                    $C$DW$233       .dwtag  DW_TAG_member
    2940                            .dwattr $C$DW$233, DW_AT_type(*$C$DW$T$144)
    2941                            .dwattr $C$DW$233, DW_AT_name("readSem")
    2942                            .dwattr $C$DW$233, DW_AT_TI_symbol_name("readSem")
    2943                            .dwattr $C$DW$233, DW_AT_data_member_location[DW_OP_plus_uconst 0xe8]
    2944                            .dwattr $C$DW$233, DW_AT_accessibility(DW_ACCESS_public)
    2945                            .dwattr $C$DW$233, DW_AT_decl_file("C:/ti/simplelink_cc13x0_sdk_2_30_00_20/source/ti/drivers/u
    2946                            .dwattr $C$DW$233, DW_AT_decl_line(0x27a)
    2947                            .dwattr $C$DW$233, DW_AT_decl_column(0x1b)
    2948                    
    2949                    $C$DW$234       .dwtag  DW_TAG_member
    2950                            .dwattr $C$DW$234, DW_AT_type(*$C$DW$T$145)
    2951                            .dwattr $C$DW$234, DW_AT_name("txFifoEmptyClk")
    2952                            .dwattr $C$DW$234, DW_AT_TI_symbol_name("txFifoEmptyClk")
    2953                            .dwattr $C$DW$234, DW_AT_data_member_location[DW_OP_plus_uconst 0x104]
    2954                            .dwattr $C$DW$234, DW_AT_accessibility(DW_ACCESS_public)
    2955                            .dwattr $C$DW$234, DW_AT_decl_file("C:/ti/simplelink_cc13x0_sdk_2_30_00_20/source/ti/drivers/u
    2956                            .dwattr $C$DW$234, DW_AT_decl_line(0x27b)
    2957                            .dwattr $C$DW$234, DW_AT_decl_column(0x1b)
    2958                    
    2959                            .dwattr $C$DW$T$146, DW_AT_decl_file("C:/ti/simplelink_cc13x0_sdk_2_30_00_20/source/ti/drivers
    2960                            .dwattr $C$DW$T$146, DW_AT_decl_line(0x247)
    2961                            .dwattr $C$DW$T$146, DW_AT_decl_column(0x10)
    2962                            .dwendtag $C$DW$T$146
    2963                    
    2964                    $C$DW$T$233     .dwtag  DW_TAG_typedef
    2965                            .dwattr $C$DW$T$233, DW_AT_name("UARTCC26XX_Object")
    2966                            .dwattr $C$DW$T$233, DW_AT_type(*$C$DW$T$146)
    2967                            .dwattr $C$DW$T$233, DW_AT_language(DW_LANG_C)
    2968                            .dwattr $C$DW$T$233, DW_AT_decl_file("C:/ti/simplelink_cc13x0_sdk_2_30_00_20/source/ti/drivers
    2969                            .dwattr $C$DW$T$233, DW_AT_decl_line(0x27c)
    2970                            .dwattr $C$DW$T$233, DW_AT_decl_column(0x03)
TI ARM Assembler PC v18.1.3 Wed Nov 28 13:34:39 2018

Tools Copyright (c) 1996-2017 Texas Instruments Incorporated
C:\Users\Adrian\AppData\Local\Temp\{DE9C6956-9654-4461-9319-00DA2038484A} PAGE   55

    2971                    
    2972                    $C$DW$T$234     .dwtag  DW_TAG_pointer_type
    2973                            .dwattr $C$DW$T$234, DW_AT_type(*$C$DW$T$146)
    2974                            .dwattr $C$DW$T$234, DW_AT_address_class(0x20)
    2975                    
    2976                    $C$DW$T$235     .dwtag  DW_TAG_typedef
    2977                            .dwattr $C$DW$T$235, DW_AT_name("UARTCC26XX_Handle")
    2978                            .dwattr $C$DW$T$235, DW_AT_type(*$C$DW$T$234)
    2979                            .dwattr $C$DW$T$235, DW_AT_language(DW_LANG_C)
    2980                            .dwattr $C$DW$T$235, DW_AT_decl_file("C:/ti/simplelink_cc13x0_sdk_2_30_00_20/source/ti/drivers
    2981                            .dwattr $C$DW$T$235, DW_AT_decl_line(0x27c)
    2982                            .dwattr $C$DW$T$235, DW_AT_decl_column(0x17)
    2983                    
    2984                    
    2985                    $C$DW$T$150     .dwtag  DW_TAG_structure_type
    2986                            .dwattr $C$DW$T$150, DW_AT_name("UART_Config_")
    2987                            .dwattr $C$DW$T$150, DW_AT_byte_size(0x0c)
    2988                    $C$DW$235       .dwtag  DW_TAG_member
    2989                            .dwattr $C$DW$235, DW_AT_type(*$C$DW$T$149)
    2990                            .dwattr $C$DW$235, DW_AT_name("fxnTablePtr")
    2991                            .dwattr $C$DW$235, DW_AT_TI_symbol_name("fxnTablePtr")
