TI ARM Assembler PC v18.1.3 Wed Nov 28 13:22:11 2018

Tools Copyright (c) 1996-2017 Texas Instruments Incorporated
C:\Users\Adrian\AppData\Local\Temp\{B4B2FEDC-5A78-4594-BEB6-3F19656B4E06} PAGE    1

       1                    ;******************************************************************************
       2                    ;* TI ARM C/C++ Codegen                                        PC v18.1.3.LTS *
       3                    ;* Date/Time created: Wed Nov 28 13:22:10 2018                                *
       4                    ;******************************************************************************
       5                            .compiler_opts --abi=eabi --arm_vmrs_si_workaround=off --code_state=16 --diag_wrap=off --embed
       6 00000000                   .thumb
       7                    
       8                    $C$DW$CU        .dwtag  DW_TAG_compile_unit
       9                            .dwattr $C$DW$CU, DW_AT_name("../Application/api_mac.c")
      10                            .dwattr $C$DW$CU, DW_AT_producer("TI TI ARM C/C++ Codegen PC v18.1.3.LTS Copyright (c) 1996-20
      11                            .dwattr $C$DW$CU, DW_AT_TI_version(0x01)
      12                            .dwattr $C$DW$CU, DW_AT_comp_dir("C:\Users\Adrian\workspace_v8\collector_cc1350lp\collector_cc
      13                    
      14                    $C$DW$1 .dwtag  DW_TAG_subprogram
      15                            .dwattr $C$DW$1, DW_AT_name("ICall_registerApp")
      16                            .dwattr $C$DW$1, DW_AT_TI_symbol_name("ICall_registerApp")
      17                            .dwattr $C$DW$1, DW_AT_type(*$C$DW$T$536)
      18                            .dwattr $C$DW$1, DW_AT_declaration
      19                            .dwattr $C$DW$1, DW_AT_external
      20                            .dwattr $C$DW$1, DW_AT_decl_file("C:/ti/simplelink_cc13x0_sdk_2_30_00_20/source/ti/ti154stack/
      21                            .dwattr $C$DW$1, DW_AT_decl_line(0x6e3)
      22                            .dwattr $C$DW$1, DW_AT_decl_column(0x14)
      23                    $C$DW$2 .dwtag  DW_TAG_formal_parameter
      24                            .dwattr $C$DW$2, DW_AT_type(*$C$DW$T$984)
      25                    
      26                    $C$DW$3 .dwtag  DW_TAG_formal_parameter
      27                            .dwattr $C$DW$3, DW_AT_type(*$C$DW$T$868)
      28                    
      29                            .dwendtag $C$DW$1
      30                    
      31                    
      32                    $C$DW$4 .dwtag  DW_TAG_subprogram
      33                            .dwattr $C$DW$4, DW_AT_name("ICall_allocMsg")
      34                            .dwattr $C$DW$4, DW_AT_TI_symbol_name("ICall_allocMsg")
      35                            .dwattr $C$DW$4, DW_AT_type(*$C$DW$T$3)
      36                            .dwattr $C$DW$4, DW_AT_declaration
      37                            .dwattr $C$DW$4, DW_AT_external
      38                            .dwattr $C$DW$4, DW_AT_decl_file("C:/ti/simplelink_cc13x0_sdk_2_30_00_20/source/ti/ti154stack/
      39                            .dwattr $C$DW$4, DW_AT_decl_line(0x6f7)
      40                            .dwattr $C$DW$4, DW_AT_decl_column(0x0e)
      41                    $C$DW$5 .dwtag  DW_TAG_formal_parameter
      42                            .dwattr $C$DW$5, DW_AT_type(*$C$DW$T$528)
      43                    
      44                            .dwendtag $C$DW$4
      45                    
      46                    
      47                    $C$DW$6 .dwtag  DW_TAG_subprogram
      48                            .dwattr $C$DW$6, DW_AT_name("ICall_freeMsg")
      49                            .dwattr $C$DW$6, DW_AT_TI_symbol_name("ICall_freeMsg")
      50                            .dwattr $C$DW$6, DW_AT_declaration
      51                            .dwattr $C$DW$6, DW_AT_external
      52                            .dwattr $C$DW$6, DW_AT_decl_file("C:/ti/simplelink_cc13x0_sdk_2_30_00_20/source/ti/ti154stack/
      53                            .dwattr $C$DW$6, DW_AT_decl_line(0x70c)
      54                            .dwattr $C$DW$6, DW_AT_decl_column(0x0d)
      55                    $C$DW$7 .dwtag  DW_TAG_formal_parameter
TI ARM Assembler PC v18.1.3 Wed Nov 28 13:22:11 2018

Tools Copyright (c) 1996-2017 Texas Instruments Incorporated
C:\Users\Adrian\AppData\Local\Temp\{B4B2FEDC-5A78-4594-BEB6-3F19656B4E06} PAGE    2

      56                            .dwattr $C$DW$7, DW_AT_type(*$C$DW$T$3)
      57                    
      58                            .dwendtag $C$DW$6
      59                    
      60                    
      61                    $C$DW$8 .dwtag  DW_TAG_subprogram
      62                            .dwattr $C$DW$8, DW_AT_name("ICall_wait")
      63                            .dwattr $C$DW$8, DW_AT_TI_symbol_name("ICall_wait")
      64                            .dwattr $C$DW$8, DW_AT_type(*$C$DW$T$536)
      65                            .dwattr $C$DW$8, DW_AT_declaration
      66                            .dwattr $C$DW$8, DW_AT_external
      67                            .dwattr $C$DW$8, DW_AT_decl_file("C:/ti/simplelink_cc13x0_sdk_2_30_00_20/source/ti/ti154stack/
      68                            .dwattr $C$DW$8, DW_AT_decl_line(0x784)
      69                            .dwattr $C$DW$8, DW_AT_decl_column(0x14)
      70                    $C$DW$9 .dwtag  DW_TAG_formal_parameter
      71                            .dwattr $C$DW$9, DW_AT_type(*$C$DW$T$557)
      72                    
      73                            .dwendtag $C$DW$8
      74                    
      75                    
      76                    $C$DW$10        .dwtag  DW_TAG_subprogram
      77                            .dwattr $C$DW$10, DW_AT_name("ICall_malloc")
      78                            .dwattr $C$DW$10, DW_AT_TI_symbol_name("ICall_malloc")
      79                            .dwattr $C$DW$10, DW_AT_type(*$C$DW$T$3)
      80                            .dwattr $C$DW$10, DW_AT_declaration
      81                            .dwattr $C$DW$10, DW_AT_external
      82                            .dwattr $C$DW$10, DW_AT_decl_file("C:/ti/simplelink_cc13x0_sdk_2_30_00_20/source/ti/ti154stack
      83                            .dwattr $C$DW$10, DW_AT_decl_line(0x7c2)
      84                            .dwattr $C$DW$10, DW_AT_decl_column(0x0e)
      85                    $C$DW$11        .dwtag  DW_TAG_formal_parameter
      86                            .dwattr $C$DW$11, DW_AT_type(*$C$DW$T$230)
      87                    
      88                            .dwendtag $C$DW$10
      89                    
      90                    
      91                    $C$DW$12        .dwtag  DW_TAG_subprogram
      92                            .dwattr $C$DW$12, DW_AT_name("ICall_fetchMsg")
      93                            .dwattr $C$DW$12, DW_AT_TI_symbol_name("ICall_fetchMsg")
      94                            .dwattr $C$DW$12, DW_AT_type(*$C$DW$T$536)
      95                            .dwattr $C$DW$12, DW_AT_declaration
      96                            .dwattr $C$DW$12, DW_AT_external
      97                            .dwattr $C$DW$12, DW_AT_decl_file("C:/ti/simplelink_cc13x0_sdk_2_30_00_20/source/ti/ti154stack
      98                            .dwattr $C$DW$12, DW_AT_decl_line(0x80e)
      99                            .dwattr $C$DW$12, DW_AT_decl_column(0x14)
     100                    $C$DW$13        .dwtag  DW_TAG_formal_parameter
     101                            .dwattr $C$DW$13, DW_AT_type(*$C$DW$T$984)
     102                    
     103                    $C$DW$14        .dwtag  DW_TAG_formal_parameter
     104                            .dwattr $C$DW$14, DW_AT_type(*$C$DW$T$984)
     105                    
     106                    $C$DW$15        .dwtag  DW_TAG_formal_parameter
     107                            .dwattr $C$DW$15, DW_AT_type(*$C$DW$T$873)
     108                    
     109                            .dwendtag $C$DW$12
     110                    
TI ARM Assembler PC v18.1.3 Wed Nov 28 13:22:11 2018

Tools Copyright (c) 1996-2017 Texas Instruments Incorporated
C:\Users\Adrian\AppData\Local\Temp\{B4B2FEDC-5A78-4594-BEB6-3F19656B4E06} PAGE    3

     111                    
     112                    $C$DW$16        .dwtag  DW_TAG_subprogram
     113                            .dwattr $C$DW$16, DW_AT_name("macMsgDeallocate")
     114                            .dwattr $C$DW$16, DW_AT_TI_symbol_name("macMsgDeallocate")
     115                            .dwattr $C$DW$16, DW_AT_declaration
     116                            .dwattr $C$DW$16, DW_AT_external
     117                            .dwattr $C$DW$16, DW_AT_decl_file("../Application/api_mac.c")
     118                            .dwattr $C$DW$16, DW_AT_decl_line(0x6e5)
     119                            .dwattr $C$DW$16, DW_AT_decl_column(0x0d)
     120                    $C$DW$17        .dwtag  DW_TAG_formal_parameter
     121                            .dwattr $C$DW$17, DW_AT_type(*$C$DW$T$802)
     122                    
     123                            .dwendtag $C$DW$16
     124                    
     125                    $C$DW$18        .dwtag  DW_TAG_variable
     126                            .dwattr $C$DW$18, DW_AT_name("ICall_dispatcher")
     127                            .dwattr $C$DW$18, DW_AT_TI_symbol_name("ICall_dispatcher")
     128                            .dwattr $C$DW$18, DW_AT_type(*$C$DW$T$579)
     129                            .dwattr $C$DW$18, DW_AT_declaration
     130                            .dwattr $C$DW$18, DW_AT_external
     131                            .dwattr $C$DW$18, DW_AT_decl_file("C:/ti/simplelink_cc13x0_sdk_2_30_00_20/source/ti/ti154stack
     132                            .dwattr $C$DW$18, DW_AT_decl_line(0x381)
     133                            .dwattr $C$DW$18, DW_AT_decl_column(0x19)
     134                    
     135                    
     136                    $C$DW$19        .dwtag  DW_TAG_subprogram
     137                            .dwattr $C$DW$19, DW_AT_name("ICall_searchServiceEntity")
     138                            .dwattr $C$DW$19, DW_AT_TI_symbol_name("ICall_searchServiceEntity")
     139                            .dwattr $C$DW$19, DW_AT_type(*$C$DW$T$228)
     140                            .dwattr $C$DW$19, DW_AT_declaration
     141                            .dwattr $C$DW$19, DW_AT_external
     142                            .dwattr $C$DW$19, DW_AT_decl_file("C:/ti/simplelink_cc13x0_sdk_2_30_00_20/source/ti/ti154stack
     143                            .dwattr $C$DW$19, DW_AT_decl_line(0x42d)
     144                            .dwattr $C$DW$19, DW_AT_decl_column(0x17)
     145                    $C$DW$20        .dwtag  DW_TAG_formal_parameter
     146                            .dwattr $C$DW$20, DW_AT_type(*$C$DW$T$231)
     147                    
     148                            .dwendtag $C$DW$19
     149                    
     150                    
     151                    $C$DW$21        .dwtag  DW_TAG_subprogram
     152                            .dwattr $C$DW$21, DW_AT_name("icall_directAPI")
     153                            .dwattr $C$DW$21, DW_AT_TI_symbol_name("icall_directAPI")
     154                            .dwattr $C$DW$21, DW_AT_type(*$C$DW$T$113)
     155                            .dwattr $C$DW$21, DW_AT_declaration
     156                            .dwattr $C$DW$21, DW_AT_external
     157                            .dwattr $C$DW$21, DW_AT_decl_file("C:/ti/simplelink_cc13x0_sdk_2_30_00_20/source/ti/ti154stack
     158                            .dwattr $C$DW$21, DW_AT_decl_line(0x445)
     159                            .dwattr $C$DW$21, DW_AT_decl_column(0x0a)
     160                    $C$DW$22        .dwtag  DW_TAG_formal_parameter
     161                            .dwattr $C$DW$22, DW_AT_type(*$C$DW$T$27)
     162                    
     163                    $C$DW$23        .dwtag  DW_TAG_formal_parameter
     164                            .dwattr $C$DW$23, DW_AT_type(*$C$DW$T$108)
     165                    
TI ARM Assembler PC v18.1.3 Wed Nov 28 13:22:11 2018

Tools Copyright (c) 1996-2017 Texas Instruments Incorporated
C:\Users\Adrian\AppData\Local\Temp\{B4B2FEDC-5A78-4594-BEB6-3F19656B4E06} PAGE    4

     166                    $C$DW$24        .dwtag  DW_TAG_unspecified_parameters
     167                    
     168                            .dwendtag $C$DW$21
     169                    
     170                    
     171                    $C$DW$25        .dwtag  DW_TAG_subprogram
     172                            .dwattr $C$DW$25, DW_AT_name("MAC_McpsDataReq")
     173                            .dwattr $C$DW$25, DW_AT_TI_symbol_name("MAC_McpsDataReq")
     174                            .dwattr $C$DW$25, DW_AT_type(*$C$DW$T$30)
     175                            .dwattr $C$DW$25, DW_AT_declaration
     176                            .dwattr $C$DW$25, DW_AT_external
     177                            .dwattr $C$DW$25, DW_AT_decl_file("C:/ti/simplelink_cc13x0_sdk_2_30_00_20/source/ti/ti154stack
     178                            .dwattr $C$DW$25, DW_AT_decl_line(0x5f4)
     179                            .dwattr $C$DW$25, DW_AT_decl_column(0x0e)
     180                    $C$DW$26        .dwtag  DW_TAG_formal_parameter
     181                            .dwattr $C$DW$26, DW_AT_type(*$C$DW$T$614)
     182                    
     183                            .dwendtag $C$DW$25
     184                    
     185                    
     186                    $C$DW$27        .dwtag  DW_TAG_subprogram
     187                            .dwattr $C$DW$27, DW_AT_name("MAC_McpsPurgeReq")
     188                            .dwattr $C$DW$27, DW_AT_TI_symbol_name("MAC_McpsPurgeReq")
     189                            .dwattr $C$DW$27, DW_AT_type(*$C$DW$T$30)
     190                            .dwattr $C$DW$27, DW_AT_declaration
     191                            .dwattr $C$DW$27, DW_AT_external
     192                            .dwattr $C$DW$27, DW_AT_decl_file("C:/ti/simplelink_cc13x0_sdk_2_30_00_20/source/ti/ti154stack
     193                            .dwattr $C$DW$27, DW_AT_decl_line(0x608)
     194                            .dwattr $C$DW$27, DW_AT_decl_column(0x0e)
     195                    $C$DW$28        .dwtag  DW_TAG_formal_parameter
     196                            .dwattr $C$DW$28, DW_AT_type(*$C$DW$T$30)
     197                    
     198                            .dwendtag $C$DW$27
     199                    
     200                    
     201                    $C$DW$29        .dwtag  DW_TAG_subprogram
     202                            .dwattr $C$DW$29, DW_AT_name("MAC_MlmeAssociateReq")
     203                            .dwattr $C$DW$29, DW_AT_TI_symbol_name("MAC_MlmeAssociateReq")
     204                            .dwattr $C$DW$29, DW_AT_type(*$C$DW$T$30)
     205                            .dwattr $C$DW$29, DW_AT_declaration
     206                            .dwattr $C$DW$29, DW_AT_external
     207                            .dwattr $C$DW$29, DW_AT_decl_file("C:/ti/simplelink_cc13x0_sdk_2_30_00_20/source/ti/ti154stack
     208                            .dwattr $C$DW$29, DW_AT_decl_line(0x642)
     209                            .dwattr $C$DW$29, DW_AT_decl_column(0x0e)
     210                    $C$DW$30        .dwtag  DW_TAG_formal_parameter
     211                            .dwattr $C$DW$30, DW_AT_type(*$C$DW$T$617)
     212                    
     213                            .dwendtag $C$DW$29
     214                    
     215                    
     216                    $C$DW$31        .dwtag  DW_TAG_subprogram
     217                            .dwattr $C$DW$31, DW_AT_name("MAC_MlmeAssociateRsp")
     218                            .dwattr $C$DW$31, DW_AT_TI_symbol_name("MAC_MlmeAssociateRsp")
     219                            .dwattr $C$DW$31, DW_AT_type(*$C$DW$T$30)
     220                            .dwattr $C$DW$31, DW_AT_declaration
TI ARM Assembler PC v18.1.3 Wed Nov 28 13:22:11 2018

Tools Copyright (c) 1996-2017 Texas Instruments Incorporated
C:\Users\Adrian\AppData\Local\Temp\{B4B2FEDC-5A78-4594-BEB6-3F19656B4E06} PAGE    5

     221                            .dwattr $C$DW$31, DW_AT_external
     222                            .dwattr $C$DW$31, DW_AT_decl_file("C:/ti/simplelink_cc13x0_sdk_2_30_00_20/source/ti/ti154stack
     223                            .dwattr $C$DW$31, DW_AT_decl_line(0x658)
     224                            .dwattr $C$DW$31, DW_AT_decl_column(0x0e)
     225                    $C$DW$32        .dwtag  DW_TAG_formal_parameter
     226                            .dwattr $C$DW$32, DW_AT_type(*$C$DW$T$619)
     227                    
     228                            .dwendtag $C$DW$31
     229                    
     230                    
     231                    $C$DW$33        .dwtag  DW_TAG_subprogram
     232                            .dwattr $C$DW$33, DW_AT_name("MAC_MlmeDisassociateReq")
     233                            .dwattr $C$DW$33, DW_AT_TI_symbol_name("MAC_MlmeDisassociateReq")
     234                            .dwattr $C$DW$33, DW_AT_type(*$C$DW$T$30)
     235                            .dwattr $C$DW$33, DW_AT_declaration
     236                            .dwattr $C$DW$33, DW_AT_external
     237                            .dwattr $C$DW$33, DW_AT_decl_file("C:/ti/simplelink_cc13x0_sdk_2_30_00_20/source/ti/ti154stack
     238                            .dwattr $C$DW$33, DW_AT_decl_line(0x66e)
     239                            .dwattr $C$DW$33, DW_AT_decl_column(0x0e)
     240                    $C$DW$34        .dwtag  DW_TAG_formal_parameter
     241                            .dwattr $C$DW$34, DW_AT_type(*$C$DW$T$621)
     242                    
     243                            .dwendtag $C$DW$33
     244                    
     245                    
     246                    $C$DW$35        .dwtag  DW_TAG_subprogram
     247                            .dwattr $C$DW$35, DW_AT_name("MAC_MlmeGetReq")
     248                            .dwattr $C$DW$35, DW_AT_TI_symbol_name("MAC_MlmeGetReq")
     249                            .dwattr $C$DW$35, DW_AT_type(*$C$DW$T$30)
     250                            .dwattr $C$DW$35, DW_AT_declaration
     251                            .dwattr $C$DW$35, DW_AT_external
     252                            .dwattr $C$DW$35, DW_AT_decl_file("C:/ti/simplelink_cc13x0_sdk_2_30_00_20/source/ti/ti154stack
     253                            .dwattr $C$DW$35, DW_AT_decl_line(0x685)
     254                            .dwattr $C$DW$35, DW_AT_decl_column(0x0e)
     255                    $C$DW$36        .dwtag  DW_TAG_formal_parameter
     256                            .dwattr $C$DW$36, DW_AT_type(*$C$DW$T$30)
     257                    
     258                    $C$DW$37        .dwtag  DW_TAG_formal_parameter
     259                            .dwattr $C$DW$37, DW_AT_type(*$C$DW$T$3)
     260                    
     261                            .dwendtag $C$DW$35
     262                    
     263                    
     264                    $C$DW$38        .dwtag  DW_TAG_subprogram
     265                            .dwattr $C$DW$38, DW_AT_name("MAC_MlmeGetReqSize")
     266                            .dwattr $C$DW$38, DW_AT_TI_symbol_name("MAC_MlmeGetReqSize")
     267                            .dwattr $C$DW$38, DW_AT_type(*$C$DW$T$30)
     268                            .dwattr $C$DW$38, DW_AT_declaration
     269                            .dwattr $C$DW$38, DW_AT_external
     270                            .dwattr $C$DW$38, DW_AT_decl_file("C:/ti/simplelink_cc13x0_sdk_2_30_00_20/source/ti/ti154stack
     271                            .dwattr $C$DW$38, DW_AT_decl_line(0x91d)
     272                            .dwattr $C$DW$38, DW_AT_decl_column(0x0e)
     273                    $C$DW$39        .dwtag  DW_TAG_formal_parameter
     274                            .dwattr $C$DW$39, DW_AT_type(*$C$DW$T$30)
     275                    
TI ARM Assembler PC v18.1.3 Wed Nov 28 13:22:11 2018

Tools Copyright (c) 1996-2017 Texas Instruments Incorporated
C:\Users\Adrian\AppData\Local\Temp\{B4B2FEDC-5A78-4594-BEB6-3F19656B4E06} PAGE    6

     276                            .dwendtag $C$DW$38
     277                    
     278                    
     279                    $C$DW$40        .dwtag  DW_TAG_subprogram
     280                            .dwattr $C$DW$40, DW_AT_name("MAC_MlmeGetSecurityReq")
     281                            .dwattr $C$DW$40, DW_AT_TI_symbol_name("MAC_MlmeGetSecurityReq")
     282                            .dwattr $C$DW$40, DW_AT_type(*$C$DW$T$30)
     283                            .dwattr $C$DW$40, DW_AT_declaration
     284                            .dwattr $C$DW$40, DW_AT_external
     285                            .dwattr $C$DW$40, DW_AT_decl_file("C:/ti/simplelink_cc13x0_sdk_2_30_00_20/source/ti/ti154stack
     286                            .dwattr $C$DW$40, DW_AT_decl_line(0x69d)
     287                            .dwattr $C$DW$40, DW_AT_decl_column(0x0e)
     288                    $C$DW$41        .dwtag  DW_TAG_formal_parameter
     289                            .dwattr $C$DW$41, DW_AT_type(*$C$DW$T$30)
     290                    
     291                    $C$DW$42        .dwtag  DW_TAG_formal_parameter
     292                            .dwattr $C$DW$42, DW_AT_type(*$C$DW$T$3)
     293                    
     294                            .dwendtag $C$DW$40
     295                    
     296                    
     297                    $C$DW$43        .dwtag  DW_TAG_subprogram
     298                            .dwattr $C$DW$43, DW_AT_name("MAC_MlmeGetSecurityReqSize")
     299                            .dwattr $C$DW$43, DW_AT_TI_symbol_name("MAC_MlmeGetSecurityReqSize")
     300                            .dwattr $C$DW$43, DW_AT_type(*$C$DW$T$30)
     301                            .dwattr $C$DW$43, DW_AT_declaration
     302                            .dwattr $C$DW$43, DW_AT_external
     303                            .dwattr $C$DW$43, DW_AT_decl_file("C:/ti/simplelink_cc13x0_sdk_2_30_00_20/source/ti/ti154stack
     304                            .dwattr $C$DW$43, DW_AT_decl_line(0x6b0)
     305                            .dwattr $C$DW$43, DW_AT_decl_column(0x0e)
     306                    $C$DW$44        .dwtag  DW_TAG_formal_parameter
     307                            .dwattr $C$DW$44, DW_AT_type(*$C$DW$T$30)
     308                    
     309                            .dwendtag $C$DW$43
     310                    
     311                    
     312                    $C$DW$45        .dwtag  DW_TAG_subprogram
     313                            .dwattr $C$DW$45, DW_AT_name("MAC_MlmeOrphanRsp")
     314                            .dwattr $C$DW$45, DW_AT_TI_symbol_name("MAC_MlmeOrphanRsp")
     315                            .dwattr $C$DW$45, DW_AT_type(*$C$DW$T$30)
     316                            .dwattr $C$DW$45, DW_AT_declaration
     317                            .dwattr $C$DW$45, DW_AT_external
     318                            .dwattr $C$DW$45, DW_AT_decl_file("C:/ti/simplelink_cc13x0_sdk_2_30_00_20/source/ti/ti154stack
     319                            .dwattr $C$DW$45, DW_AT_decl_line(0x6c6)
     320                            .dwattr $C$DW$45, DW_AT_decl_column(0x0e)
     321                    $C$DW$46        .dwtag  DW_TAG_formal_parameter
     322                            .dwattr $C$DW$46, DW_AT_type(*$C$DW$T$667)
     323                    
     324                            .dwendtag $C$DW$45
     325                    
     326                    
     327                    $C$DW$47        .dwtag  DW_TAG_subprogram
     328                            .dwattr $C$DW$47, DW_AT_name("MAC_MlmePollReq")
     329                            .dwattr $C$DW$47, DW_AT_TI_symbol_name("MAC_MlmePollReq")
     330                            .dwattr $C$DW$47, DW_AT_type(*$C$DW$T$30)
TI ARM Assembler PC v18.1.3 Wed Nov 28 13:22:11 2018

Tools Copyright (c) 1996-2017 Texas Instruments Incorporated
C:\Users\Adrian\AppData\Local\Temp\{B4B2FEDC-5A78-4594-BEB6-3F19656B4E06} PAGE    7

     331                            .dwattr $C$DW$47, DW_AT_declaration
     332                            .dwattr $C$DW$47, DW_AT_external
     333                            .dwattr $C$DW$47, DW_AT_decl_file("C:/ti/simplelink_cc13x0_sdk_2_30_00_20/source/ti/ti154stack
     334                            .dwattr $C$DW$47, DW_AT_decl_line(0x6dd)
     335                            .dwattr $C$DW$47, DW_AT_decl_column(0x0e)
     336                    $C$DW$48        .dwtag  DW_TAG_formal_parameter
     337                            .dwattr $C$DW$48, DW_AT_type(*$C$DW$T$669)
     338                    
     339                            .dwendtag $C$DW$47
     340                    
     341                    
     342                    $C$DW$49        .dwtag  DW_TAG_subprogram
     343                            .dwattr $C$DW$49, DW_AT_name("MAC_MlmeResetReq")
     344                            .dwattr $C$DW$49, DW_AT_TI_symbol_name("MAC_MlmeResetReq")
     345                            .dwattr $C$DW$49, DW_AT_type(*$C$DW$T$30)
     346                            .dwattr $C$DW$49, DW_AT_declaration
     347                            .dwattr $C$DW$49, DW_AT_external
     348                            .dwattr $C$DW$49, DW_AT_decl_file("C:/ti/simplelink_cc13x0_sdk_2_30_00_20/source/ti/ti154stack
     349                            .dwattr $C$DW$49, DW_AT_decl_line(0x6f3)
     350                            .dwattr $C$DW$49, DW_AT_decl_column(0x0e)
     351                    $C$DW$50        .dwtag  DW_TAG_formal_parameter
     352                            .dwattr $C$DW$50, DW_AT_type(*$C$DW$T$43)
     353                    
     354                            .dwendtag $C$DW$49
     355                    
     356                    
     357                    $C$DW$51        .dwtag  DW_TAG_subprogram
     358                            .dwattr $C$DW$51, DW_AT_name("MAC_MlmeScanReq")
     359                            .dwattr $C$DW$51, DW_AT_TI_symbol_name("MAC_MlmeScanReq")
     360                            .dwattr $C$DW$51, DW_AT_type(*$C$DW$T$454)
     361                            .dwattr $C$DW$51, DW_AT_declaration
     362                            .dwattr $C$DW$51, DW_AT_external
     363                            .dwattr $C$DW$51, DW_AT_decl_file("C:/ti/simplelink_cc13x0_sdk_2_30_00_20/source/ti/ti154stack
     364                            .dwattr $C$DW$51, DW_AT_decl_line(0x70f)
     365                            .dwattr $C$DW$51, DW_AT_decl_column(0x18)
     366                    $C$DW$52        .dwtag  DW_TAG_formal_parameter
     367                            .dwattr $C$DW$52, DW_AT_type(*$C$DW$T$612)
     368                    
     369                            .dwendtag $C$DW$51
     370                    
     371                    
     372                    $C$DW$53        .dwtag  DW_TAG_subprogram
     373                            .dwattr $C$DW$53, DW_AT_name("MAC_MlmeSetReq")
     374                            .dwattr $C$DW$53, DW_AT_TI_symbol_name("MAC_MlmeSetReq")
     375                            .dwattr $C$DW$53, DW_AT_type(*$C$DW$T$30)
     376                            .dwattr $C$DW$53, DW_AT_declaration
     377                            .dwattr $C$DW$53, DW_AT_external
     378                            .dwattr $C$DW$53, DW_AT_decl_file("C:/ti/simplelink_cc13x0_sdk_2_30_00_20/source/ti/ti154stack
     379                            .dwattr $C$DW$53, DW_AT_decl_line(0x726)
     380                            .dwattr $C$DW$53, DW_AT_decl_column(0x0e)
     381                    $C$DW$54        .dwtag  DW_TAG_formal_parameter
     382                            .dwattr $C$DW$54, DW_AT_type(*$C$DW$T$30)
     383                    
     384                    $C$DW$55        .dwtag  DW_TAG_formal_parameter
     385                            .dwattr $C$DW$55, DW_AT_type(*$C$DW$T$3)
TI ARM Assembler PC v18.1.3 Wed Nov 28 13:22:11 2018

Tools Copyright (c) 1996-2017 Texas Instruments Incorporated
C:\Users\Adrian\AppData\Local\Temp\{B4B2FEDC-5A78-4594-BEB6-3F19656B4E06} PAGE    8

     386                    
     387                            .dwendtag $C$DW$53
     388                    
     389                    
     390                    $C$DW$56        .dwtag  DW_TAG_subprogram
     391                            .dwattr $C$DW$56, DW_AT_name("MAC_MlmeSetSecurityReq")
     392                            .dwattr $C$DW$56, DW_AT_TI_symbol_name("MAC_MlmeSetSecurityReq")
     393                            .dwattr $C$DW$56, DW_AT_type(*$C$DW$T$30)
     394                            .dwattr $C$DW$56, DW_AT_declaration
     395                            .dwattr $C$DW$56, DW_AT_external
     396                            .dwattr $C$DW$56, DW_AT_decl_file("C:/ti/simplelink_cc13x0_sdk_2_30_00_20/source/ti/ti154stack
     397                            .dwattr $C$DW$56, DW_AT_decl_line(0x73e)
     398                            .dwattr $C$DW$56, DW_AT_decl_column(0x0e)
     399                    $C$DW$57        .dwtag  DW_TAG_formal_parameter
     400                            .dwattr $C$DW$57, DW_AT_type(*$C$DW$T$30)
     401                    
     402                    $C$DW$58        .dwtag  DW_TAG_formal_parameter
     403                            .dwattr $C$DW$58, DW_AT_type(*$C$DW$T$3)
     404                    
     405                            .dwendtag $C$DW$56
     406                    
     407                    
     408                    $C$DW$59        .dwtag  DW_TAG_subprogram
     409                            .dwattr $C$DW$59, DW_AT_name("MAC_MlmeStartReq")
     410                            .dwattr $C$DW$59, DW_AT_TI_symbol_name("MAC_MlmeStartReq")
     411                            .dwattr $C$DW$59, DW_AT_type(*$C$DW$T$30)
     412                            .dwattr $C$DW$59, DW_AT_declaration
     413                            .dwattr $C$DW$59, DW_AT_external
     414                            .dwattr $C$DW$59, DW_AT_decl_file("C:/ti/simplelink_cc13x0_sdk_2_30_00_20/source/ti/ti154stack
     415                            .dwattr $C$DW$59, DW_AT_decl_line(0x756)
     416                            .dwattr $C$DW$59, DW_AT_decl_column(0x0e)
     417                    $C$DW$60        .dwtag  DW_TAG_formal_parameter
     418                            .dwattr $C$DW$60, DW_AT_type(*$C$DW$T$681)
     419                    
     420                            .dwendtag $C$DW$59
     421                    
     422                    
     423                    $C$DW$61        .dwtag  DW_TAG_subprogram
     424                            .dwattr $C$DW$61, DW_AT_name("MAC_MlmeSyncReq")
     425                            .dwattr $C$DW$61, DW_AT_TI_symbol_name("MAC_MlmeSyncReq")
     426                            .dwattr $C$DW$61, DW_AT_type(*$C$DW$T$30)
     427                            .dwattr $C$DW$61, DW_AT_declaration
     428                            .dwattr $C$DW$61, DW_AT_external
     429                            .dwattr $C$DW$61, DW_AT_decl_file("C:/ti/simplelink_cc13x0_sdk_2_30_00_20/source/ti/ti154stack
     430                            .dwattr $C$DW$61, DW_AT_decl_line(0x76e)
     431                            .dwattr $C$DW$61, DW_AT_decl_column(0x0e)
     432                    $C$DW$62        .dwtag  DW_TAG_formal_parameter
     433                            .dwattr $C$DW$62, DW_AT_type(*$C$DW$T$683)
     434                    
     435                            .dwendtag $C$DW$61
     436                    
     437                    
     438                    $C$DW$63        .dwtag  DW_TAG_subprogram
     439                            .dwattr $C$DW$63, DW_AT_name("MAC_RandomByte")
     440                            .dwattr $C$DW$63, DW_AT_TI_symbol_name("MAC_RandomByte")
TI ARM Assembler PC v18.1.3 Wed Nov 28 13:22:11 2018

Tools Copyright (c) 1996-2017 Texas Instruments Incorporated
C:\Users\Adrian\AppData\Local\Temp\{B4B2FEDC-5A78-4594-BEB6-3F19656B4E06} PAGE    9

     441                            .dwattr $C$DW$63, DW_AT_type(*$C$DW$T$30)
     442                            .dwattr $C$DW$63, DW_AT_declaration
     443                            .dwattr $C$DW$63, DW_AT_external
     444                            .dwattr $C$DW$63, DW_AT_decl_file("C:/ti/simplelink_cc13x0_sdk_2_30_00_20/source/ti/ti154stack
     445                            .dwattr $C$DW$63, DW_AT_decl_line(0x7d4)
     446                            .dwattr $C$DW$63, DW_AT_decl_column(0x0e)
     447                            .dwendtag $C$DW$63
     448                    
     449                    
     450                    $C$DW$64        .dwtag  DW_TAG_subprogram
     451                            .dwattr $C$DW$64, DW_AT_name("macUpdatePanId")
     452                            .dwattr $C$DW$64, DW_AT_TI_symbol_name("macUpdatePanId")
     453                            .dwattr $C$DW$64, DW_AT_declaration
     454                            .dwattr $C$DW$64, DW_AT_external
     455                            .dwattr $C$DW$64, DW_AT_decl_file("C:/ti/simplelink_cc13x0_sdk_2_30_00_20/source/ti/ti154stack
     456                            .dwattr $C$DW$64, DW_AT_decl_line(0x8ce)
     457                            .dwattr $C$DW$64, DW_AT_decl_column(0x0d)
     458                    $C$DW$65        .dwtag  DW_TAG_formal_parameter
     459                            .dwattr $C$DW$65, DW_AT_type(*$C$DW$T$37)
     460                    
     461                            .dwendtag $C$DW$64
     462                    
     463                    
     464                    $C$DW$66        .dwtag  DW_TAG_subprogram
     465                            .dwattr $C$DW$66, DW_AT_name("MAC_MlmeWSAsyncReq")
     466                            .dwattr $C$DW$66, DW_AT_TI_symbol_name("MAC_MlmeWSAsyncReq")
     467                            .dwattr $C$DW$66, DW_AT_type(*$C$DW$T$30)
     468                            .dwattr $C$DW$66, DW_AT_declaration
     469                            .dwattr $C$DW$66, DW_AT_external
     470                            .dwattr $C$DW$66, DW_AT_decl_file("C:/ti/simplelink_cc13x0_sdk_2_30_00_20/source/ti/ti154stack
     471                            .dwattr $C$DW$66, DW_AT_decl_line(0x90a)
     472                            .dwattr $C$DW$66, DW_AT_decl_column(0x0e)
     473                    $C$DW$67        .dwtag  DW_TAG_formal_parameter
     474                            .dwattr $C$DW$67, DW_AT_type(*$C$DW$T$686)
     475                    
     476                            .dwendtag $C$DW$66
     477                    
     478                    
     479                    $C$DW$68        .dwtag  DW_TAG_subprogram
     480                            .dwattr $C$DW$68, DW_AT_name("MAC_StartFH")
     481                            .dwattr $C$DW$68, DW_AT_TI_symbol_name("MAC_StartFH")
     482                            .dwattr $C$DW$68, DW_AT_type(*$C$DW$T$30)
     483                            .dwattr $C$DW$68, DW_AT_declaration
     484                            .dwattr $C$DW$68, DW_AT_external
     485                            .dwattr $C$DW$68, DW_AT_decl_file("C:/ti/simplelink_cc13x0_sdk_2_30_00_20/source/ti/ti154stack
     486                            .dwattr $C$DW$68, DW_AT_decl_line(0x5d9)
     487                            .dwattr $C$DW$68, DW_AT_decl_column(0x0e)
     488                            .dwendtag $C$DW$68
     489                    
     490                    
     491                    $C$DW$69        .dwtag  DW_TAG_subprogram
     492                            .dwattr $C$DW$69, DW_AT_name("MAC_EnableFH")
     493                            .dwattr $C$DW$69, DW_AT_TI_symbol_name("MAC_EnableFH")
     494                            .dwattr $C$DW$69, DW_AT_type(*$C$DW$T$30)
     495                            .dwattr $C$DW$69, DW_AT_declaration
TI ARM Assembler PC v18.1.3 Wed Nov 28 13:22:11 2018

Tools Copyright (c) 1996-2017 Texas Instruments Incorporated
C:\Users\Adrian\AppData\Local\Temp\{B4B2FEDC-5A78-4594-BEB6-3F19656B4E06} PAGE   10

     496                            .dwattr $C$DW$69, DW_AT_external
     497                            .dwattr $C$DW$69, DW_AT_decl_file("C:/ti/simplelink_cc13x0_sdk_2_30_00_20/source/ti/ti154stack
     498                            .dwattr $C$DW$69, DW_AT_decl_line(0x5e1)
     499                            .dwattr $C$DW$69, DW_AT_decl_column(0x0e)
     500                            .dwendtag $C$DW$69
     501                    
     502                    
     503                    $C$DW$70        .dwtag  DW_TAG_subprogram
     504                            .dwattr $C$DW$70, DW_AT_name("macWrapperAddDevice")
     505                            .dwattr $C$DW$70, DW_AT_TI_symbol_name("macWrapperAddDevice")
     506                            .dwattr $C$DW$70, DW_AT_type(*$C$DW$T$30)
     507                            .dwattr $C$DW$70, DW_AT_declaration
     508                            .dwattr $C$DW$70, DW_AT_external
     509                            .dwattr $C$DW$70, DW_AT_decl_file("C:/ti/simplelink_cc13x0_sdk_2_30_00_20/source/ti/ti154stack
     510                            .dwattr $C$DW$70, DW_AT_decl_line(0x5d)
     511                            .dwattr $C$DW$70, DW_AT_decl_column(0x0e)
     512                    $C$DW$71        .dwtag  DW_TAG_formal_parameter
     513                            .dwattr $C$DW$71, DW_AT_type(*$C$DW$T$181)
     514                    
     515                            .dwendtag $C$DW$70
     516                    
     517                    
     518                    $C$DW$72        .dwtag  DW_TAG_subprogram
     519                            .dwattr $C$DW$72, DW_AT_name("macWrapperDeleteDevice")
     520                            .dwattr $C$DW$72, DW_AT_TI_symbol_name("macWrapperDeleteDevice")
     521                            .dwattr $C$DW$72, DW_AT_type(*$C$DW$T$30)
     522                            .dwattr $C$DW$72, DW_AT_declaration
     523                            .dwattr $C$DW$72, DW_AT_external
     524                            .dwattr $C$DW$72, DW_AT_decl_file("C:/ti/simplelink_cc13x0_sdk_2_30_00_20/source/ti/ti154stack
     525                            .dwattr $C$DW$72, DW_AT_decl_line(0x6c)
     526                            .dwattr $C$DW$72, DW_AT_decl_column(0x10)
     527                    $C$DW$73        .dwtag  DW_TAG_formal_parameter
     528                            .dwattr $C$DW$73, DW_AT_type(*$C$DW$T$184)
     529                    
     530                            .dwendtag $C$DW$72
     531                    
     532                    
     533                    $C$DW$74        .dwtag  DW_TAG_subprogram
     534                            .dwattr $C$DW$74, DW_AT_name("macWrapperDeleteKeyAndAssociatedDevices")
     535                            .dwattr $C$DW$74, DW_AT_TI_symbol_name("macWrapperDeleteKeyAndAssociatedDevices")
     536                            .dwattr $C$DW$74, DW_AT_type(*$C$DW$T$30)
     537                            .dwattr $C$DW$74, DW_AT_declaration
     538                            .dwattr $C$DW$74, DW_AT_external
     539                            .dwattr $C$DW$74, DW_AT_decl_file("C:/ti/simplelink_cc13x0_sdk_2_30_00_20/source/ti/ti154stack
     540                            .dwattr $C$DW$74, DW_AT_decl_line(0x7a)
     541                            .dwattr $C$DW$74, DW_AT_decl_column(0x10)
     542                    $C$DW$75        .dwtag  DW_TAG_formal_parameter
     543                            .dwattr $C$DW$75, DW_AT_type(*$C$DW$T$37)
     544                    
     545                            .dwendtag $C$DW$74
     546                    
     547                    
     548                    $C$DW$76        .dwtag  DW_TAG_subprogram
     549                            .dwattr $C$DW$76, DW_AT_name("macWrapperDeleteAllDevices")
     550                            .dwattr $C$DW$76, DW_AT_TI_symbol_name("macWrapperDeleteAllDevices")
TI ARM Assembler PC v18.1.3 Wed Nov 28 13:22:11 2018

Tools Copyright (c) 1996-2017 Texas Instruments Incorporated
C:\Users\Adrian\AppData\Local\Temp\{B4B2FEDC-5A78-4594-BEB6-3F19656B4E06} PAGE   11

     551                            .dwattr $C$DW$76, DW_AT_type(*$C$DW$T$30)
     552                            .dwattr $C$DW$76, DW_AT_declaration
     553                            .dwattr $C$DW$76, DW_AT_external
     554                            .dwattr $C$DW$76, DW_AT_decl_file("C:/ti/simplelink_cc13x0_sdk_2_30_00_20/source/ti/ti154stack
     555                            .dwattr $C$DW$76, DW_AT_decl_line(0x87)
     556                            .dwattr $C$DW$76, DW_AT_decl_column(0x10)
     557                            .dwendtag $C$DW$76
     558                    
     559                    
     560                    $C$DW$77        .dwtag  DW_TAG_subprogram
     561                            .dwattr $C$DW$77, DW_AT_name("macWrapperGetDefaultSourceKey")
     562                            .dwattr $C$DW$77, DW_AT_TI_symbol_name("macWrapperGetDefaultSourceKey")
     563                            .dwattr $C$DW$77, DW_AT_type(*$C$DW$T$30)
     564                            .dwattr $C$DW$77, DW_AT_declaration
     565                            .dwattr $C$DW$77, DW_AT_external
     566                            .dwattr $C$DW$77, DW_AT_decl_file("C:/ti/simplelink_cc13x0_sdk_2_30_00_20/source/ti/ti154stack
     567                            .dwattr $C$DW$77, DW_AT_decl_line(0x90)
     568                            .dwattr $C$DW$77, DW_AT_decl_column(0x10)
     569                    $C$DW$78        .dwtag  DW_TAG_formal_parameter
     570                            .dwattr $C$DW$78, DW_AT_type(*$C$DW$T$30)
     571                    
     572                    $C$DW$79        .dwtag  DW_TAG_formal_parameter
     573                            .dwattr $C$DW$79, DW_AT_type(*$C$DW$T$966)
     574                    
     575                            .dwendtag $C$DW$77
     576                    
     577                    
     578                    $C$DW$80        .dwtag  DW_TAG_subprogram
     579                            .dwattr $C$DW$80, DW_AT_name("macWrapperAddKeyInitFCtr")
     580                            .dwattr $C$DW$80, DW_AT_TI_symbol_name("macWrapperAddKeyInitFCtr")
     581                            .dwattr $C$DW$80, DW_AT_type(*$C$DW$T$30)
     582                            .dwattr $C$DW$80, DW_AT_declaration
     583                            .dwattr $C$DW$80, DW_AT_external
     584                            .dwattr $C$DW$80, DW_AT_decl_file("C:/ti/simplelink_cc13x0_sdk_2_30_00_20/source/ti/ti154stack
     585                            .dwattr $C$DW$80, DW_AT_decl_line(0xb7)
     586                            .dwattr $C$DW$80, DW_AT_decl_column(0x10)
     587                    $C$DW$81        .dwtag  DW_TAG_formal_parameter
     588                            .dwattr $C$DW$81, DW_AT_type(*$C$DW$T$189)
     589                    
     590                            .dwendtag $C$DW$80
     591                    
     592                    
     593                    $C$DW$82        .dwtag  DW_TAG_subprogram
     594                            .dwattr $C$DW$82, DW_AT_name("MAC_MlmeFHGetReqSize")
     595                            .dwattr $C$DW$82, DW_AT_TI_symbol_name("MAC_MlmeFHGetReqSize")
     596                            .dwattr $C$DW$82, DW_AT_type(*$C$DW$T$30)
     597                            .dwattr $C$DW$82, DW_AT_declaration
     598                            .dwattr $C$DW$82, DW_AT_external
     599                            .dwattr $C$DW$82, DW_AT_decl_file("C:/ti/simplelink_cc13x0_sdk_2_30_00_20/source/ti/ti154stack
     600                            .dwattr $C$DW$82, DW_AT_decl_line(0x927)
     601                            .dwattr $C$DW$82, DW_AT_decl_column(0x0e)
     602                    $C$DW$83        .dwtag  DW_TAG_formal_parameter
     603                            .dwattr $C$DW$83, DW_AT_type(*$C$DW$T$37)
     604                    
     605                            .dwendtag $C$DW$82
TI ARM Assembler PC v18.1.3 Wed Nov 28 13:22:11 2018

Tools Copyright (c) 1996-2017 Texas Instruments Incorporated
C:\Users\Adrian\AppData\Local\Temp\{B4B2FEDC-5A78-4594-BEB6-3F19656B4E06} PAGE   12

     606                    
     607                    
     608                    $C$DW$84        .dwtag  DW_TAG_subprogram
     609                            .dwattr $C$DW$84, DW_AT_name("MAC_MlmeFHGetReq")
     610                            .dwattr $C$DW$84, DW_AT_TI_symbol_name("MAC_MlmeFHGetReq")
     611                            .dwattr $C$DW$84, DW_AT_type(*$C$DW$T$30)
     612                            .dwattr $C$DW$84, DW_AT_declaration
     613                            .dwattr $C$DW$84, DW_AT_external
     614                            .dwattr $C$DW$84, DW_AT_decl_file("C:/ti/simplelink_cc13x0_sdk_2_30_00_20/source/ti/ti154stack
     615                            .dwattr $C$DW$84, DW_AT_decl_line(0x958)
     616                            .dwattr $C$DW$84, DW_AT_decl_column(0x0e)
     617                    $C$DW$85        .dwtag  DW_TAG_formal_parameter
     618                            .dwattr $C$DW$85, DW_AT_type(*$C$DW$T$37)
     619                    
     620                    $C$DW$86        .dwtag  DW_TAG_formal_parameter
     621                            .dwattr $C$DW$86, DW_AT_type(*$C$DW$T$3)
     622                    
     623                            .dwendtag $C$DW$84
     624                    
     625                    
     626                    $C$DW$87        .dwtag  DW_TAG_subprogram
     627                            .dwattr $C$DW$87, DW_AT_name("memset")
     628                            .dwattr $C$DW$87, DW_AT_TI_symbol_name("memset")
     629                            .dwattr $C$DW$87, DW_AT_type(*$C$DW$T$3)
     630                            .dwattr $C$DW$87, DW_AT_declaration
     631                            .dwattr $C$DW$87, DW_AT_external
     632                            .dwattr $C$DW$87, DW_AT_decl_file("C:/ti/ccsv8/tools/compiler/ti-cgt-arm_18.1.3.LTS/include/st
     633                            .dwattr $C$DW$87, DW_AT_decl_line(0x7a)
     634                            .dwattr $C$DW$87, DW_AT_decl_column(0x16)
     635                    $C$DW$88        .dwtag  DW_TAG_formal_parameter
     636                            .dwattr $C$DW$88, DW_AT_type(*$C$DW$T$3)
     637                    
     638                    $C$DW$89        .dwtag  DW_TAG_formal_parameter
     639                            .dwattr $C$DW$89, DW_AT_type(*$C$DW$T$10)
     640                    
     641                    $C$DW$90        .dwtag  DW_TAG_formal_parameter
     642                            .dwattr $C$DW$90, DW_AT_type(*$C$DW$T$528)
     643                    
     644                            .dwendtag $C$DW$87
     645                    
     646                    
     647                    $C$DW$91        .dwtag  DW_TAG_subprogram
     648                            .dwattr $C$DW$91, DW_AT_name("MAC_MlmeFHSetReq")
     649                            .dwattr $C$DW$91, DW_AT_TI_symbol_name("MAC_MlmeFHSetReq")
     650                            .dwattr $C$DW$91, DW_AT_type(*$C$DW$T$30)
     651                            .dwattr $C$DW$91, DW_AT_declaration
     652                            .dwattr $C$DW$91, DW_AT_external
     653                            .dwattr $C$DW$91, DW_AT_decl_file("C:/ti/simplelink_cc13x0_sdk_2_30_00_20/source/ti/ti154stack
     654                            .dwattr $C$DW$91, DW_AT_decl_line(0x940)
     655                            .dwattr $C$DW$91, DW_AT_decl_column(0x0e)
     656                    $C$DW$92        .dwtag  DW_TAG_formal_parameter
     657                            .dwattr $C$DW$92, DW_AT_type(*$C$DW$T$37)
     658                    
     659                    $C$DW$93        .dwtag  DW_TAG_formal_parameter
     660                            .dwattr $C$DW$93, DW_AT_type(*$C$DW$T$3)
TI ARM Assembler PC v18.1.3 Wed Nov 28 13:22:11 2018

Tools Copyright (c) 1996-2017 Texas Instruments Incorporated
C:\Users\Adrian\AppData\Local\Temp\{B4B2FEDC-5A78-4594-BEB6-3F19656B4E06} PAGE   13

     661                    
     662                            .dwendtag $C$DW$91
     663                    
     664 00000000                   .sect   ".data:$O1$$", RW
     665                            .align  4
     666                            .elfsym ||$O1$$||,SYM_SIZE(20)
     667 00000000           ||$O1$$||:
     668 00000000 00000000          .bits   0,8                     ; $O1$$.ApiMac_appEntity @ 0
     669 00000001                   .space  7
     670 00000008 00000000          .bits   0,32                    ; $O1$$.pMacCallbacks @ 64
     671 0000000c                   .space  8
     672                    
     673                    
     674                    ;*********************************************************************
     675                    ;* GROUPED GLOBALS FOR $O1$$                                         *
     676                    ;*********************************************************************
     677          00000000! ApiMac_appEntity:       .set    ||$O1$$||+0
     678                            .global ApiMac_appEntity
     679                    $C$DW$94        .dwtag  DW_TAG_variable
     680                            .dwattr $C$DW$94, DW_AT_name("ApiMac_appEntity")
     681                            .dwattr $C$DW$94, DW_AT_TI_symbol_name("ApiMac_appEntity")
     682                            .dwattr $C$DW$94, DW_AT_location[DW_OP_addr ApiMac_appEntity]
     683                            .dwattr $C$DW$94, DW_AT_type(*$C$DW$T$228)
     684                            .dwattr $C$DW$94, DW_AT_external
     685                            .dwattr $C$DW$94, DW_AT_decl_file("../Application/api_mac.c")
     686                            .dwattr $C$DW$94, DW_AT_decl_line(0xbf)
     687                            .dwattr $C$DW$94, DW_AT_decl_column(0x10)
     688                    
     689          00000001! macEntityID:    .set    ||$O1$$||+1
     690                    $C$DW$95        .dwtag  DW_TAG_variable
     691                            .dwattr $C$DW$95, DW_AT_name("macEntityID")
     692                            .dwattr $C$DW$95, DW_AT_TI_symbol_name("macEntityID")
     693                            .dwattr $C$DW$95, DW_AT_type(*$C$DW$T$228)
     694                            .dwattr $C$DW$95, DW_AT_location[DW_OP_addr macEntityID]
     695                            .dwattr $C$DW$95, DW_AT_decl_file("../Application/api_mac.c")
     696                            .dwattr $C$DW$95, DW_AT_decl_line(0xd0)
     697                            .dwattr $C$DW$95, DW_AT_decl_column(0x17)
     698                    
     699          00000004! sem:    .set    ||$O1$$||+4
     700                    $C$DW$96        .dwtag  DW_TAG_variable
     701                            .dwattr $C$DW$96, DW_AT_name("sem")
     702                            .dwattr $C$DW$96, DW_AT_TI_symbol_name("sem")
     703                            .dwattr $C$DW$96, DW_AT_type(*$C$DW$T$867)
     704                            .dwattr $C$DW$96, DW_AT_location[DW_OP_addr sem]
     705                            .dwattr $C$DW$96, DW_AT_decl_file("../Application/api_mac.c")
     706                            .dwattr $C$DW$96, DW_AT_decl_line(0xcb)
     707                            .dwattr $C$DW$96, DW_AT_decl_column(0x18)
     708                    
     709          00000008! pMacCallbacks:  .set    ||$O1$$||+8
     710                    $C$DW$97        .dwtag  DW_TAG_variable
     711                            .dwattr $C$DW$97, DW_AT_name("pMacCallbacks")
     712                            .dwattr $C$DW$97, DW_AT_TI_symbol_name("pMacCallbacks")
     713                            .dwattr $C$DW$97, DW_AT_type(*$C$DW$T$898)
     714                            .dwattr $C$DW$97, DW_AT_location[DW_OP_addr pMacCallbacks]
     715                            .dwattr $C$DW$97, DW_AT_decl_file("../Application/api_mac.c")
TI ARM Assembler PC v18.1.3 Wed Nov 28 13:22:11 2018

Tools Copyright (c) 1996-2017 Texas Instruments Incorporated
C:\Users\Adrian\AppData\Local\Temp\{B4B2FEDC-5A78-4594-BEB6-3F19656B4E06} PAGE   14

     716                            .dwattr $C$DW$97, DW_AT_decl_line(0xce)
     717                            .dwattr $C$DW$97, DW_AT_decl_column(0x1c)
     718                    
     719          0000000C! ApiMac_extAddr: .set    ||$O1$$||+12
     720                            .global ApiMac_extAddr
     721                    $C$DW$98        .dwtag  DW_TAG_variable
     722                            .dwattr $C$DW$98, DW_AT_name("ApiMac_extAddr")
     723                            .dwattr $C$DW$98, DW_AT_TI_symbol_name("ApiMac_extAddr")
     724                            .dwattr $C$DW$98, DW_AT_location[DW_OP_addr ApiMac_extAddr]
     725                            .dwattr $C$DW$98, DW_AT_type(*$C$DW$T$183)
     726                            .dwattr $C$DW$98, DW_AT_external
     727                            .dwattr $C$DW$98, DW_AT_decl_file("../Application/api_mac.c")
     728                            .dwattr $C$DW$98, DW_AT_decl_line(0xc5)
     729                            .dwattr $C$DW$98, DW_AT_decl_column(0x13)
     730                    
     731                    ;       C:\ti\ccsv8\tools\compiler\ti-cgt-arm_18.1.3.LTS\bin\armopt.exe C:/Users/Adrian/workspace_v8/c
     732 00000000                   .sect   ".text:copyApiMacAddrToMacAddr"
     733                            .clink
     734                            .thumbfunc copyApiMacAddrToMacAddr
     735 00000000                   .thumb
     736                            .global copyApiMacAddrToMacAddr
     737                    
     738                    $C$DW$99        .dwtag  DW_TAG_subprogram
     739                            .dwattr $C$DW$99, DW_AT_name("copyApiMacAddrToMacAddr")
     740                            .dwattr $C$DW$99, DW_AT_low_pc(copyApiMacAddrToMacAddr)
     741                            .dwattr $C$DW$99, DW_AT_high_pc(0x00)
     742                            .dwattr $C$DW$99, DW_AT_TI_symbol_name("copyApiMacAddrToMacAddr")
     743                            .dwattr $C$DW$99, DW_AT_external
     744                            .dwattr $C$DW$99, DW_AT_TI_begin_file("../Application/api_mac.c")
     745                            .dwattr $C$DW$99, DW_AT_TI_begin_line(0x71c)
     746                            .dwattr $C$DW$99, DW_AT_TI_begin_column(0x06)
     747                            .dwattr $C$DW$99, DW_AT_decl_file("../Application/api_mac.c")
     748                            .dwattr $C$DW$99, DW_AT_decl_line(0x71c)
     749                            .dwattr $C$DW$99, DW_AT_decl_column(0x06)
     750                            .dwattr $C$DW$99, DW_AT_TI_max_frame_size(0x00)
     751                            .dwpsn  file "../Application/api_mac.c",line 1821,column 1,is_stmt,address copyApiMacAddrToMac
     752                    
     753                            .dwfde $C$DW$CIE, copyApiMacAddrToMacAddr
     754                    $C$DW$100       .dwtag  DW_TAG_formal_parameter
     755                            .dwattr $C$DW$100, DW_AT_name("pDst")
     756                            .dwattr $C$DW$100, DW_AT_TI_symbol_name("pDst")
     757                            .dwattr $C$DW$100, DW_AT_type(*$C$DW$T$150)
     758                            .dwattr $C$DW$100, DW_AT_location[DW_OP_reg0]
     759                    
     760                    $C$DW$101       .dwtag  DW_TAG_formal_parameter
     761                            .dwattr $C$DW$101, DW_AT_name("pSrc")
     762                            .dwattr $C$DW$101, DW_AT_TI_symbol_name("pSrc")
     763                            .dwattr $C$DW$101, DW_AT_type(*$C$DW$T$796)
     764                            .dwattr $C$DW$101, DW_AT_location[DW_OP_reg1]
     765                    
     766                    
     767                    ;*****************************************************************************
     768                    ;* FUNCTION NAME: copyApiMacAddrToMacAddr                                    *
     769                    ;*                                                                           *
     770                    ;*   Regs Modified     : A2,A3,SR                                            *
TI ARM Assembler PC v18.1.3 Wed Nov 28 13:22:11 2018

Tools Copyright (c) 1996-2017 Texas Instruments Incorporated
C:\Users\Adrian\AppData\Local\Temp\{B4B2FEDC-5A78-4594-BEB6-3F19656B4E06} PAGE   15

     771                    ;*   Regs Used         : A1,A2,A3,LR,SR                                      *
     772                    ;*   Local Frame Size  : 0 Args + 0 Auto + 0 Save = 0 byte                   *
     773                    ;*****************************************************************************
     774                    copyApiMacAddrToMacAddr:
     775                    ;* --------------------------------------------------------------------------*
     776                    ;* A1    assigned to pDst
     777                    $C$DW$102       .dwtag  DW_TAG_variable
     778                            .dwattr $C$DW$102, DW_AT_name("pDst")
     779                            .dwattr $C$DW$102, DW_AT_TI_symbol_name("pDst")
     780                            .dwattr $C$DW$102, DW_AT_type(*$C$DW$T$805)
     781                            .dwattr $C$DW$102, DW_AT_location[DW_OP_reg0]
     782                    
     783                    ;* A2    assigned to pSrc
     784                    $C$DW$103       .dwtag  DW_TAG_variable
     785                            .dwattr $C$DW$103, DW_AT_name("pSrc")
     786                            .dwattr $C$DW$103, DW_AT_TI_symbol_name("pSrc")
     787                            .dwattr $C$DW$103, DW_AT_type(*$C$DW$T$797)
     788                            .dwattr $C$DW$103, DW_AT_location[DW_OP_reg1]
     789                    
     790                            .dwcfi  cfa_offset, 0
     791                            .dwpsn  file "../Application/api_mac.c",line 1823,column 5,is_stmt,isa 1
     792 00000000 7A0A              LDRB      A3, [A2, #8]          ; [DPU_V7M3_PIPE] |1823|  ; [ORIG 16-BIT INS]
     793 00000002 7202              STRB      A3, [A1, #8]          ; [DPU_V7M3_PIPE] |1823|  ; [ORIG 16-BIT INS]
     794                            .dwpsn  file "../Application/api_mac.c",line 1824,column 5,is_stmt,isa 1
     795 00000004 7A0A              LDRB      A3, [A2, #8]          ; [DPU_V7M3_PIPE] |1824|  ; [ORIG 16-BIT INS]
     796 00000006 2A02              CMP       A3, #2                ; [DPU_V7M3_PIPE] |1824|  ; [ORIG 16-BIT INS]
     797 00000008 D004              BEQ       ||$C$L1||             ; [DPU_V7M3_PIPE] |1824|  ; [ORIG 16-BIT INS]
     798                            ; BRANCHCC OCCURS {||$C$L1||}    ; [] |1824| 
     799                    ;* --------------------------------------------------------------------------*
     800                            .dwcfi  remember_state
     801                            .dwpsn  file "../Application/api_mac.c",line 1830,column 9,is_stmt,isa 1
     802 0000000a 680A              LDR       A3, [A2, #0]          ; [DPU_V7M3_PIPE] |1830|  ; [ORIG 16-BIT INS]
     803 0000000c 6002              STR       A3, [A1, #0]          ; [DPU_V7M3_PIPE] |1830|  ; [ORIG 16-BIT INS]
     804 0000000e 6849              LDR       A2, [A2, #4]          ; [DPU_V7M3_PIPE] |1830|  ; [ORIG 16-BIT INS]
     805 00000010 6041              STR       A2, [A1, #4]          ; [DPU_V7M3_PIPE] |1830|  ; [ORIG 16-BIT INS]
     806                    $C$DW$104       .dwtag  DW_TAG_TI_branch
     807                            .dwattr $C$DW$104, DW_AT_low_pc(0x00)
     808                            .dwattr $C$DW$104, DW_AT_TI_return
     809                    
     810 00000012 4770              BX        LR                    ; [DPU_V7M3_PIPE]  ; [ORIG 16-BIT INS]
     811                            ; BRANCH OCCURS                  ; [] 
     812                            .dwcfi  restore_state
     813                    ;* --------------------------------------------------------------------------*
     814 00000014           ||$C$L1||:    
     815                            .dwpsn  file "../Application/api_mac.c",line 1826,column 9,is_stmt,isa 1
     816 00000014 8809              LDRH      A2, [A2, #0]          ; [DPU_V7M3_PIPE] |1826|  ; [ORIG 16-BIT INS]
     817 00000016 8001              STRH      A2, [A1, #0]          ; [DPU_V7M3_PIPE] |1826|  ; [ORIG 16-BIT INS]
     818                    ;* --------------------------------------------------------------------------*
     819                    $C$DW$105       .dwtag  DW_TAG_TI_branch
     820                            .dwattr $C$DW$105, DW_AT_low_pc(0x00)
     821                            .dwattr $C$DW$105, DW_AT_TI_return
     822                    
     823 00000018 4770              BX        LR                    ; [DPU_V7M3_PIPE]  ; [ORIG 16-BIT INS]
     824                            ; BRANCH OCCURS                  ; [] 
     825                            .dwattr $C$DW$99, DW_AT_TI_end_file("../Application/api_mac.c")
TI ARM Assembler PC v18.1.3 Wed Nov 28 13:22:11 2018

Tools Copyright (c) 1996-2017 Texas Instruments Incorporated
C:\Users\Adrian\AppData\Local\Temp\{B4B2FEDC-5A78-4594-BEB6-3F19656B4E06} PAGE   16

     826                            .dwattr $C$DW$99, DW_AT_TI_end_line(0x728)
     827                            .dwattr $C$DW$99, DW_AT_TI_end_column(0x01)
     828                            .dwendentry
     829                            .dwendtag $C$DW$99
     830                    
     831 00000000                   .sect   ".text:convertTxOptions"
     832                            .clink
     833                            .thumbfunc convertTxOptions
     834 00000000                   .thumb
     835                            .global convertTxOptions
     836                    
     837                    $C$DW$106       .dwtag  DW_TAG_subprogram
     838                            .dwattr $C$DW$106, DW_AT_name("convertTxOptions")
     839                            .dwattr $C$DW$106, DW_AT_low_pc(convertTxOptions)
     840                            .dwattr $C$DW$106, DW_AT_high_pc(0x00)
     841                            .dwattr $C$DW$106, DW_AT_TI_symbol_name("convertTxOptions")
     842                            .dwattr $C$DW$106, DW_AT_external
     843                            .dwattr $C$DW$106, DW_AT_type(*$C$DW$T$115)
     844                            .dwattr $C$DW$106, DW_AT_TI_begin_file("../Application/api_mac.c")
     845                            .dwattr $C$DW$106, DW_AT_TI_begin_line(0x7af)
     846                            .dwattr $C$DW$106, DW_AT_TI_begin_column(0x0a)
     847                            .dwattr $C$DW$106, DW_AT_decl_file("../Application/api_mac.c")
     848                            .dwattr $C$DW$106, DW_AT_decl_line(0x7af)
     849                            .dwattr $C$DW$106, DW_AT_decl_column(0x0a)
     850                            .dwattr $C$DW$106, DW_AT_TI_max_frame_size(0x10)
     851                            .dwpsn  file "../Application/api_mac.c",line 1968,column 1,is_stmt,address convertTxOptions,is
     852                    
     853                            .dwfde $C$DW$CIE, convertTxOptions
     854                    $C$DW$107       .dwtag  DW_TAG_formal_parameter
     855                            .dwattr $C$DW$107, DW_AT_name("txOptions")
     856                            .dwattr $C$DW$107, DW_AT_TI_symbol_name("txOptions")
     857                            .dwattr $C$DW$107, DW_AT_type(*$C$DW$T$464)
     858                            .dwattr $C$DW$107, DW_AT_location[DW_OP_breg13 8]
     859                    
     860                    
     861                    ;*****************************************************************************
     862                    ;* FUNCTION NAME: convertTxOptions                                           *
     863                    ;*                                                                           *
     864                    ;*   Regs Modified     : A1,A2,V4,SP,LR,SR                                   *
     865                    ;*   Regs Used         : A1,A2,V4,SP,LR,SR                                   *
     866                    ;*   Local Frame Size  : 0 Args + 0 Auto + 8 Save = 8 byte                   *
     867                    ;*****************************************************************************
     868                    convertTxOptions:
     869                    ;* --------------------------------------------------------------------------*
     870                    ;* A1    assigned to retVal
     871                    $C$DW$108       .dwtag  DW_TAG_variable
     872                            .dwattr $C$DW$108, DW_AT_name("retVal")
     873                            .dwattr $C$DW$108, DW_AT_TI_symbol_name("retVal")
     874                            .dwattr $C$DW$108, DW_AT_type(*$C$DW$T$10)
     875                            .dwattr $C$DW$108, DW_AT_location[DW_OP_reg0]
     876                    
     877                            .dwcfi  cfa_offset, 0
     878 00000000 B403              PUSH      {A1, A2}              ; [DPU_V7M3_PIPE]  ; [ORIG 16-BIT INS]
     879                            .dwcfi  cfa_offset, 8
     880                            .dwcfi  save_reg_to_mem, 1, -4
TI ARM Assembler PC v18.1.3 Wed Nov 28 13:22:11 2018

Tools Copyright (c) 1996-2017 Texas Instruments Incorporated
C:\Users\Adrian\AppData\Local\Temp\{B4B2FEDC-5A78-4594-BEB6-3F19656B4E06} PAGE   17

     881                            .dwcfi  save_reg_to_mem, 0, -8
     882 00000002 B580              PUSH      {V4, LR}              ; [DPU_V7M3_PIPE]  ; [ORIG 16-BIT INS]
     883                            .dwcfi  cfa_offset, 16
     884                            .dwcfi  save_reg_to_mem, 14, -12
     885                            .dwcfi  save_reg_to_mem, 7, -16
     886 00000004 AF02              ADD       V4, SP, #8            ; [DPU_V7M3_PIPE]  ; [ORIG 16-BIT INS]
     887                            .dwpsn  file "../Application/api_mac.c",line 1973,column 9,is_stmt,isa 1
     888 00000006 7839              LDRB      A2, [V4, #0]          ; [DPU_V7M3_PIPE] |1973|  ; [ORIG 16-BIT INS]
     889 00000008 2000              MOVS      A1, #0                ; [DPU_V7M3_PIPE] |1973|  ; [ORIG 16-BIT INS]
     890 0000000a 2901              CMP       A2, #1                ; [DPU_V7M3_PIPE] |1973|  ; [ORIG 16-BIT INS]
     891 0000000c BF08              IT        EQ                    ; [DPU_V7M3_PIPE]  ; [ORIG 16-BIT INS]
     892 0000000e 2001              MOVEQ     A1, #1                ; [DPU_V7M3_PIPE] |1973|  ; [ORIG 16-BIT INS]
     893                            .dwpsn  file "../Application/api_mac.c",line 1975,column 5,is_stmt,isa 1
     894 00000010 7879              LDRB      A2, [V4, #1]          ; [DPU_V7M3_PIPE] |1975|  ; [ORIG 16-BIT INS]
     895 00000012 2901              CMP       A2, #1                ; [DPU_V7M3_PIPE] |1975|  ; [ORIG 16-BIT INS]
     896 00000014 BF08              IT        EQ                    ; [DPU_V7M3_PIPE]  ; [ORIG 16-BIT INS]
     897                            .dwpsn  file "../Application/api_mac.c",line 1977,column 9,is_stmt,isa 1
     898 00000016 0004F040          ORREQ     A1, A1, #4            ; [DPU_V7M3_PIPE] |1977|  ; [KEEP 32-BIT INS]
     899                            .dwpsn  file "../Application/api_mac.c",line 1979,column 5,is_stmt,isa 1
     900 0000001a 78B9              LDRB      A2, [V4, #2]          ; [DPU_V7M3_PIPE] |1979|  ; [ORIG 16-BIT INS]
     901 0000001c 2901              CMP       A2, #1                ; [DPU_V7M3_PIPE] |1979|  ; [ORIG 16-BIT INS]
     902 0000001e BF08              IT        EQ                    ; [DPU_V7M3_PIPE]  ; [ORIG 16-BIT INS]
     903                            .dwpsn  file "../Application/api_mac.c",line 1981,column 9,is_stmt,isa 1
     904 00000020 0008F040          ORREQ     A1, A1, #8            ; [DPU_V7M3_PIPE] |1981|  ; [KEEP 32-BIT INS]
     905                            .dwpsn  file "../Application/api_mac.c",line 1983,column 5,is_stmt,isa 1
     906 00000024 78F9              LDRB      A2, [V4, #3]          ; [DPU_V7M3_PIPE] |1983|  ; [ORIG 16-BIT INS]
     907 00000026 2901              CMP       A2, #1                ; [DPU_V7M3_PIPE] |1983|  ; [ORIG 16-BIT INS]
     908 00000028 BF08              IT        EQ                    ; [DPU_V7M3_PIPE]  ; [ORIG 16-BIT INS]
     909                            .dwpsn  file "../Application/api_mac.c",line 1985,column 9,is_stmt,isa 1
     910 0000002a 0010F040          ORREQ     A1, A1, #16           ; [DPU_V7M3_PIPE] |1985|  ; [KEEP 32-BIT INS]
     911                            .dwpsn  file "../Application/api_mac.c",line 1987,column 5,is_stmt,isa 1
     912 0000002e 7939              LDRB      A2, [V4, #4]          ; [DPU_V7M3_PIPE] |1987|  ; [ORIG 16-BIT INS]
     913 00000030 2901              CMP       A2, #1                ; [DPU_V7M3_PIPE] |1987|  ; [ORIG 16-BIT INS]
     914 00000032 BF08              IT        EQ                    ; [DPU_V7M3_PIPE]  ; [ORIG 16-BIT INS]
     915                            .dwpsn  file "../Application/api_mac.c",line 1989,column 9,is_stmt,isa 1
     916 00000034 0020F040          ORREQ     A1, A1, #32           ; [DPU_V7M3_PIPE] |1989|  ; [KEEP 32-BIT INS]
     917                            .dwpsn  file "../Application/api_mac.c",line 1991,column 5,is_stmt,isa 1
     918 00000038 7979              LDRB      A2, [V4, #5]          ; [DPU_V7M3_PIPE] |1991|  ; [ORIG 16-BIT INS]
     919 0000003a 2901              CMP       A2, #1                ; [DPU_V7M3_PIPE] |1991|  ; [ORIG 16-BIT INS]
     920 0000003c BF08              IT        EQ                    ; [DPU_V7M3_PIPE]  ; [ORIG 16-BIT INS]
     921                            .dwpsn  file "../Application/api_mac.c",line 1993,column 9,is_stmt,isa 1
     922 0000003e 0040F040          ORREQ     A1, A1, #64           ; [DPU_V7M3_PIPE] |1993|  ; [KEEP 32-BIT INS]
     923                            .dwpsn  file "../Application/api_mac.c",line 1995,column 5,is_stmt,isa 1
     924 00000042 79B9              LDRB      A2, [V4, #6]          ; [DPU_V7M3_PIPE] |1995|  ; [ORIG 16-BIT INS]
     925 00000044 2901              CMP       A2, #1                ; [DPU_V7M3_PIPE] |1995|  ; [ORIG 16-BIT INS]
     926 00000046 BF08              IT        EQ                    ; [DPU_V7M3_PIPE]  ; [ORIG 16-BIT INS]
     927                            .dwpsn  file "../Application/api_mac.c",line 1997,column 9,is_stmt,isa 1
     928 00000048 0080F040          ORREQ     A1, A1, #128          ; [DPU_V7M3_PIPE] |1997|  ; [KEEP 32-BIT INS]
     929                            .dwpsn  file "../Application/api_mac.c",line 1999,column 5,is_stmt,isa 1
     930 0000004c 79F9              LDRB      A2, [V4, #7]          ; [DPU_V7M3_PIPE] |1999|  ; [ORIG 16-BIT INS]
     931 0000004e 2901              CMP       A2, #1                ; [DPU_V7M3_PIPE] |1999|  ; [ORIG 16-BIT INS]
     932 00000050 BF08              IT        EQ                    ; [DPU_V7M3_PIPE]  ; [ORIG 16-BIT INS]
     933                            .dwpsn  file "../Application/api_mac.c",line 2001,column 9,is_stmt,isa 1
     934 00000052 7080F440          ORREQ     A1, A1, #256          ; [DPU_V7M3_PIPE] |2001|  ; [KEEP 32-BIT INS]
     935 00000056 4080E8BD          POP       {V4, LR}              ; [DPU_V7M3_PIPE]  ; [KEEP 32-BIT INS]
TI ARM Assembler PC v18.1.3 Wed Nov 28 13:22:11 2018

Tools Copyright (c) 1996-2017 Texas Instruments Incorporated
C:\Users\Adrian\AppData\Local\Temp\{B4B2FEDC-5A78-4594-BEB6-3F19656B4E06} PAGE   18

     936                            .dwcfi  cfa_offset, 8
     937                            .dwcfi  restore_reg, 14
     938                            .dwcfi  restore_reg, 7
     939 0000005a B002              ADD       SP, SP, #8            ; [DPU_V7M3_PIPE]  ; [ORIG 16-BIT INS]
     940                            .dwcfi  cfa_offset, 0
     941                    $C$DW$109       .dwtag  DW_TAG_TI_branch
     942                            .dwattr $C$DW$109, DW_AT_low_pc(0x00)
     943                            .dwattr $C$DW$109, DW_AT_TI_return
     944                    
     945 0000005c 4770              BX        LR                    ; [DPU_V7M3_PIPE]  ; [ORIG 16-BIT INS]
     946                            ; BRANCH OCCURS                  ; [] 
     947                            .dwattr $C$DW$106, DW_AT_TI_end_file("../Application/api_mac.c")
     948                            .dwattr $C$DW$106, DW_AT_TI_end_line(0x7d4)
     949                            .dwattr $C$DW$106, DW_AT_TI_end_column(0x01)
     950                            .dwendentry
     951                            .dwendtag $C$DW$106
     952                    
     953 00000000                   .sect   ".text:ApiMac_updatePanId"
     954                            .clink
     955                            .thumbfunc ApiMac_updatePanId
     956 00000000                   .thumb
     957                            .global ApiMac_updatePanId
     958                    
     959                    $C$DW$110       .dwtag  DW_TAG_subprogram
     960                            .dwattr $C$DW$110, DW_AT_name("ApiMac_updatePanId")
     961                            .dwattr $C$DW$110, DW_AT_low_pc(ApiMac_updatePanId)
     962                            .dwattr $C$DW$110, DW_AT_high_pc(0x00)
     963                            .dwattr $C$DW$110, DW_AT_TI_symbol_name("ApiMac_updatePanId")
     964                            .dwattr $C$DW$110, DW_AT_external
     965                            .dwattr $C$DW$110, DW_AT_type(*$C$DW$T$454)
     966                            .dwattr $C$DW$110, DW_AT_TI_begin_file("../Application/api_mac.c")
     967                            .dwattr $C$DW$110, DW_AT_TI_begin_line(0x3a7)
     968                            .dwattr $C$DW$110, DW_AT_TI_begin_column(0x11)
     969                            .dwattr $C$DW$110, DW_AT_decl_file("../Application/api_mac.c")
     970                            .dwattr $C$DW$110, DW_AT_decl_line(0x3a7)
     971                            .dwattr $C$DW$110, DW_AT_decl_column(0x11)
     972                            .dwattr $C$DW$110, DW_AT_TI_max_frame_size(0x08)
     973                            .dwpsn  file "../Application/api_mac.c",line 936,column 1,is_stmt,address ApiMac_updatePanId,i
     974                    
     975                            .dwfde $C$DW$CIE, ApiMac_updatePanId
     976                    $C$DW$111       .dwtag  DW_TAG_formal_parameter
     977                            .dwattr $C$DW$111, DW_AT_name("panId")
     978                            .dwattr $C$DW$111, DW_AT_TI_symbol_name("panId")
     979                            .dwattr $C$DW$111, DW_AT_type(*$C$DW$T$10)
     980                            .dwattr $C$DW$111, DW_AT_location[DW_OP_reg0]
     981                    
     982                    
     983                    ;*****************************************************************************
     984                    ;* FUNCTION NAME: ApiMac_updatePanId                                         *
     985                    ;*                                                                           *
     986                    ;*   Regs Modified     : A1,A2,A3,A4,V9,SP,LR,SR                             *
     987                    ;*   Regs Used         : A1,A2,A3,A4,V9,SP,LR,SR                             *
     988                    ;*   Local Frame Size  : 0 Args + 0 Auto + 4 Save = 4 byte                   *
     989                    ;*****************************************************************************
     990                    ApiMac_updatePanId:
TI ARM Assembler PC v18.1.3 Wed Nov 28 13:22:11 2018

Tools Copyright (c) 1996-2017 Texas Instruments Incorporated
C:\Users\Adrian\AppData\Local\Temp\{B4B2FEDC-5A78-4594-BEB6-3F19656B4E06} PAGE   19

     991                    ;* --------------------------------------------------------------------------*
     992                    ;* A1    assigned to panId
     993                    $C$DW$112       .dwtag  DW_TAG_variable
     994                            .dwattr $C$DW$112, DW_AT_name("panId")
     995                            .dwattr $C$DW$112, DW_AT_TI_symbol_name("panId")
     996                            .dwattr $C$DW$112, DW_AT_type(*$C$DW$T$1027)
     997                            .dwattr $C$DW$112, DW_AT_location[DW_OP_reg0]
     998                    
     999                            .dwcfi  cfa_offset, 0
    1000                            .dwpsn  file "../Application/api_mac.c",line 939,column 5,is_stmt,isa 1
    1001 00000000 4903              LDR       A2, $C$CON1           ; [DPU_V7M3_PIPE] |939|  ; [ORIG 16-BIT INS]
    1002 00000002 4602              MOV       A3, A1                ; [DPU_V7M3_PIPE] |939|  ; [ORIG 16-BIT INS]
    1003 00000004 B508              PUSH      {A4, LR}              ; [DPU_V7M3_PIPE]  ; [ORIG 16-BIT INS]
    1004                            .dwcfi  cfa_offset, 8
    1005                            .dwcfi  save_reg_to_mem, 14, -4
    1006                            .dwcfi  save_reg_to_mem, 3, -8
    1007 00000006 2018              MOVS      A1, #24               ; [DPU_V7M3_PIPE] |939|  ; [ORIG 16-BIT INS]
    1008                    $C$DW$113       .dwtag  DW_TAG_TI_branch
    1009                            .dwattr $C$DW$113, DW_AT_low_pc(0x00)
    1010                            .dwattr $C$DW$113, DW_AT_name("icall_directAPI")
    1011                            .dwattr $C$DW$113, DW_AT_TI_call
    1012                    
    1013 00000008 FFFEF7FF!         BL        icall_directAPI       ; [DPU_V7M3_PIPE] |939|  ; [KEEP 32-BIT INS]
    1014                            ; CALL OCCURS {icall_directAPI }  ; [] |939| 
    1015                            .dwpsn  file "../Application/api_mac.c",line 944,column 5,is_stmt,isa 1
    1016 0000000c 2000              MOVS      A1, #0                ; [DPU_V7M3_PIPE] |944|  ; [ORIG 16-BIT INS]
    1017                    $C$DW$114       .dwtag  DW_TAG_TI_branch
    1018                            .dwattr $C$DW$114, DW_AT_low_pc(0x00)
    1019                            .dwattr $C$DW$114, DW_AT_TI_return
    1020                    
    1021 0000000e BD08              POP       {A4, PC}              ; [DPU_V7M3_PIPE]  ; [ORIG 16-BIT INS]
    1022                            .dwcfi  cfa_offset, 0
    1023                            .dwcfi  restore_reg, 3
    1024                            ; BRANCH OCCURS                  ; [] 
    1025                            .dwattr $C$DW$110, DW_AT_TI_end_file("../Application/api_mac.c")
    1026                            .dwattr $C$DW$110, DW_AT_TI_end_line(0x3b1)
    1027                            .dwattr $C$DW$110, DW_AT_TI_end_column(0x01)
    1028                            .dwendentry
    1029                            .dwendtag $C$DW$110
    1030                    
    1031 00000000                   .sect   ".text:ApiMac_startFH"
    1032                            .clink
    1033                            .thumbfunc ApiMac_startFH
    1034 00000000                   .thumb
    1035                            .global ApiMac_startFH
    1036                    
    1037                    $C$DW$115       .dwtag  DW_TAG_subprogram
    1038                            .dwattr $C$DW$115, DW_AT_name("ApiMac_startFH")
    1039                            .dwattr $C$DW$115, DW_AT_low_pc(ApiMac_startFH)
    1040                            .dwattr $C$DW$115, DW_AT_high_pc(0x00)
    1041                            .dwattr $C$DW$115, DW_AT_TI_symbol_name("ApiMac_startFH")
    1042                            .dwattr $C$DW$115, DW_AT_external
    1043                            .dwattr $C$DW$115, DW_AT_type(*$C$DW$T$454)
    1044                            .dwattr $C$DW$115, DW_AT_TI_begin_file("../Application/api_mac.c")
    1045                            .dwattr $C$DW$115, DW_AT_TI_begin_line(0x3d1)
TI ARM Assembler PC v18.1.3 Wed Nov 28 13:22:11 2018

Tools Copyright (c) 1996-2017 Texas Instruments Incorporated
C:\Users\Adrian\AppData\Local\Temp\{B4B2FEDC-5A78-4594-BEB6-3F19656B4E06} PAGE   20

    1046                            .dwattr $C$DW$115, DW_AT_TI_begin_column(0x11)
    1047                            .dwattr $C$DW$115, DW_AT_decl_file("../Application/api_mac.c")
    1048                            .dwattr $C$DW$115, DW_AT_decl_line(0x3d1)
    1049                            .dwattr $C$DW$115, DW_AT_decl_column(0x11)
    1050                            .dwattr $C$DW$115, DW_AT_TI_max_frame_size(0x08)
    1051                            .dwpsn  file "../Application/api_mac.c",line 978,column 1,is_stmt,address ApiMac_startFH,isa 1
    1052                    
    1053                            .dwfde $C$DW$CIE, ApiMac_startFH
    1054                    
    1055                    ;*****************************************************************************
    1056                    ;* FUNCTION NAME: ApiMac_startFH                                             *
    1057                    ;*                                                                           *
    1058                    ;*   Regs Modified     : A1,A2,A3,A4,V9,SP,LR,SR                             *
    1059                    ;*   Regs Used         : A1,A2,A3,A4,V9,SP,LR,SR                             *
    1060                    ;*   Local Frame Size  : 0 Args + 0 Auto + 4 Save = 4 byte                   *
    1061                    ;*****************************************************************************
    1062 00000000           ApiMac_startFH:
    1063                    ;* --------------------------------------------------------------------------*
    1064                            .dwcfi  cfa_offset, 0
    1065                            .dwpsn  file "../Application/api_mac.c",line 979,column 5,is_stmt,isa 1
    1066 00000000 4903              LDR       A2, $C$CON2           ; [DPU_V7M3_PIPE] |979|  ; [ORIG 16-BIT INS]
    1067 00000002 B508              PUSH      {A4, LR}              ; [DPU_V7M3_PIPE]  ; [ORIG 16-BIT INS]
    1068                            .dwcfi  cfa_offset, 8
    1069                            .dwcfi  save_reg_to_mem, 14, -4
    1070                            .dwcfi  save_reg_to_mem, 3, -8
    1071 00000004 2018              MOVS      A1, #24               ; [DPU_V7M3_PIPE] |979|  ; [ORIG 16-BIT INS]
    1072                    $C$DW$116       .dwtag  DW_TAG_TI_branch
    1073                            .dwattr $C$DW$116, DW_AT_low_pc(0x00)
    1074                            .dwattr $C$DW$116, DW_AT_name("icall_directAPI")
    1075                            .dwattr $C$DW$116, DW_AT_TI_call
    1076                    
    1077 00000006 FFFEF7FF!         BL        icall_directAPI       ; [DPU_V7M3_PIPE] |979|  ; [KEEP 32-BIT INS]
    1078                            ; CALL OCCURS {icall_directAPI }  ; [] |979| 
    1079 0000000a B2C0              UXTB      A1, A1                ; [DPU_V7M3_PIPE] |979|  ; [ORIG 16-BIT INS]
    1080                    $C$DW$117       .dwtag  DW_TAG_TI_branch
    1081                            .dwattr $C$DW$117, DW_AT_low_pc(0x00)
    1082                            .dwattr $C$DW$117, DW_AT_TI_return
    1083                    
    1084 0000000c BD08              POP       {A4, PC}              ; [DPU_V7M3_PIPE]  ; [ORIG 16-BIT INS]
    1085                            .dwcfi  cfa_offset, 0
    1086                            .dwcfi  restore_reg, 3
    1087                            ; BRANCH OCCURS                  ; [] 
    1088                            .dwattr $C$DW$115, DW_AT_TI_end_file("../Application/api_mac.c")
    1089                            .dwattr $C$DW$115, DW_AT_TI_end_line(0x3d5)
    1090                            .dwattr $C$DW$115, DW_AT_TI_end_column(0x01)
    1091                            .dwendentry
    1092                            .dwendtag $C$DW$115
    1093                    
    1094 00000000                   .sect   ".text:ApiMac_secGetDefaultSourceKey"
    1095                            .clink
    1096                            .thumbfunc ApiMac_secGetDefaultSourceKey
    1097 00000000                   .thumb
    1098                            .global ApiMac_secGetDefaultSourceKey
    1099                    
    1100                    $C$DW$118       .dwtag  DW_TAG_subprogram
TI ARM Assembler PC v18.1.3 Wed Nov 28 13:22:11 2018

Tools Copyright (c) 1996-2017 Texas Instruments Incorporated
C:\Users\Adrian\AppData\Local\Temp\{B4B2FEDC-5A78-4594-BEB6-3F19656B4E06} PAGE   21

    1101                            .dwattr $C$DW$118, DW_AT_name("ApiMac_secGetDefaultSourceKey")
    1102                            .dwattr $C$DW$118, DW_AT_low_pc(ApiMac_secGetDefaultSourceKey)
    1103                            .dwattr $C$DW$118, DW_AT_high_pc(0x00)
    1104                            .dwattr $C$DW$118, DW_AT_TI_symbol_name("ApiMac_secGetDefaultSourceKey")
    1105                            .dwattr $C$DW$118, DW_AT_external
    1106                            .dwattr $C$DW$118, DW_AT_type(*$C$DW$T$454)
    1107                            .dwattr $C$DW$118, DW_AT_TI_begin_file("../Application/api_mac.c")
    1108                            .dwattr $C$DW$118, DW_AT_TI_begin_line(0x496)
    1109                            .dwattr $C$DW$118, DW_AT_TI_begin_column(0x11)
    1110                            .dwattr $C$DW$118, DW_AT_decl_file("../Application/api_mac.c")
    1111                            .dwattr $C$DW$118, DW_AT_decl_line(0x496)
    1112                            .dwattr $C$DW$118, DW_AT_decl_column(0x11)
    1113                            .dwattr $C$DW$118, DW_AT_TI_max_frame_size(0x08)
    1114                            .dwpsn  file "../Application/api_mac.c",line 1176,column 1,is_stmt,address ApiMac_secGetDefaul
    1115                    
    1116                            .dwfde $C$DW$CIE, ApiMac_secGetDefaultSourceKey
    1117                    $C$DW$119       .dwtag  DW_TAG_formal_parameter
    1118                            .dwattr $C$DW$119, DW_AT_name("keyId")
    1119                            .dwattr $C$DW$119, DW_AT_TI_symbol_name("keyId")
    1120                            .dwattr $C$DW$119, DW_AT_type(*$C$DW$T$10)
    1121                            .dwattr $C$DW$119, DW_AT_location[DW_OP_reg0]
    1122                    
    1123                    $C$DW$120       .dwtag  DW_TAG_formal_parameter
    1124                            .dwattr $C$DW$120, DW_AT_name("pFrameCounter")
    1125                            .dwattr $C$DW$120, DW_AT_TI_symbol_name("pFrameCounter")
    1126                            .dwattr $C$DW$120, DW_AT_type(*$C$DW$T$635)
    1127                            .dwattr $C$DW$120, DW_AT_location[DW_OP_reg1]
    1128                    
    1129                    
    1130                    ;*****************************************************************************
    1131                    ;* FUNCTION NAME: ApiMac_secGetDefaultSourceKey                              *
    1132                    ;*                                                                           *
    1133                    ;*   Regs Modified     : A1,A2,A3,A4,V9,SP,LR,SR                             *
    1134                    ;*   Regs Used         : A1,A2,A3,A4,V9,SP,LR,SR                             *
    1135                    ;*   Local Frame Size  : 0 Args + 0 Auto + 4 Save = 4 byte                   *
    1136                    ;*****************************************************************************
    1137                    ApiMac_secGetDefaultSourceKey:
    1138                    ;* --------------------------------------------------------------------------*
    1139                    ;* A4    assigned to pFrameCounter
    1140                    $C$DW$121       .dwtag  DW_TAG_variable
    1141                            .dwattr $C$DW$121, DW_AT_name("pFrameCounter")
    1142                            .dwattr $C$DW$121, DW_AT_TI_symbol_name("pFrameCounter")
    1143                            .dwattr $C$DW$121, DW_AT_type(*$C$DW$T$1090)
    1144                            .dwattr $C$DW$121, DW_AT_location[DW_OP_reg3]
    1145                    
    1146                            .dwcfi  cfa_offset, 0
    1147 00000000 B508              PUSH      {A4, LR}              ; [DPU_V7M3_PIPE]  ; [ORIG 16-BIT INS]
    1148                            .dwcfi  cfa_offset, 8
    1149                            .dwcfi  save_reg_to_mem, 14, -4
    1150                            .dwcfi  save_reg_to_mem, 3, -8
    1151 00000002 460B              MOV       A4, A2                ; [DPU_V7M3_PIPE] |1176|  ; [ORIG 16-BIT INS]
    1152                            .dwpsn  file "../Application/api_mac.c",line 1177,column 5,is_stmt,isa 1
    1153 00000004 4903              LDR       A2, $C$CON3           ; [DPU_V7M3_PIPE] |1177|  ; [ORIG 16-BIT INS]
    1154                            .dwpsn  file "../Application/api_mac.c",line 1176,column 1,is_stmt,isa 1
    1155 00000006 4602              MOV       A3, A1                ; [DPU_V7M3_PIPE] |1176|  ; [ORIG 16-BIT INS]
TI ARM Assembler PC v18.1.3 Wed Nov 28 13:22:11 2018

Tools Copyright (c) 1996-2017 Texas Instruments Incorporated
C:\Users\Adrian\AppData\Local\Temp\{B4B2FEDC-5A78-4594-BEB6-3F19656B4E06} PAGE   22

    1156                            .dwpsn  file "../Application/api_mac.c",line 1177,column 5,is_stmt,isa 1
    1157 00000008 2018              MOVS      A1, #24               ; [DPU_V7M3_PIPE] |1177|  ; [ORIG 16-BIT INS]
    1158                    $C$DW$122       .dwtag  DW_TAG_TI_branch
    1159                            .dwattr $C$DW$122, DW_AT_low_pc(0x00)
    1160                            .dwattr $C$DW$122, DW_AT_name("icall_directAPI")
    1161                            .dwattr $C$DW$122, DW_AT_TI_call
    1162                    
    1163 0000000a FFFEF7FF!         BL        icall_directAPI       ; [DPU_V7M3_PIPE] |1177|  ; [KEEP 32-BIT INS]
    1164                            ; CALL OCCURS {icall_directAPI }  ; [] |1177| 
    1165 0000000e B2C0              UXTB      A1, A1                ; [DPU_V7M3_PIPE] |1177|  ; [ORIG 16-BIT INS]
    1166                    $C$DW$123       .dwtag  DW_TAG_TI_branch
    1167                            .dwattr $C$DW$123, DW_AT_low_pc(0x00)
    1168                            .dwattr $C$DW$123, DW_AT_TI_return
    1169                    
    1170 00000010 BD08              POP       {A4, PC}              ; [DPU_V7M3_PIPE]  ; [ORIG 16-BIT INS]
    1171                            .dwcfi  cfa_offset, 0
    1172                            .dwcfi  restore_reg, 3
    1173                            ; BRANCH OCCURS                  ; [] 
    1174                            .dwattr $C$DW$118, DW_AT_TI_end_file("../Application/api_mac.c")
    1175                            .dwattr $C$DW$118, DW_AT_TI_end_line(0x49d)
    1176                            .dwattr $C$DW$118, DW_AT_TI_end_column(0x01)
    1177                            .dwendentry
    1178                            .dwendtag $C$DW$118
    1179                    
    1180 00000000                   .sect   ".text:ApiMac_secDeleteKeyAndAssocDevices"
    1181                            .clink
    1182                            .thumbfunc ApiMac_secDeleteKeyAndAssocDevices
    1183 00000000                   .thumb
    1184                            .global ApiMac_secDeleteKeyAndAssocDevices
    1185                    
    1186                    $C$DW$124       .dwtag  DW_TAG_subprogram
    1187                            .dwattr $C$DW$124, DW_AT_name("ApiMac_secDeleteKeyAndAssocDevices")
    1188                            .dwattr $C$DW$124, DW_AT_low_pc(ApiMac_secDeleteKeyAndAssocDevices)
    1189                            .dwattr $C$DW$124, DW_AT_high_pc(0x00)
    1190                            .dwattr $C$DW$124, DW_AT_TI_symbol_name("ApiMac_secDeleteKeyAndAssocDevices")
    1191                            .dwattr $C$DW$124, DW_AT_external
    1192                            .dwattr $C$DW$124, DW_AT_type(*$C$DW$T$454)
    1193                            .dwattr $C$DW$124, DW_AT_TI_begin_file("../Application/api_mac.c")
    1194                            .dwattr $C$DW$124, DW_AT_TI_begin_line(0x47c)
    1195                            .dwattr $C$DW$124, DW_AT_TI_begin_column(0x11)
    1196                            .dwattr $C$DW$124, DW_AT_decl_file("../Application/api_mac.c")
    1197                            .dwattr $C$DW$124, DW_AT_decl_line(0x47c)
    1198                            .dwattr $C$DW$124, DW_AT_decl_column(0x11)
    1199                            .dwattr $C$DW$124, DW_AT_TI_max_frame_size(0x08)
    1200                            .dwpsn  file "../Application/api_mac.c",line 1149,column 1,is_stmt,address ApiMac_secDeleteKey
    1201                    
    1202                            .dwfde $C$DW$CIE, ApiMac_secDeleteKeyAndAssocDevices
    1203                    $C$DW$125       .dwtag  DW_TAG_formal_parameter
    1204                            .dwattr $C$DW$125, DW_AT_name("keyIndex")
    1205                            .dwattr $C$DW$125, DW_AT_TI_symbol_name("keyIndex")
    1206                            .dwattr $C$DW$125, DW_AT_type(*$C$DW$T$10)
    1207                            .dwattr $C$DW$125, DW_AT_location[DW_OP_reg0]
    1208                    
    1209                    
    1210                    ;*****************************************************************************
TI ARM Assembler PC v18.1.3 Wed Nov 28 13:22:11 2018

Tools Copyright (c) 1996-2017 Texas Instruments Incorporated
C:\Users\Adrian\AppData\Local\Temp\{B4B2FEDC-5A78-4594-BEB6-3F19656B4E06} PAGE   23

    1211                    ;* FUNCTION NAME: ApiMac_secDeleteKeyAndAssocDevices                         *
    1212                    ;*                                                                           *
    1213                    ;*   Regs Modified     : A1,A2,A3,A4,V9,SP,LR,SR                             *
    1214                    ;*   Regs Used         : A1,A2,A3,A4,V9,SP,LR,SR                             *
    1215                    ;*   Local Frame Size  : 0 Args + 0 Auto + 4 Save = 4 byte                   *
    1216                    ;*****************************************************************************
    1217                    ApiMac_secDeleteKeyAndAssocDevices:
    1218                    ;* --------------------------------------------------------------------------*
    1219                    ;* A1    assigned to keyIndex
    1220                    $C$DW$126       .dwtag  DW_TAG_variable
    1221                            .dwattr $C$DW$126, DW_AT_name("keyIndex")
    1222                            .dwattr $C$DW$126, DW_AT_TI_symbol_name("keyIndex")
    1223                            .dwattr $C$DW$126, DW_AT_type(*$C$DW$T$990)
    1224                            .dwattr $C$DW$126, DW_AT_location[DW_OP_reg0]
    1225                    
    1226                            .dwcfi  cfa_offset, 0
    1227                            .dwpsn  file "../Application/api_mac.c",line 1150,column 5,is_stmt,isa 1
    1228 00000000 4903              LDR       A2, $C$CON4           ; [DPU_V7M3_PIPE] |1150|  ; [ORIG 16-BIT INS]
    1229 00000002 4602              MOV       A3, A1                ; [DPU_V7M3_PIPE] |1150|  ; [ORIG 16-BIT INS]
    1230 00000004 B508              PUSH      {A4, LR}              ; [DPU_V7M3_PIPE]  ; [ORIG 16-BIT INS]
    1231                            .dwcfi  cfa_offset, 8
    1232                            .dwcfi  save_reg_to_mem, 14, -4
    1233                            .dwcfi  save_reg_to_mem, 3, -8
    1234 00000006 2018              MOVS      A1, #24               ; [DPU_V7M3_PIPE] |1150|  ; [ORIG 16-BIT INS]
    1235                    $C$DW$127       .dwtag  DW_TAG_TI_branch
    1236                            .dwattr $C$DW$127, DW_AT_low_pc(0x00)
    1237                            .dwattr $C$DW$127, DW_AT_name("icall_directAPI")
    1238                            .dwattr $C$DW$127, DW_AT_TI_call
    1239                    
    1240 00000008 FFFEF7FF!         BL        icall_directAPI       ; [DPU_V7M3_PIPE] |1150|  ; [KEEP 32-BIT INS]
    1241                            ; CALL OCCURS {icall_directAPI }  ; [] |1150| 
    1242 0000000c B2C0              UXTB      A1, A1                ; [DPU_V7M3_PIPE] |1150|  ; [ORIG 16-BIT INS]
    1243                    $C$DW$128       .dwtag  DW_TAG_TI_branch
    1244                            .dwattr $C$DW$128, DW_AT_low_pc(0x00)
    1245                            .dwattr $C$DW$128, DW_AT_TI_return
    1246                    
    1247 0000000e BD08              POP       {A4, PC}              ; [DPU_V7M3_PIPE]  ; [ORIG 16-BIT INS]
    1248                            .dwcfi  cfa_offset, 0
    1249                            .dwcfi  restore_reg, 3
    1250                            ; BRANCH OCCURS                  ; [] 
    1251                            .dwattr $C$DW$124, DW_AT_TI_end_file("../Application/api_mac.c")
    1252                            .dwattr $C$DW$124, DW_AT_TI_end_line(0x482)
    1253                            .dwattr $C$DW$124, DW_AT_TI_end_column(0x01)
    1254                            .dwendentry
    1255                            .dwendtag $C$DW$124
    1256                    
    1257 00000000                   .sect   ".text:ApiMac_secDeleteDevice"
    1258                            .clink
    1259                            .thumbfunc ApiMac_secDeleteDevice
    1260 00000000                   .thumb
    1261                            .global ApiMac_secDeleteDevice
    1262                    
    1263                    $C$DW$129       .dwtag  DW_TAG_subprogram
    1264                            .dwattr $C$DW$129, DW_AT_name("ApiMac_secDeleteDevice")
    1265                            .dwattr $C$DW$129, DW_AT_low_pc(ApiMac_secDeleteDevice)
TI ARM Assembler PC v18.1.3 Wed Nov 28 13:22:11 2018

Tools Copyright (c) 1996-2017 Texas Instruments Incorporated
C:\Users\Adrian\AppData\Local\Temp\{B4B2FEDC-5A78-4594-BEB6-3F19656B4E06} PAGE   24

    1266                            .dwattr $C$DW$129, DW_AT_high_pc(0x00)
    1267                            .dwattr $C$DW$129, DW_AT_TI_symbol_name("ApiMac_secDeleteDevice")
    1268                            .dwattr $C$DW$129, DW_AT_external
    1269                            .dwattr $C$DW$129, DW_AT_type(*$C$DW$T$454)
    1270                            .dwattr $C$DW$129, DW_AT_TI_begin_file("../Application/api_mac.c")
    1271                            .dwattr $C$DW$129, DW_AT_TI_begin_line(0x46f)
    1272                            .dwattr $C$DW$129, DW_AT_TI_begin_column(0x11)
    1273                            .dwattr $C$DW$129, DW_AT_decl_file("../Application/api_mac.c")
    1274                            .dwattr $C$DW$129, DW_AT_decl_line(0x46f)
    1275                            .dwattr $C$DW$129, DW_AT_decl_column(0x11)
    1276                            .dwattr $C$DW$129, DW_AT_TI_max_frame_size(0x08)
    1277                            .dwpsn  file "../Application/api_mac.c",line 1136,column 1,is_stmt,address ApiMac_secDeleteDev
    1278                    
    1279                            .dwfde $C$DW$CIE, ApiMac_secDeleteDevice
    1280                    $C$DW$130       .dwtag  DW_TAG_formal_parameter
    1281                            .dwattr $C$DW$130, DW_AT_name("pExtAddr")
    1282                            .dwattr $C$DW$130, DW_AT_TI_symbol_name("pExtAddr")
    1283                            .dwattr $C$DW$130, DW_AT_type(*$C$DW$T$184)
    1284                            .dwattr $C$DW$130, DW_AT_location[DW_OP_reg0]
    1285                    
    1286                    
    1287                    ;*****************************************************************************
    1288                    ;* FUNCTION NAME: ApiMac_secDeleteDevice                                     *
    1289                    ;*                                                                           *
    1290                    ;*   Regs Modified     : A1,A2,A3,A4,V9,SP,LR,SR                             *
    1291                    ;*   Regs Used         : A1,A2,A3,A4,V9,SP,LR,SR                             *
    1292                    ;*   Local Frame Size  : 0 Args + 0 Auto + 4 Save = 4 byte                   *
    1293                    ;*****************************************************************************
    1294                    ApiMac_secDeleteDevice:
    1295                    ;* --------------------------------------------------------------------------*
    1296                    ;* A3    assigned to pExtAddr
    1297                    $C$DW$131       .dwtag  DW_TAG_variable
    1298                            .dwattr $C$DW$131, DW_AT_name("pExtAddr")
    1299                            .dwattr $C$DW$131, DW_AT_TI_symbol_name("pExtAddr")
    1300                            .dwattr $C$DW$131, DW_AT_type(*$C$DW$T$986)
    1301                            .dwattr $C$DW$131, DW_AT_location[DW_OP_reg2]
    1302                    
    1303                            .dwcfi  cfa_offset, 0
    1304                            .dwpsn  file "../Application/api_mac.c",line 1137,column 5,is_stmt,isa 1
    1305 00000000 4903              LDR       A2, $C$CON5           ; [DPU_V7M3_PIPE] |1137|  ; [ORIG 16-BIT INS]
    1306                            .dwpsn  file "../Application/api_mac.c",line 1136,column 1,is_stmt,isa 1
    1307 00000002 4602              MOV       A3, A1                ; [DPU_V7M3_PIPE] |1136|  ; [ORIG 16-BIT INS]
    1308 00000004 B508              PUSH      {A4, LR}              ; [DPU_V7M3_PIPE]  ; [ORIG 16-BIT INS]
    1309                            .dwcfi  cfa_offset, 8
    1310                            .dwcfi  save_reg_to_mem, 14, -4
    1311                            .dwcfi  save_reg_to_mem, 3, -8
    1312                            .dwpsn  file "../Application/api_mac.c",line 1137,column 5,is_stmt,isa 1
    1313 00000006 2018              MOVS      A1, #24               ; [DPU_V7M3_PIPE] |1137|  ; [ORIG 16-BIT INS]
    1314                    $C$DW$132       .dwtag  DW_TAG_TI_branch
    1315                            .dwattr $C$DW$132, DW_AT_low_pc(0x00)
    1316                            .dwattr $C$DW$132, DW_AT_name("icall_directAPI")
    1317                            .dwattr $C$DW$132, DW_AT_TI_call
    1318                    
    1319 00000008 FFFEF7FF!         BL        icall_directAPI       ; [DPU_V7M3_PIPE] |1137|  ; [KEEP 32-BIT INS]
    1320                            ; CALL OCCURS {icall_directAPI }  ; [] |1137| 
TI ARM Assembler PC v18.1.3 Wed Nov 28 13:22:11 2018

Tools Copyright (c) 1996-2017 Texas Instruments Incorporated
C:\Users\Adrian\AppData\Local\Temp\{B4B2FEDC-5A78-4594-BEB6-3F19656B4E06} PAGE   25

    1321 0000000c B2C0              UXTB      A1, A1                ; [DPU_V7M3_PIPE] |1137|  ; [ORIG 16-BIT INS]
    1322                    $C$DW$133       .dwtag  DW_TAG_TI_branch
    1323                            .dwattr $C$DW$133, DW_AT_low_pc(0x00)
    1324                            .dwattr $C$DW$133, DW_AT_TI_return
    1325                    
    1326 0000000e BD08              POP       {A4, PC}              ; [DPU_V7M3_PIPE]  ; [ORIG 16-BIT INS]
    1327                            .dwcfi  cfa_offset, 0
    1328                            .dwcfi  restore_reg, 3
    1329                            ; BRANCH OCCURS                  ; [] 
    1330                            .dwattr $C$DW$129, DW_AT_TI_end_file("../Application/api_mac.c")
    1331                            .dwattr $C$DW$129, DW_AT_TI_end_line(0x473)
    1332                            .dwattr $C$DW$129, DW_AT_TI_end_column(0x01)
    1333                            .dwendentry
    1334                            .dwendtag $C$DW$129
    1335                    
    1336 00000000                   .sect   ".text:ApiMac_secDeleteAllDevices"
    1337                            .clink
    1338                            .thumbfunc ApiMac_secDeleteAllDevices
    1339 00000000                   .thumb
    1340                            .global ApiMac_secDeleteAllDevices
    1341                    
    1342                    $C$DW$134       .dwtag  DW_TAG_subprogram
    1343                            .dwattr $C$DW$134, DW_AT_name("ApiMac_secDeleteAllDevices")
    1344                            .dwattr $C$DW$134, DW_AT_low_pc(ApiMac_secDeleteAllDevices)
    1345                            .dwattr $C$DW$134, DW_AT_high_pc(0x00)
    1346                            .dwattr $C$DW$134, DW_AT_TI_symbol_name("ApiMac_secDeleteAllDevices")
    1347                            .dwattr $C$DW$134, DW_AT_external
    1348                            .dwattr $C$DW$134, DW_AT_type(*$C$DW$T$454)
    1349                            .dwattr $C$DW$134, DW_AT_TI_begin_file("../Application/api_mac.c")
    1350                            .dwattr $C$DW$134, DW_AT_TI_begin_line(0x489)
    1351                            .dwattr $C$DW$134, DW_AT_TI_begin_column(0x11)
    1352                            .dwattr $C$DW$134, DW_AT_decl_file("../Application/api_mac.c")
    1353                            .dwattr $C$DW$134, DW_AT_decl_line(0x489)
    1354                            .dwattr $C$DW$134, DW_AT_decl_column(0x11)
    1355                            .dwattr $C$DW$134, DW_AT_TI_max_frame_size(0x08)
    1356                            .dwpsn  file "../Application/api_mac.c",line 1162,column 1,is_stmt,address ApiMac_secDeleteAll
    1357                    
    1358                            .dwfde $C$DW$CIE, ApiMac_secDeleteAllDevices
    1359                    
    1360                    ;*****************************************************************************
    1361                    ;* FUNCTION NAME: ApiMac_secDeleteAllDevices                                 *
    1362                    ;*                                                                           *
    1363                    ;*   Regs Modified     : A1,A2,A3,A4,V9,SP,LR,SR                             *
    1364                    ;*   Regs Used         : A1,A2,A3,A4,V9,SP,LR,SR                             *
    1365                    ;*   Local Frame Size  : 0 Args + 0 Auto + 4 Save = 4 byte                   *
    1366                    ;*****************************************************************************
    1367 00000000           ApiMac_secDeleteAllDevices:
    1368                    ;* --------------------------------------------------------------------------*
    1369                            .dwcfi  cfa_offset, 0
    1370                            .dwpsn  file "../Application/api_mac.c",line 1163,column 5,is_stmt,isa 1
    1371 00000000 4903              LDR       A2, $C$CON6           ; [DPU_V7M3_PIPE] |1163|  ; [ORIG 16-BIT INS]
    1372 00000002 B508              PUSH      {A4, LR}              ; [DPU_V7M3_PIPE]  ; [ORIG 16-BIT INS]
    1373                            .dwcfi  cfa_offset, 8
    1374                            .dwcfi  save_reg_to_mem, 14, -4
    1375                            .dwcfi  save_reg_to_mem, 3, -8
TI ARM Assembler PC v18.1.3 Wed Nov 28 13:22:11 2018

Tools Copyright (c) 1996-2017 Texas Instruments Incorporated
C:\Users\Adrian\AppData\Local\Temp\{B4B2FEDC-5A78-4594-BEB6-3F19656B4E06} PAGE   26

    1376 00000004 2018              MOVS      A1, #24               ; [DPU_V7M3_PIPE] |1163|  ; [ORIG 16-BIT INS]
    1377                    $C$DW$135       .dwtag  DW_TAG_TI_branch
    1378                            .dwattr $C$DW$135, DW_AT_low_pc(0x00)
    1379                            .dwattr $C$DW$135, DW_AT_name("icall_directAPI")
    1380                            .dwattr $C$DW$135, DW_AT_TI_call
    1381                    
    1382 00000006 FFFEF7FF!         BL        icall_directAPI       ; [DPU_V7M3_PIPE] |1163|  ; [KEEP 32-BIT INS]
    1383                            ; CALL OCCURS {icall_directAPI }  ; [] |1163| 
    1384 0000000a B2C0              UXTB      A1, A1                ; [DPU_V7M3_PIPE] |1163|  ; [ORIG 16-BIT INS]
    1385                    $C$DW$136       .dwtag  DW_TAG_TI_branch
    1386                            .dwattr $C$DW$136, DW_AT_low_pc(0x00)
    1387                            .dwattr $C$DW$136, DW_AT_TI_return
    1388                    
    1389 0000000c BD08              POP       {A4, PC}              ; [DPU_V7M3_PIPE]  ; [ORIG 16-BIT INS]
    1390                            .dwcfi  cfa_offset, 0
    1391                            .dwcfi  restore_reg, 3
    1392                            ; BRANCH OCCURS                  ; [] 
    1393                            .dwattr $C$DW$134, DW_AT_TI_end_file("../Application/api_mac.c")
    1394                            .dwattr $C$DW$134, DW_AT_TI_end_line(0x48e)
    1395                            .dwattr $C$DW$134, DW_AT_TI_end_column(0x01)
    1396                            .dwendentry
    1397                            .dwendtag $C$DW$134
    1398                    
    1399 00000000                   .sect   ".text:ApiMac_secAddKeyInitFrameCounter"
    1400                            .clink
    1401                            .thumbfunc ApiMac_secAddKeyInitFrameCounter
    1402 00000000                   .thumb
    1403                            .global ApiMac_secAddKeyInitFrameCounter
    1404                    
    1405                    $C$DW$137       .dwtag  DW_TAG_subprogram
    1406                            .dwattr $C$DW$137, DW_AT_name("ApiMac_secAddKeyInitFrameCounter")
    1407                            .dwattr $C$DW$137, DW_AT_low_pc(ApiMac_secAddKeyInitFrameCounter)
    1408                            .dwattr $C$DW$137, DW_AT_high_pc(0x00)
    1409                            .dwattr $C$DW$137, DW_AT_TI_symbol_name("ApiMac_secAddKeyInitFrameCounter")
    1410                            .dwattr $C$DW$137, DW_AT_external
    1411                            .dwattr $C$DW$137, DW_AT_type(*$C$DW$T$454)
    1412                            .dwattr $C$DW$137, DW_AT_TI_begin_file("../Application/api_mac.c")
    1413                            .dwattr $C$DW$137, DW_AT_TI_begin_line(0x4a5)
    1414                            .dwattr $C$DW$137, DW_AT_TI_begin_column(0x11)
    1415                            .dwattr $C$DW$137, DW_AT_decl_file("../Application/api_mac.c")
    1416                            .dwattr $C$DW$137, DW_AT_decl_line(0x4a5)
    1417                            .dwattr $C$DW$137, DW_AT_decl_column(0x11)
    1418                            .dwattr $C$DW$137, DW_AT_TI_max_frame_size(0x08)
    1419                            .dwpsn  file "../Application/api_mac.c",line 1191,column 1,is_stmt,address ApiMac_secAddKeyIni
    1420                    
    1421                            .dwfde $C$DW$CIE, ApiMac_secAddKeyInitFrameCounter
    1422                    $C$DW$138       .dwtag  DW_TAG_formal_parameter
    1423                            .dwattr $C$DW$138, DW_AT_name("pInfo")
    1424                            .dwattr $C$DW$138, DW_AT_TI_symbol_name("pInfo")
    1425                            .dwattr $C$DW$138, DW_AT_type(*$C$DW$T$189)
    1426                            .dwattr $C$DW$138, DW_AT_location[DW_OP_reg0]
    1427                    
    1428                    
    1429                    ;*****************************************************************************
    1430                    ;* FUNCTION NAME: ApiMac_secAddKeyInitFrameCounter                           *
TI ARM Assembler PC v18.1.3 Wed Nov 28 13:22:11 2018

Tools Copyright (c) 1996-2017 Texas Instruments Incorporated
C:\Users\Adrian\AppData\Local\Temp\{B4B2FEDC-5A78-4594-BEB6-3F19656B4E06} PAGE   27

    1431                    ;*                                                                           *
    1432                    ;*   Regs Modified     : A1,A2,A3,A4,V9,SP,LR,SR                             *
    1433                    ;*   Regs Used         : A1,A2,A3,A4,V9,SP,LR,SR                             *
    1434                    ;*   Local Frame Size  : 0 Args + 0 Auto + 4 Save = 4 byte                   *
    1435                    ;*****************************************************************************
    1436                    ApiMac_secAddKeyInitFrameCounter:
    1437                    ;* --------------------------------------------------------------------------*
    1438                    ;* A3    assigned to pInfo
    1439                    $C$DW$139       .dwtag  DW_TAG_variable
    1440                            .dwattr $C$DW$139, DW_AT_name("pInfo")
    1441                            .dwattr $C$DW$139, DW_AT_TI_symbol_name("pInfo")
    1442                            .dwattr $C$DW$139, DW_AT_type(*$C$DW$T$1200)
    1443                            .dwattr $C$DW$139, DW_AT_location[DW_OP_reg2]
    1444                    
    1445                            .dwcfi  cfa_offset, 0
    1446                            .dwpsn  file "../Application/api_mac.c",line 1192,column 5,is_stmt,isa 1
    1447 00000000 4903              LDR       A2, $C$CON7           ; [DPU_V7M3_PIPE] |1192|  ; [ORIG 16-BIT INS]
    1448                            .dwpsn  file "../Application/api_mac.c",line 1191,column 1,is_stmt,isa 1
    1449 00000002 4602              MOV       A3, A1                ; [DPU_V7M3_PIPE] |1191|  ; [ORIG 16-BIT INS]
    1450 00000004 B508              PUSH      {A4, LR}              ; [DPU_V7M3_PIPE]  ; [ORIG 16-BIT INS]
    1451                            .dwcfi  cfa_offset, 8
    1452                            .dwcfi  save_reg_to_mem, 14, -4
    1453                            .dwcfi  save_reg_to_mem, 3, -8
    1454                            .dwpsn  file "../Application/api_mac.c",line 1192,column 5,is_stmt,isa 1
    1455 00000006 2018              MOVS      A1, #24               ; [DPU_V7M3_PIPE] |1192|  ; [ORIG 16-BIT INS]
    1456                    $C$DW$140       .dwtag  DW_TAG_TI_branch
    1457                            .dwattr $C$DW$140, DW_AT_low_pc(0x00)
    1458                            .dwattr $C$DW$140, DW_AT_name("icall_directAPI")
    1459                            .dwattr $C$DW$140, DW_AT_TI_call
    1460                    
    1461 00000008 FFFEF7FF!         BL        icall_directAPI       ; [DPU_V7M3_PIPE] |1192|  ; [KEEP 32-BIT INS]
    1462                            ; CALL OCCURS {icall_directAPI }  ; [] |1192| 
    1463 0000000c B2C0              UXTB      A1, A1                ; [DPU_V7M3_PIPE] |1192|  ; [ORIG 16-BIT INS]
    1464                    $C$DW$141       .dwtag  DW_TAG_TI_branch
    1465                            .dwattr $C$DW$141, DW_AT_low_pc(0x00)
    1466                            .dwattr $C$DW$141, DW_AT_TI_return
    1467                    
    1468 0000000e BD08              POP       {A4, PC}              ; [DPU_V7M3_PIPE]  ; [ORIG 16-BIT INS]
    1469                            .dwcfi  cfa_offset, 0
    1470                            .dwcfi  restore_reg, 3
    1471                            ; BRANCH OCCURS                  ; [] 
    1472                            .dwattr $C$DW$137, DW_AT_TI_end_file("../Application/api_mac.c")
    1473                            .dwattr $C$DW$137, DW_AT_TI_end_line(0x4ac)
    1474                            .dwattr $C$DW$137, DW_AT_TI_end_column(0x01)
    1475                            .dwendentry
    1476                            .dwendtag $C$DW$137
    1477                    
    1478 00000000                   .sect   ".text:ApiMac_secAddDevice"
    1479                            .clink
    1480                            .thumbfunc ApiMac_secAddDevice
    1481 00000000                   .thumb
    1482                            .global ApiMac_secAddDevice
    1483                    
    1484                    $C$DW$142       .dwtag  DW_TAG_subprogram
    1485                            .dwattr $C$DW$142, DW_AT_name("ApiMac_secAddDevice")
TI ARM Assembler PC v18.1.3 Wed Nov 28 13:22:11 2018

Tools Copyright (c) 1996-2017 Texas Instruments Incorporated
C:\Users\Adrian\AppData\Local\Temp\{B4B2FEDC-5A78-4594-BEB6-3F19656B4E06} PAGE   28

    1486                            .dwattr $C$DW$142, DW_AT_low_pc(ApiMac_secAddDevice)
    1487                            .dwattr $C$DW$142, DW_AT_high_pc(0x00)
    1488                            .dwattr $C$DW$142, DW_AT_TI_symbol_name("ApiMac_secAddDevice")
    1489                            .dwattr $C$DW$142, DW_AT_external
    1490                            .dwattr $C$DW$142, DW_AT_type(*$C$DW$T$454)
    1491                            .dwattr $C$DW$142, DW_AT_TI_begin_file("../Application/api_mac.c")
    1492                            .dwattr $C$DW$142, DW_AT_TI_begin_line(0x463)
    1493                            .dwattr $C$DW$142, DW_AT_TI_begin_column(0x11)
    1494                            .dwattr $C$DW$142, DW_AT_decl_file("../Application/api_mac.c")
    1495                            .dwattr $C$DW$142, DW_AT_decl_line(0x463)
    1496                            .dwattr $C$DW$142, DW_AT_decl_column(0x11)
    1497                            .dwattr $C$DW$142, DW_AT_TI_max_frame_size(0x08)
    1498                            .dwpsn  file "../Application/api_mac.c",line 1124,column 1,is_stmt,address ApiMac_secAddDevice
    1499                    
    1500                            .dwfde $C$DW$CIE, ApiMac_secAddDevice
    1501                    $C$DW$143       .dwtag  DW_TAG_formal_parameter
    1502                            .dwattr $C$DW$143, DW_AT_name("pAddDevice")
    1503                            .dwattr $C$DW$143, DW_AT_TI_symbol_name("pAddDevice")
    1504                            .dwattr $C$DW$143, DW_AT_type(*$C$DW$T$181)
    1505                            .dwattr $C$DW$143, DW_AT_location[DW_OP_reg0]
    1506                    
    1507                    
    1508                    ;*****************************************************************************
    1509                    ;* FUNCTION NAME: ApiMac_secAddDevice                                        *
    1510                    ;*                                                                           *
    1511                    ;*   Regs Modified     : A1,A2,A3,A4,V9,SP,LR,SR                             *
    1512                    ;*   Regs Used         : A1,A2,A3,A4,V9,SP,LR,SR                             *
    1513                    ;*   Local Frame Size  : 0 Args + 0 Auto + 4 Save = 4 byte                   *
    1514                    ;*****************************************************************************
    1515                    ApiMac_secAddDevice:
    1516                    ;* --------------------------------------------------------------------------*
    1517                    ;* A3    assigned to pAddDevice
    1518                    $C$DW$144       .dwtag  DW_TAG_variable
    1519                            .dwattr $C$DW$144, DW_AT_name("pAddDevice")
    1520                            .dwattr $C$DW$144, DW_AT_TI_symbol_name("pAddDevice")
    1521                            .dwattr $C$DW$144, DW_AT_type(*$C$DW$T$1197)
    1522                            .dwattr $C$DW$144, DW_AT_location[DW_OP_reg2]
    1523                    
    1524                            .dwcfi  cfa_offset, 0
    1525                            .dwpsn  file "../Application/api_mac.c",line 1125,column 5,is_stmt,isa 1
    1526 00000000 4903              LDR       A2, $C$CON8           ; [DPU_V7M3_PIPE] |1125|  ; [ORIG 16-BIT INS]
    1527                            .dwpsn  file "../Application/api_mac.c",line 1124,column 1,is_stmt,isa 1
    1528 00000002 4602              MOV       A3, A1                ; [DPU_V7M3_PIPE] |1124|  ; [ORIG 16-BIT INS]
    1529 00000004 B508              PUSH      {A4, LR}              ; [DPU_V7M3_PIPE]  ; [ORIG 16-BIT INS]
    1530                            .dwcfi  cfa_offset, 8
    1531                            .dwcfi  save_reg_to_mem, 14, -4
    1532                            .dwcfi  save_reg_to_mem, 3, -8
    1533                            .dwpsn  file "../Application/api_mac.c",line 1125,column 5,is_stmt,isa 1
    1534 00000006 2018              MOVS      A1, #24               ; [DPU_V7M3_PIPE] |1125|  ; [ORIG 16-BIT INS]
    1535                    $C$DW$145       .dwtag  DW_TAG_TI_branch
    1536                            .dwattr $C$DW$145, DW_AT_low_pc(0x00)
    1537                            .dwattr $C$DW$145, DW_AT_name("icall_directAPI")
    1538                            .dwattr $C$DW$145, DW_AT_TI_call
    1539                    
    1540 00000008 FFFEF7FF!         BL        icall_directAPI       ; [DPU_V7M3_PIPE] |1125|  ; [KEEP 32-BIT INS]
TI ARM Assembler PC v18.1.3 Wed Nov 28 13:22:11 2018

Tools Copyright (c) 1996-2017 Texas Instruments Incorporated
C:\Users\Adrian\AppData\Local\Temp\{B4B2FEDC-5A78-4594-BEB6-3F19656B4E06} PAGE   29

    1541                            ; CALL OCCURS {icall_directAPI }  ; [] |1125| 
    1542 0000000c B2C0              UXTB      A1, A1                ; [DPU_V7M3_PIPE] |1125|  ; [ORIG 16-BIT INS]
    1543                    $C$DW$146       .dwtag  DW_TAG_TI_branch
    1544                            .dwattr $C$DW$146, DW_AT_low_pc(0x00)
    1545                            .dwattr $C$DW$146, DW_AT_TI_return
    1546                    
    1547 0000000e BD08              POP       {A4, PC}              ; [DPU_V7M3_PIPE]  ; [ORIG 16-BIT INS]
    1548                            .dwcfi  cfa_offset, 0
    1549                            .dwcfi  restore_reg, 3
    1550                            ; BRANCH OCCURS                  ; [] 
    1551                            .dwattr $C$DW$142, DW_AT_TI_end_file("../Application/api_mac.c")
    1552                            .dwattr $C$DW$142, DW_AT_TI_end_line(0x468)
    1553                            .dwattr $C$DW$142, DW_AT_TI_end_column(0x01)
    1554                            .dwendentry
    1555                            .dwendtag $C$DW$142
    1556                    
    1557 00000000                   .sect   ".text:ApiMac_registerCallbacks"
    1558                            .clink
    1559                            .thumbfunc ApiMac_registerCallbacks
    1560 00000000                   .thumb
    1561                            .global ApiMac_registerCallbacks
    1562                    
    1563                    $C$DW$147       .dwtag  DW_TAG_subprogram
    1564                            .dwattr $C$DW$147, DW_AT_name("ApiMac_registerCallbacks")
    1565                            .dwattr $C$DW$147, DW_AT_low_pc(ApiMac_registerCallbacks)
    1566                            .dwattr $C$DW$147, DW_AT_high_pc(0x00)
    1567                            .dwattr $C$DW$147, DW_AT_TI_symbol_name("ApiMac_registerCallbacks")
    1568                            .dwattr $C$DW$147, DW_AT_external
    1569                            .dwattr $C$DW$147, DW_AT_TI_begin_file("../Application/api_mac.c")
    1570                            .dwattr $C$DW$147, DW_AT_TI_begin_line(0x129)
    1571                            .dwattr $C$DW$147, DW_AT_TI_begin_column(0x06)
    1572                            .dwattr $C$DW$147, DW_AT_decl_file("../Application/api_mac.c")
    1573                            .dwattr $C$DW$147, DW_AT_decl_line(0x129)
    1574                            .dwattr $C$DW$147, DW_AT_decl_column(0x06)
    1575                            .dwattr $C$DW$147, DW_AT_TI_max_frame_size(0x00)
    1576                            .dwpsn  file "../Application/api_mac.c",line 298,column 1,is_stmt,address ApiMac_registerCallb
    1577                    
    1578                            .dwfde $C$DW$CIE, ApiMac_registerCallbacks
    1579                    $C$DW$148       .dwtag  DW_TAG_formal_parameter
    1580                            .dwattr $C$DW$148, DW_AT_name("pCallbacks")
    1581                            .dwattr $C$DW$148, DW_AT_TI_symbol_name("pCallbacks")
    1582                            .dwattr $C$DW$148, DW_AT_type(*$C$DW$T$898)
    1583                            .dwattr $C$DW$148, DW_AT_location[DW_OP_reg0]
    1584                    
    1585                    
    1586                    ;*****************************************************************************
    1587                    ;* FUNCTION NAME: ApiMac_registerCallbacks                                   *
    1588                    ;*                                                                           *
    1589                    ;*   Regs Modified     : A2                                                  *
    1590                    ;*   Regs Used         : A1,A2,LR                                            *
    1591                    ;*   Local Frame Size  : 0 Args + 0 Auto + 0 Save = 0 byte                   *
    1592                    ;*****************************************************************************
    1593                    ApiMac_registerCallbacks:
    1594                    ;* --------------------------------------------------------------------------*
    1595                    ;* A1    assigned to pCallbacks
TI ARM Assembler PC v18.1.3 Wed Nov 28 13:22:11 2018

Tools Copyright (c) 1996-2017 Texas Instruments Incorporated
C:\Users\Adrian\AppData\Local\Temp\{B4B2FEDC-5A78-4594-BEB6-3F19656B4E06} PAGE   30

    1596                    $C$DW$149       .dwtag  DW_TAG_variable
    1597                            .dwattr $C$DW$149, DW_AT_name("pCallbacks")
    1598                            .dwattr $C$DW$149, DW_AT_TI_symbol_name("pCallbacks")
    1599                            .dwattr $C$DW$149, DW_AT_type(*$C$DW$T$1132)
    1600                            .dwattr $C$DW$149, DW_AT_location[DW_OP_reg0]
    1601                    
    1602                            .dwcfi  cfa_offset, 0
    1603                            .dwpsn  file "../Application/api_mac.c",line 300,column 5,is_stmt,isa 1
    1604 00000000 4901              LDR       A2, $C$CON9           ; [DPU_V7M3_PIPE] |300|  ; [ORIG 16-BIT INS]
    1605 00000002 6008              STR       A1, [A2, #0]          ; [DPU_V7M3_PIPE] |300|  ; [ORIG 16-BIT INS]
    1606                    $C$DW$150       .dwtag  DW_TAG_TI_branch
    1607                            .dwattr $C$DW$150, DW_AT_low_pc(0x00)
    1608                            .dwattr $C$DW$150, DW_AT_TI_return
    1609                    
    1610 00000004 4770              BX        LR                    ; [DPU_V7M3_PIPE]  ; [ORIG 16-BIT INS]
    1611                            ; BRANCH OCCURS                  ; [] 
    1612                            .dwattr $C$DW$147, DW_AT_TI_end_file("../Application/api_mac.c")
    1613                            .dwattr $C$DW$147, DW_AT_TI_end_line(0x12d)
    1614                            .dwattr $C$DW$147, DW_AT_TI_end_column(0x01)
    1615                            .dwendentry
    1616                            .dwendtag $C$DW$147
    1617                    
    1618 00000000                   .sect   ".text:ApiMac_randomByte"
    1619                            .clink
    1620                            .thumbfunc ApiMac_randomByte
    1621 00000000                   .thumb
    1622                            .global ApiMac_randomByte
    1623                    
    1624                    $C$DW$151       .dwtag  DW_TAG_subprogram
    1625                            .dwattr $C$DW$151, DW_AT_name("ApiMac_randomByte")
    1626                            .dwattr $C$DW$151, DW_AT_low_pc(ApiMac_randomByte)
    1627                            .dwattr $C$DW$151, DW_AT_high_pc(0x00)
    1628                            .dwattr $C$DW$151, DW_AT_TI_symbol_name("ApiMac_randomByte")
    1629                            .dwattr $C$DW$151, DW_AT_external
    1630                            .dwattr $C$DW$151, DW_AT_type(*$C$DW$T$27)
    1631                            .dwattr $C$DW$151, DW_AT_TI_begin_file("../Application/api_mac.c")
    1632                            .dwattr $C$DW$151, DW_AT_TI_begin_line(0x39c)
    1633                            .dwattr $C$DW$151, DW_AT_TI_begin_column(0x09)
    1634                            .dwattr $C$DW$151, DW_AT_decl_file("../Application/api_mac.c")
    1635                            .dwattr $C$DW$151, DW_AT_decl_line(0x39c)
    1636                            .dwattr $C$DW$151, DW_AT_decl_column(0x09)
    1637                            .dwattr $C$DW$151, DW_AT_TI_max_frame_size(0x08)
    1638                            .dwpsn  file "../Application/api_mac.c",line 925,column 1,is_stmt,address ApiMac_randomByte,is
    1639                    
    1640                            .dwfde $C$DW$CIE, ApiMac_randomByte
    1641                    
    1642                    ;*****************************************************************************
    1643                    ;* FUNCTION NAME: ApiMac_randomByte                                          *
    1644                    ;*                                                                           *
    1645                    ;*   Regs Modified     : A1,A2,A3,A4,V9,SP,LR,SR                             *
    1646                    ;*   Regs Used         : A1,A2,A3,A4,V9,SP,LR,SR                             *
    1647                    ;*   Local Frame Size  : 0 Args + 0 Auto + 4 Save = 4 byte                   *
    1648                    ;*****************************************************************************
    1649 00000000           ApiMac_randomByte:
    1650                    ;* --------------------------------------------------------------------------*
TI ARM Assembler PC v18.1.3 Wed Nov 28 13:22:11 2018

Tools Copyright (c) 1996-2017 Texas Instruments Incorporated
C:\Users\Adrian\AppData\Local\Temp\{B4B2FEDC-5A78-4594-BEB6-3F19656B4E06} PAGE   31

    1651                            .dwcfi  cfa_offset, 0
    1652                            .dwpsn  file "../Application/api_mac.c",line 926,column 5,is_stmt,isa 1
    1653 00000000 4903              LDR       A2, $C$CON10          ; [DPU_V7M3_PIPE] |926|  ; [ORIG 16-BIT INS]
    1654 00000002 B508              PUSH      {A4, LR}              ; [DPU_V7M3_PIPE]  ; [ORIG 16-BIT INS]
    1655                            .dwcfi  cfa_offset, 8
    1656                            .dwcfi  save_reg_to_mem, 14, -4
    1657                            .dwcfi  save_reg_to_mem, 3, -8
    1658 00000004 2018              MOVS      A1, #24               ; [DPU_V7M3_PIPE] |926|  ; [ORIG 16-BIT INS]
    1659                    $C$DW$152       .dwtag  DW_TAG_TI_branch
    1660                            .dwattr $C$DW$152, DW_AT_low_pc(0x00)
    1661                            .dwattr $C$DW$152, DW_AT_name("icall_directAPI")
    1662                            .dwattr $C$DW$152, DW_AT_TI_call
    1663                    
    1664 00000006 FFFEF7FF!         BL        icall_directAPI       ; [DPU_V7M3_PIPE] |926|  ; [KEEP 32-BIT INS]
    1665                            ; CALL OCCURS {icall_directAPI }  ; [] |926| 
    1666 0000000a B2C0              UXTB      A1, A1                ; [DPU_V7M3_PIPE] |926|  ; [ORIG 16-BIT INS]
    1667                    $C$DW$153       .dwtag  DW_TAG_TI_branch
    1668                            .dwattr $C$DW$153, DW_AT_low_pc(0x00)
    1669                            .dwattr $C$DW$153, DW_AT_TI_return
    1670                    
    1671 0000000c BD08              POP       {A4, PC}              ; [DPU_V7M3_PIPE]  ; [ORIG 16-BIT INS]
    1672                            .dwcfi  cfa_offset, 0
    1673                            .dwcfi  restore_reg, 3
    1674                            ; BRANCH OCCURS                  ; [] 
    1675                            .dwattr $C$DW$151, DW_AT_TI_end_file("../Application/api_mac.c")
    1676                            .dwattr $C$DW$151, DW_AT_TI_end_line(0x3a0)
    1677                            .dwattr $C$DW$151, DW_AT_TI_end_column(0x01)
    1678                            .dwendentry
    1679                            .dwendtag $C$DW$151
    1680                    
    1681 00000000                   .sect   ".text:copyMacAddrToApiMacAddr"
    1682                            .clink
    1683                            .thumbfunc copyMacAddrToApiMacAddr
    1684 00000000                   .thumb
    1685                    
    1686                    $C$DW$154       .dwtag  DW_TAG_subprogram
    1687                            .dwattr $C$DW$154, DW_AT_name("copyMacAddrToApiMacAddr")
    1688                            .dwattr $C$DW$154, DW_AT_low_pc(copyMacAddrToApiMacAddr)
    1689                            .dwattr $C$DW$154, DW_AT_high_pc(0x00)
    1690                            .dwattr $C$DW$154, DW_AT_TI_symbol_name("copyMacAddrToApiMacAddr")
    1691                            .dwattr $C$DW$154, DW_AT_TI_begin_file("../Application/api_mac.c")
    1692                            .dwattr $C$DW$154, DW_AT_TI_begin_line(0x63c)
    1693                            .dwattr $C$DW$154, DW_AT_TI_begin_column(0x0d)
    1694                            .dwattr $C$DW$154, DW_AT_decl_file("../Application/api_mac.c")
    1695                            .dwattr $C$DW$154, DW_AT_decl_line(0x63c)
    1696                            .dwattr $C$DW$154, DW_AT_decl_column(0x0d)
    1697                            .dwattr $C$DW$154, DW_AT_TI_max_frame_size(0x00)
    1698                            .dwpsn  file "../Application/api_mac.c",line 1597,column 1,is_stmt,address copyMacAddrToApiMac
    1699                    
    1700                            .dwfde $C$DW$CIE, copyMacAddrToApiMacAddr
    1701                    $C$DW$155       .dwtag  DW_TAG_formal_parameter
    1702                            .dwattr $C$DW$155, DW_AT_name("pDst")
    1703                            .dwattr $C$DW$155, DW_AT_TI_symbol_name("pDst")
    1704                            .dwattr $C$DW$155, DW_AT_type(*$C$DW$T$796)
    1705                            .dwattr $C$DW$155, DW_AT_location[DW_OP_reg0]
TI ARM Assembler PC v18.1.3 Wed Nov 28 13:22:11 2018

Tools Copyright (c) 1996-2017 Texas Instruments Incorporated
C:\Users\Adrian\AppData\Local\Temp\{B4B2FEDC-5A78-4594-BEB6-3F19656B4E06} PAGE   32

    1706                    
    1707                    $C$DW$156       .dwtag  DW_TAG_formal_parameter
    1708                            .dwattr $C$DW$156, DW_AT_name("pSrc")
    1709                            .dwattr $C$DW$156, DW_AT_TI_symbol_name("pSrc")
    1710                            .dwattr $C$DW$156, DW_AT_type(*$C$DW$T$150)
    1711                            .dwattr $C$DW$156, DW_AT_location[DW_OP_reg1]
    1712                    
    1713                    
    1714                    ;*****************************************************************************
    1715                    ;* FUNCTION NAME: copyMacAddrToApiMacAddr                                    *
    1716                    ;*                                                                           *
    1717                    ;*   Regs Modified     : A2,A3,SR                                            *
    1718                    ;*   Regs Used         : A1,A2,A3,LR,SR                                      *
    1719                    ;*   Local Frame Size  : 0 Args + 0 Auto + 0 Save = 0 byte                   *
    1720                    ;*****************************************************************************
    1721                    copyMacAddrToApiMacAddr:
    1722                    ;* --------------------------------------------------------------------------*
    1723                    ;* A3    assigned to $O$C1
    1724                    ;* A1    assigned to pDst
    1725                    $C$DW$157       .dwtag  DW_TAG_variable
    1726                            .dwattr $C$DW$157, DW_AT_name("pDst")
    1727                            .dwattr $C$DW$157, DW_AT_TI_symbol_name("pDst")
    1728                            .dwattr $C$DW$157, DW_AT_type(*$C$DW$T$797)
    1729                            .dwattr $C$DW$157, DW_AT_location[DW_OP_reg0]
    1730                    
    1731                    ;* A2    assigned to pSrc
    1732                    $C$DW$158       .dwtag  DW_TAG_variable
    1733                            .dwattr $C$DW$158, DW_AT_name("pSrc")
    1734                            .dwattr $C$DW$158, DW_AT_TI_symbol_name("pSrc")
    1735                            .dwattr $C$DW$158, DW_AT_type(*$C$DW$T$805)
    1736                            .dwattr $C$DW$158, DW_AT_location[DW_OP_reg1]
    1737                    
    1738                            .dwcfi  cfa_offset, 0
    1739                            .dwpsn  file "../Application/api_mac.c",line 1599,column 5,is_stmt,isa 1
    1740 00000000 7A0A              LDRB      A3, [A2, #8]          ; [DPU_V7M3_PIPE] |1599|  ; [ORIG 16-BIT INS]
    1741                            .dwpsn  file "../Application/api_mac.c",line 1600,column 5,is_stmt,isa 1
    1742 00000002 2A02              CMP       A3, #2                ; [DPU_V7M3_PIPE] |1600|  ; [ORIG 16-BIT INS]
    1743                            .dwpsn  file "../Application/api_mac.c",line 1599,column 5,is_stmt,isa 1
    1744 00000004 7202              STRB      A3, [A1, #8]          ; [DPU_V7M3_PIPE] |1599|  ; [ORIG 16-BIT INS]
    1745                            .dwpsn  file "../Application/api_mac.c",line 1600,column 5,is_stmt,isa 1
    1746 00000006 D004              BEQ       ||$C$L2||             ; [DPU_V7M3_PIPE] |1600|  ; [ORIG 16-BIT INS]
    1747                            ; BRANCHCC OCCURS {||$C$L2||}    ; [] |1600| 
    1748                    ;* --------------------------------------------------------------------------*
    1749                            .dwcfi  remember_state
    1750                            .dwpsn  file "../Application/api_mac.c",line 1606,column 9,is_stmt,isa 1
    1751 00000008 680A              LDR       A3, [A2, #0]          ; [DPU_V7M3_PIPE] |1606|  ; [ORIG 16-BIT INS]
    1752 0000000a 6002              STR       A3, [A1, #0]          ; [DPU_V7M3_PIPE] |1606|  ; [ORIG 16-BIT INS]
    1753 0000000c 6849              LDR       A2, [A2, #4]          ; [DPU_V7M3_PIPE] |1606|  ; [ORIG 16-BIT INS]
    1754 0000000e 6041              STR       A2, [A1, #4]          ; [DPU_V7M3_PIPE] |1606|  ; [ORIG 16-BIT INS]
    1755                    $C$DW$159       .dwtag  DW_TAG_TI_branch
    1756                            .dwattr $C$DW$159, DW_AT_low_pc(0x00)
    1757                            .dwattr $C$DW$159, DW_AT_TI_return
    1758                    
    1759 00000010 4770              BX        LR                    ; [DPU_V7M3_PIPE]  ; [ORIG 16-BIT INS]
    1760                            ; BRANCH OCCURS                  ; [] 
TI ARM Assembler PC v18.1.3 Wed Nov 28 13:22:11 2018

Tools Copyright (c) 1996-2017 Texas Instruments Incorporated
C:\Users\Adrian\AppData\Local\Temp\{B4B2FEDC-5A78-4594-BEB6-3F19656B4E06} PAGE   33

    1761                            .dwcfi  restore_state
    1762                    ;* --------------------------------------------------------------------------*
    1763 00000012           ||$C$L2||:    
    1764                            .dwpsn  file "../Application/api_mac.c",line 1602,column 9,is_stmt,isa 1
    1765 00000012 8809              LDRH      A2, [A2, #0]          ; [DPU_V7M3_PIPE] |1602|  ; [ORIG 16-BIT INS]
    1766 00000014 8001              STRH      A2, [A1, #0]          ; [DPU_V7M3_PIPE] |1602|  ; [ORIG 16-BIT INS]
    1767                    ;* --------------------------------------------------------------------------*
    1768                    $C$DW$160       .dwtag  DW_TAG_TI_branch
    1769                            .dwattr $C$DW$160, DW_AT_low_pc(0x00)
    1770                            .dwattr $C$DW$160, DW_AT_TI_return
    1771                    
    1772 00000016 4770              BX        LR                    ; [DPU_V7M3_PIPE]  ; [ORIG 16-BIT INS]
    1773                            ; BRANCH OCCURS                  ; [] 
    1774                            .dwattr $C$DW$154, DW_AT_TI_end_file("../Application/api_mac.c")
    1775                            .dwattr $C$DW$154, DW_AT_TI_end_line(0x649)
    1776                            .dwattr $C$DW$154, DW_AT_TI_end_column(0x01)
    1777                            .dwendentry
    1778                            .dwendtag $C$DW$154
    1779                    
    1780 00000000                   .sect   ".text:copyDataInd"
    1781                            .clink
    1782                            .thumbfunc copyDataInd
    1783 00000000                   .thumb
    1784                    
    1785                    $C$DW$161       .dwtag  DW_TAG_subprogram
    1786                            .dwattr $C$DW$161, DW_AT_name("copyDataInd")
    1787                            .dwattr $C$DW$161, DW_AT_low_pc(copyDataInd)
    1788                            .dwattr $C$DW$161, DW_AT_high_pc(0x00)
    1789                            .dwattr $C$DW$161, DW_AT_TI_symbol_name("copyDataInd")
    1790                            .dwattr $C$DW$161, DW_AT_TI_begin_file("../Application/api_mac.c")
    1791                            .dwattr $C$DW$161, DW_AT_TI_begin_line(0x6fa)
    1792                            .dwattr $C$DW$161, DW_AT_TI_begin_column(0x0d)
    1793                            .dwattr $C$DW$161, DW_AT_decl_file("../Application/api_mac.c")
    1794                            .dwattr $C$DW$161, DW_AT_decl_line(0x6fa)
    1795                            .dwattr $C$DW$161, DW_AT_decl_column(0x0d)
    1796                            .dwattr $C$DW$161, DW_AT_TI_max_frame_size(0x10)
    1797                            .dwpsn  file "../Application/api_mac.c",line 1787,column 1,is_stmt,address copyDataInd,isa 1
    1798                    
    1799                            .dwfde $C$DW$CIE, copyDataInd
    1800                    $C$DW$162       .dwtag  DW_TAG_formal_parameter
    1801                            .dwattr $C$DW$162, DW_AT_name("pDst")
    1802                            .dwattr $C$DW$162, DW_AT_TI_symbol_name("pDst")
    1803                            .dwattr $C$DW$162, DW_AT_type(*$C$DW$T$410)
    1804                            .dwattr $C$DW$162, DW_AT_location[DW_OP_reg0]
    1805                    
    1806                    $C$DW$163       .dwtag  DW_TAG_formal_parameter
    1807                            .dwattr $C$DW$163, DW_AT_name("pSrc")
    1808                            .dwattr $C$DW$163, DW_AT_TI_symbol_name("pSrc")
    1809                            .dwattr $C$DW$163, DW_AT_type(*$C$DW$T$829)
    1810                            .dwattr $C$DW$163, DW_AT_location[DW_OP_reg1]
    1811                    
    1812                    
    1813                    ;*****************************************************************************
    1814                    ;* FUNCTION NAME: copyDataInd                                                *
    1815                    ;*                                                                           *
TI ARM Assembler PC v18.1.3 Wed Nov 28 13:22:11 2018

Tools Copyright (c) 1996-2017 Texas Instruments Incorporated
C:\Users\Adrian\AppData\Local\Temp\{B4B2FEDC-5A78-4594-BEB6-3F19656B4E06} PAGE   34

    1816                    ;*   Regs Modified     : A1,A2,A3,A4,V1,V2,V9,SP,LR,SR                       *
    1817                    ;*   Regs Used         : A1,A2,A3,A4,V1,V2,V9,SP,LR,SR                       *
    1818                    ;*   Local Frame Size  : 0 Args + 0 Auto + 12 Save = 12 byte                 *
    1819                    ;*****************************************************************************
    1820                    copyDataInd:
    1821                    ;* --------------------------------------------------------------------------*
    1822                    ;* V2    assigned to pDst
    1823                    $C$DW$164       .dwtag  DW_TAG_variable
    1824                            .dwattr $C$DW$164, DW_AT_name("pDst")
    1825                            .dwattr $C$DW$164, DW_AT_TI_symbol_name("pDst")
    1826                            .dwattr $C$DW$164, DW_AT_type(*$C$DW$T$1143)
    1827                            .dwattr $C$DW$164, DW_AT_location[DW_OP_reg5]
    1828                    
    1829                    ;* V1    assigned to pSrc
    1830                    $C$DW$165       .dwtag  DW_TAG_variable
    1831                            .dwattr $C$DW$165, DW_AT_name("pSrc")
    1832                            .dwattr $C$DW$165, DW_AT_TI_symbol_name("pSrc")
    1833                            .dwattr $C$DW$165, DW_AT_type(*$C$DW$T$830)
    1834                            .dwattr $C$DW$165, DW_AT_location[DW_OP_reg4]
    1835                    
    1836                            .dwcfi  cfa_offset, 0
    1837 00000000 B538              PUSH      {A4, V1, V2, LR}      ; [DPU_V7M3_PIPE]  ; [ORIG 16-BIT INS]
    1838                            .dwcfi  cfa_offset, 16
    1839                            .dwcfi  save_reg_to_mem, 14, -4
    1840                            .dwcfi  save_reg_to_mem, 5, -8
    1841                            .dwcfi  save_reg_to_mem, 4, -12
    1842                            .dwcfi  save_reg_to_mem, 3, -16
    1843 00000002 460C              MOV       V1, A2                ; [DPU_V7M3_PIPE] |1787|  ; [ORIG 16-BIT INS]
    1844                            .dwpsn  file "../Application/api_mac.c",line 1789,column 5,is_stmt,isa 1
    1845 00000004 2244              MOVS      A3, #68               ; [DPU_V7M3_PIPE] |1789|  ; [ORIG 16-BIT INS]
    1846                            .dwpsn  file "../Application/api_mac.c",line 1787,column 1,is_stmt,isa 1
    1847 00000006 4605              MOV       V2, A1                ; [DPU_V7M3_PIPE] |1787|  ; [ORIG 16-BIT INS]
    1848                            .dwpsn  file "../Application/api_mac.c",line 1789,column 5,is_stmt,isa 1
    1849 00000008 2100              MOVS      A2, #0                ; [DPU_V7M3_PIPE] |1789|  ; [ORIG 16-BIT INS]
    1850                    $C$DW$166       .dwtag  DW_TAG_TI_branch
    1851                            .dwattr $C$DW$166, DW_AT_low_pc(0x00)
    1852                            .dwattr $C$DW$166, DW_AT_name("memset")
    1853                            .dwattr $C$DW$166, DW_AT_TI_call
    1854                    
    1855 0000000a FFFEF7FF!         BL        memset                ; [DPU_V7M3_PIPE] |1789|  ; [KEEP 32-BIT INS]
    1856                            ; CALL OCCURS {memset }          ; [] |1789| 
    1857                            .dwpsn  file "../Application/api_mac.c",line 1792,column 5,is_stmt,isa 1
    1858 0000000e 0128F104          ADD       A2, V1, #40           ; [DPU_V7M3_PIPE] |1792|  ; [KEEP 32-BIT INS]
    1859 00000012 4628              MOV       A1, V2                ; [DPU_V7M3_PIPE] |1792|  ; [ORIG 16-BIT INS]
    1860                    $C$DW$167       .dwtag  DW_TAG_TI_branch
    1861                            .dwattr $C$DW$167, DW_AT_low_pc(0x00)
    1862                            .dwattr $C$DW$167, DW_AT_name("copyMacAddrToApiMacAddr")
    1863                            .dwattr $C$DW$167, DW_AT_TI_call
    1864                    
    1865 00000014 FFFEF7FF!         BL        copyMacAddrToApiMacAddr ; [DPU_V7M3_PIPE] |1792|  ; [KEEP 32-BIT INS]
    1866                            ; CALL OCCURS {copyMacAddrToApiMacAddr }  ; [] |1792| 
    1867                            .dwpsn  file "../Application/api_mac.c",line 1793,column 5,is_stmt,isa 1
    1868 00000018 0132F104          ADD       A2, V1, #50           ; [DPU_V7M3_PIPE] |1793|  ; [KEEP 32-BIT INS]
    1869 0000001c 000AF105          ADD       A1, V2, #10           ; [DPU_V7M3_PIPE] |1793|  ; [KEEP 32-BIT INS]
    1870                    $C$DW$168       .dwtag  DW_TAG_TI_branch
TI ARM Assembler PC v18.1.3 Wed Nov 28 13:22:11 2018

Tools Copyright (c) 1996-2017 Texas Instruments Incorporated
C:\Users\Adrian\AppData\Local\Temp\{B4B2FEDC-5A78-4594-BEB6-3F19656B4E06} PAGE   35

    1871                            .dwattr $C$DW$168, DW_AT_low_pc(0x00)
    1872                            .dwattr $C$DW$168, DW_AT_name("copyMacAddrToApiMacAddr")
    1873                            .dwattr $C$DW$168, DW_AT_TI_call
    1874                    
    1875 00000020 FFFEF7FF!         BL        copyMacAddrToApiMacAddr ; [DPU_V7M3_PIPE] |1793|  ; [KEEP 32-BIT INS]
    1876                            ; CALL OCCURS {copyMacAddrToApiMacAddr }  ; [] |1793| 
    1877                            .dwpsn  file "../Application/api_mac.c",line 1794,column 5,is_stmt,isa 1
    1878 00000024 6BE0              LDR       A1, [V1, #60]         ; [DPU_V7M3_PIPE] |1794|  ; [ORIG 16-BIT INS]
    1879 00000026 6168              STR       A1, [V2, #20]         ; [DPU_V7M3_PIPE] |1794|  ; [ORIG 16-BIT INS]
    1880                            .dwpsn  file "../Application/api_mac.c",line 1795,column 5,is_stmt,isa 1
    1881 00000028 0040F8B4          LDRH      A1, [V1, #64]         ; [DPU_V7M3_PIPE] |1795|  ; [KEEP 32-BIT INS]
    1882 0000002c 8328              STRH      A1, [V2, #24]         ; [DPU_V7M3_PIPE] |1795|  ; [ORIG 16-BIT INS]
    1883                            .dwpsn  file "../Application/api_mac.c",line 1796,column 5,is_stmt,isa 1
    1884 0000002e 0042F8B4          LDRH      A1, [V1, #66]         ; [DPU_V7M3_PIPE] |1796|  ; [KEEP 32-BIT INS]
    1885 00000032 8368              STRH      A1, [V2, #26]         ; [DPU_V7M3_PIPE] |1796|  ; [ORIG 16-BIT INS]
    1886                            .dwpsn  file "../Application/api_mac.c",line 1797,column 5,is_stmt,isa 1
    1887 00000034 0044F8B4          LDRH      A1, [V1, #68]         ; [DPU_V7M3_PIPE] |1797|  ; [KEEP 32-BIT INS]
    1888 00000038 83A8              STRH      A1, [V2, #28]         ; [DPU_V7M3_PIPE] |1797|  ; [ORIG 16-BIT INS]
    1889                            .dwpsn  file "../Application/api_mac.c",line 1798,column 5,is_stmt,isa 1
    1890 0000003a 0046F894          LDRB      A1, [V1, #70]         ; [DPU_V7M3_PIPE] |1798|  ; [KEEP 32-BIT INS]
    1891 0000003e 77A8              STRB      A1, [V2, #30]         ; [DPU_V7M3_PIPE] |1798|  ; [ORIG 16-BIT INS]
    1892                            .dwpsn  file "../Application/api_mac.c",line 1799,column 5,is_stmt,isa 1
    1893 00000040 0047F894          LDRB      A1, [V1, #71]         ; [DPU_V7M3_PIPE] |1799|  ; [KEEP 32-BIT INS]
    1894 00000044 77E8              STRB      A1, [V2, #31]         ; [DPU_V7M3_PIPE] |1799|  ; [ORIG 16-BIT INS]
    1895                            .dwpsn  file "../Application/api_mac.c",line 1800,column 5,is_stmt,isa 1
    1896 00000046 0048F994          LDRSB     A1, [V1, #72]         ; [DPU_V7M3_PIPE] |1800|  ; [KEEP 32-BIT INS]
    1897 0000004a 0020F885          STRB      A1, [V2, #32]         ; [DPU_V7M3_PIPE] |1800|  ; [KEEP 32-BIT INS]
    1898                            .dwpsn  file "../Application/api_mac.c",line 1801,column 5,is_stmt,isa 1
    1899 0000004e 0049F894          LDRB      A1, [V1, #73]         ; [DPU_V7M3_PIPE] |1801|  ; [KEEP 32-BIT INS]
    1900 00000052 0021F885          STRB      A1, [V2, #33]         ; [DPU_V7M3_PIPE] |1801|  ; [KEEP 32-BIT INS]
    1901                            .dwpsn  file "../Application/api_mac.c",line 1802,column 5,is_stmt,isa 1
    1902 00000056 0050F8B4          LDRH      A1, [V1, #80]         ; [DPU_V7M3_PIPE] |1802|  ; [KEEP 32-BIT INS]
    1903 0000005a 8468              STRH      A1, [V2, #34]         ; [DPU_V7M3_PIPE] |1802|  ; [ORIG 16-BIT INS]
    1904                            .dwpsn  file "../Application/api_mac.c",line 1803,column 5,is_stmt,isa 1
    1905 0000005c 6CE0              LDR       A1, [V1, #76]         ; [DPU_V7M3_PIPE] |1803|  ; [ORIG 16-BIT INS]
    1906 0000005e 6268              STR       A1, [V2, #36]         ; [DPU_V7M3_PIPE] |1803|  ; [ORIG 16-BIT INS]
    1907                            .dwpsn  file "../Application/api_mac.c",line 1804,column 5,is_stmt,isa 1
    1908 00000060 7BA0              LDRB      A1, [V1, #14]         ; [DPU_V7M3_PIPE] |1804|  ; [ORIG 16-BIT INS]
    1909 00000062 0028F885          STRB      A1, [V2, #40]         ; [DPU_V7M3_PIPE] |1804|  ; [KEEP 32-BIT INS]
    1910                            .dwpsn  file "../Application/api_mac.c",line 1805,column 5,is_stmt,isa 1
    1911 00000066 0052F894          LDRB      A1, [V1, #82]         ; [DPU_V7M3_PIPE] |1805|  ; [KEEP 32-BIT INS]
    1912 0000006a 0029F885          STRB      A1, [V2, #41]         ; [DPU_V7M3_PIPE] |1805|  ; [KEEP 32-BIT INS]
    1913                            .dwpsn  file "../Application/api_mac.c",line 1806,column 5,is_stmt,isa 1
    1914 0000006e 6D60              LDR       A1, [V1, #84]         ; [DPU_V7M3_PIPE] |1806|  ; [ORIG 16-BIT INS]
    1915                            .dwpsn  file "../Application/api_mac.c",line 1807,column 5,is_stmt,isa 1
    1916 00000070 220B              MOVS      A3, #11               ; [DPU_V7M3_PIPE] |1807|  ; [ORIG 16-BIT INS]
    1917 00000072 011CF104          ADD       A2, V1, #28           ; [DPU_V7M3_PIPE] |1807|  ; [KEEP 32-BIT INS]
    1918                            .dwpsn  file "../Application/api_mac.c",line 1806,column 5,is_stmt,isa 1
    1919 00000076 62E8              STR       A1, [V2, #44]         ; [DPU_V7M3_PIPE] |1806|  ; [ORIG 16-BIT INS]
    1920                            .dwpsn  file "../Application/api_mac.c",line 1807,column 5,is_stmt,isa 1
    1921 00000078 0030F105          ADD       A1, V2, #48           ; [DPU_V7M3_PIPE] |1807|  ; [KEEP 32-BIT INS]
    1922                    $C$DW$169       .dwtag  DW_TAG_TI_branch
    1923                            .dwattr $C$DW$169, DW_AT_low_pc(0x00)
    1924                            .dwattr $C$DW$169, DW_AT_name("memcpy")
    1925                            .dwattr $C$DW$169, DW_AT_TI_call
TI ARM Assembler PC v18.1.3 Wed Nov 28 13:22:11 2018

Tools Copyright (c) 1996-2017 Texas Instruments Incorporated
C:\Users\Adrian\AppData\Local\Temp\{B4B2FEDC-5A78-4594-BEB6-3F19656B4E06} PAGE   36

    1926                    
    1927 0000007c FFFEF7FF!         BL        memcpy                ; [DPU_V7M3_PIPE] |1807|  ; [KEEP 32-BIT INS]
    1928                            ; CALL OCCURS {memcpy }          ; [] |1807| 
    1929                            .dwpsn  file "../Application/api_mac.c",line 1810,column 5,is_stmt,isa 1
    1930 00000080 8920              LDRH      A1, [V1, #8]          ; [DPU_V7M3_PIPE] |1810|  ; [ORIG 16-BIT INS]
    1931 00000082 0040F8A5          STRH      A1, [V2, #64]         ; [DPU_V7M3_PIPE] |1810|  ; [KEEP 32-BIT INS]
    1932                            .dwpsn  file "../Application/api_mac.c",line 1811,column 5,is_stmt,isa 1
    1933 00000086 6860              LDR       A1, [V1, #4]          ; [DPU_V7M3_PIPE] |1811|  ; [ORIG 16-BIT INS]
    1934 00000088 63E8              STR       A1, [V2, #60]         ; [DPU_V7M3_PIPE] |1811|  ; [ORIG 16-BIT INS]
    1935                    $C$DW$170       .dwtag  DW_TAG_TI_branch
    1936                            .dwattr $C$DW$170, DW_AT_low_pc(0x00)
    1937                            .dwattr $C$DW$170, DW_AT_TI_return
    1938                    
    1939 0000008a BD38              POP       {A4, V1, V2, PC}      ; [DPU_V7M3_PIPE]  ; [ORIG 16-BIT INS]
    1940                            .dwcfi  cfa_offset, 0
    1941                            .dwcfi  restore_reg, 5
    1942                            .dwcfi  restore_reg, 4
    1943                            .dwcfi  restore_reg, 3
    1944                            ; BRANCH OCCURS                  ; [] 
    1945                            .dwattr $C$DW$161, DW_AT_TI_end_file("../Application/api_mac.c")
    1946                            .dwattr $C$DW$161, DW_AT_TI_end_line(0x714)
    1947                            .dwattr $C$DW$161, DW_AT_TI_end_column(0x01)
    1948                            .dwendentry
    1949                            .dwendtag $C$DW$161
    1950                    
    1951                    ;**     Parameter deleted: dest == 24;
    1952                    ;**     Parameter deleted: src == ApiMac_appEntity;
    1953 00000000                   .sect   ".text:ICall_sendServiceMsg"
    1954                            .clink
    1955                            .thumbfunc ICall_sendServiceMsg
    1956 00000000                   .thumb
    1957                    
    1958                    $C$DW$171       .dwtag  DW_TAG_subprogram
    1959                            .dwattr $C$DW$171, DW_AT_name("ICall_sendServiceMsg")
    1960                            .dwattr $C$DW$171, DW_AT_low_pc(ICall_sendServiceMsg)
    1961                            .dwattr $C$DW$171, DW_AT_high_pc(0x00)
    1962                            .dwattr $C$DW$171, DW_AT_TI_symbol_name("ICall_sendServiceMsg")
    1963                            .dwattr $C$DW$171, DW_AT_type(*$C$DW$T$536)
    1964                            .dwattr $C$DW$171, DW_AT_TI_begin_file("C:/ti/simplelink_cc13x0_sdk_2_30_00_20/source/ti/ti154
    1965                            .dwattr $C$DW$171, DW_AT_TI_begin_line(0x73d)
    1966                            .dwattr $C$DW$171, DW_AT_TI_begin_column(0x01)
    1967                            .dwattr $C$DW$171, DW_AT_decl_file("C:/ti/simplelink_cc13x0_sdk_2_30_00_20/source/ti/ti154stac
    1968                            .dwattr $C$DW$171, DW_AT_decl_line(0x73d)
    1969                            .dwattr $C$DW$171, DW_AT_decl_column(0x01)
    1970                            .dwattr $C$DW$171, DW_AT_TI_max_frame_size(0x18)
    1971                            .dwpsn  file "C:/ti/simplelink_cc13x0_sdk_2_30_00_20/source/ti/ti154stack/icall/src/inc/icall.
    1972                    
    1973                            .dwfde $C$DW$CIE, ICall_sendServiceMsg
    1974                    $C$DW$172       .dwtag  DW_TAG_formal_parameter
    1975                            .dwattr $C$DW$172, DW_AT_name("format")
    1976                            .dwattr $C$DW$172, DW_AT_TI_symbol_name("format")
    1977                            .dwattr $C$DW$172, DW_AT_type(*$C$DW$T$10)
    1978                            .dwattr $C$DW$172, DW_AT_location[DW_OP_reg0]
    1979                    
    1980                    $C$DW$173       .dwtag  DW_TAG_formal_parameter
TI ARM Assembler PC v18.1.3 Wed Nov 28 13:22:11 2018

Tools Copyright (c) 1996-2017 Texas Instruments Incorporated
C:\Users\Adrian\AppData\Local\Temp\{B4B2FEDC-5A78-4594-BEB6-3F19656B4E06} PAGE   37

    1981                            .dwattr $C$DW$173, DW_AT_name("msg")
    1982                            .dwattr $C$DW$173, DW_AT_TI_symbol_name("msg")
    1983                            .dwattr $C$DW$173, DW_AT_type(*$C$DW$T$3)
    1984                            .dwattr $C$DW$173, DW_AT_location[DW_OP_reg1]
    1985                    
    1986                    
    1987                    ;*****************************************************************************
    1988                    ;* FUNCTION NAME: ICall_sendServiceMsg                                       *
    1989                    ;*                                                                           *
    1990                    ;*   Regs Modified     : A1,A2,A3,A4,V9,SP,LR,SR                             *
    1991                    ;*   Regs Used         : A1,A2,A3,A4,V9,SP,LR,SR                             *
    1992                    ;*   Local Frame Size  : 0 Args + 16 Auto + 4 Save = 20 byte                 *
    1993                    ;*****************************************************************************
    1994                    ICall_sendServiceMsg:
    1995                    ;* --------------------------------------------------------------------------*
    1996                    $C$DW$174       .dwtag  DW_TAG_variable
    1997                            .dwattr $C$DW$174, DW_AT_name("args")
    1998                            .dwattr $C$DW$174, DW_AT_TI_symbol_name("args")
    1999                            .dwattr $C$DW$174, DW_AT_type(*$C$DW$T$1234)
    2000                            .dwattr $C$DW$174, DW_AT_location[DW_OP_breg13 0]
    2001                    
    2002                    ;* A4    assigned to $O$C1
    2003                    ;* A3    assigned to src
    2004                    $C$DW$175       .dwtag  DW_TAG_variable
    2005                            .dwattr $C$DW$175, DW_AT_name("src")
    2006                            .dwattr $C$DW$175, DW_AT_TI_symbol_name("src")
    2007                            .dwattr $C$DW$175, DW_AT_type(*$C$DW$T$982)
    2008                            .dwattr $C$DW$175, DW_AT_location[DW_OP_reg2]
    2009                    
    2010                    ;* A1    assigned to format
    2011                    $C$DW$176       .dwtag  DW_TAG_variable
    2012                            .dwattr $C$DW$176, DW_AT_name("format")
    2013                            .dwattr $C$DW$176, DW_AT_TI_symbol_name("format")
    2014                            .dwattr $C$DW$176, DW_AT_type(*$C$DW$T$985)
    2015                            .dwattr $C$DW$176, DW_AT_location[DW_OP_reg0]
    2016                    
    2017                    ;* A2    assigned to msg
    2018                    $C$DW$177       .dwtag  DW_TAG_variable
    2019                            .dwattr $C$DW$177, DW_AT_name("msg")
    2020                            .dwattr $C$DW$177, DW_AT_TI_symbol_name("msg")
    2021                            .dwattr $C$DW$177, DW_AT_type(*$C$DW$T$875)
    2022                            .dwattr $C$DW$177, DW_AT_location[DW_OP_reg1]
    2023                    
    2024                            .dwcfi  cfa_offset, 0
    2025 00000000 4A0D              LDR       A3, $C$CON13          ; [DPU_V7M3_PIPE] |1856|  ; [ORIG 16-BIT INS]
    2026 00000002 B500              PUSH      {LR}                  ; [DPU_V7M3_PIPE]  ; [ORIG 16-BIT INS]
    2027                            .dwcfi  cfa_offset, 4
    2028                            .dwcfi  save_reg_to_mem, 14, -4
    2029                            .dwpsn  file "C:/ti/simplelink_cc13x0_sdk_2_30_00_20/source/ti/ti154stack/icall/src/inc/icall.
    2030 00000004 2308              MOVS      A4, #8                ; [DPU_V7M3_PIPE] |1858|  ; [ORIG 16-BIT INS]
    2031 00000006 0D14F1AD          SUB       SP, SP, #20           ; [DPU_V7M3_PIPE]  ; [KEEP 32-BIT INS]
    2032                            .dwcfi  cfa_offset, 24
    2033                            .dwpsn  file "C:/ti/simplelink_cc13x0_sdk_2_30_00_20/source/ti/ti154stack/icall/src/inc/icall.
    2034 0000000a 0008F88D          STRB      A1, [SP, #8]          ; [DPU_V7M3_PIPE] |1862|  ; [KEEP 32-BIT INS]
    2035 0000000e 3A08              SUBS      A3, A3, #8            ; [DPU_V7M3_PIPE]  ; [ORIG 16-BIT INS]
TI ARM Assembler PC v18.1.3 Wed Nov 28 13:22:11 2018

Tools Copyright (c) 1996-2017 Texas Instruments Incorporated
C:\Users\Adrian\AppData\Local\Temp\{B4B2FEDC-5A78-4594-BEB6-3F19656B4E06} PAGE   38

    2036                            .dwpsn  file "C:/ti/simplelink_cc13x0_sdk_2_30_00_20/source/ti/ti154stack/icall/src/inc/icall.
    2037 00000010 9103              STR       A2, [SP, #12]         ; [DPU_V7M3_PIPE] |1863|  ; [ORIG 16-BIT INS]
    2038                            .dwpsn  file "C:/ti/simplelink_cc13x0_sdk_2_30_00_20/source/ti/ti154stack/icall/src/inc/icall.
    2039 00000012 4808              LDR       A1, $C$CON12          ; [DPU_V7M3_PIPE] |1864|  ; [ORIG 16-BIT INS]
    2040                            .dwpsn  file "C:/ti/simplelink_cc13x0_sdk_2_30_00_20/source/ti/ti154stack/icall/src/inc/icall.
    2041 00000014 3000F8AD          STRH      A4, [SP, #0]          ; [DPU_V7M3_PIPE] |1858|  ; [KEEP 32-BIT INS]
    2042                            .dwpsn  file "C:/ti/simplelink_cc13x0_sdk_2_30_00_20/source/ti/ti154stack/icall/src/inc/icall.
    2043 00000018 7812              LDRB      A3, [A3, #0]          ; [DPU_V7M3_PIPE] |1856|  ; [ORIG 16-BIT INS]
    2044                            .dwpsn  file "C:/ti/simplelink_cc13x0_sdk_2_30_00_20/source/ti/ti154stack/icall/src/inc/icall.
    2045 0000001a 3002F8AD          STRH      A4, [SP, #2]          ; [DPU_V7M3_PIPE] |1859|  ; [KEEP 32-BIT INS]
    2046                            .dwpsn  file "C:/ti/simplelink_cc13x0_sdk_2_30_00_20/source/ti/ti154stack/icall/src/inc/icall.
    2047 0000001e 6801              LDR       A2, [A1, #0]          ; [DPU_V7M3_PIPE] |1864|  ; [ORIG 16-BIT INS]
    2048                            .dwpsn  file "C:/ti/simplelink_cc13x0_sdk_2_30_00_20/source/ti/ti154stack/icall/src/inc/icall.
    2049 00000020 2004F88D          STRB      A3, [SP, #4]          ; [DPU_V7M3_PIPE] |1860|  ; [KEEP 32-BIT INS]
    2050                            .dwpsn  file "C:/ti/simplelink_cc13x0_sdk_2_30_00_20/source/ti/ti154stack/icall/src/inc/icall.
    2051 00000024 2218              MOVS      A3, #24               ; [DPU_V7M3_PIPE] |1861|  ; [ORIG 16-BIT INS]
    2052                            .dwpsn  file "C:/ti/simplelink_cc13x0_sdk_2_30_00_20/source/ti/ti154stack/icall/src/inc/icall.
    2053 00000026 4668              MOV       A1, SP                ; [DPU_V7M3_PIPE] |1864|  ; [ORIG 16-BIT INS]
    2054                            .dwpsn  file "C:/ti/simplelink_cc13x0_sdk_2_30_00_20/source/ti/ti154stack/icall/src/inc/icall.
    2055 00000028 2006F8AD          STRH      A3, [SP, #6]          ; [DPU_V7M3_PIPE] |1861|  ; [KEEP 32-BIT INS]
    2056                            .dwpsn  file "C:/ti/simplelink_cc13x0_sdk_2_30_00_20/source/ti/ti154stack/icall/src/inc/icall.
    2057                    $C$DW$178       .dwtag  DW_TAG_TI_branch
    2058                            .dwattr $C$DW$178, DW_AT_low_pc(0x00)
    2059                            .dwattr $C$DW$178, DW_AT_TI_call
    2060                            .dwattr $C$DW$178, DW_AT_TI_indirect
    2061                    
    2062 0000002c 4788              BLX       A2                    ; [DPU_V7M3_PIPE] |1864|  ; [ORIG 16-BIT INS]
    2063                            ; CALL OCCURS {}                 ; [] |1864| 
    2064 0000002e B005              ADD       SP, SP, #20           ; [DPU_V7M3_PIPE]  ; [ORIG 16-BIT INS]
    2065                            .dwcfi  cfa_offset, 4
    2066                    $C$DW$179       .dwtag  DW_TAG_TI_branch
    2067                            .dwattr $C$DW$179, DW_AT_low_pc(0x00)
    2068                            .dwattr $C$DW$179, DW_AT_TI_return
    2069                    
    2070 00000030 BD00              POP       {PC}                  ; [DPU_V7M3_PIPE]  ; [ORIG 16-BIT INS]
    2071                            .dwcfi  cfa_offset, 0
    2072                            ; BRANCH OCCURS                  ; [] 
    2073                            .dwattr $C$DW$171, DW_AT_TI_end_file("C:/ti/simplelink_cc13x0_sdk_2_30_00_20/source/ti/ti154st
    2074                            .dwattr $C$DW$171, DW_AT_TI_end_line(0x749)
    2075                            .dwattr $C$DW$171, DW_AT_TI_end_column(0x01)
    2076                            .dwendentry
    2077                            .dwendtag $C$DW$171
    2078                    
    2079 00000000                   .sect   ".text:processScanCnf"
    2080                            .clink
    2081                            .thumbfunc processScanCnf
    2082 00000000                   .thumb
    2083                    
    2084                    $C$DW$180       .dwtag  DW_TAG_subprogram
    2085                            .dwattr $C$DW$180, DW_AT_name("processScanCnf")
    2086                            .dwattr $C$DW$180, DW_AT_low_pc(processScanCnf)
    2087                            .dwattr $C$DW$180, DW_AT_high_pc(0x00)
    2088                            .dwattr $C$DW$180, DW_AT_TI_symbol_name("processScanCnf")
    2089                            .dwattr $C$DW$180, DW_AT_TI_begin_file("../Application/api_mac.c")
    2090                            .dwattr $C$DW$180, DW_AT_TI_begin_line(0x6b8)
TI ARM Assembler PC v18.1.3 Wed Nov 28 13:22:11 2018

Tools Copyright (c) 1996-2017 Texas Instruments Incorporated
C:\Users\Adrian\AppData\Local\Temp\{B4B2FEDC-5A78-4594-BEB6-3F19656B4E06} PAGE   39

    2091                            .dwattr $C$DW$180, DW_AT_TI_begin_column(0x0d)
    2092                            .dwattr $C$DW$180, DW_AT_decl_file("../Application/api_mac.c")
    2093                            .dwattr $C$DW$180, DW_AT_decl_line(0x6b8)
    2094                            .dwattr $C$DW$180, DW_AT_decl_column(0x0d)
    2095                            .dwattr $C$DW$180, DW_AT_TI_max_frame_size(0x28)
    2096                            .dwpsn  file "../Application/api_mac.c",line 1721,column 1,is_stmt,address processScanCnf,isa 
    2097                    
    2098                            .dwfde $C$DW$CIE, processScanCnf
    2099                    $C$DW$181       .dwtag  DW_TAG_formal_parameter
    2100                            .dwattr $C$DW$181, DW_AT_name("pCnf")
    2101                            .dwattr $C$DW$181, DW_AT_TI_symbol_name("pCnf")
    2102                            .dwattr $C$DW$181, DW_AT_type(*$C$DW$T$819)
    2103                            .dwattr $C$DW$181, DW_AT_location[DW_OP_reg0]
    2104                    
    2105                    
    2106                    ;*****************************************************************************
    2107                    ;* FUNCTION NAME: processScanCnf                                             *
    2108                    ;*                                                                           *
    2109                    ;*   Regs Modified     : A1,A2,A3,A4,V1,V9,SP,LR,SR                          *
    2110                    ;*   Regs Used         : A1,A2,A3,A4,V1,V9,SP,LR,SR                          *
    2111                    ;*   Local Frame Size  : 0 Args + 28 Auto + 8 Save = 36 byte                 *
    2112                    ;*****************************************************************************
    2113                    processScanCnf:
    2114                    ;* --------------------------------------------------------------------------*
    2115                    $C$DW$182       .dwtag  DW_TAG_variable
    2116                            .dwattr $C$DW$182, DW_AT_name("cnf")
    2117                            .dwattr $C$DW$182, DW_AT_TI_symbol_name("cnf")
    2118                            .dwattr $C$DW$182, DW_AT_type(*$C$DW$T$374)
    2119                            .dwattr $C$DW$182, DW_AT_location[DW_OP_breg13 0]
    2120                    
    2121                    ;* A1    assigned to $O$Y0
    2122                    ;* V1    assigned to pCnf
    2123                    $C$DW$183       .dwtag  DW_TAG_variable
    2124                            .dwattr $C$DW$183, DW_AT_name("pCnf")
    2125                            .dwattr $C$DW$183, DW_AT_TI_symbol_name("pCnf")
    2126                            .dwattr $C$DW$183, DW_AT_type(*$C$DW$T$820)
    2127                            .dwattr $C$DW$183, DW_AT_location[DW_OP_reg4]
    2128                    
    2129                            .dwcfi  cfa_offset, 0
    2130 00000000 B510              PUSH      {V1, LR}              ; [DPU_V7M3_PIPE]  ; [ORIG 16-BIT INS]
    2131                            .dwcfi  cfa_offset, 8
    2132                            .dwcfi  save_reg_to_mem, 14, -4
    2133                            .dwcfi  save_reg_to_mem, 4, -8
    2134 00000002 4604              MOV       V1, A1                ; [DPU_V7M3_PIPE] |1721|  ; [ORIG 16-BIT INS]
    2135                            .dwpsn  file "../Application/api_mac.c",line 1726,column 5,is_stmt,isa 1
    2136 00000004 2100              MOVS      A2, #0                ; [DPU_V7M3_PIPE] |1726|  ; [ORIG 16-BIT INS]
    2137 00000006 221C              MOVS      A3, #28               ; [DPU_V7M3_PIPE] |1726|  ; [ORIG 16-BIT INS]
    2138 00000008 0D20F1AD          SUB       SP, SP, #32           ; [DPU_V7M3_PIPE]  ; [KEEP 32-BIT INS]
    2139                            .dwcfi  cfa_offset, 40
    2140 0000000c 4668              MOV       A1, SP                ; [DPU_V7M3_PIPE] |1726|  ; [ORIG 16-BIT INS]
    2141                    $C$DW$184       .dwtag  DW_TAG_TI_branch
    2142                            .dwattr $C$DW$184, DW_AT_low_pc(0x00)
    2143                            .dwattr $C$DW$184, DW_AT_name("memset")
    2144                            .dwattr $C$DW$184, DW_AT_TI_call
    2145                    
TI ARM Assembler PC v18.1.3 Wed Nov 28 13:22:11 2018

Tools Copyright (c) 1996-2017 Texas Instruments Incorporated
C:\Users\Adrian\AppData\Local\Temp\{B4B2FEDC-5A78-4594-BEB6-3F19656B4E06} PAGE   40

    2146 0000000e FFFEF7FF!         BL        memset                ; [DPU_V7M3_PIPE] |1726|  ; [KEEP 32-BIT INS]
    2147                            ; CALL OCCURS {memset }          ; [] |1726| 
    2148                            .dwpsn  file "../Application/api_mac.c",line 1729,column 5,is_stmt,isa 1
    2149 00000012 7860              LDRB      A1, [V1, #1]          ; [DPU_V7M3_PIPE] |1729|  ; [ORIG 16-BIT INS]
    2150 00000014 0000F88D          STRB      A1, [SP, #0]          ; [DPU_V7M3_PIPE] |1729|  ; [KEEP 32-BIT INS]
    2151                            .dwpsn  file "../Application/api_mac.c",line 1731,column 5,is_stmt,isa 1
    2152 00000018 78A0              LDRB      A1, [V1, #2]          ; [DPU_V7M3_PIPE] |1731|  ; [ORIG 16-BIT INS]
    2153 0000001a 0001F88D          STRB      A1, [SP, #1]          ; [DPU_V7M3_PIPE] |1731|  ; [KEEP 32-BIT INS]
    2154                            .dwpsn  file "../Application/api_mac.c",line 1732,column 5,is_stmt,isa 1
    2155 0000001e 78E0              LDRB      A1, [V1, #3]          ; [DPU_V7M3_PIPE] |1732|  ; [ORIG 16-BIT INS]
    2156 00000020 0002F88D          STRB      A1, [SP, #2]          ; [DPU_V7M3_PIPE] |1732|  ; [KEEP 32-BIT INS]
    2157                            .dwpsn  file "../Application/api_mac.c",line 1733,column 5,is_stmt,isa 1
    2158 00000024 7920              LDRB      A1, [V1, #4]          ; [DPU_V7M3_PIPE] |1733|  ; [ORIG 16-BIT INS]
    2159                            .dwpsn  file "../Application/api_mac.c",line 1734,column 5,is_stmt,isa 1
    2160 00000026 2211              MOVS      A3, #17               ; [DPU_V7M3_PIPE] |1734|  ; [ORIG 16-BIT INS]
    2161 00000028 1D61              ADDS      A2, V1, #5            ; [DPU_V7M3_PIPE] |1734|  ; [ORIG 16-BIT INS]
    2162                            .dwpsn  file "../Application/api_mac.c",line 1733,column 5,is_stmt,isa 1
    2163 0000002a 0003F88D          STRB      A1, [SP, #3]          ; [DPU_V7M3_PIPE] |1733|  ; [KEEP 32-BIT INS]
    2164                            .dwpsn  file "../Application/api_mac.c",line 1734,column 5,is_stmt,isa 1
    2165 0000002e A801              ADD       A1, SP, #4            ; [DPU_V7M3_PIPE] |1734|  ; [ORIG 16-BIT INS]
    2166                    $C$DW$185       .dwtag  DW_TAG_TI_branch
    2167                            .dwattr $C$DW$185, DW_AT_low_pc(0x00)
    2168                            .dwattr $C$DW$185, DW_AT_name("memcpy")
    2169                            .dwattr $C$DW$185, DW_AT_TI_call
    2170                    
    2171 00000030 FFFEF7FF!         BL        memcpy                ; [DPU_V7M3_PIPE] |1734|  ; [KEEP 32-BIT INS]
    2172                            ; CALL OCCURS {memcpy }          ; [] |1734| 
    2173                            .dwpsn  file "../Application/api_mac.c",line 1736,column 5,is_stmt,isa 1
    2174 00000034 7DA0              LDRB      A1, [V1, #22]         ; [DPU_V7M3_PIPE] |1736|  ; [ORIG 16-BIT INS]
    2175 00000036 0015F88D          STRB      A1, [SP, #21]         ; [DPU_V7M3_PIPE] |1736|  ; [KEEP 32-BIT INS]
    2176 0000003a B108              CBZ       A1, ||$C$L3||         ; []  ; [ORIG 16-BIT INS]
    2177                            .dwpsn  file "../Application/api_mac.c",line 1747,column 13,is_stmt,isa 1
    2178 0000003c 69A0              LDR       A1, [V1, #24]         ; [DPU_V7M3_PIPE] |1747|  ; [ORIG 16-BIT INS]
    2179 0000003e 9006              STR       A1, [SP, #24]         ; [DPU_V7M3_PIPE] |1747|  ; [ORIG 16-BIT INS]
    2180                    ;* --------------------------------------------------------------------------*
    2181 00000040           ||$C$L3||:    
    2182                            .dwpsn  file "../Application/api_mac.c",line 1757,column 5,is_stmt,isa 1
    2183 00000040 4803              LDR       A1, $C$CON15          ; [DPU_V7M3_PIPE] |1757|  ; [ORIG 16-BIT INS]
    2184 00000042 6800              LDR       A1, [A1, #0]          ; [DPU_V7M3_PIPE] |1757|  ; [ORIG 16-BIT INS]
    2185 00000044 6981              LDR       A2, [A1, #24]         ; [DPU_V7M3_PIPE] |1757|  ; [ORIG 16-BIT INS]
    2186 00000046 4668              MOV       A1, SP                ; [DPU_V7M3_PIPE] |1757|  ; [ORIG 16-BIT INS]
    2187                    $C$DW$186       .dwtag  DW_TAG_TI_branch
    2188                            .dwattr $C$DW$186, DW_AT_low_pc(0x00)
    2189                            .dwattr $C$DW$186, DW_AT_TI_call
    2190                            .dwattr $C$DW$186, DW_AT_TI_indirect
    2191                    
    2192 00000048 4788              BLX       A2                    ; [DPU_V7M3_PIPE] |1757|  ; [ORIG 16-BIT INS]
    2193                            ; CALL OCCURS {}                 ; [] |1757| 
    2194 0000004a B008              ADD       SP, SP, #32           ; [DPU_V7M3_PIPE]  ; [ORIG 16-BIT INS]
    2195                            .dwcfi  cfa_offset, 8
    2196                    $C$DW$187       .dwtag  DW_TAG_TI_branch
    2197                            .dwattr $C$DW$187, DW_AT_low_pc(0x00)
    2198                            .dwattr $C$DW$187, DW_AT_TI_return
    2199                    
    2200 0000004c BD10              POP       {V1, PC}              ; [DPU_V7M3_PIPE]  ; [ORIG 16-BIT INS]
TI ARM Assembler PC v18.1.3 Wed Nov 28 13:22:11 2018

Tools Copyright (c) 1996-2017 Texas Instruments Incorporated
C:\Users\Adrian\AppData\Local\Temp\{B4B2FEDC-5A78-4594-BEB6-3F19656B4E06} PAGE   41

    2201                            .dwcfi  cfa_offset, 0
    2202                            .dwcfi  restore_reg, 4
    2203                            ; BRANCH OCCURS                  ; [] 
    2204                            .dwattr $C$DW$180, DW_AT_TI_end_file("../Application/api_mac.c")
    2205                            .dwattr $C$DW$180, DW_AT_TI_end_line(0x6de)
    2206                            .dwattr $C$DW$180, DW_AT_TI_end_column(0x01)
    2207                            .dwendentry
    2208                            .dwendtag $C$DW$180
    2209                    
    2210 00000000                   .sect   ".text:ICall_free"
    2211                            .clink
    2212                            .thumbfunc ICall_free
    2213 00000000                   .thumb
    2214                    
    2215                    $C$DW$188       .dwtag  DW_TAG_subprogram
    2216                            .dwattr $C$DW$188, DW_AT_name("ICall_free")
    2217                            .dwattr $C$DW$188, DW_AT_low_pc(ICall_free)
    2218                            .dwattr $C$DW$188, DW_AT_high_pc(0x00)
    2219                            .dwattr $C$DW$188, DW_AT_TI_symbol_name("ICall_free")
    2220                            .dwattr $C$DW$188, DW_AT_TI_begin_file("C:/ti/simplelink_cc13x0_sdk_2_30_00_20/source/ti/ti154
    2221                            .dwattr $C$DW$188, DW_AT_TI_begin_line(0x7d6)
    2222                            .dwattr $C$DW$188, DW_AT_TI_begin_column(0x0d)
    2223                            .dwattr $C$DW$188, DW_AT_decl_file("C:/ti/simplelink_cc13x0_sdk_2_30_00_20/source/ti/ti154stac
    2224                            .dwattr $C$DW$188, DW_AT_decl_line(0x7d6)
    2225                            .dwattr $C$DW$188, DW_AT_decl_column(0x0d)
    2226                            .dwattr $C$DW$188, DW_AT_TI_max_frame_size(0x10)
    2227                            .dwpsn  file "C:/ti/simplelink_cc13x0_sdk_2_30_00_20/source/ti/ti154stack/icall/src/inc/icall.
    2228                    
    2229                            .dwfde $C$DW$CIE, ICall_free
    2230                    $C$DW$189       .dwtag  DW_TAG_formal_parameter
    2231                            .dwattr $C$DW$189, DW_AT_name("msg")
    2232                            .dwattr $C$DW$189, DW_AT_TI_symbol_name("msg")
    2233                            .dwattr $C$DW$189, DW_AT_type(*$C$DW$T$3)
    2234                            .dwattr $C$DW$189, DW_AT_location[DW_OP_reg0]
    2235                    
    2236                    
    2237                    ;*****************************************************************************
    2238                    ;* FUNCTION NAME: ICall_free                                                 *
    2239                    ;*                                                                           *
    2240                    ;*   Regs Modified     : A1,A2,A3,A4,V9,SP,LR,SR                             *
    2241                    ;*   Regs Used         : A1,A2,A3,A4,V9,SP,LR,SR                             *
    2242                    ;*   Local Frame Size  : 0 Args + 8 Auto + 4 Save = 12 byte                  *
    2243                    ;*****************************************************************************
    2244                    ICall_free:
    2245                    ;* --------------------------------------------------------------------------*
    2246                    $C$DW$190       .dwtag  DW_TAG_variable
    2247                            .dwattr $C$DW$190, DW_AT_name("args")
    2248                            .dwattr $C$DW$190, DW_AT_TI_symbol_name("args")
    2249                            .dwattr $C$DW$190, DW_AT_type(*$C$DW$T$1217)
    2250                            .dwattr $C$DW$190, DW_AT_location[DW_OP_breg13 0]
    2251                    
    2252                    ;* A1    assigned to msg
    2253                    $C$DW$191       .dwtag  DW_TAG_variable
    2254                            .dwattr $C$DW$191, DW_AT_name("msg")
    2255                            .dwattr $C$DW$191, DW_AT_TI_symbol_name("msg")
TI ARM Assembler PC v18.1.3 Wed Nov 28 13:22:11 2018

Tools Copyright (c) 1996-2017 Texas Instruments Incorporated
C:\Users\Adrian\AppData\Local\Temp\{B4B2FEDC-5A78-4594-BEB6-3F19656B4E06} PAGE   42

    2256                            .dwattr $C$DW$191, DW_AT_type(*$C$DW$T$875)
    2257                            .dwattr $C$DW$191, DW_AT_location[DW_OP_reg0]
    2258                    
    2259                            .dwcfi  cfa_offset, 0
    2260 00000000 B50E              PUSH      {A2, A3, A4, LR}      ; [DPU_V7M3_PIPE]  ; [ORIG 16-BIT INS]
    2261                            .dwcfi  cfa_offset, 16
    2262                            .dwcfi  save_reg_to_mem, 14, -4
    2263                            .dwcfi  save_reg_to_mem, 3, -8
    2264                            .dwcfi  save_reg_to_mem, 2, -12
    2265                            .dwcfi  save_reg_to_mem, 1, -16
    2266                            .dwpsn  file "C:/ti/simplelink_cc13x0_sdk_2_30_00_20/source/ti/ti154stack/icall/src/inc/icall.
    2267 00000002 2108              MOVS      A2, #8                ; [DPU_V7M3_PIPE] |2009|  ; [ORIG 16-BIT INS]
    2268                            .dwpsn  file "C:/ti/simplelink_cc13x0_sdk_2_30_00_20/source/ti/ti154stack/icall/src/inc/icall.
    2269 00000004 9001              STR       A1, [SP, #4]          ; [DPU_V7M3_PIPE] |2011|  ; [ORIG 16-BIT INS]
    2270                            .dwpsn  file "C:/ti/simplelink_cc13x0_sdk_2_30_00_20/source/ti/ti154stack/icall/src/inc/icall.
    2271 00000006 4805              LDR       A1, $C$CON17          ; [DPU_V7M3_PIPE] |2012|  ; [ORIG 16-BIT INS]
    2272                            .dwpsn  file "C:/ti/simplelink_cc13x0_sdk_2_30_00_20/source/ti/ti154stack/icall/src/inc/icall.
    2273 00000008 1000F8AD          STRH      A2, [SP, #0]          ; [DPU_V7M3_PIPE] |2009|  ; [KEEP 32-BIT INS]
    2274                            .dwpsn  file "C:/ti/simplelink_cc13x0_sdk_2_30_00_20/source/ti/ti154stack/icall/src/inc/icall.
    2275 0000000c 2105              MOVS      A2, #5                ; [DPU_V7M3_PIPE] |2010|  ; [ORIG 16-BIT INS]
    2276 0000000e 1002F8AD          STRH      A2, [SP, #2]          ; [DPU_V7M3_PIPE] |2010|  ; [KEEP 32-BIT INS]
    2277                            .dwpsn  file "C:/ti/simplelink_cc13x0_sdk_2_30_00_20/source/ti/ti154stack/icall/src/inc/icall.
    2278 00000012 6801              LDR       A2, [A1, #0]          ; [DPU_V7M3_PIPE] |2012|  ; [ORIG 16-BIT INS]
    2279 00000014 4668              MOV       A1, SP                ; [DPU_V7M3_PIPE] |2012|  ; [ORIG 16-BIT INS]
    2280                    $C$DW$192       .dwtag  DW_TAG_TI_branch
    2281                            .dwattr $C$DW$192, DW_AT_low_pc(0x00)
    2282                            .dwattr $C$DW$192, DW_AT_TI_call
    2283                            .dwattr $C$DW$192, DW_AT_TI_indirect
    2284                    
    2285 00000016 4788              BLX       A2                    ; [DPU_V7M3_PIPE] |2012|  ; [ORIG 16-BIT INS]
    2286                            ; CALL OCCURS {}                 ; [] |2012| 
    2287                    $C$DW$193       .dwtag  DW_TAG_TI_branch
    2288                            .dwattr $C$DW$193, DW_AT_low_pc(0x00)
    2289                            .dwattr $C$DW$193, DW_AT_TI_return
    2290                    
    2291 00000018 BD0E              POP       {A2, A3, A4, PC}      ; [DPU_V7M3_PIPE]  ; [ORIG 16-BIT INS]
    2292                            .dwcfi  cfa_offset, 0
    2293                            .dwcfi  restore_reg, 3
    2294                            .dwcfi  restore_reg, 2
    2295                            .dwcfi  restore_reg, 1
    2296                            ; BRANCH OCCURS                  ; [] 
    2297                            .dwattr $C$DW$188, DW_AT_TI_end_file("C:/ti/simplelink_cc13x0_sdk_2_30_00_20/source/ti/ti154st
    2298                            .dwattr $C$DW$188, DW_AT_TI_end_line(0x7dd)
    2299                            .dwattr $C$DW$188, DW_AT_TI_end_column(0x01)
    2300                            .dwendentry
    2301                            .dwendtag $C$DW$188
    2302                    
    2303 00000000                   .sect   ".text:copyMacPanDescToApiMacPanDesc"
    2304                            .clink
    2305                            .thumbfunc copyMacPanDescToApiMacPanDesc
    2306 00000000                   .thumb
    2307                    
    2308                    $C$DW$194       .dwtag  DW_TAG_subprogram
    2309                            .dwattr $C$DW$194, DW_AT_name("copyMacPanDescToApiMacPanDesc")
    2310                            .dwattr $C$DW$194, DW_AT_low_pc(copyMacPanDescToApiMacPanDesc)
TI ARM Assembler PC v18.1.3 Wed Nov 28 13:22:11 2018

Tools Copyright (c) 1996-2017 Texas Instruments Incorporated
C:\Users\Adrian\AppData\Local\Temp\{B4B2FEDC-5A78-4594-BEB6-3F19656B4E06} PAGE   43

    2311                            .dwattr $C$DW$194, DW_AT_high_pc(0x00)
    2312                            .dwattr $C$DW$194, DW_AT_TI_symbol_name("copyMacPanDescToApiMacPanDesc")
    2313                            .dwattr $C$DW$194, DW_AT_TI_begin_file("../Application/api_mac.c")
    2314                            .dwattr $C$DW$194, DW_AT_TI_begin_line(0x651)
    2315                            .dwattr $C$DW$194, DW_AT_TI_begin_column(0x0d)
    2316                            .dwattr $C$DW$194, DW_AT_decl_file("../Application/api_mac.c")
    2317                            .dwattr $C$DW$194, DW_AT_decl_line(0x651)
    2318                            .dwattr $C$DW$194, DW_AT_decl_column(0x0d)
    2319                            .dwattr $C$DW$194, DW_AT_TI_max_frame_size(0x08)
    2320                            .dwpsn  file "../Application/api_mac.c",line 1619,column 1,is_stmt,address copyMacPanDescToApi
    2321                    
    2322                            .dwfde $C$DW$CIE, copyMacPanDescToApiMacPanDesc
    2323                    $C$DW$195       .dwtag  DW_TAG_formal_parameter
    2324                            .dwattr $C$DW$195, DW_AT_name("pDst")
    2325                            .dwattr $C$DW$195, DW_AT_TI_symbol_name("pDst")
    2326                            .dwattr $C$DW$195, DW_AT_type(*$C$DW$T$198)
    2327                            .dwattr $C$DW$195, DW_AT_location[DW_OP_reg0]
    2328                    
    2329                    $C$DW$196       .dwtag  DW_TAG_formal_parameter
    2330                            .dwattr $C$DW$196, DW_AT_name("pSrc")
    2331                            .dwattr $C$DW$196, DW_AT_TI_symbol_name("pSrc")
    2332                            .dwattr $C$DW$196, DW_AT_type(*$C$DW$T$47)
    2333                            .dwattr $C$DW$196, DW_AT_location[DW_OP_reg1]
    2334                    
    2335                    
    2336                    ;*****************************************************************************
    2337                    ;* FUNCTION NAME: copyMacPanDescToApiMacPanDesc                              *
    2338                    ;*                                                                           *
    2339                    ;*   Regs Modified     : A1,A2,A3,A4,V9,SP,LR,SR                             *
    2340                    ;*   Regs Used         : A1,A2,A3,A4,V9,SP,LR,SR                             *
    2341                    ;*   Local Frame Size  : 0 Args + 0 Auto + 4 Save = 4 byte                   *
    2342                    ;*****************************************************************************
    2343                    copyMacPanDescToApiMacPanDesc:
    2344                    ;* --------------------------------------------------------------------------*
    2345                    ;* A1    assigned to pDst
    2346                    $C$DW$197       .dwtag  DW_TAG_variable
    2347                            .dwattr $C$DW$197, DW_AT_name("pDst")
    2348                            .dwattr $C$DW$197, DW_AT_TI_symbol_name("pDst")
    2349                            .dwattr $C$DW$197, DW_AT_type(*$C$DW$T$1187)
    2350                            .dwattr $C$DW$197, DW_AT_location[DW_OP_reg0]
    2351                    
    2352                    ;* A4    assigned to pSrc
    2353                    $C$DW$198       .dwtag  DW_TAG_variable
    2354                            .dwattr $C$DW$198, DW_AT_name("pSrc")
    2355                            .dwattr $C$DW$198, DW_AT_TI_symbol_name("pSrc")
    2356                            .dwattr $C$DW$198, DW_AT_type(*$C$DW$T$809)
    2357                            .dwattr $C$DW$198, DW_AT_location[DW_OP_reg3]
    2358                    
    2359                            .dwcfi  cfa_offset, 0
    2360 00000000 B508              PUSH      {A4, LR}              ; [DPU_V7M3_PIPE]  ; [ORIG 16-BIT INS]
    2361                            .dwcfi  cfa_offset, 8
    2362                            .dwcfi  save_reg_to_mem, 14, -4
    2363                            .dwcfi  save_reg_to_mem, 3, -8
    2364 00000002 460B              MOV       A4, A2                ; [DPU_V7M3_PIPE] |1619|  ; [ORIG 16-BIT INS]
    2365                            .dwpsn  file "../Application/api_mac.c",line 1621,column 5,is_stmt,isa 1
TI ARM Assembler PC v18.1.3 Wed Nov 28 13:22:11 2018

Tools Copyright (c) 1996-2017 Texas Instruments Incorporated
C:\Users\Adrian\AppData\Local\Temp\{B4B2FEDC-5A78-4594-BEB6-3F19656B4E06} PAGE   44

    2366                    $C$DW$199       .dwtag  DW_TAG_TI_branch
    2367                            .dwattr $C$DW$199, DW_AT_low_pc(0x00)
    2368                            .dwattr $C$DW$199, DW_AT_name("copyMacAddrToApiMacAddr")
    2369                            .dwattr $C$DW$199, DW_AT_TI_call
    2370                    
    2371 00000004 FFFEF7FF!         BL        copyMacAddrToApiMacAddr ; [DPU_V7M3_PIPE] |1621|  ; [KEEP 32-BIT INS]
    2372                            ; CALL OCCURS {copyMacAddrToApiMacAddr }  ; [] |1621| 
    2373                            .dwpsn  file "../Application/api_mac.c",line 1622,column 5,is_stmt,isa 1
    2374 00000008 8959              LDRH      A2, [A4, #10]         ; [DPU_V7M3_PIPE] |1622|  ; [ORIG 16-BIT INS]
    2375 0000000a 8141              STRH      A2, [A1, #10]         ; [DPU_V7M3_PIPE] |1622|  ; [ORIG 16-BIT INS]
    2376                            .dwpsn  file "../Application/api_mac.c",line 1623,column 5,is_stmt,isa 1
    2377 0000000c 8999              LDRH      A2, [A4, #12]         ; [DPU_V7M3_PIPE] |1623|  ; [ORIG 16-BIT INS]
    2378 0000000e 8181              STRH      A2, [A1, #12]         ; [DPU_V7M3_PIPE] |1623|  ; [ORIG 16-BIT INS]
    2379                            .dwpsn  file "../Application/api_mac.c",line 1624,column 5,is_stmt,isa 1
    2380 00000010 7B99              LDRB      A2, [A4, #14]         ; [DPU_V7M3_PIPE] |1624|  ; [ORIG 16-BIT INS]
    2381 00000012 7381              STRB      A2, [A1, #14]         ; [DPU_V7M3_PIPE] |1624|  ; [ORIG 16-BIT INS]
    2382                            .dwpsn  file "../Application/api_mac.c",line 1625,column 5,is_stmt,isa 1
    2383 00000014 7BD9              LDRB      A2, [A4, #15]         ; [DPU_V7M3_PIPE] |1625|  ; [ORIG 16-BIT INS]
    2384 00000016 73C1              STRB      A2, [A1, #15]         ; [DPU_V7M3_PIPE] |1625|  ; [ORIG 16-BIT INS]
    2385                            .dwpsn  file "../Application/api_mac.c",line 1626,column 5,is_stmt,isa 1
    2386 00000018 7C19              LDRB      A2, [A4, #16]         ; [DPU_V7M3_PIPE] |1626|  ; [ORIG 16-BIT INS]
    2387 0000001a 2200              MOVS      A3, #0                ; [DPU_V7M3_PIPE] |1626|  ; [ORIG 16-BIT INS]
    2388 0000001c B101              CBZ       A2, ||$C$L4||         ; []  ; [ORIG 16-BIT INS]
    2389 0000001e 2201              MOVS      A3, #1                ; [DPU_V7M3_PIPE] |1626|  ; [ORIG 16-BIT INS]
    2390                    ;* --------------------------------------------------------------------------*
    2391 00000020           ||$C$L4||:    
    2392                            .dwpsn  file "../Application/api_mac.c",line 1627,column 5,is_stmt,isa 1
    2393 00000020 7C59              LDRB      A2, [A4, #17]         ; [DPU_V7M3_PIPE] |1627|  ; [ORIG 16-BIT INS]
    2394 00000022 7441              STRB      A2, [A1, #17]         ; [DPU_V7M3_PIPE] |1627|  ; [ORIG 16-BIT INS]
    2395                            .dwpsn  file "../Application/api_mac.c",line 1628,column 5,is_stmt,isa 1
    2396 00000024 6959              LDR       A2, [A4, #20]         ; [DPU_V7M3_PIPE] |1628|  ; [ORIG 16-BIT INS]
    2397 00000026 6141              STR       A2, [A1, #20]         ; [DPU_V7M3_PIPE] |1628|  ; [ORIG 16-BIT INS]
    2398                            .dwpsn  file "../Application/api_mac.c",line 1629,column 5,is_stmt,isa 1
    2399 00000028 7E19              LDRB      A2, [A4, #24]         ; [DPU_V7M3_PIPE] |1629|  ; [ORIG 16-BIT INS]
    2400                            .dwpsn  file "../Application/api_mac.c",line 1626,column 5,is_stmt,isa 1
    2401 0000002a 7402              STRB      A3, [A1, #16]         ; [DPU_V7M3_PIPE] |1626|  ; [ORIG 16-BIT INS]
    2402                            .dwpsn  file "../Application/api_mac.c",line 1629,column 5,is_stmt,isa 1
    2403 0000002c 2200              MOVS      A3, #0                ; [DPU_V7M3_PIPE] |1629|  ; [ORIG 16-BIT INS]
    2404 0000002e B101              CBZ       A2, ||$C$L5||         ; []  ; [ORIG 16-BIT INS]
    2405 00000030 2201              MOVS      A3, #1                ; [DPU_V7M3_PIPE] |1629|  ; [ORIG 16-BIT INS]
    2406                    ;* --------------------------------------------------------------------------*
    2407 00000032           ||$C$L5||:    
    2408 00000032 7602              STRB      A3, [A1, #24]         ; [DPU_V7M3_PIPE] |1629|  ; [ORIG 16-BIT INS]
    2409                            .dwpsn  file "../Application/api_mac.c",line 1630,column 5,is_stmt,isa 1
    2410 00000034 0119F103          ADD       A2, A4, #25           ; [DPU_V7M3_PIPE] |1630|  ; [KEEP 32-BIT INS]
    2411 00000038 220B              MOVS      A3, #11               ; [DPU_V7M3_PIPE] |1630|  ; [ORIG 16-BIT INS]
    2412 0000003a 3019              ADDS      A1, A1, #25           ; [DPU_V7M3_PIPE] |1630|  ; [ORIG 16-BIT INS]
    2413                    $C$DW$200       .dwtag  DW_TAG_TI_branch
    2414                            .dwattr $C$DW$200, DW_AT_low_pc(0x00)
    2415                            .dwattr $C$DW$200, DW_AT_name("memcpy")
    2416                            .dwattr $C$DW$200, DW_AT_TI_call
    2417                    
    2418 0000003c FFFEF7FF!         BL        memcpy                ; [DPU_V7M3_PIPE] |1630|  ; [KEEP 32-BIT INS]
    2419                            ; CALL OCCURS {memcpy }          ; [] |1630| 
    2420                    $C$DW$201       .dwtag  DW_TAG_TI_branch
TI ARM Assembler PC v18.1.3 Wed Nov 28 13:22:11 2018

Tools Copyright (c) 1996-2017 Texas Instruments Incorporated
C:\Users\Adrian\AppData\Local\Temp\{B4B2FEDC-5A78-4594-BEB6-3F19656B4E06} PAGE   45

    2421                            .dwattr $C$DW$201, DW_AT_low_pc(0x00)
    2422                            .dwattr $C$DW$201, DW_AT_TI_return
    2423                    
    2424 00000040 BD08              POP       {A4, PC}              ; [DPU_V7M3_PIPE]  ; [ORIG 16-BIT INS]
    2425                            .dwcfi  cfa_offset, 0
    2426                            .dwcfi  restore_reg, 3
    2427                            ; BRANCH OCCURS                  ; [] 
    2428                            .dwattr $C$DW$194, DW_AT_TI_end_file("../Application/api_mac.c")
    2429                            .dwattr $C$DW$194, DW_AT_TI_end_line(0x65f)
    2430                            .dwattr $C$DW$194, DW_AT_TI_end_column(0x01)
    2431                            .dwendentry
    2432                            .dwendtag $C$DW$194
    2433                    
    2434 00000000                   .sect   ".text:processBeaconNotifyInd"
    2435                            .clink
    2436                            .thumbfunc processBeaconNotifyInd
    2437 00000000                   .thumb
    2438                    
    2439                    $C$DW$202       .dwtag  DW_TAG_subprogram
    2440                            .dwattr $C$DW$202, DW_AT_name("processBeaconNotifyInd")
    2441                            .dwattr $C$DW$202, DW_AT_low_pc(processBeaconNotifyInd)
    2442                            .dwattr $C$DW$202, DW_AT_high_pc(0x00)
    2443                            .dwattr $C$DW$202, DW_AT_TI_symbol_name("processBeaconNotifyInd")
    2444                            .dwattr $C$DW$202, DW_AT_TI_begin_file("../Application/api_mac.c")
    2445                            .dwattr $C$DW$202, DW_AT_TI_begin_line(0x666)
    2446                            .dwattr $C$DW$202, DW_AT_TI_begin_column(0x0d)
    2447                            .dwattr $C$DW$202, DW_AT_decl_file("../Application/api_mac.c")
    2448                            .dwattr $C$DW$202, DW_AT_decl_line(0x666)
    2449                            .dwattr $C$DW$202, DW_AT_decl_column(0x0d)
    2450                            .dwattr $C$DW$202, DW_AT_TI_max_frame_size(0x50)
    2451                            .dwpsn  file "../Application/api_mac.c",line 1639,column 1,is_stmt,address processBeaconNotify
    2452                    
    2453                            .dwfde $C$DW$CIE, processBeaconNotifyInd
    2454                    $C$DW$203       .dwtag  DW_TAG_formal_parameter
    2455                            .dwattr $C$DW$203, DW_AT_name("pInd")
    2456                            .dwattr $C$DW$203, DW_AT_TI_symbol_name("pInd")
    2457                            .dwattr $C$DW$203, DW_AT_type(*$C$DW$T$815)
    2458                            .dwattr $C$DW$203, DW_AT_location[DW_OP_reg0]
    2459                    
    2460                    
    2461                    ;*****************************************************************************
    2462                    ;* FUNCTION NAME: processBeaconNotifyInd                                     *
    2463                    ;*                                                                           *
    2464                    ;*   Regs Modified     : A1,A2,A3,A4,V1,V4,V9,SP,LR,SR                       *
    2465                    ;*   Regs Used         : A1,A2,A3,A4,V1,V4,V9,SP,LR,SR                       *
    2466                    ;*   Local Frame Size  : 0 Args + 64 Auto + 12 Save = 76 byte                *
    2467                    ;*****************************************************************************
    2468                    processBeaconNotifyInd:
    2469                    ;* --------------------------------------------------------------------------*
    2470                    $C$DW$204       .dwtag  DW_TAG_variable
    2471                            .dwattr $C$DW$204, DW_AT_name("ind")
    2472                            .dwattr $C$DW$204, DW_AT_TI_symbol_name("ind")
    2473                            .dwattr $C$DW$204, DW_AT_type(*$C$DW$T$364)
    2474                            .dwattr $C$DW$204, DW_AT_location[DW_OP_breg13 0]
    2475                    
TI ARM Assembler PC v18.1.3 Wed Nov 28 13:22:11 2018

Tools Copyright (c) 1996-2017 Texas Instruments Incorporated
C:\Users\Adrian\AppData\Local\Temp\{B4B2FEDC-5A78-4594-BEB6-3F19656B4E06} PAGE   46

    2476                    ;* A2    assigned to $O$C1
    2477                    ;* A2    assigned to $O$C2
    2478                    ;* A2    assigned to $O$v1
    2479                    ;* V1    assigned to pInd
    2480                    $C$DW$205       .dwtag  DW_TAG_variable
    2481                            .dwattr $C$DW$205, DW_AT_name("pInd")
    2482                            .dwattr $C$DW$205, DW_AT_TI_symbol_name("pInd")
    2483                            .dwattr $C$DW$205, DW_AT_type(*$C$DW$T$816)
    2484                            .dwattr $C$DW$205, DW_AT_location[DW_OP_reg4]
    2485                    
    2486                    ;* A1    assigned to pAddrList
    2487                    $C$DW$206       .dwtag  DW_TAG_variable
    2488                            .dwattr $C$DW$206, DW_AT_name("pAddrList")
    2489                            .dwattr $C$DW$206, DW_AT_TI_symbol_name("pAddrList")
    2490                            .dwattr $C$DW$206, DW_AT_type(*$C$DW$T$197)
    2491                            .dwattr $C$DW$206, DW_AT_location[DW_OP_reg0]
    2492                    
    2493                            .dwcfi  cfa_offset, 0
    2494 00000000 B590              PUSH      {V1, V4, LR}          ; [DPU_V7M3_PIPE]  ; [ORIG 16-BIT INS]
    2495                            .dwcfi  cfa_offset, 12
    2496                            .dwcfi  save_reg_to_mem, 14, -4
    2497                            .dwcfi  save_reg_to_mem, 7, -8
    2498                            .dwcfi  save_reg_to_mem, 4, -12
    2499 00000002 4604              MOV       V1, A1                ; [DPU_V7M3_PIPE] |1639|  ; [ORIG 16-BIT INS]
    2500                            .dwpsn  file "../Application/api_mac.c",line 1644,column 5,is_stmt,isa 1
    2501 00000004 2100              MOVS      A2, #0                ; [DPU_V7M3_PIPE] |1644|  ; [ORIG 16-BIT INS]
    2502 00000006 2240              MOVS      A3, #64               ; [DPU_V7M3_PIPE] |1644|  ; [ORIG 16-BIT INS]
    2503 00000008 0D44F1AD          SUB       SP, SP, #68           ; [DPU_V7M3_PIPE]  ; [KEEP 32-BIT INS]
    2504                            .dwcfi  cfa_offset, 80
    2505 0000000c 4668              MOV       A1, SP                ; [DPU_V7M3_PIPE] |1644|  ; [ORIG 16-BIT INS]
    2506                    $C$DW$207       .dwtag  DW_TAG_TI_branch
    2507                            .dwattr $C$DW$207, DW_AT_low_pc(0x00)
    2508                            .dwattr $C$DW$207, DW_AT_name("memset")
    2509                            .dwattr $C$DW$207, DW_AT_TI_call
    2510                    
    2511 0000000e FFFEF7FF!         BL        memset                ; [DPU_V7M3_PIPE] |1644|  ; [KEEP 32-BIT INS]
    2512                            ; CALL OCCURS {memset }          ; [] |1644| 
    2513                            .dwpsn  file "../Application/api_mac.c",line 1647,column 5,is_stmt,isa 1
    2514 00000012 78A0              LDRB      A1, [V1, #2]          ; [DPU_V7M3_PIPE] |1647|  ; [ORIG 16-BIT INS]
    2515 00000014 0000F88D          STRB      A1, [SP, #0]          ; [DPU_V7M3_PIPE] |1647|  ; [KEEP 32-BIT INS]
    2516                            .dwpsn  file "../Application/api_mac.c",line 1648,column 5,is_stmt,isa 1
    2517 00000018 78E0              LDRB      A1, [V1, #3]          ; [DPU_V7M3_PIPE] |1648|  ; [ORIG 16-BIT INS]
    2518 0000001a 0001F88D          STRB      A1, [SP, #1]          ; [DPU_V7M3_PIPE] |1648|  ; [KEEP 32-BIT INS]
    2519                            .dwpsn  file "../Application/api_mac.c",line 1650,column 5,is_stmt,isa 1
    2520 0000001e 0000F89D          LDRB      A1, [SP, #0]          ; [DPU_V7M3_PIPE] |1650|  ; [KEEP 32-BIT INS]
    2521 00000022 BB00              CBNZ      A1, ||$C$L9||         ; []  ; [ORIG 16-BIT INS]
    2522                            ; BRANCHCC OCCURS {||$C$L9||}    ; [] |1650| 
    2523                    ;* --------------------------------------------------------------------------*
    2524                            .dwpsn  file "../Application/api_mac.c",line 1655,column 9,is_stmt,isa 1
    2525 00000024 6861              LDR       A2, [V1, #4]          ; [DPU_V7M3_PIPE] |1655|  ; [ORIG 16-BIT INS]
    2526 00000026 B111              CBZ       A2, ||$C$L6||         ; []  ; [ORIG 16-BIT INS]
    2527                            ; BRANCHCC OCCURS {||$C$L6||}    ; [] |1655| 
    2528                    ;* --------------------------------------------------------------------------*
    2529                            .dwpsn  file "../Application/api_mac.c",line 1657,column 13,is_stmt,isa 1
    2530 00000028 A801              ADD       A1, SP, #4            ; [DPU_V7M3_PIPE] |1657|  ; [ORIG 16-BIT INS]
TI ARM Assembler PC v18.1.3 Wed Nov 28 13:22:11 2018

Tools Copyright (c) 1996-2017 Texas Instruments Incorporated
C:\Users\Adrian\AppData\Local\Temp\{B4B2FEDC-5A78-4594-BEB6-3F19656B4E06} PAGE   47

    2531                    $C$DW$208       .dwtag  DW_TAG_TI_branch
    2532                            .dwattr $C$DW$208, DW_AT_low_pc(0x00)
    2533                            .dwattr $C$DW$208, DW_AT_name("copyMacPanDescToApiMacPanDesc")
    2534                            .dwattr $C$DW$208, DW_AT_TI_call
    2535                    
    2536 0000002a FFFEF7FF!         BL        copyMacPanDescToApiMacPanDesc ; [DPU_V7M3_PIPE] |1657|  ; [KEEP 32-BIT INS]
    2537                            ; CALL OCCURS {copyMacPanDescToApiMacPanDesc }  ; [] |1657| 
    2538                    ;* --------------------------------------------------------------------------*
    2539 0000002e           ||$C$L6||:    
    2540                            .dwpsn  file "../Application/api_mac.c",line 1663,column 9,is_stmt,isa 1
    2541 0000002e 7A21              LDRB      A2, [V1, #8]          ; [DPU_V7M3_PIPE] |1663|  ; [ORIG 16-BIT INS]
    2542 00000030 0207F001          AND       A3, A2, #7            ; [DPU_V7M3_PIPE] |1663|  ; [KEEP 32-BIT INS]
    2543 00000034 2028F88D          STRB      A3, [SP, #40]         ; [DPU_V7M3_PIPE] |1663|  ; [KEEP 32-BIT INS]
    2544                            .dwpsn  file "../Application/api_mac.c",line 1662,column 9,is_stmt,isa 1
    2545 00000038 68E0              LDR       A1, [V1, #12]         ; [DPU_V7M3_PIPE] |1662|  ; [ORIG 16-BIT INS]
    2546                            .dwpsn  file "../Application/api_mac.c",line 1667,column 9,is_stmt,isa 1
    2547 0000003a 7028F89D          LDRB      V4, [SP, #40]         ; [DPU_V7M3_PIPE] |1667|  ; [KEEP 32-BIT INS]
    2548                            .dwpsn  file "../Application/api_mac.c",line 1665,column 9,is_stmt,isa 1
    2549 0000003e 1102F3C1          UBFX      A2, A2, #4, #3        ; [DPU_V7M3_PIPE] |1665|  ; [KEEP 32-BIT INS]
    2550 00000042 1030F88D          STRB      A2, [SP, #48]         ; [DPU_V7M3_PIPE] |1665|  ; [KEEP 32-BIT INS]
    2551 00000046 B127              CBZ       V4, ||$C$L7||         ; []  ; [ORIG 16-BIT INS]
    2552                            .dwpsn  file "../Application/api_mac.c",line 1667,column 9,is_stmt,isa 1
    2553                            ; BRANCHCC OCCURS {||$C$L7||}    ; [] |1667| 
    2554                    ;* --------------------------------------------------------------------------*
    2555                            .dwpsn  file "../Application/api_mac.c",line 1670,column 13,is_stmt,isa 1
    2556 00000048 1028F89D          LDRB      A2, [SP, #40]         ; [DPU_V7M3_PIPE] |1670|  ; [KEEP 32-BIT INS]
    2557                            .dwpsn  file "../Application/api_mac.c",line 1669,column 13,is_stmt,isa 1
    2558 0000004c 900B              STR       A1, [SP, #44]         ; [DPU_V7M3_PIPE] |1669|  ; [ORIG 16-BIT INS]
    2559                            .dwpsn  file "../Application/api_mac.c",line 1670,column 13,is_stmt,isa 1
    2560 0000004e 0041EB00          ADD       A1, A1, A2, LSL #1    ; [DPU_V7M3_PIPE] |1670|  ; [KEEP 32-BIT INS]
    2561                    ;* --------------------------------------------------------------------------*
    2562 00000052           ||$C$L7||:    
    2563                            .dwpsn  file "../Application/api_mac.c",line 1672,column 9,is_stmt,isa 1
    2564 00000052 7030F89D          LDRB      V4, [SP, #48]         ; [DPU_V7M3_PIPE] |1672|  ; [KEEP 32-BIT INS]
    2565 00000056 B107              CBZ       V4, ||$C$L8||         ; []  ; [ORIG 16-BIT INS]
    2566                            .dwpsn  file "../Application/api_mac.c",line 1674,column 13,is_stmt,isa 1
    2567 00000058 900D              STR       A1, [SP, #52]         ; [DPU_V7M3_PIPE] |1674|  ; [ORIG 16-BIT INS]
    2568                    ;* --------------------------------------------------------------------------*
    2569 0000005a           ||$C$L8||:    
    2570                            .dwpsn  file "../Application/api_mac.c",line 1678,column 9,is_stmt,isa 1
    2571 0000005a 7C20              LDRB      A1, [V1, #16]         ; [DPU_V7M3_PIPE] |1678|  ; [ORIG 16-BIT INS]
    2572 0000005c 0038F88D          STRB      A1, [SP, #56]         ; [DPU_V7M3_PIPE] |1678|  ; [KEEP 32-BIT INS]
    2573                            .dwpsn  file "../Application/api_mac.c",line 1679,column 9,is_stmt,isa 1
    2574 00000060 6967              LDR       V4, [V1, #20]         ; [DPU_V7M3_PIPE] |1679|  ; [ORIG 16-BIT INS]
    2575 00000062 970F              STR       V4, [SP, #60]         ; [DPU_V7M3_PIPE] |1679|  ; [ORIG 16-BIT INS]
    2576                            .dwpsn  file "../Application/api_mac.c",line 1680,column 5,is_stmt,isa 1
    2577 00000064 E019              B         ||$C$L11||            ; [DPU_V7M3_PIPE] |1680|  ; [ORIG 16-BIT INS]
    2578                            ; BRANCH OCCURS {||$C$L11||}     ; [] |1680| 
    2579                    ;* --------------------------------------------------------------------------*
    2580 00000066           ||$C$L9||:    
    2581                            .dwpsn  file "../Application/api_mac.c",line 1684,column 9,is_stmt,isa 1
    2582 00000066 6861              LDR       A2, [V1, #4]          ; [DPU_V7M3_PIPE] |1684|  ; [ORIG 16-BIT INS]
    2583 00000068 B111              CBZ       A2, ||$C$L10||        ; []  ; [ORIG 16-BIT INS]
    2584                            ; BRANCHCC OCCURS {||$C$L10||}   ; [] |1684| 
    2585                    ;* --------------------------------------------------------------------------*
TI ARM Assembler PC v18.1.3 Wed Nov 28 13:22:11 2018

Tools Copyright (c) 1996-2017 Texas Instruments Incorporated
C:\Users\Adrian\AppData\Local\Temp\{B4B2FEDC-5A78-4594-BEB6-3F19656B4E06} PAGE   48

    2586                            .dwpsn  file "../Application/api_mac.c",line 1686,column 13,is_stmt,isa 1
    2587 0000006a A801              ADD       A1, SP, #4            ; [DPU_V7M3_PIPE] |1686|  ; [ORIG 16-BIT INS]
    2588                    $C$DW$209       .dwtag  DW_TAG_TI_branch
    2589                            .dwattr $C$DW$209, DW_AT_low_pc(0x00)
    2590                            .dwattr $C$DW$209, DW_AT_name("copyMacPanDescToApiMacPanDesc")
    2591                            .dwattr $C$DW$209, DW_AT_TI_call
    2592                    
    2593 0000006c FFFEF7FF!         BL        copyMacPanDescToApiMacPanDesc ; [DPU_V7M3_PIPE] |1686|  ; [KEEP 32-BIT INS]
    2594                            ; CALL OCCURS {copyMacPanDescToApiMacPanDesc }  ; [] |1686| 
    2595                    ;* --------------------------------------------------------------------------*
    2596 00000070           ||$C$L10||:    
    2597                            .dwpsn  file "../Application/api_mac.c",line 1693,column 9,is_stmt,isa 1
    2598 00000070 7A67              LDRB      V4, [V1, #9]          ; [DPU_V7M3_PIPE] |1693|  ; [ORIG 16-BIT INS]
    2599 00000072 7029F88D          STRB      V4, [SP, #41]         ; [DPU_V7M3_PIPE] |1693|  ; [KEEP 32-BIT INS]
    2600                            .dwpsn  file "../Application/api_mac.c",line 1695,column 9,is_stmt,isa 1
    2601 00000076 7AA3              LDRB      A4, [V1, #10]         ; [DPU_V7M3_PIPE] |1695|  ; [ORIG 16-BIT INS]
    2602 00000078 302AF88D          STRB      A4, [SP, #42]         ; [DPU_V7M3_PIPE] |1695|  ; [KEEP 32-BIT INS]
    2603                            .dwpsn  file "../Application/api_mac.c",line 1691,column 9,is_stmt,isa 1
    2604 0000007c 7A20              LDRB      A1, [V1, #8]          ; [DPU_V7M3_PIPE] |1691|  ; [ORIG 16-BIT INS]
    2605 0000007e 0028F88D          STRB      A1, [SP, #40]         ; [DPU_V7M3_PIPE] |1691|  ; [KEEP 32-BIT INS]
    2606                            .dwpsn  file "../Application/api_mac.c",line 1697,column 9,is_stmt,isa 1
    2607 00000082 7AE2              LDRB      A3, [V1, #11]         ; [DPU_V7M3_PIPE] |1697|  ; [ORIG 16-BIT INS]
    2608 00000084 202BF88D          STRB      A3, [SP, #43]         ; [DPU_V7M3_PIPE] |1697|  ; [KEEP 32-BIT INS]
    2609                            .dwpsn  file "../Application/api_mac.c",line 1699,column 9,is_stmt,isa 1
    2610 00000088 7B21              LDRB      A2, [V1, #12]         ; [DPU_V7M3_PIPE] |1699|  ; [ORIG 16-BIT INS]
    2611 0000008a 102CF88D          STRB      A2, [SP, #44]         ; [DPU_V7M3_PIPE] |1699|  ; [KEEP 32-BIT INS]
    2612                            .dwpsn  file "../Application/api_mac.c",line 1701,column 9,is_stmt,isa 1
    2613 0000008e 7B67              LDRB      V4, [V1, #13]         ; [DPU_V7M3_PIPE] |1701|  ; [ORIG 16-BIT INS]
    2614 00000090 702DF88D          STRB      V4, [SP, #45]         ; [DPU_V7M3_PIPE] |1701|  ; [KEEP 32-BIT INS]
    2615                            .dwpsn  file "../Application/api_mac.c",line 1703,column 9,is_stmt,isa 1
    2616 00000094 89E3              LDRH      A4, [V1, #14]         ; [DPU_V7M3_PIPE] |1703|  ; [ORIG 16-BIT INS]
    2617 00000096 302EF8AD          STRH      A4, [SP, #46]         ; [DPU_V7M3_PIPE] |1703|  ; [KEEP 32-BIT INS]
    2618                    ;* --------------------------------------------------------------------------*
    2619 0000009a           ||$C$L11||:    
    2620                            .dwpsn  file "../Application/api_mac.c",line 1712,column 5,is_stmt,isa 1
    2621 0000009a 4803              LDR       A1, $C$CON18          ; [DPU_V7M3_PIPE] |1712|  ; [ORIG 16-BIT INS]
    2622 0000009c 6800              LDR       A1, [A1, #0]          ; [DPU_V7M3_PIPE] |1712|  ; [ORIG 16-BIT INS]
    2623 0000009e 6901              LDR       A2, [A1, #16]         ; [DPU_V7M3_PIPE] |1712|  ; [ORIG 16-BIT INS]
    2624 000000a0 4668              MOV       A1, SP                ; [DPU_V7M3_PIPE] |1712|  ; [ORIG 16-BIT INS]
    2625                    $C$DW$210       .dwtag  DW_TAG_TI_branch
    2626                            .dwattr $C$DW$210, DW_AT_low_pc(0x00)
    2627                            .dwattr $C$DW$210, DW_AT_TI_call
    2628                            .dwattr $C$DW$210, DW_AT_TI_indirect
    2629                    
    2630 000000a2 4788              BLX       A2                    ; [DPU_V7M3_PIPE] |1712|  ; [ORIG 16-BIT INS]
    2631                            ; CALL OCCURS {}                 ; [] |1712| 
    2632 000000a4 B011              ADD       SP, SP, #68           ; [DPU_V7M3_PIPE]  ; [ORIG 16-BIT INS]
    2633                            .dwcfi  cfa_offset, 12
    2634                    $C$DW$211       .dwtag  DW_TAG_TI_branch
    2635                            .dwattr $C$DW$211, DW_AT_low_pc(0x00)
    2636                            .dwattr $C$DW$211, DW_AT_TI_return
    2637                    
    2638 000000a6 BD90              POP       {V1, V4, PC}          ; [DPU_V7M3_PIPE]  ; [ORIG 16-BIT INS]
    2639                            .dwcfi  cfa_offset, 0
    2640                            .dwcfi  restore_reg, 7
TI ARM Assembler PC v18.1.3 Wed Nov 28 13:22:11 2018

Tools Copyright (c) 1996-2017 Texas Instruments Incorporated
C:\Users\Adrian\AppData\Local\Temp\{B4B2FEDC-5A78-4594-BEB6-3F19656B4E06} PAGE   49

    2641                            .dwcfi  restore_reg, 4
    2642                            ; BRANCH OCCURS                  ; [] 
    2643                            .dwattr $C$DW$202, DW_AT_TI_end_file("../Application/api_mac.c")
    2644                            .dwattr $C$DW$202, DW_AT_TI_end_line(0x6b1)
    2645                            .dwattr $C$DW$202, DW_AT_TI_end_column(0x01)
    2646                            .dwendentry
    2647                            .dwendtag $C$DW$202
    2648                    
    2649 00000000                   .sect   ".text:ApiMac_buildMsgCapInfo"
    2650                            .clink
    2651                            .thumbfunc ApiMac_buildMsgCapInfo
    2652 00000000                   .thumb
    2653                            .global ApiMac_buildMsgCapInfo
    2654                    
    2655                    $C$DW$212       .dwtag  DW_TAG_subprogram
    2656                            .dwattr $C$DW$212, DW_AT_name("ApiMac_buildMsgCapInfo")
    2657                            .dwattr $C$DW$212, DW_AT_low_pc(ApiMac_buildMsgCapInfo)
    2658                            .dwattr $C$DW$212, DW_AT_high_pc(0x00)
    2659                            .dwattr $C$DW$212, DW_AT_TI_symbol_name("ApiMac_buildMsgCapInfo")
    2660                            .dwattr $C$DW$212, DW_AT_external
    2661                            .dwattr $C$DW$212, DW_AT_TI_begin_file("../Application/api_mac.c")
    2662                            .dwattr $C$DW$212, DW_AT_TI_begin_line(0x43d)
    2663                            .dwattr $C$DW$212, DW_AT_TI_begin_column(0x06)
    2664                            .dwattr $C$DW$212, DW_AT_decl_file("../Application/api_mac.c")
    2665                            .dwattr $C$DW$212, DW_AT_decl_line(0x43d)
    2666                            .dwattr $C$DW$212, DW_AT_decl_column(0x06)
    2667                            .dwattr $C$DW$212, DW_AT_TI_max_frame_size(0x08)
    2668                            .dwpsn  file "../Application/api_mac.c",line 1086,column 1,is_stmt,address ApiMac_buildMsgCapI
    2669                    
    2670                            .dwfde $C$DW$CIE, ApiMac_buildMsgCapInfo
    2671                    $C$DW$213       .dwtag  DW_TAG_formal_parameter
    2672                            .dwattr $C$DW$213, DW_AT_name("cInfo")
    2673                            .dwattr $C$DW$213, DW_AT_TI_symbol_name("cInfo")
    2674                            .dwattr $C$DW$213, DW_AT_type(*$C$DW$T$10)
    2675                            .dwattr $C$DW$213, DW_AT_location[DW_OP_reg0]
    2676                    
    2677                    $C$DW$214       .dwtag  DW_TAG_formal_parameter
    2678                            .dwattr $C$DW$214, DW_AT_name("pPBcapInfo")
    2679                            .dwattr $C$DW$214, DW_AT_TI_symbol_name("pPBcapInfo")
    2680                            .dwattr $C$DW$214, DW_AT_type(*$C$DW$T$901)
    2681                            .dwattr $C$DW$214, DW_AT_location[DW_OP_reg1]
    2682                    
    2683                    
    2684                    ;*****************************************************************************
    2685                    ;* FUNCTION NAME: ApiMac_buildMsgCapInfo                                     *
    2686                    ;*                                                                           *
    2687                    ;*   Regs Modified     : A1,V4,SP,SR                                         *
    2688                    ;*   Regs Used         : A1,A2,V4,SP,LR,SR                                   *
    2689                    ;*   Local Frame Size  : 0 Args + 0 Auto + 8 Save = 8 byte                   *
    2690                    ;*****************************************************************************
    2691                    ApiMac_buildMsgCapInfo:
    2692                    ;* --------------------------------------------------------------------------*
    2693                    ;* V4    assigned to cInfo
    2694                    $C$DW$215       .dwtag  DW_TAG_variable
    2695                            .dwattr $C$DW$215, DW_AT_name("cInfo")
TI ARM Assembler PC v18.1.3 Wed Nov 28 13:22:11 2018

Tools Copyright (c) 1996-2017 Texas Instruments Incorporated
C:\Users\Adrian\AppData\Local\Temp\{B4B2FEDC-5A78-4594-BEB6-3F19656B4E06} PAGE   50

    2696                            .dwattr $C$DW$215, DW_AT_TI_symbol_name("cInfo")
    2697                            .dwattr $C$DW$215, DW_AT_type(*$C$DW$T$990)
    2698                            .dwattr $C$DW$215, DW_AT_location[DW_OP_reg7]
    2699                    
    2700                    ;* A2    assigned to pPBcapInfo
    2701                    $C$DW$216       .dwtag  DW_TAG_variable
    2702                            .dwattr $C$DW$216, DW_AT_name("pPBcapInfo")
    2703                            .dwattr $C$DW$216, DW_AT_TI_symbol_name("pPBcapInfo")
    2704                            .dwattr $C$DW$216, DW_AT_type(*$C$DW$T$1135)
    2705                            .dwattr $C$DW$216, DW_AT_location[DW_OP_reg1]
    2706                    
    2707                            .dwcfi  cfa_offset, 0
    2708 00000000 B580              PUSH      {V4, LR}              ; [DPU_V7M3_PIPE]  ; [ORIG 16-BIT INS]
    2709                            .dwcfi  cfa_offset, 8
    2710                            .dwcfi  save_reg_to_mem, 14, -4
    2711                            .dwcfi  save_reg_to_mem, 7, -8
    2712 00000002 4607              MOV       V4, A1                ; [DPU_V7M3_PIPE] |1086|  ; [ORIG 16-BIT INS]
    2713                            .dwpsn  file "../Application/api_mac.c",line 1087,column 5,is_stmt,isa 1
    2714 00000004 0878              LSRS      A1, V4, #1            ; [DPU_V7M3_PIPE] |1087|  ; [ORIG 16-BIT INS]
    2715 00000006 BF24              ITT       CS                    ; [DPU_V7M3_PIPE]  ; [ORIG 16-BIT INS]
    2716                            .dwpsn  file "../Application/api_mac.c",line 1089,column 9,is_stmt,isa 1
    2717 00000008 2001              MOVCS     A1, #1                ; [DPU_V7M3_PIPE] |1089|  ; [ORIG 16-BIT INS]
    2718 0000000a 7008              STRBCS    A1, [A2, #0]          ; [DPU_V7M3_PIPE] |1089|  ; [ORIG 16-BIT INS]
    2719                            .dwpsn  file "../Application/api_mac.c",line 1092,column 5,is_stmt,isa 1
    2720 0000000c 08B8              LSRS      A1, V4, #2            ; [DPU_V7M3_PIPE] |1092|  ; [ORIG 16-BIT INS]
    2721 0000000e BF24              ITT       CS                    ; [DPU_V7M3_PIPE]  ; [ORIG 16-BIT INS]
    2722                            .dwpsn  file "../Application/api_mac.c",line 1094,column 9,is_stmt,isa 1
    2723 00000010 2001              MOVCS     A1, #1                ; [DPU_V7M3_PIPE] |1094|  ; [ORIG 16-BIT INS]
    2724 00000012 7048              STRBCS    A1, [A2, #1]          ; [DPU_V7M3_PIPE] |1094|  ; [ORIG 16-BIT INS]
    2725                            .dwpsn  file "../Application/api_mac.c",line 1097,column 5,is_stmt,isa 1
    2726 00000014 08F8              LSRS      A1, V4, #3            ; [DPU_V7M3_PIPE] |1097|  ; [ORIG 16-BIT INS]
    2727 00000016 BF24              ITT       CS                    ; [DPU_V7M3_PIPE]  ; [ORIG 16-BIT INS]
    2728                            .dwpsn  file "../Application/api_mac.c",line 1099,column 9,is_stmt,isa 1
    2729 00000018 2001              MOVCS     A1, #1                ; [DPU_V7M3_PIPE] |1099|  ; [ORIG 16-BIT INS]
    2730 0000001a 7088              STRBCS    A1, [A2, #2]          ; [DPU_V7M3_PIPE] |1099|  ; [ORIG 16-BIT INS]
    2731                            .dwpsn  file "../Application/api_mac.c",line 1102,column 5,is_stmt,isa 1
    2732 0000001c 0938              LSRS      A1, V4, #4            ; [DPU_V7M3_PIPE] |1102|  ; [ORIG 16-BIT INS]
    2733 0000001e BF24              ITT       CS                    ; [DPU_V7M3_PIPE]  ; [ORIG 16-BIT INS]
    2734                            .dwpsn  file "../Application/api_mac.c",line 1104,column 9,is_stmt,isa 1
    2735 00000020 2001              MOVCS     A1, #1                ; [DPU_V7M3_PIPE] |1104|  ; [ORIG 16-BIT INS]
    2736 00000022 70C8              STRBCS    A1, [A2, #3]          ; [DPU_V7M3_PIPE] |1104|  ; [ORIG 16-BIT INS]
    2737                            .dwpsn  file "../Application/api_mac.c",line 1107,column 5,is_stmt,isa 1
    2738 00000024 09F8              LSRS      A1, V4, #7            ; [DPU_V7M3_PIPE] |1107|  ; [ORIG 16-BIT INS]
    2739 00000026 BF24              ITT       CS                    ; [DPU_V7M3_PIPE]  ; [ORIG 16-BIT INS]
    2740                            .dwpsn  file "../Application/api_mac.c",line 1109,column 9,is_stmt,isa 1
    2741 00000028 2001              MOVCS     A1, #1                ; [DPU_V7M3_PIPE] |1109|  ; [ORIG 16-BIT INS]
    2742 0000002a 7108              STRBCS    A1, [A2, #4]          ; [DPU_V7M3_PIPE] |1109|  ; [ORIG 16-BIT INS]
    2743                            .dwpsn  file "../Application/api_mac.c",line 1112,column 5,is_stmt,isa 1
    2744 0000002c 077FF037          BICS      V4, V4, #127          ; [DPU_V7M3_PIPE] |1112|  ; [KEEP 32-BIT INS]
    2745 00000030 BF1C              ITT       NE                    ; [DPU_V7M3_PIPE]  ; [ORIG 16-BIT INS]
    2746                            .dwpsn  file "../Application/api_mac.c",line 1114,column 9,is_stmt,isa 1
    2747 00000032 2001              MOVNE     A1, #1                ; [DPU_V7M3_PIPE] |1114|  ; [ORIG 16-BIT INS]
    2748 00000034 7148              STRBNE    A1, [A2, #5]          ; [DPU_V7M3_PIPE] |1114|  ; [ORIG 16-BIT INS]
    2749                    $C$DW$217       .dwtag  DW_TAG_TI_branch
    2750                            .dwattr $C$DW$217, DW_AT_low_pc(0x00)
TI ARM Assembler PC v18.1.3 Wed Nov 28 13:22:11 2018

Tools Copyright (c) 1996-2017 Texas Instruments Incorporated
C:\Users\Adrian\AppData\Local\Temp\{B4B2FEDC-5A78-4594-BEB6-3F19656B4E06} PAGE   51

    2751                            .dwattr $C$DW$217, DW_AT_TI_return
    2752                    
    2753 00000036 BD80              POP       {V4, PC}              ; [DPU_V7M3_PIPE]  ; [ORIG 16-BIT INS]
    2754                            .dwcfi  cfa_offset, 0
    2755                            .dwcfi  restore_reg, 7
    2756                            ; BRANCH OCCURS                  ; [] 
    2757                            .dwattr $C$DW$212, DW_AT_TI_end_file("../Application/api_mac.c")
    2758                            .dwattr $C$DW$212, DW_AT_TI_end_line(0x45c)
    2759                            .dwattr $C$DW$212, DW_AT_TI_end_column(0x01)
    2760                            .dwendentry
    2761                            .dwendtag $C$DW$212
    2762                    
    2763 00000000                   .sect   ".text:processIncomingICallMsg"
    2764                            .clink
    2765                            .thumbfunc processIncomingICallMsg
    2766 00000000                   .thumb
    2767                    
    2768                    $C$DW$218       .dwtag  DW_TAG_subprogram
    2769                            .dwattr $C$DW$218, DW_AT_name("processIncomingICallMsg")
    2770                            .dwattr $C$DW$218, DW_AT_low_pc(processIncomingICallMsg)
    2771                            .dwattr $C$DW$218, DW_AT_high_pc(0x00)
    2772                            .dwattr $C$DW$218, DW_AT_TI_symbol_name("processIncomingICallMsg")
    2773                            .dwattr $C$DW$218, DW_AT_type(*$C$DW$T$115)
    2774                            .dwattr $C$DW$218, DW_AT_TI_begin_file("../Application/api_mac.c")
    2775                            .dwattr $C$DW$218, DW_AT_TI_begin_line(0x4ce)
    2776                            .dwattr $C$DW$218, DW_AT_TI_begin_column(0x11)
    2777                            .dwattr $C$DW$218, DW_AT_decl_file("../Application/api_mac.c")
    2778                            .dwattr $C$DW$218, DW_AT_decl_line(0x4ce)
    2779                            .dwattr $C$DW$218, DW_AT_decl_column(0x11)
    2780                            .dwattr $C$DW$218, DW_AT_TI_max_frame_size(0x58)
    2781                            .dwpsn  file "../Application/api_mac.c",line 1231,column 1,is_stmt,address processIncomingICal
    2782                    
    2783                            .dwfde $C$DW$CIE, processIncomingICallMsg
    2784                    $C$DW$219       .dwtag  DW_TAG_formal_parameter
    2785                            .dwattr $C$DW$219, DW_AT_name("pMsg")
    2786                            .dwattr $C$DW$219, DW_AT_TI_symbol_name("pMsg")
    2787                            .dwattr $C$DW$219, DW_AT_type(*$C$DW$T$859)
    2788                            .dwattr $C$DW$219, DW_AT_location[DW_OP_reg0]
    2789                    
    2790                    
    2791                    ;*****************************************************************************
    2792                    ;* FUNCTION NAME: processIncomingICallMsg                                    *
    2793                    ;*                                                                           *
    2794                    ;*   Regs Modified     : A1,A2,A3,A4,V1,V2,V4,V9,SP,LR,SR                    *
    2795                    ;*   Regs Used         : A1,A2,A3,A4,V1,V2,V4,V9,SP,LR,SR                    *
    2796                    ;*   Local Frame Size  : 0 Args + 68 Auto + 16 Save = 84 byte                *
    2797                    ;*****************************************************************************
    2798                    processIncomingICallMsg:
    2799                    ;* --------------------------------------------------------------------------*
    2800                    ;* A1    assigned to $O$C1
    2801                    ;* A1    assigned to $O$C2
    2802                    ;* A1    assigned to $O$C3
    2803                    ;* V4    assigned to $O$v1
    2804                    ;* V1    assigned to pMsg
    2805                    $C$DW$220       .dwtag  DW_TAG_variable
TI ARM Assembler PC v18.1.3 Wed Nov 28 13:22:11 2018

Tools Copyright (c) 1996-2017 Texas Instruments Incorporated
C:\Users\Adrian\AppData\Local\Temp\{B4B2FEDC-5A78-4594-BEB6-3F19656B4E06} PAGE   52

    2806                            .dwattr $C$DW$220, DW_AT_name("pMsg")
    2807                            .dwattr $C$DW$220, DW_AT_TI_symbol_name("pMsg")
    2808                            .dwattr $C$DW$220, DW_AT_type(*$C$DW$T$860)
    2809                            .dwattr $C$DW$220, DW_AT_location[DW_OP_reg4]
    2810                    
    2811                    ;* A2    assigned to pData
    2812                    $C$DW$221       .dwtag  DW_TAG_variable
    2813                            .dwattr $C$DW$221, DW_AT_name("pData")
    2814                            .dwattr $C$DW$221, DW_AT_TI_symbol_name("pData")
    2815                            .dwattr $C$DW$221, DW_AT_type(*$C$DW$T$802)
    2816                            .dwattr $C$DW$221, DW_AT_location[DW_OP_reg1]
    2817                    
    2818                            .dwcfi  cfa_offset, 0
    2819 00000000 B5B0              PUSH      {V1, V2, V4, LR}      ; [DPU_V7M3_PIPE]  ; [ORIG 16-BIT INS]
    2820                            .dwcfi  cfa_offset, 16
    2821                            .dwcfi  save_reg_to_mem, 14, -4
    2822                            .dwcfi  save_reg_to_mem, 7, -8
    2823                            .dwcfi  save_reg_to_mem, 5, -12
    2824                            .dwcfi  save_reg_to_mem, 4, -16
    2825 00000002 4604              MOV       V1, A1                ; [DPU_V7M3_PIPE] |1231|  ; [ORIG 16-BIT INS]
    2826                            .dwpsn  file "../Application/api_mac.c",line 1240,column 9,is_stmt,isa 1
    2827 00000004 48C6              LDR       A1, $C$CON20          ; [DPU_V7M3_PIPE] |1240|  ; [ORIG 16-BIT INS]
    2828 00000006 6807              LDR       V4, [A1, #0]          ; [DPU_V7M3_PIPE] |1240|  ; [ORIG 16-BIT INS]
    2829 00000008 0D48F1AD          SUB       SP, SP, #72           ; [DPU_V7M3_PIPE]  ; [KEEP 32-BIT INS]
    2830                            .dwcfi  cfa_offset, 88
    2831 0000000c 2F00              CMP       V4, #0                ; [DPU_V7M3_PIPE] |1240|  ; [ORIG 16-BIT INS]
    2832 0000000e AFFEF43F!         BEQ       ||$C$L36||            ; [DPU_V7M3_PIPE] |1240|  ; [KEEP 32-BIT INS]
    2833                            ; BRANCHCC OCCURS {||$C$L36||}   ; [] |1240| 
    2834                    ;* --------------------------------------------------------------------------*
    2835 00000012 7820              LDRB      A1, [V1, #0]          ; [DPU_V7M3_PIPE] |1240|  ; [ORIG 16-BIT INS]
    2836 00000014 1E40              SUBS      A1, A1, #1            ; [DPU_V7M3_PIPE] |1240|  ; [ORIG 16-BIT INS]
    2837 00000016 2811              CMP       A1, #17               ; [DPU_V7M3_PIPE] |1240|  ; [ORIG 16-BIT INS]
    2838 00000018 AFFEF63F!         BHI       ||$C$L36||            ; [DPU_V7M3_PIPE] |1240|  ; [KEEP 32-BIT INS]
    2839                            ; BRANCHCC OCCURS {||$C$L36||}   ; [] |1240| 
    2840                    ;* --------------------------------------------------------------------------*
    2841 0000001c F010E8DF          TBH       [PC, A1, LSL #1]      ; [] |1240|  ; [KEEP 32-BIT INS]
    2842                            ; BRANCH OCCURS                  ; [] |1240| 
    2843 00000020           ||$C$C437||:
    2844 00000020 0163      ||$C$SW1||:     .half   (||$C$L33||-||$C$C437||)/2      ; 1
    2845 00000022 014F              .half   (||$C$L32||-||$C$C437||)/2      ; 2
    2846 00000024 0135              .half   (||$C$L31||-||$C$C437||)/2      ; 3
    2847 00000026 0120              .half   (||$C$L30||-||$C$C437||)/2      ; 4
    2848 00000028 0119              .half   (||$C$L29||-||$C$C437||)/2      ; 5
    2849 0000002a 0103              .half   (||$C$L28||-||$C$C437||)/2      ; 6
    2850 0000002c 00F1              .half   (||$C$L24||-||$C$C437||)/2      ; 7
    2851 0000002e 00E3              .half   (||$C$L23||-||$C$C437||)/2      ; 8
    2852 00000030 00C3              .half   (||$C$L22||-||$C$C437||)/2      ; 9
    2853 00000032 00B2              .half   (||$C$L21||-||$C$C437||)/2      ; 10
    2854 00000034 008D              .half   (||$C$L20||-||$C$C437||)/2      ; 11
    2855 00000036 005D              .half   (||$C$L18||-||$C$C437||)/2      ; 12
    2856 00000038 0053              .half   (||$C$L17||-||$C$C437||)/2      ; 13
    2857 0000003a 0042              .half   (||$C$L16||-||$C$C437||)/2      ; 14
    2858 0000003c 017E              .half   (||$C$L36||-||$C$C437||)/2      ; 0
    2859 0000003e 002A              .half   (||$C$L14||-||$C$C437||)/2      ; 16
    2860 00000040 001C              .half   (||$C$L13||-||$C$C437||)/2      ; 17
TI ARM Assembler PC v18.1.3 Wed Nov 28 13:22:11 2018

Tools Copyright (c) 1996-2017 Texas Instruments Incorporated
C:\Users\Adrian\AppData\Local\Temp\{B4B2FEDC-5A78-4594-BEB6-3F19656B4E06} PAGE   53

    2861 00000042 0012              .half   (||$C$L12||-||$C$C437||)/2      ; 18
    2862                            .align  2
    2863                    ;* --------------------------------------------------------------------------*
    2864 00000044           ||$C$L12||:    
    2865                            .dwpsn  file "../Application/api_mac.c",line 1552,column 17,is_stmt,isa 1
    2866 00000044 6BF8              LDR       A1, [V4, #60]         ; [DPU_V7M3_PIPE] |1552|  ; [ORIG 16-BIT INS]
    2867 00000046 2800              CMP       A1, #0                ; [DPU_V7M3_PIPE] |1552|  ; [ORIG 16-BIT INS]
    2868 00000048 AFFEF43F!         BEQ       ||$C$L36||            ; [DPU_V7M3_PIPE] |1552|  ; [KEEP 32-BIT INS]
    2869                            ; BRANCHCC OCCURS {||$C$L36||}   ; [] |1552| 
    2870                    ;* --------------------------------------------------------------------------*
    2871                            .dwpsn  file "../Application/api_mac.c",line 1558,column 21,is_stmt,isa 1
    2872 0000004c 4668              MOV       A1, SP                ; [DPU_V7M3_PIPE] |1558|  ; [ORIG 16-BIT INS]
    2873 0000004e 4621              MOV       A2, V1                ; [DPU_V7M3_PIPE] |1558|  ; [ORIG 16-BIT INS]
    2874                    $C$DW$222       .dwtag  DW_TAG_TI_branch
    2875                            .dwattr $C$DW$222, DW_AT_low_pc(0x00)
    2876                            .dwattr $C$DW$222, DW_AT_name("copyDataInd")
    2877                            .dwattr $C$DW$222, DW_AT_TI_call
    2878                    
    2879 00000050 FFFEF7FF!         BL        copyDataInd           ; [DPU_V7M3_PIPE] |1558|  ; [KEEP 32-BIT INS]
    2880                            ; CALL OCCURS {copyDataInd }     ; [] |1558| 
    2881                            .dwpsn  file "../Application/api_mac.c",line 1562,column 21,is_stmt,isa 1
    2882 00000054 6BF9              LDR       A2, [V4, #60]         ; [DPU_V7M3_PIPE] |1562|  ; [ORIG 16-BIT INS]
    2883 00000056 E15F              B         ||$C$L34||            ; [DPU_V7M3_PIPE] |1562|  ; [ORIG 16-BIT INS]
    2884                            ; BRANCH OCCURS {||$C$L34||}     ; [] |1562| 
    2885                    ;* --------------------------------------------------------------------------*
    2886 00000058           ||$C$L13||:    
    2887                            .dwpsn  file "../Application/api_mac.c",line 1567,column 17,is_stmt,isa 1
    2888 00000058 6C38              LDR       A1, [V4, #64]         ; [DPU_V7M3_PIPE] |1567|  ; [ORIG 16-BIT INS]
    2889 0000005a 2800              CMP       A1, #0                ; [DPU_V7M3_PIPE] |1567|  ; [ORIG 16-BIT INS]
    2890 0000005c AFFEF43F!         BEQ       ||$C$L36||            ; [DPU_V7M3_PIPE] |1567|  ; [KEEP 32-BIT INS]
    2891                            ; BRANCHCC OCCURS {||$C$L36||}   ; [] |1567| 
    2892                    ;* --------------------------------------------------------------------------*
    2893                            .dwpsn  file "../Application/api_mac.c",line 1573,column 21,is_stmt,isa 1
    2894 00000060 4668              MOV       A1, SP                ; [DPU_V7M3_PIPE] |1573|  ; [ORIG 16-BIT INS]
    2895 00000062 2100              MOVS      A2, #0                ; [DPU_V7M3_PIPE] |1573|  ; [ORIG 16-BIT INS]
    2896 00000064 2201              MOVS      A3, #1                ; [DPU_V7M3_PIPE] |1573|  ; [ORIG 16-BIT INS]
    2897                    $C$DW$223       .dwtag  DW_TAG_TI_branch
    2898                            .dwattr $C$DW$223, DW_AT_low_pc(0x00)
    2899                            .dwattr $C$DW$223, DW_AT_name("memset")
    2900                            .dwattr $C$DW$223, DW_AT_TI_call
    2901                    
    2902 00000066 FFFEF7FF!         BL        memset                ; [DPU_V7M3_PIPE] |1573|  ; [KEEP 32-BIT INS]
    2903                            ; CALL OCCURS {memset }          ; [] |1573| 
    2904                            .dwpsn  file "../Application/api_mac.c",line 1576,column 21,is_stmt,isa 1
    2905 0000006a 7860              LDRB      A1, [V1, #1]          ; [DPU_V7M3_PIPE] |1576|  ; [ORIG 16-BIT INS]
    2906 0000006c 0000F88D          STRB      A1, [SP, #0]          ; [DPU_V7M3_PIPE] |1576|  ; [KEEP 32-BIT INS]
    2907                            .dwpsn  file "../Application/api_mac.c",line 1579,column 21,is_stmt,isa 1
    2908 00000070 6C39              LDR       A2, [V4, #64]         ; [DPU_V7M3_PIPE] |1579|  ; [ORIG 16-BIT INS]
    2909 00000072 E151              B         ||$C$L34||            ; [DPU_V7M3_PIPE] |1579|  ; [ORIG 16-BIT INS]
    2910                            ; BRANCH OCCURS {||$C$L34||}     ; [] |1579| 
    2911                    ;* --------------------------------------------------------------------------*
    2912 00000074           ||$C$L14||:    
    2913                            .dwpsn  file "../Application/api_mac.c",line 1443,column 17,is_stmt,isa 1
    2914 00000074 6AF8              LDR       A1, [V4, #44]         ; [DPU_V7M3_PIPE] |1443|  ; [ORIG 16-BIT INS]
    2915 00000076 2800              CMP       A1, #0                ; [DPU_V7M3_PIPE] |1443|  ; [ORIG 16-BIT INS]
TI ARM Assembler PC v18.1.3 Wed Nov 28 13:22:11 2018

Tools Copyright (c) 1996-2017 Texas Instruments Incorporated
C:\Users\Adrian\AppData\Local\Temp\{B4B2FEDC-5A78-4594-BEB6-3F19656B4E06} PAGE   54

    2916 00000078 AFFEF43F!         BEQ       ||$C$L36||            ; [DPU_V7M3_PIPE] |1443|  ; [KEEP 32-BIT INS]
    2917                            ; BRANCHCC OCCURS {||$C$L36||}   ; [] |1443| 
    2918                    ;* --------------------------------------------------------------------------*
    2919                            .dwpsn  file "../Application/api_mac.c",line 1449,column 21,is_stmt,isa 1
    2920 0000007c 4668              MOV       A1, SP                ; [DPU_V7M3_PIPE] |1449|  ; [ORIG 16-BIT INS]
    2921 0000007e 2100              MOVS      A2, #0                ; [DPU_V7M3_PIPE] |1449|  ; [ORIG 16-BIT INS]
    2922 00000080 220E              MOVS      A3, #14               ; [DPU_V7M3_PIPE] |1449|  ; [ORIG 16-BIT INS]
    2923                    $C$DW$224       .dwtag  DW_TAG_TI_branch
    2924                            .dwattr $C$DW$224, DW_AT_low_pc(0x00)
    2925                            .dwattr $C$DW$224, DW_AT_name("memset")
    2926                            .dwattr $C$DW$224, DW_AT_TI_call
    2927                    
    2928 00000082 FFFEF7FF!         BL        memset                ; [DPU_V7M3_PIPE] |1449|  ; [KEEP 32-BIT INS]
    2929                            ; CALL OCCURS {memset }          ; [] |1449| 
    2930                            .dwpsn  file "../Application/api_mac.c",line 1452,column 21,is_stmt,isa 1
    2931 00000086 1CA1              ADDS      A2, V1, #2            ; [DPU_V7M3_PIPE] |1452|  ; [ORIG 16-BIT INS]
    2932 00000088 4668              MOV       A1, SP                ; [DPU_V7M3_PIPE] |1452|  ; [ORIG 16-BIT INS]
    2933                    $C$DW$225       .dwtag  DW_TAG_TI_branch
    2934                            .dwattr $C$DW$225, DW_AT_low_pc(0x00)
    2935                            .dwattr $C$DW$225, DW_AT_name("copyMacAddrToApiMacAddr")
    2936                            .dwattr $C$DW$225, DW_AT_TI_call
    2937                    
    2938 0000008a FFFEF7FF!         BL        copyMacAddrToApiMacAddr ; [DPU_V7M3_PIPE] |1452|  ; [KEEP 32-BIT INS]
    2939                            ; CALL OCCURS {copyMacAddrToApiMacAddr }  ; [] |1452| 
    2940                            .dwpsn  file "../Application/api_mac.c",line 1455,column 21,is_stmt,isa 1
    2941 0000008e 7BA5              LDRB      V2, [V1, #14]         ; [DPU_V7M3_PIPE] |1455|  ; [ORIG 16-BIT INS]
    2942                            .dwpsn  file "../Application/api_mac.c",line 1454,column 21,is_stmt,isa 1
    2943 00000090 89A1              LDRH      A2, [V1, #12]         ; [DPU_V7M3_PIPE] |1454|  ; [ORIG 16-BIT INS]
    2944                            .dwpsn  file "../Application/api_mac.c",line 1455,column 21,is_stmt,isa 1
    2945 00000092 2200              MOVS      A3, #0                ; [DPU_V7M3_PIPE] |1455|  ; [ORIG 16-BIT INS]
    2946                            .dwpsn  file "../Application/api_mac.c",line 1454,column 21,is_stmt,isa 1
    2947 00000094 100AF8AD          STRH      A2, [SP, #10]         ; [DPU_V7M3_PIPE] |1454|  ; [KEEP 32-BIT INS]
    2948 00000098 B105              CBZ       V2, ||$C$L15||        ; []  ; [ORIG 16-BIT INS]
    2949                            .dwpsn  file "../Application/api_mac.c",line 1455,column 21,is_stmt,isa 1
    2950 0000009a 2201              MOVS      A3, #1                ; [DPU_V7M3_PIPE] |1455|  ; [ORIG 16-BIT INS]
    2951                    ;* --------------------------------------------------------------------------*
    2952 0000009c           ||$C$L15||:    
    2953 0000009c 200CF88D          STRB      A3, [SP, #12]         ; [DPU_V7M3_PIPE] |1455|  ; [KEEP 32-BIT INS]
    2954                            .dwpsn  file "../Application/api_mac.c",line 1458,column 21,is_stmt,isa 1
    2955 000000a0 6AF9              LDR       A2, [V4, #44]         ; [DPU_V7M3_PIPE] |1458|  ; [ORIG 16-BIT INS]
    2956 000000a2 E13A              B         ||$C$L35||            ; [DPU_V7M3_PIPE] |1458|  ; [ORIG 16-BIT INS]
    2957                            ; BRANCH OCCURS {||$C$L35||}     ; [] |1458| 
    2958                    ;* --------------------------------------------------------------------------*
    2959 000000a4           ||$C$L16||:    
    2960                            .dwpsn  file "../Application/api_mac.c",line 1534,column 17,is_stmt,isa 1
    2961 000000a4 6BB8              LDR       A1, [V4, #56]         ; [DPU_V7M3_PIPE] |1534|  ; [ORIG 16-BIT INS]
    2962 000000a6 2800              CMP       A1, #0                ; [DPU_V7M3_PIPE] |1534|  ; [ORIG 16-BIT INS]
    2963 000000a8 AFFEF43F!         BEQ       ||$C$L36||            ; [DPU_V7M3_PIPE] |1534|  ; [KEEP 32-BIT INS]
    2964                            ; BRANCHCC OCCURS {||$C$L36||}   ; [] |1534| 
    2965                    ;* --------------------------------------------------------------------------*
    2966                            .dwpsn  file "../Application/api_mac.c",line 1540,column 21,is_stmt,isa 1
    2967 000000ac 4668              MOV       A1, SP                ; [DPU_V7M3_PIPE] |1540|  ; [ORIG 16-BIT INS]
    2968 000000ae 2100              MOVS      A2, #0                ; [DPU_V7M3_PIPE] |1540|  ; [ORIG 16-BIT INS]
    2969 000000b0 2202              MOVS      A3, #2                ; [DPU_V7M3_PIPE] |1540|  ; [ORIG 16-BIT INS]
    2970                    $C$DW$226       .dwtag  DW_TAG_TI_branch
TI ARM Assembler PC v18.1.3 Wed Nov 28 13:22:11 2018

Tools Copyright (c) 1996-2017 Texas Instruments Incorporated
C:\Users\Adrian\AppData\Local\Temp\{B4B2FEDC-5A78-4594-BEB6-3F19656B4E06} PAGE   55

    2971                            .dwattr $C$DW$226, DW_AT_low_pc(0x00)
    2972                            .dwattr $C$DW$226, DW_AT_name("memset")
