TI ARM Assembler PC v18.1.3 Wed Nov 28 13:22:05 2018

Tools Copyright (c) 1996-2017 Texas Instruments Incorporated
C:\Users\Adrian\AppData\Local\Temp\{BD3F71B0-1117-47C0-BC43-1785123CD23C} PAGE    1

       1                    ;******************************************************************************
       2                    ;* TI ARM C/C++ Codegen                                        PC v18.1.3.LTS *
       3                    ;* Date/Time created: Wed Nov 28 13:22:05 2018                                *
       4                    ;******************************************************************************
       5                            .compiler_opts --abi=eabi --arm_vmrs_si_workaround=off --code_state=16 --diag_wrap=off --embed
       6 00000000                   .thumb
       7                    
       8                    $C$DW$CU        .dwtag  DW_TAG_compile_unit
       9                            .dwattr $C$DW$CU, DW_AT_name("../Application/MAC/HAL/target/hal_flash_wrapper.c")
      10                            .dwattr $C$DW$CU, DW_AT_producer("TI TI ARM C/C++ Codegen PC v18.1.3.LTS Copyright (c) 1996-20
      11                            .dwattr $C$DW$CU, DW_AT_TI_version(0x01)
      12                            .dwattr $C$DW$CU, DW_AT_comp_dir("C:\Users\Adrian\workspace_v8\collector_cc1350lp\collector_cc
      13                    $C$DW$1 .dwtag  DW_TAG_variable
      14                            .dwattr $C$DW$1, DW_AT_name("ICall_enterCriticalSection")
      15                            .dwattr $C$DW$1, DW_AT_TI_symbol_name("ICall_enterCriticalSection")
      16                            .dwattr $C$DW$1, DW_AT_type(*$C$DW$T$143)
      17                            .dwattr $C$DW$1, DW_AT_declaration
      18                            .dwattr $C$DW$1, DW_AT_external
      19                            .dwattr $C$DW$1, DW_AT_decl_file("C:/ti/simplelink_cc13x0_sdk_2_30_00_20/source/ti/ti154stack/
      20                            .dwattr $C$DW$1, DW_AT_decl_line(0x384)
      21                            .dwattr $C$DW$1, DW_AT_decl_column(0x16)
      22                    
      23                    $C$DW$2 .dwtag  DW_TAG_variable
      24                            .dwattr $C$DW$2, DW_AT_name("ICall_leaveCriticalSection")
      25                            .dwattr $C$DW$2, DW_AT_TI_symbol_name("ICall_leaveCriticalSection")
      26                            .dwattr $C$DW$2, DW_AT_type(*$C$DW$T$146)
      27                            .dwattr $C$DW$2, DW_AT_declaration
      28                            .dwattr $C$DW$2, DW_AT_external
      29                            .dwattr $C$DW$2, DW_AT_decl_file("C:/ti/simplelink_cc13x0_sdk_2_30_00_20/source/ti/ti154stack/
      30                            .dwattr $C$DW$2, DW_AT_decl_line(0x387)
      31                            .dwattr $C$DW$2, DW_AT_decl_column(0x16)
      32                    
      33                    
      34                    $C$DW$3 .dwtag  DW_TAG_subprogram
      35                            .dwattr $C$DW$3, DW_AT_name("NOROM_FlashProgram")
      36                            .dwattr $C$DW$3, DW_AT_TI_symbol_name("NOROM_FlashProgram")
      37                            .dwattr $C$DW$3, DW_AT_type(*$C$DW$T$23)
      38                            .dwattr $C$DW$3, DW_AT_declaration
      39                            .dwattr $C$DW$3, DW_AT_external
      40                            .dwattr $C$DW$3, DW_AT_decl_file("C:/ti/simplelink_cc13x0_sdk_2_30_00_20/source/ti/devices/cc1
      41                            .dwattr $C$DW$3, DW_AT_decl_line(0x2ca)
      42                            .dwattr $C$DW$3, DW_AT_decl_column(0x11)
      43                    $C$DW$4 .dwtag  DW_TAG_formal_parameter
      44                            .dwattr $C$DW$4, DW_AT_type(*$C$DW$T$26)
      45                    
      46                    $C$DW$5 .dwtag  DW_TAG_formal_parameter
      47                            .dwattr $C$DW$5, DW_AT_type(*$C$DW$T$23)
      48                    
      49                    $C$DW$6 .dwtag  DW_TAG_formal_parameter
      50                            .dwattr $C$DW$6, DW_AT_type(*$C$DW$T$23)
      51                    
      52                            .dwendtag $C$DW$3
      53                    
      54                    
      55                    $C$DW$7 .dwtag  DW_TAG_subprogram
TI ARM Assembler PC v18.1.3 Wed Nov 28 13:22:05 2018

Tools Copyright (c) 1996-2017 Texas Instruments Incorporated
C:\Users\Adrian\AppData\Local\Temp\{BD3F71B0-1117-47C0-BC43-1785123CD23C} PAGE    2

      56                            .dwattr $C$DW$7, DW_AT_name("NOROM_FlashSectorErase")
      57                            .dwattr $C$DW$7, DW_AT_TI_symbol_name("NOROM_FlashSectorErase")
      58                            .dwattr $C$DW$7, DW_AT_type(*$C$DW$T$23)
      59                            .dwattr $C$DW$7, DW_AT_declaration
      60                            .dwattr $C$DW$7, DW_AT_external
      61                            .dwattr $C$DW$7, DW_AT_decl_file("C:/ti/simplelink_cc13x0_sdk_2_30_00_20/source/ti/devices/cc1
      62                            .dwattr $C$DW$7, DW_AT_decl_line(0x2a0)
      63                            .dwattr $C$DW$7, DW_AT_decl_column(0x11)
      64                    $C$DW$8 .dwtag  DW_TAG_formal_parameter
      65                            .dwattr $C$DW$8, DW_AT_type(*$C$DW$T$23)
      66                    
      67                            .dwendtag $C$DW$7
      68                    
      69                    ;       C:\ti\ccsv8\tools\compiler\ti-cgt-arm_18.1.3.LTS\bin\armopt.exe C:/Users/Adrian/workspace_v8/c
      70 00000000                   .sect   ".text:HalFlashWrite"
      71                            .clink
      72                            .thumbfunc HalFlashWrite
      73 00000000                   .thumb
      74                            .global HalFlashWrite
      75                    
      76                    $C$DW$9 .dwtag  DW_TAG_subprogram
      77                            .dwattr $C$DW$9, DW_AT_name("HalFlashWrite")
      78                            .dwattr $C$DW$9, DW_AT_low_pc(HalFlashWrite)
      79                            .dwattr $C$DW$9, DW_AT_high_pc(0x00)
      80                            .dwattr $C$DW$9, DW_AT_TI_symbol_name("HalFlashWrite")
      81                            .dwattr $C$DW$9, DW_AT_external
      82                            .dwattr $C$DW$9, DW_AT_TI_begin_file("../Application/MAC/HAL/target/hal_flash_wrapper.c")
      83                            .dwattr $C$DW$9, DW_AT_TI_begin_line(0x73)
      84                            .dwattr $C$DW$9, DW_AT_TI_begin_column(0x06)
      85                            .dwattr $C$DW$9, DW_AT_decl_file("../Application/MAC/HAL/target/hal_flash_wrapper.c")
      86                            .dwattr $C$DW$9, DW_AT_decl_line(0x73)
      87                            .dwattr $C$DW$9, DW_AT_decl_column(0x06)
      88                            .dwattr $C$DW$9, DW_AT_TI_max_frame_size(0x00)
      89                            .dwpsn  file "../Application/MAC/HAL/target/hal_flash_wrapper.c",line 116,column 1,is_stmt,add
      90                    
      91                            .dwfde $C$DW$CIE, HalFlashWrite
      92                    $C$DW$10        .dwtag  DW_TAG_formal_parameter
      93                            .dwattr $C$DW$10, DW_AT_name("addr")
      94                            .dwattr $C$DW$10, DW_AT_TI_symbol_name("addr")
      95                            .dwattr $C$DW$10, DW_AT_type(*$C$DW$T$187)
      96                            .dwattr $C$DW$10, DW_AT_location[DW_OP_reg0]
      97                    
      98                    $C$DW$11        .dwtag  DW_TAG_formal_parameter
      99                            .dwattr $C$DW$11, DW_AT_name("buf")
     100                            .dwattr $C$DW$11, DW_AT_TI_symbol_name("buf")
     101                            .dwattr $C$DW$11, DW_AT_type(*$C$DW$T$185)
     102                            .dwattr $C$DW$11, DW_AT_location[DW_OP_reg1]
     103                    
     104                    $C$DW$12        .dwtag  DW_TAG_formal_parameter
     105                            .dwattr $C$DW$12, DW_AT_name("cnt")
     106                            .dwattr $C$DW$12, DW_AT_TI_symbol_name("cnt")
     107                            .dwattr $C$DW$12, DW_AT_type(*$C$DW$T$10)
     108                            .dwattr $C$DW$12, DW_AT_location[DW_OP_reg2]
     109                    
     110                    
TI ARM Assembler PC v18.1.3 Wed Nov 28 13:22:05 2018

Tools Copyright (c) 1996-2017 Texas Instruments Incorporated
C:\Users\Adrian\AppData\Local\Temp\{BD3F71B0-1117-47C0-BC43-1785123CD23C} PAGE    3

     111                    ;*****************************************************************************
     112                    ;* FUNCTION NAME: HalFlashWrite                                              *
     113                    ;*                                                                           *
     114                    ;*   Regs Modified     : A1,A2,A3,A4,V9,LR,SR                                *
     115                    ;*   Regs Used         : A1,A2,A3,A4,V9,SP,LR,SR                             *
     116                    ;*   Local Frame Size  : 0 Args + 0 Auto + 0 Save = 0 byte                   *
     117                    ;*****************************************************************************
     118                    HalFlashWrite:
     119                    ;* --------------------------------------------------------------------------*
     120                    ;* A1    assigned to buf
     121                    $C$DW$13        .dwtag  DW_TAG_variable
     122                            .dwattr $C$DW$13, DW_AT_name("buf")
     123                            .dwattr $C$DW$13, DW_AT_TI_symbol_name("buf")
     124                            .dwattr $C$DW$13, DW_AT_type(*$C$DW$T$213)
     125                            .dwattr $C$DW$13, DW_AT_location[DW_OP_reg0]
     126                    
     127                            .dwcfi  cfa_offset, 0
     128 00000000 460B              MOV       A4, A2                ; [DPU_V7M3_PIPE] |116|  ; [ORIG 16-BIT INS]
     129 00000002 4601              MOV       A2, A1                ; [DPU_V7M3_PIPE] |116|  ; [ORIG 16-BIT INS]
     130 00000004 4618              MOV       A1, A4                ; [DPU_V7M3_PIPE] |116|  ; [ORIG 16-BIT INS]
     131                            .dwpsn  file "../Application/MAC/HAL/target/hal_flash_wrapper.c",line 117,column 3,is_stmt,isa
     132                    $C$DW$14        .dwtag  DW_TAG_TI_branch
     133                            .dwattr $C$DW$14, DW_AT_low_pc(0x00)
     134                            .dwattr $C$DW$14, DW_AT_name("NOROM_FlashProgram")
     135                            .dwattr $C$DW$14, DW_AT_TI_call
     136                            .dwattr $C$DW$14, DW_AT_TI_return
     137                    
     138 00000006 BFFEF7FF!         CRET      NOROM_FlashProgram    ; [DPU_V7M3_PIPE] |117|  ; [KEEP 32-BIT INS]
     139                            ; CALL OCCURS {NOROM_FlashProgram }  ; [] |117| 
     140                            .dwattr $C$DW$9, DW_AT_TI_end_file("../Application/MAC/HAL/target/hal_flash_wrapper.c")
     141                            .dwattr $C$DW$9, DW_AT_TI_end_line(0x76)
     142                            .dwattr $C$DW$9, DW_AT_TI_end_column(0x01)
     143                            .dwendentry
     144                            .dwendtag $C$DW$9
     145                    
     146 00000000                   .sect   ".text:HalFlashGetAddress"
     147                            .clink
     148                            .thumbfunc HalFlashGetAddress
     149 00000000                   .thumb
     150                            .global HalFlashGetAddress
     151                    
     152                    $C$DW$15        .dwtag  DW_TAG_subprogram
     153                            .dwattr $C$DW$15, DW_AT_name("HalFlashGetAddress")
     154                            .dwattr $C$DW$15, DW_AT_low_pc(HalFlashGetAddress)
     155                            .dwattr $C$DW$15, DW_AT_high_pc(0x00)
     156                            .dwattr $C$DW$15, DW_AT_TI_symbol_name("HalFlashGetAddress")
     157                            .dwattr $C$DW$15, DW_AT_external
     158                            .dwattr $C$DW$15, DW_AT_type(*$C$DW$T$185)
     159                            .dwattr $C$DW$15, DW_AT_TI_begin_file("../Application/MAC/HAL/target/hal_flash_wrapper.c")
     160                            .dwattr $C$DW$15, DW_AT_TI_begin_line(0x9f)
     161                            .dwattr $C$DW$15, DW_AT_TI_begin_column(0x08)
     162                            .dwattr $C$DW$15, DW_AT_decl_file("../Application/MAC/HAL/target/hal_flash_wrapper.c")
     163                            .dwattr $C$DW$15, DW_AT_decl_line(0x9f)
     164                            .dwattr $C$DW$15, DW_AT_decl_column(0x08)
     165                            .dwattr $C$DW$15, DW_AT_TI_max_frame_size(0x00)
TI ARM Assembler PC v18.1.3 Wed Nov 28 13:22:05 2018

Tools Copyright (c) 1996-2017 Texas Instruments Incorporated
C:\Users\Adrian\AppData\Local\Temp\{BD3F71B0-1117-47C0-BC43-1785123CD23C} PAGE    4

     166                            .dwpsn  file "../Application/MAC/HAL/target/hal_flash_wrapper.c",line 160,column 1,is_stmt,add
     167                    
     168                            .dwfde $C$DW$CIE, HalFlashGetAddress
     169                    $C$DW$16        .dwtag  DW_TAG_formal_parameter
     170                            .dwattr $C$DW$16, DW_AT_name("pg")
     171                            .dwattr $C$DW$16, DW_AT_TI_symbol_name("pg")
     172                            .dwattr $C$DW$16, DW_AT_type(*$C$DW$T$10)
     173                            .dwattr $C$DW$16, DW_AT_location[DW_OP_reg0]
     174                    
     175                    $C$DW$17        .dwtag  DW_TAG_formal_parameter
     176                            .dwattr $C$DW$17, DW_AT_name("offset")
     177                            .dwattr $C$DW$17, DW_AT_TI_symbol_name("offset")
     178                            .dwattr $C$DW$17, DW_AT_type(*$C$DW$T$10)
     179                            .dwattr $C$DW$17, DW_AT_location[DW_OP_reg1]
     180                    
     181                    
     182                    ;*****************************************************************************
     183                    ;* FUNCTION NAME: HalFlashGetAddress                                         *
     184                    ;*                                                                           *
     185                    ;*   Regs Modified     : A1,A2,A3,A4,SR                                      *
     186                    ;*   Regs Used         : A1,A2,A3,A4,LR,SR                                   *
     187                    ;*   Local Frame Size  : 0 Args + 0 Auto + 0 Save = 0 byte                   *
     188                    ;*****************************************************************************
     189                    HalFlashGetAddress:
     190                    ;* --------------------------------------------------------------------------*
     191                    ;* A2    assigned to pg
     192                    $C$DW$18        .dwtag  DW_TAG_variable
     193                            .dwattr $C$DW$18, DW_AT_name("pg")
     194                            .dwattr $C$DW$18, DW_AT_TI_symbol_name("pg")
     195                            .dwattr $C$DW$18, DW_AT_type(*$C$DW$T$214)
     196                            .dwattr $C$DW$18, DW_AT_location[DW_OP_reg1]
     197                    
     198                    ;* A1    assigned to offset
     199                    $C$DW$19        .dwtag  DW_TAG_variable
     200                            .dwattr $C$DW$19, DW_AT_name("offset")
     201                            .dwattr $C$DW$19, DW_AT_TI_symbol_name("offset")
     202                            .dwattr $C$DW$19, DW_AT_type(*$C$DW$T$224)
     203                            .dwattr $C$DW$19, DW_AT_location[DW_OP_reg0]
     204                    
     205                            .dwcfi  cfa_offset, 0
     206 00000000 4602              MOV       A3, A1                ; [DPU_V7M3_PIPE] |160|  ; [ORIG 16-BIT INS]
     207 00000002 4608              MOV       A1, A2                ; [DPU_V7M3_PIPE] |160|  ; [ORIG 16-BIT INS]
     208                            .dwpsn  file "../Application/MAC/HAL/target/hal_flash_wrapper.c",line 165,column 3,is_stmt,isa
     209 00000004 231D              MOVS      A4, #29               ; [DPU_V7M3_PIPE] |165|  ; [ORIG 16-BIT INS]
     210                            .dwpsn  file "../Application/MAC/HAL/target/hal_flash_wrapper.c",line 160,column 1,is_stmt,isa
     211 00000006 4611              MOV       A2, A3                ; [DPU_V7M3_PIPE] |160|  ; [ORIG 16-BIT INS]
     212                            .dwpsn  file "../Application/MAC/HAL/target/hal_flash_wrapper.c",line 165,column 3,is_stmt,isa
     213 00000008 F2F3FB91          SDIV      A3, A2, A4            ; [DPU_V7M3_PIPE] |165|  ; [KEEP 32-BIT INS]
     214 0000000c 435A              MULS      A3, A3, A4            ; [DPU_V7M3_PIPE] |165|  ; [ORIG 16-BIT INS]
     215 0000000e 1A89              SUBS      A2, A2, A3            ; [DPU_V7M3_PIPE] |165|  ; [ORIG 16-BIT INS]
     216 00000010 3001EB00          ADD       A1, A1, A2, LSL #12   ; [DPU_V7M3_PIPE] |165|  ; [KEEP 32-BIT INS]
     217 00000014 30E8F500          ADD       A1, A1, #118784       ; [DPU_V7M3_PIPE] |165|  ; [KEEP 32-BIT INS]
     218                    $C$DW$20        .dwtag  DW_TAG_TI_branch
     219                            .dwattr $C$DW$20, DW_AT_low_pc(0x00)
     220                            .dwattr $C$DW$20, DW_AT_TI_return
TI ARM Assembler PC v18.1.3 Wed Nov 28 13:22:05 2018

Tools Copyright (c) 1996-2017 Texas Instruments Incorporated
C:\Users\Adrian\AppData\Local\Temp\{BD3F71B0-1117-47C0-BC43-1785123CD23C} PAGE    5

     221                    
     222 00000018 4770              BX        LR                    ; [DPU_V7M3_PIPE]  ; [ORIG 16-BIT INS]
     223                            ; BRANCH OCCURS                  ; [] 
     224                            .dwattr $C$DW$15, DW_AT_TI_end_file("../Application/MAC/HAL/target/hal_flash_wrapper.c")
     225                            .dwattr $C$DW$15, DW_AT_TI_end_line(0xae)
     226                            .dwattr $C$DW$15, DW_AT_TI_end_column(0x01)
     227                            .dwendentry
     228                            .dwendtag $C$DW$15
     229                    
     230 00000000                   .sect   ".text:HalFlashRead"
     231                            .clink
     232                            .thumbfunc HalFlashRead
     233 00000000                   .thumb
     234                            .global HalFlashRead
     235                    
     236                    $C$DW$21        .dwtag  DW_TAG_subprogram
     237                            .dwattr $C$DW$21, DW_AT_name("HalFlashRead")
     238                            .dwattr $C$DW$21, DW_AT_low_pc(HalFlashRead)
     239                            .dwattr $C$DW$21, DW_AT_high_pc(0x00)
     240                            .dwattr $C$DW$21, DW_AT_TI_symbol_name("HalFlashRead")
     241                            .dwattr $C$DW$21, DW_AT_external
     242                            .dwattr $C$DW$21, DW_AT_TI_begin_file("../Application/MAC/HAL/target/hal_flash_wrapper.c")
     243                            .dwattr $C$DW$21, DW_AT_TI_begin_line(0x4d)
     244                            .dwattr $C$DW$21, DW_AT_TI_begin_column(0x06)
     245                            .dwattr $C$DW$21, DW_AT_decl_file("../Application/MAC/HAL/target/hal_flash_wrapper.c")
     246                            .dwattr $C$DW$21, DW_AT_decl_line(0x4d)
     247                            .dwattr $C$DW$21, DW_AT_decl_column(0x06)
     248                            .dwattr $C$DW$21, DW_AT_TI_max_frame_size(0x10)
     249                            .dwpsn  file "../Application/MAC/HAL/target/hal_flash_wrapper.c",line 78,column 1,is_stmt,addr
     250                    
     251                            .dwfde $C$DW$CIE, HalFlashRead
     252                    $C$DW$22        .dwtag  DW_TAG_formal_parameter
     253                            .dwattr $C$DW$22, DW_AT_name("pg")
     254                            .dwattr $C$DW$22, DW_AT_TI_symbol_name("pg")
     255                            .dwattr $C$DW$22, DW_AT_type(*$C$DW$T$10)
     256                            .dwattr $C$DW$22, DW_AT_location[DW_OP_reg0]
     257                    
     258                    $C$DW$23        .dwtag  DW_TAG_formal_parameter
     259                            .dwattr $C$DW$23, DW_AT_name("offset")
     260                            .dwattr $C$DW$23, DW_AT_TI_symbol_name("offset")
     261                            .dwattr $C$DW$23, DW_AT_type(*$C$DW$T$10)
     262                            .dwattr $C$DW$23, DW_AT_location[DW_OP_reg1]
     263                    
     264                    $C$DW$24        .dwtag  DW_TAG_formal_parameter
     265                            .dwattr $C$DW$24, DW_AT_name("buf")
     266                            .dwattr $C$DW$24, DW_AT_TI_symbol_name("buf")
     267                            .dwattr $C$DW$24, DW_AT_type(*$C$DW$T$185)
     268                            .dwattr $C$DW$24, DW_AT_location[DW_OP_reg2]
     269                    
     270                    $C$DW$25        .dwtag  DW_TAG_formal_parameter
     271                            .dwattr $C$DW$25, DW_AT_name("cnt")
     272                            .dwattr $C$DW$25, DW_AT_TI_symbol_name("cnt")
     273                            .dwattr $C$DW$25, DW_AT_type(*$C$DW$T$10)
     274                            .dwattr $C$DW$25, DW_AT_location[DW_OP_reg3]
     275                    
TI ARM Assembler PC v18.1.3 Wed Nov 28 13:22:05 2018

Tools Copyright (c) 1996-2017 Texas Instruments Incorporated
C:\Users\Adrian\AppData\Local\Temp\{BD3F71B0-1117-47C0-BC43-1785123CD23C} PAGE    6

     276                    
     277                    ;*****************************************************************************
     278                    ;* FUNCTION NAME: HalFlashRead                                               *
     279                    ;*                                                                           *
     280                    ;*   Regs Modified     : A1,A2,A3,A4,V1,V2,V3,V9,SP,LR,SR                    *
     281                    ;*   Regs Used         : A1,A2,A3,A4,V1,V2,V3,V9,SP,LR,SR                    *
     282                    ;*   Local Frame Size  : 0 Args + 0 Auto + 16 Save = 16 byte                 *
     283                    ;*****************************************************************************
     284                    HalFlashRead:
     285                    ;* --------------------------------------------------------------------------*
     286                    ;* V1    assigned to buf
     287                    $C$DW$26        .dwtag  DW_TAG_variable
     288                            .dwattr $C$DW$26, DW_AT_name("buf")
     289                            .dwattr $C$DW$26, DW_AT_TI_symbol_name("buf")
     290                            .dwattr $C$DW$26, DW_AT_type(*$C$DW$T$185)
     291                            .dwattr $C$DW$26, DW_AT_location[DW_OP_reg4]
     292                    
     293                    ;* V3    assigned to cnt
     294                    $C$DW$27        .dwtag  DW_TAG_variable
     295                            .dwattr $C$DW$27, DW_AT_name("cnt")
     296                            .dwattr $C$DW$27, DW_AT_TI_symbol_name("cnt")
     297                            .dwattr $C$DW$27, DW_AT_type(*$C$DW$T$184)
     298                            .dwattr $C$DW$27, DW_AT_location[DW_OP_reg6]
     299                    
     300                    ;* V2    assigned to ptr
     301                    $C$DW$28        .dwtag  DW_TAG_variable
     302                            .dwattr $C$DW$28, DW_AT_name("ptr")
     303                            .dwattr $C$DW$28, DW_AT_TI_symbol_name("ptr")
     304                            .dwattr $C$DW$28, DW_AT_type(*$C$DW$T$185)
     305                            .dwattr $C$DW$28, DW_AT_location[DW_OP_reg5]
     306                    
     307                            .dwcfi  cfa_offset, 0
     308 00000000 B570              PUSH      {V1, V2, V3, LR}      ; [DPU_V7M3_PIPE]  ; [ORIG 16-BIT INS]
     309                            .dwcfi  cfa_offset, 16
     310                            .dwcfi  save_reg_to_mem, 14, -4
     311                            .dwcfi  save_reg_to_mem, 6, -8
     312                            .dwcfi  save_reg_to_mem, 5, -12
     313                            .dwcfi  save_reg_to_mem, 4, -16
     314 00000002 461E              MOV       V3, A4                ; [DPU_V7M3_PIPE] |78|  ; [ORIG 16-BIT INS]
     315 00000004 4614              MOV       V1, A3                ; [DPU_V7M3_PIPE] |78|  ; [ORIG 16-BIT INS]
     316                            .dwpsn  file "../Application/MAC/HAL/target/hal_flash_wrapper.c",line 82,column 14,is_stmt,isa
     317                    $C$DW$29        .dwtag  DW_TAG_TI_branch
     318                            .dwattr $C$DW$29, DW_AT_low_pc(0x00)
     319                            .dwattr $C$DW$29, DW_AT_name("HalFlashGetAddress")
     320                            .dwattr $C$DW$29, DW_AT_TI_call
     321                    
     322 00000006 FFFEF7FF!         BL        HalFlashGetAddress    ; [DPU_V7M3_PIPE] |82|  ; [KEEP 32-BIT INS]
     323                            ; CALL OCCURS {HalFlashGetAddress }  ; [] |82| 
     324 0000000a 4605              MOV       V2, A1                ; [DPU_V7M3_PIPE] |82|  ; [ORIG 16-BIT INS]
     325                            .dwpsn  file "../Application/MAC/HAL/target/hal_flash_wrapper.c",line 85,column 3,is_stmt,isa 
     326 0000000c 4808              LDR       A1, $C$CON1           ; [DPU_V7M3_PIPE] |85|  ; [ORIG 16-BIT INS]
     327 0000000e 6800              LDR       A1, [A1, #0]          ; [DPU_V7M3_PIPE] |85|  ; [ORIG 16-BIT INS]
     328                    $C$DW$30        .dwtag  DW_TAG_TI_branch
     329                            .dwattr $C$DW$30, DW_AT_low_pc(0x00)
     330                            .dwattr $C$DW$30, DW_AT_TI_call
TI ARM Assembler PC v18.1.3 Wed Nov 28 13:22:05 2018

Tools Copyright (c) 1996-2017 Texas Instruments Incorporated
C:\Users\Adrian\AppData\Local\Temp\{BD3F71B0-1117-47C0-BC43-1785123CD23C} PAGE    7

     331                            .dwattr $C$DW$30, DW_AT_TI_indirect
     332                    
     333 00000010 4780              BLX       A1                    ; [DPU_V7M3_PIPE] |85|  ; [ORIG 16-BIT INS]
     334                            ; CALL OCCURS {}                 ; [] |85| 
     335                            .dwpsn  file "../Application/MAC/HAL/target/hal_flash_wrapper.c",line 88,column 3,is_stmt,isa 
     336 00000012 E003              B         ||$C$L2||             ; [DPU_V7M3_PIPE] |88|  ; [ORIG 16-BIT INS]
     337                            ; BRANCH OCCURS {||$C$L2||}      ; [] |88| 
     338                    ;* --------------------------------------------------------------------------*
     339 00000014           ||$C$L1||:    
     340                            .dwpsn  file "../Application/MAC/HAL/target/hal_flash_wrapper.c",line 90,column 5,is_stmt,isa 
     341 00000014 1B01F815          LDRB      A2, [V2], #1          ; [DPU_V7M3_PIPE] |90|  ; [KEEP 32-BIT INS]
     342 00000018 1B01F804          STRB      A2, [V1], #1          ; [DPU_V7M3_PIPE] |90|  ; [KEEP 32-BIT INS]
     343                    ;* --------------------------------------------------------------------------*
     344                    ;*   BEGIN LOOP ||$C$L2||
     345                    ;* --------------------------------------------------------------------------*
     346 0000001c           ||$C$L2||:    
     347                            .dwpsn  file "../Application/MAC/HAL/target/hal_flash_wrapper.c",line 88,column 3,is_stmt,isa 
     348 0000001c 4631              MOV       A2, V3                ; [DPU_V7M3_PIPE] |88|  ; [ORIG 16-BIT INS]
     349 0000001e 1E4A              SUBS      A3, A2, #1            ; [DPU_V7M3_PIPE] |88|  ; [ORIG 16-BIT INS]
     350 00000020 2900              CMP       A2, #0                ; [DPU_V7M3_PIPE] |88|  ; [ORIG 16-BIT INS]
     351 00000022 B296              UXTH      V3, A3                ; [DPU_V7M3_PIPE] |88|  ; [ORIG 16-BIT INS]
     352 00000024 D1F6              BNE       ||$C$L1||             ; [DPU_V7M3_PIPE] |88|  ; [ORIG 16-BIT INS]
     353                            ; BRANCHCC OCCURS {||$C$L1||}    ; [] |88| 
     354                    ;* --------------------------------------------------------------------------*
     355                            .dwpsn  file "../Application/MAC/HAL/target/hal_flash_wrapper.c",line 94,column 3,is_stmt,isa 
     356 00000026 4903              LDR       A2, $C$CON2           ; [DPU_V7M3_PIPE] |94|  ; [ORIG 16-BIT INS]
     357 00000028 6809              LDR       A2, [A2, #0]          ; [DPU_V7M3_PIPE] |94|  ; [ORIG 16-BIT INS]
     358                    $C$DW$31        .dwtag  DW_TAG_TI_branch
     359                            .dwattr $C$DW$31, DW_AT_low_pc(0x00)
     360                            .dwattr $C$DW$31, DW_AT_TI_call
     361                            .dwattr $C$DW$31, DW_AT_TI_indirect
     362                    
     363 0000002a 4788              BLX       A2                    ; [DPU_V7M3_PIPE] |94|  ; [ORIG 16-BIT INS]
     364                            ; CALL OCCURS {}                 ; [] |94| 
     365                    $C$DW$32        .dwtag  DW_TAG_TI_branch
     366                            .dwattr $C$DW$32, DW_AT_low_pc(0x00)
     367                            .dwattr $C$DW$32, DW_AT_TI_return
     368                    
     369 0000002c BD70              POP       {V1, V2, V3, PC}      ; [DPU_V7M3_PIPE]  ; [ORIG 16-BIT INS]
     370                            .dwcfi  cfa_offset, 0
     371                            .dwcfi  restore_reg, 6
     372                            .dwcfi  restore_reg, 5
     373                            .dwcfi  restore_reg, 4
     374                            ; BRANCH OCCURS                  ; [] 
     375                            .dwattr $C$DW$21, DW_AT_TI_end_file("../Application/MAC/HAL/target/hal_flash_wrapper.c")
     376                            .dwattr $C$DW$21, DW_AT_TI_end_line(0x5f)
     377                            .dwattr $C$DW$21, DW_AT_TI_end_column(0x01)
     378                            .dwendentry
     379                            .dwendtag $C$DW$21
     380                    
     381 00000000                   .sect   ".text:HalFlashErase"
     382                            .clink
     383                            .thumbfunc HalFlashErase
     384 00000000                   .thumb
     385                            .global HalFlashErase
TI ARM Assembler PC v18.1.3 Wed Nov 28 13:22:05 2018

Tools Copyright (c) 1996-2017 Texas Instruments Incorporated
C:\Users\Adrian\AppData\Local\Temp\{BD3F71B0-1117-47C0-BC43-1785123CD23C} PAGE    8

     386                    
     387                    $C$DW$33        .dwtag  DW_TAG_subprogram
     388                            .dwattr $C$DW$33, DW_AT_name("HalFlashErase")
     389                            .dwattr $C$DW$33, DW_AT_low_pc(HalFlashErase)
     390                            .dwattr $C$DW$33, DW_AT_high_pc(0x00)
     391                            .dwattr $C$DW$33, DW_AT_TI_symbol_name("HalFlashErase")
     392                            .dwattr $C$DW$33, DW_AT_external
     393                            .dwattr $C$DW$33, DW_AT_TI_begin_file("../Application/MAC/HAL/target/hal_flash_wrapper.c")
     394                            .dwattr $C$DW$33, DW_AT_TI_begin_line(0x88)
     395                            .dwattr $C$DW$33, DW_AT_TI_begin_column(0x06)
     396                            .dwattr $C$DW$33, DW_AT_decl_file("../Application/MAC/HAL/target/hal_flash_wrapper.c")
     397                            .dwattr $C$DW$33, DW_AT_decl_line(0x88)
     398                            .dwattr $C$DW$33, DW_AT_decl_column(0x06)
     399                            .dwattr $C$DW$33, DW_AT_TI_max_frame_size(0x08)
     400                            .dwpsn  file "../Application/MAC/HAL/target/hal_flash_wrapper.c",line 137,column 1,is_stmt,add
     401                    
     402                            .dwfde $C$DW$CIE, HalFlashErase
     403                    $C$DW$34        .dwtag  DW_TAG_formal_parameter
     404                            .dwattr $C$DW$34, DW_AT_name("pg")
     405                            .dwattr $C$DW$34, DW_AT_TI_symbol_name("pg")
     406                            .dwattr $C$DW$34, DW_AT_type(*$C$DW$T$10)
     407                            .dwattr $C$DW$34, DW_AT_location[DW_OP_reg0]
     408                    
     409                    
     410                    ;*****************************************************************************
     411                    ;* FUNCTION NAME: HalFlashErase                                              *
     412                    ;*                                                                           *
     413                    ;*   Regs Modified     : A1,A2,A3,A4,V9,SP,LR,SR                             *
     414                    ;*   Regs Used         : A1,A2,A3,A4,V9,SP,LR,SR                             *
     415                    ;*   Local Frame Size  : 0 Args + 0 Auto + 4 Save = 4 byte                   *
     416                    ;*****************************************************************************
     417 00000000           HalFlashErase:
     418                    ;* --------------------------------------------------------------------------*
     419                            .dwcfi  cfa_offset, 0
     420 00000000 B508              PUSH      {A4, LR}              ; [DPU_V7M3_PIPE]  ; [ORIG 16-BIT INS]
     421                            .dwcfi  cfa_offset, 8
     422                            .dwcfi  save_reg_to_mem, 14, -4
     423                            .dwcfi  save_reg_to_mem, 3, -8
     424                            .dwpsn  file "../Application/MAC/HAL/target/hal_flash_wrapper.c",line 138,column 3,is_stmt,isa
     425 00000002 2100              MOVS      A2, #0                ; [DPU_V7M3_PIPE] |138|  ; [ORIG 16-BIT INS]
     426                    $C$DW$35        .dwtag  DW_TAG_TI_branch
     427                            .dwattr $C$DW$35, DW_AT_low_pc(0x00)
     428                            .dwattr $C$DW$35, DW_AT_name("HalFlashGetAddress")
     429                            .dwattr $C$DW$35, DW_AT_TI_call
     430                    
     431 00000004 FFFEF7FF!         BL        HalFlashGetAddress    ; [DPU_V7M3_PIPE] |138|  ; [KEEP 32-BIT INS]
     432                            ; CALL OCCURS {HalFlashGetAddress }  ; [] |138| 
     433                    $C$DW$36        .dwtag  DW_TAG_TI_branch
     434                            .dwattr $C$DW$36, DW_AT_low_pc(0x00)
     435                            .dwattr $C$DW$36, DW_AT_name("NOROM_FlashSectorErase")
     436                            .dwattr $C$DW$36, DW_AT_TI_call
     437                    
     438 00000008 FFFEF7FF!         BL        NOROM_FlashSectorErase ; [DPU_V7M3_PIPE] |138|  ; [KEEP 32-BIT INS]
     439                            ; CALL OCCURS {NOROM_FlashSectorErase }  ; [] |138| 
     440                    $C$DW$37        .dwtag  DW_TAG_TI_branch
TI ARM Assembler PC v18.1.3 Wed Nov 28 13:22:05 2018

Tools Copyright (c) 1996-2017 Texas Instruments Incorporated
C:\Users\Adrian\AppData\Local\Temp\{BD3F71B0-1117-47C0-BC43-1785123CD23C} PAGE    9

     441                            .dwattr $C$DW$37, DW_AT_low_pc(0x00)
     442                            .dwattr $C$DW$37, DW_AT_TI_return
     443                    
     444 0000000c BD08              POP       {A4, PC}              ; [DPU_V7M3_PIPE]  ; [ORIG 16-BIT INS]
     445                            .dwcfi  cfa_offset, 0
     446                            .dwcfi  restore_reg, 3
     447                            ; BRANCH OCCURS                  ; [] 
     448                            .dwattr $C$DW$33, DW_AT_TI_end_file("../Application/MAC/HAL/target/hal_flash_wrapper.c")
     449                            .dwattr $C$DW$33, DW_AT_TI_end_line(0x8b)
     450                            .dwattr $C$DW$33, DW_AT_TI_end_column(0x01)
     451                            .dwendentry
     452                            .dwendtag $C$DW$33
     453                    
     454                    ;******************************************************************************
     455                    ;* CONSTANT TABLE                                                             *
     456                    ;******************************************************************************
     457 0000002e                   .sect   ".text:HalFlashRead"
     458                            .align  4
     459 0000002e 000046C0! ||$C$CON1||:    .bits   ICall_enterCriticalSection,32
         00000032 00000000 
     460                            .align  4
     461 00000032 00000000! ||$C$CON2||:    .bits   ICall_leaveCriticalSection,32
         00000036 00000000 
     462                    ;*****************************************************************************
     463                    ;* UNDEFINED EXTERNAL REFERENCES                                             *
     464                    ;*****************************************************************************
     465                            .global ICall_enterCriticalSection
     466                            .global ICall_leaveCriticalSection
     467                            .global NOROM_FlashProgram
     468                            .global NOROM_FlashSectorErase
     469                    
     470                    ;******************************************************************************
     471                    ;* BUILD ATTRIBUTES                                                           *
     472                    ;******************************************************************************
     473                            .battr "aeabi", Tag_File, 1, Tag_ABI_PCS_wchar_t(2)
     474                            .battr "aeabi", Tag_File, 1, Tag_ABI_FP_rounding(0)
     475                            .battr "aeabi", Tag_File, 1, Tag_ABI_FP_denormal(0)
     476                            .battr "aeabi", Tag_File, 1, Tag_ABI_FP_exceptions(0)
     477                            .battr "aeabi", Tag_File, 1, Tag_ABI_FP_number_model(1)
     478                            .battr "aeabi", Tag_File, 1, Tag_ABI_enum_size(1)
     479                            .battr "aeabi", Tag_File, 1, Tag_ABI_optimization_goals(0)
     480                            .battr "aeabi", Tag_File, 1, Tag_ABI_FP_optimization_goals(0)
     481                            .battr "TI", Tag_File, 1, Tag_Bitfield_layout(2)
     482                            .battr "aeabi", Tag_File, 1, Tag_ABI_VFP_args(3)
     483                            .battr "TI", Tag_File, 1, Tag_FP_interface(1)
     484                    
     485                    ;******************************************************************************
     486                    ;* TYPE INFORMATION                                                           *
     487                    ;******************************************************************************
     488                    
     489                    $C$DW$T$168     .dwtag  DW_TAG_enumeration_type
     490                            .dwattr $C$DW$T$168, DW_AT_byte_size(0x01)
     491                    $C$DW$38        .dwtag  DW_TAG_enumerator
     492                            .dwattr $C$DW$38, DW_AT_name("FAPI_PROGRAM_DATA")
     493                            .dwattr $C$DW$38, DW_AT_const_value(0x02)
TI ARM Assembler PC v18.1.3 Wed Nov 28 13:22:05 2018

Tools Copyright (c) 1996-2017 Texas Instruments Incorporated
C:\Users\Adrian\AppData\Local\Temp\{BD3F71B0-1117-47C0-BC43-1785123CD23C} PAGE   10

     494                            .dwattr $C$DW$38, DW_AT_decl_file("C:/ti/simplelink_cc13x0_sdk_2_30_00_20/source/ti/devices/cc
     495                            .dwattr $C$DW$38, DW_AT_decl_line(0xa6)
     496                            .dwattr $C$DW$38, DW_AT_decl_column(0x05)
     497                    
     498                    $C$DW$39        .dwtag  DW_TAG_enumerator
     499                            .dwattr $C$DW$39, DW_AT_name("FAPI_ERASE_SECTOR")
     500                            .dwattr $C$DW$39, DW_AT_const_value(0x06)
     501                            .dwattr $C$DW$39, DW_AT_decl_file("C:/ti/simplelink_cc13x0_sdk_2_30_00_20/source/ti/devices/cc
     502                            .dwattr $C$DW$39, DW_AT_decl_line(0xa7)
     503                            .dwattr $C$DW$39, DW_AT_decl_column(0x05)
     504                    
     505                    $C$DW$40        .dwtag  DW_TAG_enumerator
     506                            .dwattr $C$DW$40, DW_AT_name("FAPI_ERASE_BANK")
     507                            .dwattr $C$DW$40, DW_AT_const_value(0x08)
     508                            .dwattr $C$DW$40, DW_AT_decl_file("C:/ti/simplelink_cc13x0_sdk_2_30_00_20/source/ti/devices/cc
     509                            .dwattr $C$DW$40, DW_AT_decl_line(0xa8)
     510                            .dwattr $C$DW$40, DW_AT_decl_column(0x05)
     511                    
     512                    $C$DW$41        .dwtag  DW_TAG_enumerator
     513                            .dwattr $C$DW$41, DW_AT_name("FAPI_VALIDATE_SECTOR")
     514                            .dwattr $C$DW$41, DW_AT_const_value(0x0e)
     515                            .dwattr $C$DW$41, DW_AT_decl_file("C:/ti/simplelink_cc13x0_sdk_2_30_00_20/source/ti/devices/cc
     516                            .dwattr $C$DW$41, DW_AT_decl_line(0xa9)
     517                            .dwattr $C$DW$41, DW_AT_decl_column(0x05)
     518                    
     519                    $C$DW$42        .dwtag  DW_TAG_enumerator
     520                            .dwattr $C$DW$42, DW_AT_name("FAPI_CLEAR_STATUS")
     521                            .dwattr $C$DW$42, DW_AT_const_value(0x10)
     522                            .dwattr $C$DW$42, DW_AT_decl_file("C:/ti/simplelink_cc13x0_sdk_2_30_00_20/source/ti/devices/cc
     523                            .dwattr $C$DW$42, DW_AT_decl_line(0xaa)
     524                            .dwattr $C$DW$42, DW_AT_decl_column(0x05)
     525                    
     526                    $C$DW$43        .dwtag  DW_TAG_enumerator
     527                            .dwattr $C$DW$43, DW_AT_name("FAPI_PROGRAM_RESUME")
     528                            .dwattr $C$DW$43, DW_AT_const_value(0x14)
     529                            .dwattr $C$DW$43, DW_AT_decl_file("C:/ti/simplelink_cc13x0_sdk_2_30_00_20/source/ti/devices/cc
     530                            .dwattr $C$DW$43, DW_AT_decl_line(0xab)
     531                            .dwattr $C$DW$43, DW_AT_decl_column(0x05)
     532                    
     533                    $C$DW$44        .dwtag  DW_TAG_enumerator
     534                            .dwattr $C$DW$44, DW_AT_name("FAPI_ERASE_RESUME")
     535                            .dwattr $C$DW$44, DW_AT_const_value(0x16)
     536                            .dwattr $C$DW$44, DW_AT_decl_file("C:/ti/simplelink_cc13x0_sdk_2_30_00_20/source/ti/devices/cc
     537                            .dwattr $C$DW$44, DW_AT_decl_line(0xac)
     538                            .dwattr $C$DW$44, DW_AT_decl_column(0x05)
     539                    
     540                    $C$DW$45        .dwtag  DW_TAG_enumerator
     541                            .dwattr $C$DW$45, DW_AT_name("FAPI_CLEAR_MORE")
     542                            .dwattr $C$DW$45, DW_AT_const_value(0x18)
     543                            .dwattr $C$DW$45, DW_AT_decl_file("C:/ti/simplelink_cc13x0_sdk_2_30_00_20/source/ti/devices/cc
     544                            .dwattr $C$DW$45, DW_AT_decl_line(0xad)
     545                            .dwattr $C$DW$45, DW_AT_decl_column(0x05)
     546                    
     547                    $C$DW$46        .dwtag  DW_TAG_enumerator
     548                            .dwattr $C$DW$46, DW_AT_name("FAPI_PROGRAM_SECTOR")
TI ARM Assembler PC v18.1.3 Wed Nov 28 13:22:05 2018

Tools Copyright (c) 1996-2017 Texas Instruments Incorporated
C:\Users\Adrian\AppData\Local\Temp\{BD3F71B0-1117-47C0-BC43-1785123CD23C} PAGE   11

     549                            .dwattr $C$DW$46, DW_AT_const_value(0x20)
     550                            .dwattr $C$DW$46, DW_AT_decl_file("C:/ti/simplelink_cc13x0_sdk_2_30_00_20/source/ti/devices/cc
     551                            .dwattr $C$DW$46, DW_AT_decl_line(0xae)
     552                            .dwattr $C$DW$46, DW_AT_decl_column(0x05)
     553                    
     554                    $C$DW$47        .dwtag  DW_TAG_enumerator
     555                            .dwattr $C$DW$47, DW_AT_name("FAPI_ERASE_OTP")
     556                            .dwattr $C$DW$47, DW_AT_const_value(0x30)
     557                            .dwattr $C$DW$47, DW_AT_decl_file("C:/ti/simplelink_cc13x0_sdk_2_30_00_20/source/ti/devices/cc
     558                            .dwattr $C$DW$47, DW_AT_decl_line(0xaf)
     559                            .dwattr $C$DW$47, DW_AT_decl_column(0x05)
     560                    
     561                            .dwattr $C$DW$T$168, DW_AT_decl_file("C:/ti/simplelink_cc13x0_sdk_2_30_00_20/source/ti/devices
     562                            .dwattr $C$DW$T$168, DW_AT_decl_line(0xa5)
     563                            .dwattr $C$DW$T$168, DW_AT_decl_column(0x01)
     564                            .dwendtag $C$DW$T$168
     565                    
     566                    $C$DW$T$169     .dwtag  DW_TAG_typedef
     567                            .dwattr $C$DW$T$169, DW_AT_name("tFlashStateCommandsType")
     568                            .dwattr $C$DW$T$169, DW_AT_type(*$C$DW$T$168)
     569                            .dwattr $C$DW$T$169, DW_AT_language(DW_LANG_C)
     570                            .dwattr $C$DW$T$169, DW_AT_decl_file("C:/ti/simplelink_cc13x0_sdk_2_30_00_20/source/ti/devices
     571                            .dwattr $C$DW$T$169, DW_AT_decl_line(0xb0)
     572                            .dwattr $C$DW$T$169, DW_AT_decl_column(0x03)
     573                    
     574                    
     575                    $C$DW$T$170     .dwtag  DW_TAG_enumeration_type
     576                            .dwattr $C$DW$T$170, DW_AT_byte_size(0x01)
     577                    $C$DW$48        .dwtag  DW_TAG_enumerator
     578                            .dwattr $C$DW$48, DW_AT_name("ICALL_RTI_APP_CMD_EVENT")
     579                            .dwattr $C$DW$48, DW_AT_const_value(0xe0)
     580                            .dwattr $C$DW$48, DW_AT_decl_file("C:/ti/simplelink_cc13x0_sdk_2_30_00_20/source/ti/ti154stack
     581                            .dwattr $C$DW$48, DW_AT_decl_line(0x3de)
     582                            .dwattr $C$DW$48, DW_AT_decl_column(0x04)
     583                    
     584                    $C$DW$49        .dwtag  DW_TAG_enumerator
     585                            .dwattr $C$DW$49, DW_AT_name("ICALL_RTI_STACK_CMD_EVENT")
     586                            .dwattr $C$DW$49, DW_AT_const_value(0xe1)
     587                            .dwattr $C$DW$49, DW_AT_decl_file("C:/ti/simplelink_cc13x0_sdk_2_30_00_20/source/ti/ti154stack
     588                            .dwattr $C$DW$49, DW_AT_decl_line(0x3e0)
     589                            .dwattr $C$DW$49, DW_AT_decl_column(0x04)
     590                    
     591                    $C$DW$50        .dwtag  DW_TAG_enumerator
     592                            .dwattr $C$DW$50, DW_AT_name("ICALL_RTI_APP_ASYNC_CMD_EVENT")
     593                            .dwattr $C$DW$50, DW_AT_const_value(0xe2)
     594                            .dwattr $C$DW$50, DW_AT_decl_file("C:/ti/simplelink_cc13x0_sdk_2_30_00_20/source/ti/ti154stack
     595                            .dwattr $C$DW$50, DW_AT_decl_line(0x3e2)
     596                            .dwattr $C$DW$50, DW_AT_decl_column(0x04)
     597                    
     598                    $C$DW$51        .dwtag  DW_TAG_enumerator
     599                            .dwattr $C$DW$51, DW_AT_name("ICALL_RTI_APP_SYNC_CMD_EVENT")
     600                            .dwattr $C$DW$51, DW_AT_const_value(0xe3)
     601                            .dwattr $C$DW$51, DW_AT_decl_file("C:/ti/simplelink_cc13x0_sdk_2_30_00_20/source/ti/ti154stack
     602                            .dwattr $C$DW$51, DW_AT_decl_line(0x3e4)
     603                            .dwattr $C$DW$51, DW_AT_decl_column(0x04)
TI ARM Assembler PC v18.1.3 Wed Nov 28 13:22:05 2018

Tools Copyright (c) 1996-2017 Texas Instruments Incorporated
C:\Users\Adrian\AppData\Local\Temp\{BD3F71B0-1117-47C0-BC43-1785123CD23C} PAGE   12

     604                    
     605                    $C$DW$52        .dwtag  DW_TAG_enumerator
     606                            .dwattr $C$DW$52, DW_AT_name("ICALL_RCN_APP_ASYNC_CMD_EVENT")
     607                            .dwattr $C$DW$52, DW_AT_const_value(0xe4)
     608                            .dwattr $C$DW$52, DW_AT_decl_file("C:/ti/simplelink_cc13x0_sdk_2_30_00_20/source/ti/ti154stack
     609                            .dwattr $C$DW$52, DW_AT_decl_line(0x3e6)
     610                            .dwattr $C$DW$52, DW_AT_decl_column(0x04)
     611                    
     612                    $C$DW$53        .dwtag  DW_TAG_enumerator
     613                            .dwattr $C$DW$53, DW_AT_name("ICALL_RCN_APP_SYNC_CMD_EVENT")
     614                            .dwattr $C$DW$53, DW_AT_const_value(0xe5)
     615                            .dwattr $C$DW$53, DW_AT_decl_file("C:/ti/simplelink_cc13x0_sdk_2_30_00_20/source/ti/ti154stack
     616                            .dwattr $C$DW$53, DW_AT_decl_line(0x3e8)
     617                            .dwattr $C$DW$53, DW_AT_decl_column(0x04)
     618                    
     619                            .dwattr $C$DW$T$170, DW_AT_decl_file("C:/ti/simplelink_cc13x0_sdk_2_30_00_20/source/ti/ti154st
     620                            .dwattr $C$DW$T$170, DW_AT_decl_line(0x3dc)
     621                            .dwattr $C$DW$T$170, DW_AT_decl_column(0x01)
     622                            .dwendtag $C$DW$T$170
     623                    
     624                    $C$DW$T$171     .dwtag  DW_TAG_typedef
     625                            .dwattr $C$DW$T$171, DW_AT_name("ICall_RemotiCmdEvent_t")
     626                            .dwattr $C$DW$T$171, DW_AT_type(*$C$DW$T$170)
     627                            .dwattr $C$DW$T$171, DW_AT_language(DW_LANG_C)
     628                            .dwattr $C$DW$T$171, DW_AT_decl_file("C:/ti/simplelink_cc13x0_sdk_2_30_00_20/source/ti/ti154st
     629                            .dwattr $C$DW$T$171, DW_AT_decl_line(0x3e9)
     630                            .dwattr $C$DW$T$171, DW_AT_decl_column(0x02)
     631                    
     632                    
     633                    $C$DW$T$21      .dwtag  DW_TAG_structure_type
     634                            .dwattr $C$DW$T$21, DW_AT_byte_size(0x10)
     635                    $C$DW$54        .dwtag  DW_TAG_member
     636                            .dwattr $C$DW$54, DW_AT_type(*$C$DW$T$14)
     637                            .dwattr $C$DW$54, DW_AT_name("__max_align1")
     638                            .dwattr $C$DW$54, DW_AT_TI_symbol_name("__max_align1")
     639                            .dwattr $C$DW$54, DW_AT_data_member_location[DW_OP_plus_uconst 0x0]
     640                            .dwattr $C$DW$54, DW_AT_accessibility(DW_ACCESS_public)
     641                            .dwattr $C$DW$54, DW_AT_decl_file("C:/ti/ccsv8/tools/compiler/ti-cgt-arm_18.1.3.LTS/include/sy
     642                            .dwattr $C$DW$54, DW_AT_decl_line(0x70)
     643                            .dwattr $C$DW$54, DW_AT_decl_column(0x0c)
     644                    
     645                    $C$DW$55        .dwtag  DW_TAG_member
     646                            .dwattr $C$DW$55, DW_AT_type(*$C$DW$T$18)
     647                            .dwattr $C$DW$55, DW_AT_name("__max_align2")
     648                            .dwattr $C$DW$55, DW_AT_TI_symbol_name("__max_align2")
     649                            .dwattr $C$DW$55, DW_AT_data_member_location[DW_OP_plus_uconst 0x8]
     650                            .dwattr $C$DW$55, DW_AT_accessibility(DW_ACCESS_public)
     651                            .dwattr $C$DW$55, DW_AT_decl_file("C:/ti/ccsv8/tools/compiler/ti-cgt-arm_18.1.3.LTS/include/sy
     652                            .dwattr $C$DW$55, DW_AT_decl_line(0x71)
     653                            .dwattr $C$DW$55, DW_AT_decl_column(0x0e)
     654                    
     655                            .dwattr $C$DW$T$21, DW_AT_decl_file("C:/ti/ccsv8/tools/compiler/ti-cgt-arm_18.1.3.LTS/include/
     656                            .dwattr $C$DW$T$21, DW_AT_decl_line(0x6f)
     657                            .dwattr $C$DW$T$21, DW_AT_decl_column(0x10)
     658                            .dwendtag $C$DW$T$21
TI ARM Assembler PC v18.1.3 Wed Nov 28 13:22:05 2018

Tools Copyright (c) 1996-2017 Texas Instruments Incorporated
C:\Users\Adrian\AppData\Local\Temp\{BD3F71B0-1117-47C0-BC43-1785123CD23C} PAGE   13

     659                    
     660                    $C$DW$T$172     .dwtag  DW_TAG_typedef
     661                            .dwattr $C$DW$T$172, DW_AT_name("__max_align_t")
     662                            .dwattr $C$DW$T$172, DW_AT_type(*$C$DW$T$21)
     663                            .dwattr $C$DW$T$172, DW_AT_language(DW_LANG_C)
     664                            .dwattr $C$DW$T$172, DW_AT_decl_file("C:/ti/ccsv8/tools/compiler/ti-cgt-arm_18.1.3.LTS/include
     665                            .dwattr $C$DW$T$172, DW_AT_decl_line(0x72)
     666                            .dwattr $C$DW$T$172, DW_AT_decl_column(0x03)
     667                    
     668                    
     669                    $C$DW$T$66      .dwtag  DW_TAG_structure_type
     670                            .dwattr $C$DW$T$66, DW_AT_byte_size(0x4c)
     671                    $C$DW$56        .dwtag  DW_TAG_member
     672                            .dwattr $C$DW$56, DW_AT_type(*$C$DW$T$29)
     673                            .dwattr $C$DW$56, DW_AT_name("Crc32")
     674                            .dwattr $C$DW$56, DW_AT_TI_symbol_name("Crc32")
     675                            .dwattr $C$DW$56, DW_AT_data_member_location[DW_OP_plus_uconst 0x0]
     676                            .dwattr $C$DW$56, DW_AT_accessibility(DW_ACCESS_public)
     677                            .dwattr $C$DW$56, DW_AT_decl_file("C:\ti\simplelink_cc13x0_sdk_2_30_00_20\source\ti\devices\cc
     678                            .dwattr $C$DW$56, DW_AT_decl_line(0x76)
     679                            .dwattr $C$DW$56, DW_AT_decl_column(0x25)
     680                    
     681                    $C$DW$57        .dwtag  DW_TAG_member
     682                            .dwattr $C$DW$57, DW_AT_type(*$C$DW$T$32)
     683                            .dwattr $C$DW$57, DW_AT_name("FlashGetSize")
     684                            .dwattr $C$DW$57, DW_AT_TI_symbol_name("FlashGetSize")
     685                            .dwattr $C$DW$57, DW_AT_data_member_location[DW_OP_plus_uconst 0x4]
     686                            .dwattr $C$DW$57, DW_AT_accessibility(DW_ACCESS_public)
     687                            .dwattr $C$DW$57, DW_AT_decl_file("C:\ti\simplelink_cc13x0_sdk_2_30_00_20\source\ti\devices\cc
     688                            .dwattr $C$DW$57, DW_AT_decl_line(0x77)
     689                            .dwattr $C$DW$57, DW_AT_decl_column(0x25)
     690                    
     691                    $C$DW$58        .dwtag  DW_TAG_member
     692                            .dwattr $C$DW$58, DW_AT_type(*$C$DW$T$33)
     693                            .dwattr $C$DW$58, DW_AT_name("GetChipId")
     694                            .dwattr $C$DW$58, DW_AT_TI_symbol_name("GetChipId")
     695                            .dwattr $C$DW$58, DW_AT_data_member_location[DW_OP_plus_uconst 0x8]
     696                            .dwattr $C$DW$58, DW_AT_accessibility(DW_ACCESS_public)
     697                            .dwattr $C$DW$58, DW_AT_decl_file("C:\ti\simplelink_cc13x0_sdk_2_30_00_20\source\ti\devices\cc
     698                            .dwattr $C$DW$58, DW_AT_decl_line(0x78)
     699                            .dwattr $C$DW$58, DW_AT_decl_column(0x25)
     700                    
     701                    $C$DW$59        .dwtag  DW_TAG_member
     702                            .dwattr $C$DW$59, DW_AT_type(*$C$DW$T$36)
     703                            .dwattr $C$DW$59, DW_AT_name("ReservedLocation1")
     704                            .dwattr $C$DW$59, DW_AT_TI_symbol_name("ReservedLocation1")
     705                            .dwattr $C$DW$59, DW_AT_data_member_location[DW_OP_plus_uconst 0xc]
     706                            .dwattr $C$DW$59, DW_AT_accessibility(DW_ACCESS_public)
     707                            .dwattr $C$DW$59, DW_AT_decl_file("C:\ti\simplelink_cc13x0_sdk_2_30_00_20\source\ti\devices\cc
     708                            .dwattr $C$DW$59, DW_AT_decl_line(0x79)
     709                            .dwattr $C$DW$59, DW_AT_decl_column(0x25)
     710                    
     711                    $C$DW$60        .dwtag  DW_TAG_member
     712                            .dwattr $C$DW$60, DW_AT_type(*$C$DW$T$37)
     713                            .dwattr $C$DW$60, DW_AT_name("ReservedLocation2")
TI ARM Assembler PC v18.1.3 Wed Nov 28 13:22:05 2018

Tools Copyright (c) 1996-2017 Texas Instruments Incorporated
C:\Users\Adrian\AppData\Local\Temp\{BD3F71B0-1117-47C0-BC43-1785123CD23C} PAGE   14

     714                            .dwattr $C$DW$60, DW_AT_TI_symbol_name("ReservedLocation2")
     715                            .dwattr $C$DW$60, DW_AT_data_member_location[DW_OP_plus_uconst 0x10]
     716                            .dwattr $C$DW$60, DW_AT_accessibility(DW_ACCESS_public)
     717                            .dwattr $C$DW$60, DW_AT_decl_file("C:\ti\simplelink_cc13x0_sdk_2_30_00_20\source\ti\devices\cc
     718                            .dwattr $C$DW$60, DW_AT_decl_line(0x7a)
     719                            .dwattr $C$DW$60, DW_AT_decl_column(0x25)
     720                    
     721                    $C$DW$61        .dwtag  DW_TAG_member
     722                            .dwattr $C$DW$61, DW_AT_type(*$C$DW$T$38)
     723                            .dwattr $C$DW$61, DW_AT_name("ReservedLocation3")
     724                            .dwattr $C$DW$61, DW_AT_TI_symbol_name("ReservedLocation3")
     725                            .dwattr $C$DW$61, DW_AT_data_member_location[DW_OP_plus_uconst 0x14]
     726                            .dwattr $C$DW$61, DW_AT_accessibility(DW_ACCESS_public)
     727                            .dwattr $C$DW$61, DW_AT_decl_file("C:\ti\simplelink_cc13x0_sdk_2_30_00_20\source\ti\devices\cc
     728                            .dwattr $C$DW$61, DW_AT_decl_line(0x7b)
     729                            .dwattr $C$DW$61, DW_AT_decl_column(0x25)
     730                    
     731                    $C$DW$62        .dwtag  DW_TAG_member
     732                            .dwattr $C$DW$62, DW_AT_type(*$C$DW$T$41)
     733                            .dwattr $C$DW$62, DW_AT_name("ResetDevice")
     734                            .dwattr $C$DW$62, DW_AT_TI_symbol_name("ResetDevice")
     735                            .dwattr $C$DW$62, DW_AT_data_member_location[DW_OP_plus_uconst 0x18]
     736                            .dwattr $C$DW$62, DW_AT_accessibility(DW_ACCESS_public)
     737                            .dwattr $C$DW$62, DW_AT_decl_file("C:\ti\simplelink_cc13x0_sdk_2_30_00_20\source\ti\devices\cc
     738                            .dwattr $C$DW$62, DW_AT_decl_line(0x7c)
     739                            .dwattr $C$DW$62, DW_AT_decl_column(0x25)
     740                    
     741                    $C$DW$63        .dwtag  DW_TAG_member
     742                            .dwattr $C$DW$63, DW_AT_type(*$C$DW$T$47)
     743                            .dwattr $C$DW$63, DW_AT_name("Fletcher32")
     744                            .dwattr $C$DW$63, DW_AT_TI_symbol_name("Fletcher32")
     745                            .dwattr $C$DW$63, DW_AT_data_member_location[DW_OP_plus_uconst 0x1c]
     746                            .dwattr $C$DW$63, DW_AT_accessibility(DW_ACCESS_public)
     747                            .dwattr $C$DW$63, DW_AT_decl_file("C:\ti\simplelink_cc13x0_sdk_2_30_00_20\source\ti\devices\cc
     748                            .dwattr $C$DW$63, DW_AT_decl_line(0x7d)
     749                            .dwattr $C$DW$63, DW_AT_decl_column(0x25)
     750                    
     751                    $C$DW$64        .dwtag  DW_TAG_member
     752                            .dwattr $C$DW$64, DW_AT_type(*$C$DW$T$51)
     753                            .dwattr $C$DW$64, DW_AT_name("MinValue")
     754                            .dwattr $C$DW$64, DW_AT_TI_symbol_name("MinValue")
     755                            .dwattr $C$DW$64, DW_AT_data_member_location[DW_OP_plus_uconst 0x20]
     756                            .dwattr $C$DW$64, DW_AT_accessibility(DW_ACCESS_public)
     757                            .dwattr $C$DW$64, DW_AT_decl_file("C:\ti\simplelink_cc13x0_sdk_2_30_00_20\source\ti\devices\cc
     758                            .dwattr $C$DW$64, DW_AT_decl_line(0x7e)
     759                            .dwattr $C$DW$64, DW_AT_decl_column(0x25)
     760                    
     761                    $C$DW$65        .dwtag  DW_TAG_member
     762                            .dwattr $C$DW$65, DW_AT_type(*$C$DW$T$52)
     763                            .dwattr $C$DW$65, DW_AT_name("MaxValue")
     764                            .dwattr $C$DW$65, DW_AT_TI_symbol_name("MaxValue")
     765                            .dwattr $C$DW$65, DW_AT_data_member_location[DW_OP_plus_uconst 0x24]
     766                            .dwattr $C$DW$65, DW_AT_accessibility(DW_ACCESS_public)
     767                            .dwattr $C$DW$65, DW_AT_decl_file("C:\ti\simplelink_cc13x0_sdk_2_30_00_20\source\ti\devices\cc
     768                            .dwattr $C$DW$65, DW_AT_decl_line(0x7f)
TI ARM Assembler PC v18.1.3 Wed Nov 28 13:22:05 2018

Tools Copyright (c) 1996-2017 Texas Instruments Incorporated
C:\Users\Adrian\AppData\Local\Temp\{BD3F71B0-1117-47C0-BC43-1785123CD23C} PAGE   15

     769                            .dwattr $C$DW$65, DW_AT_decl_column(0x25)
     770                    
     771                    $C$DW$66        .dwtag  DW_TAG_member
     772                            .dwattr $C$DW$66, DW_AT_type(*$C$DW$T$53)
     773                            .dwattr $C$DW$66, DW_AT_name("MeanValue")
     774                            .dwattr $C$DW$66, DW_AT_TI_symbol_name("MeanValue")
     775                            .dwattr $C$DW$66, DW_AT_data_member_location[DW_OP_plus_uconst 0x28]
     776                            .dwattr $C$DW$66, DW_AT_accessibility(DW_ACCESS_public)
     777                            .dwattr $C$DW$66, DW_AT_decl_file("C:\ti\simplelink_cc13x0_sdk_2_30_00_20\source\ti\devices\cc
     778                            .dwattr $C$DW$66, DW_AT_decl_line(0x80)
     779                            .dwattr $C$DW$66, DW_AT_decl_column(0x25)
     780                    
     781                    $C$DW$67        .dwtag  DW_TAG_member
     782                            .dwattr $C$DW$67, DW_AT_type(*$C$DW$T$54)
     783                            .dwattr $C$DW$67, DW_AT_name("StandDeviationValue")
     784                            .dwattr $C$DW$67, DW_AT_TI_symbol_name("StandDeviationValue")
     785                            .dwattr $C$DW$67, DW_AT_data_member_location[DW_OP_plus_uconst 0x2c]
     786                            .dwattr $C$DW$67, DW_AT_accessibility(DW_ACCESS_public)
     787                            .dwattr $C$DW$67, DW_AT_decl_file("C:\ti\simplelink_cc13x0_sdk_2_30_00_20\source\ti\devices\cc
     788                            .dwattr $C$DW$67, DW_AT_decl_line(0x81)
     789                            .dwattr $C$DW$67, DW_AT_decl_column(0x25)
     790                    
     791                    $C$DW$68        .dwtag  DW_TAG_member
     792                            .dwattr $C$DW$68, DW_AT_type(*$C$DW$T$57)
     793                            .dwattr $C$DW$68, DW_AT_name("ReservedLocation4")
     794                            .dwattr $C$DW$68, DW_AT_TI_symbol_name("ReservedLocation4")
     795                            .dwattr $C$DW$68, DW_AT_data_member_location[DW_OP_plus_uconst 0x30]
     796                            .dwattr $C$DW$68, DW_AT_accessibility(DW_ACCESS_public)
     797                            .dwattr $C$DW$68, DW_AT_decl_file("C:\ti\simplelink_cc13x0_sdk_2_30_00_20\source\ti\devices\cc
     798                            .dwattr $C$DW$68, DW_AT_decl_line(0x82)
     799                            .dwattr $C$DW$68, DW_AT_decl_column(0x25)
     800                    
     801                    $C$DW$69        .dwtag  DW_TAG_member
     802                            .dwattr $C$DW$69, DW_AT_type(*$C$DW$T$58)
     803                            .dwattr $C$DW$69, DW_AT_name("ReservedLocation5")
     804                            .dwattr $C$DW$69, DW_AT_TI_symbol_name("ReservedLocation5")
     805                            .dwattr $C$DW$69, DW_AT_data_member_location[DW_OP_plus_uconst 0x34]
     806                            .dwattr $C$DW$69, DW_AT_accessibility(DW_ACCESS_public)
     807                            .dwattr $C$DW$69, DW_AT_decl_file("C:\ti\simplelink_cc13x0_sdk_2_30_00_20\source\ti\devices\cc
     808                            .dwattr $C$DW$69, DW_AT_decl_line(0x83)
     809                            .dwattr $C$DW$69, DW_AT_decl_column(0x25)
     810                    
     811                    $C$DW$70        .dwtag  DW_TAG_member
     812                            .dwattr $C$DW$70, DW_AT_type(*$C$DW$T$59)
     813                            .dwattr $C$DW$70, DW_AT_name("HFSourceSafeSwitch")
     814                            .dwattr $C$DW$70, DW_AT_TI_symbol_name("HFSourceSafeSwitch")
     815                            .dwattr $C$DW$70, DW_AT_data_member_location[DW_OP_plus_uconst 0x38]
     816                            .dwattr $C$DW$70, DW_AT_accessibility(DW_ACCESS_public)
     817                            .dwattr $C$DW$70, DW_AT_decl_file("C:\ti\simplelink_cc13x0_sdk_2_30_00_20\source\ti\devices\cc
     818                            .dwattr $C$DW$70, DW_AT_decl_line(0x84)
     819                            .dwattr $C$DW$70, DW_AT_decl_column(0x25)
     820                    
     821                    $C$DW$71        .dwtag  DW_TAG_member
     822                            .dwattr $C$DW$71, DW_AT_type(*$C$DW$T$62)
     823                            .dwattr $C$DW$71, DW_AT_name("SelectCompAInput")
TI ARM Assembler PC v18.1.3 Wed Nov 28 13:22:05 2018

Tools Copyright (c) 1996-2017 Texas Instruments Incorporated
C:\Users\Adrian\AppData\Local\Temp\{BD3F71B0-1117-47C0-BC43-1785123CD23C} PAGE   16

     824                            .dwattr $C$DW$71, DW_AT_TI_symbol_name("SelectCompAInput")
     825                            .dwattr $C$DW$71, DW_AT_data_member_location[DW_OP_plus_uconst 0x3c]
     826                            .dwattr $C$DW$71, DW_AT_accessibility(DW_ACCESS_public)
     827                            .dwattr $C$DW$71, DW_AT_decl_file("C:\ti\simplelink_cc13x0_sdk_2_30_00_20\source\ti\devices\cc
     828                            .dwattr $C$DW$71, DW_AT_decl_line(0x85)
     829                            .dwattr $C$DW$71, DW_AT_decl_column(0x25)
     830                    
     831                    $C$DW$72        .dwtag  DW_TAG_member
     832                            .dwattr $C$DW$72, DW_AT_type(*$C$DW$T$63)
     833                            .dwattr $C$DW$72, DW_AT_name("SelectCompARef")
     834                            .dwattr $C$DW$72, DW_AT_TI_symbol_name("SelectCompARef")
     835                            .dwattr $C$DW$72, DW_AT_data_member_location[DW_OP_plus_uconst 0x40]
     836                            .dwattr $C$DW$72, DW_AT_accessibility(DW_ACCESS_public)
     837                            .dwattr $C$DW$72, DW_AT_decl_file("C:\ti\simplelink_cc13x0_sdk_2_30_00_20\source\ti\devices\cc
     838                            .dwattr $C$DW$72, DW_AT_decl_line(0x86)
     839                            .dwattr $C$DW$72, DW_AT_decl_column(0x25)
     840                    
     841                    $C$DW$73        .dwtag  DW_TAG_member
     842                            .dwattr $C$DW$73, DW_AT_type(*$C$DW$T$64)
     843                            .dwattr $C$DW$73, DW_AT_name("SelectADCCompBInput")
     844                            .dwattr $C$DW$73, DW_AT_TI_symbol_name("SelectADCCompBInput")
     845                            .dwattr $C$DW$73, DW_AT_data_member_location[DW_OP_plus_uconst 0x44]
     846                            .dwattr $C$DW$73, DW_AT_accessibility(DW_ACCESS_public)
     847                            .dwattr $C$DW$73, DW_AT_decl_file("C:\ti\simplelink_cc13x0_sdk_2_30_00_20\source\ti\devices\cc
     848                            .dwattr $C$DW$73, DW_AT_decl_line(0x87)
     849                            .dwattr $C$DW$73, DW_AT_decl_column(0x25)
     850                    
     851                    $C$DW$74        .dwtag  DW_TAG_member
     852                            .dwattr $C$DW$74, DW_AT_type(*$C$DW$T$65)
     853                            .dwattr $C$DW$74, DW_AT_name("SelectCompBRef")
     854                            .dwattr $C$DW$74, DW_AT_TI_symbol_name("SelectCompBRef")
     855                            .dwattr $C$DW$74, DW_AT_data_member_location[DW_OP_plus_uconst 0x48]
     856                            .dwattr $C$DW$74, DW_AT_accessibility(DW_ACCESS_public)
     857                            .dwattr $C$DW$74, DW_AT_decl_file("C:\ti\simplelink_cc13x0_sdk_2_30_00_20\source\ti\devices\cc
     858                            .dwattr $C$DW$74, DW_AT_decl_line(0x88)
     859                            .dwattr $C$DW$74, DW_AT_decl_column(0x25)
     860                    
     861                            .dwattr $C$DW$T$66, DW_AT_decl_file("C:\ti\simplelink_cc13x0_sdk_2_30_00_20\source\ti\devices\
     862                            .dwattr $C$DW$T$66, DW_AT_decl_line(0x75)
     863                            .dwattr $C$DW$T$66, DW_AT_decl_column(0x01)
     864                            .dwendtag $C$DW$T$66
     865                    
     866                    $C$DW$T$173     .dwtag  DW_TAG_typedef
     867                            .dwattr $C$DW$T$173, DW_AT_name("HARD_API_T")
     868                            .dwattr $C$DW$T$173, DW_AT_type(*$C$DW$T$66)
     869                            .dwattr $C$DW$T$173, DW_AT_language(DW_LANG_C)
     870                            .dwattr $C$DW$T$173, DW_AT_decl_file("C:\ti\simplelink_cc13x0_sdk_2_30_00_20\source\ti\devices
     871                            .dwattr $C$DW$T$173, DW_AT_decl_line(0x89)
     872                            .dwattr $C$DW$T$173, DW_AT_decl_column(0x03)
     873                    
     874                    
     875                    $C$DW$T$67      .dwtag  DW_TAG_structure_type
     876                            .dwattr $C$DW$T$67, DW_AT_byte_size(0x08)
     877                    $C$DW$75        .dwtag  DW_TAG_member
     878                            .dwattr $C$DW$75, DW_AT_type(*$C$DW$T$10)
TI ARM Assembler PC v18.1.3 Wed Nov 28 13:22:05 2018

Tools Copyright (c) 1996-2017 Texas Instruments Incorporated
C:\Users\Adrian\AppData\Local\Temp\{BD3F71B0-1117-47C0-BC43-1785123CD23C} PAGE   17

     879                            .dwattr $C$DW$75, DW_AT_name("quot")
     880                            .dwattr $C$DW$75, DW_AT_TI_symbol_name("quot")
     881                            .dwattr $C$DW$75, DW_AT_data_member_location[DW_OP_plus_uconst 0x0]
     882                            .dwattr $C$DW$75, DW_AT_accessibility(DW_ACCESS_public)
     883                            .dwattr $C$DW$75, DW_AT_decl_file("C:/ti/ccsv8/tools/compiler/ti-cgt-arm_18.1.3.LTS/include/st
     884                            .dwattr $C$DW$75, DW_AT_decl_line(0x49)
     885                            .dwattr $C$DW$75, DW_AT_decl_column(0x16)
     886                    
     887                    $C$DW$76        .dwtag  DW_TAG_member
     888                            .dwattr $C$DW$76, DW_AT_type(*$C$DW$T$10)
     889                            .dwattr $C$DW$76, DW_AT_name("rem")
     890                            .dwattr $C$DW$76, DW_AT_TI_symbol_name("rem")
     891                            .dwattr $C$DW$76, DW_AT_data_member_location[DW_OP_plus_uconst 0x4]
     892                            .dwattr $C$DW$76, DW_AT_accessibility(DW_ACCESS_public)
     893                            .dwattr $C$DW$76, DW_AT_decl_file("C:/ti/ccsv8/tools/compiler/ti-cgt-arm_18.1.3.LTS/include/st
     894                            .dwattr $C$DW$76, DW_AT_decl_line(0x49)
     895                            .dwattr $C$DW$76, DW_AT_decl_column(0x1c)
     896                    
     897                            .dwattr $C$DW$T$67, DW_AT_decl_file("C:/ti/ccsv8/tools/compiler/ti-cgt-arm_18.1.3.LTS/include/
     898                            .dwattr $C$DW$T$67, DW_AT_decl_line(0x49)
     899                            .dwattr $C$DW$T$67, DW_AT_decl_column(0x10)
     900                            .dwendtag $C$DW$T$67
     901                    
     902                    $C$DW$T$174     .dwtag  DW_TAG_typedef
     903                            .dwattr $C$DW$T$174, DW_AT_name("div_t")
     904                            .dwattr $C$DW$T$174, DW_AT_type(*$C$DW$T$67)
     905                            .dwattr $C$DW$T$174, DW_AT_language(DW_LANG_C)
     906                            .dwattr $C$DW$T$174, DW_AT_decl_file("C:/ti/ccsv8/tools/compiler/ti-cgt-arm_18.1.3.LTS/include
     907                            .dwattr $C$DW$T$174, DW_AT_decl_line(0x49)
     908                            .dwattr $C$DW$T$174, DW_AT_decl_column(0x23)
     909                    
     910                    
     911                    $C$DW$T$68      .dwtag  DW_TAG_structure_type
     912                            .dwattr $C$DW$T$68, DW_AT_byte_size(0x08)
     913                    $C$DW$77        .dwtag  DW_TAG_member
     914                            .dwattr $C$DW$77, DW_AT_type(*$C$DW$T$10)
     915                            .dwattr $C$DW$77, DW_AT_name("quot")
     916                            .dwattr $C$DW$77, DW_AT_TI_symbol_name("quot")
     917                            .dwattr $C$DW$77, DW_AT_data_member_location[DW_OP_plus_uconst 0x0]
     918                            .dwattr $C$DW$77, DW_AT_accessibility(DW_ACCESS_public)
     919                            .dwattr $C$DW$77, DW_AT_decl_file("C:/ti/ccsv8/tools/compiler/ti-cgt-arm_18.1.3.LTS/include/st
     920                            .dwattr $C$DW$77, DW_AT_decl_line(0x4e)
     921                            .dwattr $C$DW$77, DW_AT_decl_column(0x16)
     922                    
     923                    $C$DW$78        .dwtag  DW_TAG_member
     924                            .dwattr $C$DW$78, DW_AT_type(*$C$DW$T$10)
     925                            .dwattr $C$DW$78, DW_AT_name("rem")
     926                            .dwattr $C$DW$78, DW_AT_TI_symbol_name("rem")
     927                            .dwattr $C$DW$78, DW_AT_data_member_location[DW_OP_plus_uconst 0x4]
     928                            .dwattr $C$DW$78, DW_AT_accessibility(DW_ACCESS_public)
     929                            .dwattr $C$DW$78, DW_AT_decl_file("C:/ti/ccsv8/tools/compiler/ti-cgt-arm_18.1.3.LTS/include/st
     930                            .dwattr $C$DW$78, DW_AT_decl_line(0x4e)
     931                            .dwattr $C$DW$78, DW_AT_decl_column(0x1c)
     932                    
     933                            .dwattr $C$DW$T$68, DW_AT_decl_file("C:/ti/ccsv8/tools/compiler/ti-cgt-arm_18.1.3.LTS/include/
TI ARM Assembler PC v18.1.3 Wed Nov 28 13:22:05 2018

Tools Copyright (c) 1996-2017 Texas Instruments Incorporated
C:\Users\Adrian\AppData\Local\Temp\{BD3F71B0-1117-47C0-BC43-1785123CD23C} PAGE   18

     934                            .dwattr $C$DW$T$68, DW_AT_decl_line(0x4e)
     935                            .dwattr $C$DW$T$68, DW_AT_decl_column(0x10)
     936                            .dwendtag $C$DW$T$68
     937                    
     938                    $C$DW$T$175     .dwtag  DW_TAG_typedef
     939                            .dwattr $C$DW$T$175, DW_AT_name("ldiv_t")
     940                            .dwattr $C$DW$T$175, DW_AT_type(*$C$DW$T$68)
     941                            .dwattr $C$DW$T$175, DW_AT_language(DW_LANG_C)
     942                            .dwattr $C$DW$T$175, DW_AT_decl_file("C:/ti/ccsv8/tools/compiler/ti-cgt-arm_18.1.3.LTS/include
     943                            .dwattr $C$DW$T$175, DW_AT_decl_line(0x4e)
     944                            .dwattr $C$DW$T$175, DW_AT_decl_column(0x23)
     945                    
     946                    
     947                    $C$DW$T$69      .dwtag  DW_TAG_structure_type
     948                            .dwattr $C$DW$T$69, DW_AT_byte_size(0x10)
     949                    $C$DW$79        .dwtag  DW_TAG_member
     950                            .dwattr $C$DW$79, DW_AT_type(*$C$DW$T$14)
     951                            .dwattr $C$DW$79, DW_AT_name("quot")
     952                            .dwattr $C$DW$79, DW_AT_TI_symbol_name("quot")
     953                            .dwattr $C$DW$79, DW_AT_data_member_location[DW_OP_plus_uconst 0x0]
     954                            .dwattr $C$DW$79, DW_AT_accessibility(DW_ACCESS_public)
     955                            .dwattr $C$DW$79, DW_AT_decl_file("C:/ti/ccsv8/tools/compiler/ti-cgt-arm_18.1.3.LTS/include/st
     956                            .dwattr $C$DW$79, DW_AT_decl_line(0x56)
     957                            .dwattr $C$DW$79, DW_AT_decl_column(0x1c)
     958                    
     959                    $C$DW$80        .dwtag  DW_TAG_member
     960                            .dwattr $C$DW$80, DW_AT_type(*$C$DW$T$14)
     961                            .dwattr $C$DW$80, DW_AT_name("rem")
     962                            .dwattr $C$DW$80, DW_AT_TI_symbol_name("rem")
     963                            .dwattr $C$DW$80, DW_AT_data_member_location[DW_OP_plus_uconst 0x8]
     964                            .dwattr $C$DW$80, DW_AT_accessibility(DW_ACCESS_public)
     965                            .dwattr $C$DW$80, DW_AT_decl_file("C:/ti/ccsv8/tools/compiler/ti-cgt-arm_18.1.3.LTS/include/st
     966                            .dwattr $C$DW$80, DW_AT_decl_line(0x56)
     967                            .dwattr $C$DW$80, DW_AT_decl_column(0x22)
     968                    
     969                            .dwattr $C$DW$T$69, DW_AT_decl_file("C:/ti/ccsv8/tools/compiler/ti-cgt-arm_18.1.3.LTS/include/
     970                            .dwattr $C$DW$T$69, DW_AT_decl_line(0x56)
     971                            .dwattr $C$DW$T$69, DW_AT_decl_column(0x10)
     972                            .dwendtag $C$DW$T$69
     973                    
     974                    $C$DW$T$176     .dwtag  DW_TAG_typedef
     975                            .dwattr $C$DW$T$176, DW_AT_name("lldiv_t")
     976                            .dwattr $C$DW$T$176, DW_AT_type(*$C$DW$T$69)
     977                            .dwattr $C$DW$T$176, DW_AT_language(DW_LANG_C)
     978                            .dwattr $C$DW$T$176, DW_AT_decl_file("C:/ti/ccsv8/tools/compiler/ti-cgt-arm_18.1.3.LTS/include
     979                            .dwattr $C$DW$T$176, DW_AT_decl_line(0x56)
     980                            .dwattr $C$DW$T$176, DW_AT_decl_column(0x29)
     981                    
     982                    
     983                    $C$DW$T$74      .dwtag  DW_TAG_structure_type
     984                            .dwattr $C$DW$T$74, DW_AT_byte_size(0x08)
     985                    $C$DW$81        .dwtag  DW_TAG_member
     986                            .dwattr $C$DW$81, DW_AT_type(*$C$DW$T$72)
     987                            .dwattr $C$DW$81, DW_AT_name("pointerStack")
     988                            .dwattr $C$DW$81, DW_AT_TI_symbol_name("pointerStack")
TI ARM Assembler PC v18.1.3 Wed Nov 28 13:22:05 2018

Tools Copyright (c) 1996-2017 Texas Instruments Incorporated
C:\Users\Adrian\AppData\Local\Temp\{BD3F71B0-1117-47C0-BC43-1785123CD23C} PAGE   19

     989                            .dwattr $C$DW$81, DW_AT_data_member_location[DW_OP_plus_uconst 0x0]
     990                            .dwattr $C$DW$81, DW_AT_accessibility(DW_ACCESS_public)
     991                            .dwattr $C$DW$81, DW_AT_decl_file("C:/ti/simplelink_cc13x0_sdk_2_30_00_20/source/ti/ti154stack
     992                            .dwattr $C$DW$81, DW_AT_decl_line(0x3f5)
     993                            .dwattr $C$DW$81, DW_AT_decl_column(0x16)
     994                    
     995                    $C$DW$82        .dwtag  DW_TAG_member
     996                            .dwattr $C$DW$82, DW_AT_type(*$C$DW$T$73)
     997                            .dwattr $C$DW$82, DW_AT_name("directAPI")
     998                            .dwattr $C$DW$82, DW_AT_TI_symbol_name("directAPI")
     999                            .dwattr $C$DW$82, DW_AT_data_member_location[DW_OP_plus_uconst 0x4]
    1000                            .dwattr $C$DW$82, DW_AT_accessibility(DW_ACCESS_public)
    1001                            .dwattr $C$DW$82, DW_AT_decl_file("C:/ti/simplelink_cc13x0_sdk_2_30_00_20/source/ti/ti154stack
    1002                            .dwattr $C$DW$82, DW_AT_decl_line(0x3f6)
    1003                            .dwattr $C$DW$82, DW_AT_decl_column(0x15)
    1004                    
    1005                            .dwattr $C$DW$T$74, DW_AT_decl_file("C:/ti/simplelink_cc13x0_sdk_2_30_00_20/source/ti/ti154sta
    1006                            .dwattr $C$DW$T$74, DW_AT_decl_line(0x3f4)
    1007                            .dwattr $C$DW$T$74, DW_AT_decl_column(0x01)
    1008                            .dwendtag $C$DW$T$74
    1009                    
    1010                    $C$DW$T$76      .dwtag  DW_TAG_typedef
    1011                            .dwattr $C$DW$T$76, DW_AT_name("icall_directAPIMsg_t")
    1012                            .dwattr $C$DW$T$76, DW_AT_type(*$C$DW$T$74)
    1013                            .dwattr $C$DW$T$76, DW_AT_language(DW_LANG_C)
    1014                            .dwattr $C$DW$T$76, DW_AT_decl_file("C:/ti/simplelink_cc13x0_sdk_2_30_00_20/source/ti/ti154sta
    1015                            .dwattr $C$DW$T$76, DW_AT_decl_line(0x3f7)
    1016                            .dwattr $C$DW$T$76, DW_AT_decl_column(0x03)
    1017                    
    1018                    
    1019                    $C$DW$T$77      .dwtag  DW_TAG_structure_type
    1020                            .dwattr $C$DW$T$77, DW_AT_byte_size(0x14)
    1021                    $C$DW$83        .dwtag  DW_TAG_member
    1022                            .dwattr $C$DW$83, DW_AT_type(*$C$DW$T$75)
    1023                            .dwattr $C$DW$83, DW_AT_name("hdr")
    1024                            .dwattr $C$DW$83, DW_AT_TI_symbol_name("hdr")
    1025                            .dwattr $C$DW$83, DW_AT_data_member_location[DW_OP_plus_uconst 0x0]
    1026                            .dwattr $C$DW$83, DW_AT_accessibility(DW_ACCESS_public)
    1027                            .dwattr $C$DW$83, DW_AT_decl_file("C:/ti/simplelink_cc13x0_sdk_2_30_00_20/source/ti/ti154stack
    1028                            .dwattr $C$DW$83, DW_AT_decl_line(0x3fb)
    1029                            .dwattr $C$DW$83, DW_AT_decl_column(0x10)
    1030                    
    1031                    $C$DW$84        .dwtag  DW_TAG_member
    1032                            .dwattr $C$DW$84, DW_AT_type(*$C$DW$T$76)
    1033                            .dwattr $C$DW$84, DW_AT_name("msg")
    1034                            .dwattr $C$DW$84, DW_AT_TI_symbol_name("msg")
    1035                            .dwattr $C$DW$84, DW_AT_data_member_location[DW_OP_plus_uconst 0xc]
    1036                            .dwattr $C$DW$84, DW_AT_accessibility(DW_ACCESS_public)
    1037                            .dwattr $C$DW$84, DW_AT_decl_file("C:/ti/simplelink_cc13x0_sdk_2_30_00_20/source/ti/ti154stack
    1038                            .dwattr $C$DW$84, DW_AT_decl_line(0x3fc)
    1039                            .dwattr $C$DW$84, DW_AT_decl_column(0x1a)
    1040                    
    1041                            .dwattr $C$DW$T$77, DW_AT_decl_file("C:/ti/simplelink_cc13x0_sdk_2_30_00_20/source/ti/ti154sta
    1042                            .dwattr $C$DW$T$77, DW_AT_decl_line(0x3fa)
    1043                            .dwattr $C$DW$T$77, DW_AT_decl_column(0x01)
TI ARM Assembler PC v18.1.3 Wed Nov 28 13:22:05 2018

Tools Copyright (c) 1996-2017 Texas Instruments Incorporated
C:\Users\Adrian\AppData\Local\Temp\{BD3F71B0-1117-47C0-BC43-1785123CD23C} PAGE   20

    1044                            .dwendtag $C$DW$T$77
    1045                    
    1046                    $C$DW$T$177     .dwtag  DW_TAG_typedef
    1047                            .dwattr $C$DW$T$177, DW_AT_name("icallLiteMsg_t")
    1048                            .dwattr $C$DW$T$177, DW_AT_type(*$C$DW$T$77)
    1049                            .dwattr $C$DW$T$177, DW_AT_language(DW_LANG_C)
    1050                            .dwattr $C$DW$T$177, DW_AT_decl_file("C:/ti/simplelink_cc13x0_sdk_2_30_00_20/source/ti/ti154st
    1051                            .dwattr $C$DW$T$177, DW_AT_decl_line(0x3fd)
    1052                            .dwattr $C$DW$T$177, DW_AT_decl_column(0x03)
    1053                    
    1054                    
    1055                    $C$DW$T$84      .dwtag  DW_TAG_union_type
    1056                            .dwattr $C$DW$T$84, DW_AT_byte_size(0x02)
    1057                    $C$DW$85        .dwtag  DW_TAG_member
    1058                            .dwattr $C$DW$85, DW_AT_type(*$C$DW$T$80)
    1059                            .dwattr $C$DW$85, DW_AT_name("entityId")
    1060                            .dwattr $C$DW$85, DW_AT_TI_symbol_name("entityId")
    1061                            .dwattr $C$DW$85, DW_AT_data_member_location[DW_OP_plus_uconst 0x0]
    1062                            .dwattr $C$DW$85, DW_AT_accessibility(DW_ACCESS_public)
    1063                            .dwattr $C$DW$85, DW_AT_decl_file("C:/ti/simplelink_cc13x0_sdk_2_30_00_20/source/ti/ti154stack
    1064                            .dwattr $C$DW$85, DW_AT_decl_line(0x1fe)
    1065                            .dwattr $C$DW$85, DW_AT_decl_column(0x14)
    1066                    
    1067                    $C$DW$86        .dwtag  DW_TAG_member
    1068                            .dwattr $C$DW$86, DW_AT_type(*$C$DW$T$83)
    1069                            .dwattr $C$DW$86, DW_AT_name("servId")
    1070                            .dwattr $C$DW$86, DW_AT_TI_symbol_name("servId")
    1071                            .dwattr $C$DW$86, DW_AT_data_member_location[DW_OP_plus_uconst 0x0]
    1072                            .dwattr $C$DW$86, DW_AT_accessibility(DW_ACCESS_public)
    1073                            .dwattr $C$DW$86, DW_AT_decl_file("C:/ti/simplelink_cc13x0_sdk_2_30_00_20/source/ti/ti154stack
    1074                            .dwattr $C$DW$86, DW_AT_decl_line(0x200)
    1075                            .dwattr $C$DW$86, DW_AT_decl_column(0x17)
    1076                    
    1077                            .dwattr $C$DW$T$84, DW_AT_decl_file("C:/ti/simplelink_cc13x0_sdk_2_30_00_20/source/ti/ti154sta
    1078                            .dwattr $C$DW$T$84, DW_AT_decl_line(0x1fc)
    1079                            .dwattr $C$DW$T$84, DW_AT_decl_column(0x03)
    1080                            .dwendtag $C$DW$T$84
    1081                    
    1082                    
    1083                    $C$DW$T$85      .dwtag  DW_TAG_union_type
    1084                            .dwattr $C$DW$T$85, DW_AT_byte_size(0x02)
    1085                    $C$DW$87        .dwtag  DW_TAG_member
    1086                            .dwattr $C$DW$87, DW_AT_type(*$C$DW$T$83)
    1087                            .dwattr $C$DW$87, DW_AT_name("servId")
    1088                            .dwattr $C$DW$87, DW_AT_TI_symbol_name("servId")
    1089                            .dwattr $C$DW$87, DW_AT_data_member_location[DW_OP_plus_uconst 0x0]
    1090                            .dwattr $C$DW$87, DW_AT_accessibility(DW_ACCESS_public)
    1091                            .dwattr $C$DW$87, DW_AT_decl_file("C:/ti/simplelink_cc13x0_sdk_2_30_00_20/source/ti/ti154stack
    1092                            .dwattr $C$DW$87, DW_AT_decl_line(0x211)
    1093                            .dwattr $C$DW$87, DW_AT_decl_column(0x17)
    1094                    
    1095                    $C$DW$88        .dwtag  DW_TAG_member
    1096                            .dwattr $C$DW$88, DW_AT_type(*$C$DW$T$80)
    1097                            .dwattr $C$DW$88, DW_AT_name("entityId")
    1098                            .dwattr $C$DW$88, DW_AT_TI_symbol_name("entityId")
TI ARM Assembler PC v18.1.3 Wed Nov 28 13:22:05 2018

Tools Copyright (c) 1996-2017 Texas Instruments Incorporated
C:\Users\Adrian\AppData\Local\Temp\{BD3F71B0-1117-47C0-BC43-1785123CD23C} PAGE   21

    1099                            .dwattr $C$DW$88, DW_AT_data_member_location[DW_OP_plus_uconst 0x0]
    1100                            .dwattr $C$DW$88, DW_AT_accessibility(DW_ACCESS_public)
    1101                            .dwattr $C$DW$88, DW_AT_decl_file("C:/ti/simplelink_cc13x0_sdk_2_30_00_20/source/ti/ti154stack
    1102                            .dwattr $C$DW$88, DW_AT_decl_line(0x213)
    1103                            .dwattr $C$DW$88, DW_AT_decl_column(0x14)
    1104                    
    1105                            .dwattr $C$DW$T$85, DW_AT_decl_file("C:/ti/simplelink_cc13x0_sdk_2_30_00_20/source/ti/ti154sta
    1106                            .dwattr $C$DW$T$85, DW_AT_decl_line(0x20f)
    1107                            .dwattr $C$DW$T$85, DW_AT_decl_column(0x03)
    1108                            .dwendtag $C$DW$T$85
    1109                    
    1110                    
    1111                    $C$DW$T$86      .dwtag  DW_TAG_structure_type
    1112                            .dwattr $C$DW$T$86, DW_AT_name("_ICall_LiteCmdStatus_")
    1113                            .dwattr $C$DW$T$86, DW_AT_byte_size(0x01)
    1114                    $C$DW$89        .dwtag  DW_TAG_member
    1115                            .dwattr $C$DW$89, DW_AT_type(*$C$DW$T$79)
    1116                            .dwattr $C$DW$89, DW_AT_name("cmdId")
    1117                            .dwattr $C$DW$89, DW_AT_TI_symbol_name("cmdId")
    1118                            .dwattr $C$DW$89, DW_AT_data_member_location[DW_OP_plus_uconst 0x0]
    1119                            .dwattr $C$DW$89, DW_AT_accessibility(DW_ACCESS_public)
    1120                            .dwattr $C$DW$89, DW_AT_decl_file("C:/ti/simplelink_cc13x0_sdk_2_30_00_20/source/ti/ti154stack
    1121                            .dwattr $C$DW$89, DW_AT_decl_line(0x3f0)
    1122                            .dwattr $C$DW$89, DW_AT_decl_column(0x11)
    1123                    
    1124                            .dwattr $C$DW$T$86, DW_AT_decl_file("C:/ti/simplelink_cc13x0_sdk_2_30_00_20/source/ti/ti154sta
    1125                            .dwattr $C$DW$T$86, DW_AT_decl_line(0x3ee)
    1126                            .dwattr $C$DW$T$86, DW_AT_decl_column(0x10)
    1127                            .dwendtag $C$DW$T$86
    1128                    
    1129                    $C$DW$T$178     .dwtag  DW_TAG_typedef
    1130                            .dwattr $C$DW$T$178, DW_AT_name("ICall_LiteCmdStatus")
    1131                            .dwattr $C$DW$T$178, DW_AT_type(*$C$DW$T$86)
    1132                            .dwattr $C$DW$T$178, DW_AT_language(DW_LANG_C)
    1133                            .dwattr $C$DW$T$178, DW_AT_decl_file("C:/ti/simplelink_cc13x0_sdk_2_30_00_20/source/ti/ti154st
    1134                            .dwattr $C$DW$T$178, DW_AT_decl_line(0x3f1)
    1135                            .dwattr $C$DW$T$178, DW_AT_decl_column(0x03)
    1136                    
    1137                    $C$DW$T$2       .dwtag  DW_TAG_unspecified_type
    1138                            .dwattr $C$DW$T$2, DW_AT_name("void")
    1139                    
    1140                    $C$DW$T$3       .dwtag  DW_TAG_pointer_type
    1141                            .dwattr $C$DW$T$3, DW_AT_type(*$C$DW$T$2)
    1142                            .dwattr $C$DW$T$3, DW_AT_address_class(0x20)
    1143                    
    1144                    $C$DW$T$179     .dwtag  DW_TAG_typedef
    1145                            .dwattr $C$DW$T$179, DW_AT_name("ICall_Semaphore")
    1146                            .dwattr $C$DW$T$179, DW_AT_type(*$C$DW$T$3)
    1147                            .dwattr $C$DW$T$179, DW_AT_language(DW_LANG_C)
    1148                            .dwattr $C$DW$T$179, DW_AT_decl_file("C:/ti/simplelink_cc13x0_sdk_2_30_00_20/source/ti/ti154st
    1149                            .dwattr $C$DW$T$179, DW_AT_decl_line(0x1ac)
    1150                            .dwattr $C$DW$T$179, DW_AT_decl_column(0x0f)
    1151                    
    1152                    $C$DW$T$102     .dwtag  DW_TAG_typedef
    1153                            .dwattr $C$DW$T$102, DW_AT_name("ICall_SyncHandle")
TI ARM Assembler PC v18.1.3 Wed Nov 28 13:22:05 2018

Tools Copyright (c) 1996-2017 Texas Instruments Incorporated
C:\Users\Adrian\AppData\Local\Temp\{BD3F71B0-1117-47C0-BC43-1785123CD23C} PAGE   22

    1154                            .dwattr $C$DW$T$102, DW_AT_type(*$C$DW$T$3)
    1155                            .dwattr $C$DW$T$102, DW_AT_language(DW_LANG_C)
    1156                            .dwattr $C$DW$T$102, DW_AT_decl_file("C:/ti/simplelink_cc13x0_sdk_2_30_00_20/source/ti/ti154st
    1157                            .dwattr $C$DW$T$102, DW_AT_decl_line(0x1aa)
    1158                            .dwattr $C$DW$T$102, DW_AT_decl_column(0x0f)
    1159                    
    1160                    $C$DW$T$150     .dwtag  DW_TAG_typedef
    1161                            .dwattr $C$DW$T$150, DW_AT_name("ICall_TimerID")
    1162                            .dwattr $C$DW$T$150, DW_AT_type(*$C$DW$T$3)
    1163                            .dwattr $C$DW$T$150, DW_AT_language(DW_LANG_C)
    1164                            .dwattr $C$DW$T$150, DW_AT_decl_file("C:/ti/simplelink_cc13x0_sdk_2_30_00_20/source/ti/ti154st
    1165                            .dwattr $C$DW$T$150, DW_AT_decl_line(0x1b7)
    1166                            .dwattr $C$DW$T$150, DW_AT_decl_column(0x0f)
    1167                    
    1168                    
    1169                    $C$DW$T$39      .dwtag  DW_TAG_subroutine_type
    1170                            .dwattr $C$DW$T$39, DW_AT_language(DW_LANG_C)
    1171                            .dwendtag $C$DW$T$39
    1172                    
    1173                    $C$DW$T$40      .dwtag  DW_TAG_pointer_type
    1174                            .dwattr $C$DW$T$40, DW_AT_type(*$C$DW$T$39)
    1175                            .dwattr $C$DW$T$40, DW_AT_address_class(0x20)
    1176                    
    1177                    $C$DW$T$166     .dwtag  DW_TAG_typedef
    1178                            .dwattr $C$DW$T$166, DW_AT_name("APPASRTINTF_callAssrtHndler")
    1179                            .dwattr $C$DW$T$166, DW_AT_type(*$C$DW$T$40)
    1180                            .dwattr $C$DW$T$166, DW_AT_language(DW_LANG_C)
    1181                            .dwattr $C$DW$T$166, DW_AT_decl_file("C:/ti/simplelink_cc13x0_sdk_2_30_00_20/source/ti/ti154st
    1182                            .dwattr $C$DW$T$166, DW_AT_decl_line(0x43)
    1183                            .dwattr $C$DW$T$166, DW_AT_decl_column(0x10)
    1184                    
    1185                    $C$DW$T$59      .dwtag  DW_TAG_typedef
    1186                            .dwattr $C$DW$T$59, DW_AT_name("FPTR_HFSOURCESAFESWITCH_T")
    1187                            .dwattr $C$DW$T$59, DW_AT_type(*$C$DW$T$40)
    1188                            .dwattr $C$DW$T$59, DW_AT_language(DW_LANG_C)
    1189                            .dwattr $C$DW$T$59, DW_AT_decl_file("C:\ti\simplelink_cc13x0_sdk_2_30_00_20\source\ti\devices\
    1190                            .dwattr $C$DW$T$59, DW_AT_decl_line(0x5f)
    1191                            .dwattr $C$DW$T$59, DW_AT_decl_column(0x19)
    1192                    
    1193                    $C$DW$T$41      .dwtag  DW_TAG_typedef
    1194                            .dwattr $C$DW$T$41, DW_AT_name("FPTR_RESETDEV_T")
    1195                            .dwattr $C$DW$T$41, DW_AT_type(*$C$DW$T$40)
    1196                            .dwattr $C$DW$T$41, DW_AT_language(DW_LANG_C)
    1197                            .dwattr $C$DW$T$41, DW_AT_decl_file("C:\ti\simplelink_cc13x0_sdk_2_30_00_20\source\ti\devices\
    1198                            .dwattr $C$DW$T$41, DW_AT_decl_line(0x4d)
    1199                            .dwattr $C$DW$T$41, DW_AT_decl_column(0x19)
    1200                    
    1201                    $C$DW$T$180     .dwtag  DW_TAG_typedef
    1202                            .dwattr $C$DW$T$180, DW_AT_name("FPTR_VOID_VOID_T")
    1203                            .dwattr $C$DW$T$180, DW_AT_type(*$C$DW$T$40)
    1204                            .dwattr $C$DW$T$180, DW_AT_language(DW_LANG_C)
    1205                            .dwattr $C$DW$T$180, DW_AT_decl_file("C:/ti/simplelink_cc13x0_sdk_2_30_00_20/source/ti/devices
    1206                            .dwattr $C$DW$T$180, DW_AT_decl_line(0x33)
    1207                            .dwattr $C$DW$T$180, DW_AT_decl_column(0x11)
    1208                    
TI ARM Assembler PC v18.1.3 Wed Nov 28 13:22:05 2018

Tools Copyright (c) 1996-2017 Texas Instruments Incorporated
C:\Users\Adrian\AppData\Local\Temp\{BD3F71B0-1117-47C0-BC43-1785123CD23C} PAGE   23

    1209                    $C$DW$T$181     .dwtag  DW_TAG_typedef
    1210                            .dwattr $C$DW$T$181, DW_AT_name("__TI_atexit_fn")
    1211                            .dwattr $C$DW$T$181, DW_AT_type(*$C$DW$T$40)
    1212                            .dwattr $C$DW$T$181, DW_AT_language(DW_LANG_C)
    1213                            .dwattr $C$DW$T$181, DW_AT_decl_file("C:/ti/ccsv8/tools/compiler/ti-cgt-arm_18.1.3.LTS/include
    1214                            .dwattr $C$DW$T$181, DW_AT_decl_line(0xb2)
    1215                            .dwattr $C$DW$T$181, DW_AT_decl_column(0x14)
    1216                    
    1217                    
    1218                    $C$DW$T$55      .dwtag  DW_TAG_subroutine_type
    1219                            .dwattr $C$DW$T$55, DW_AT_language(DW_LANG_C)
    1220                    $C$DW$90        .dwtag  DW_TAG_formal_parameter
    1221                            .dwattr $C$DW$90, DW_AT_type(*$C$DW$T$23)
    1222                    
    1223                            .dwendtag $C$DW$T$55
    1224                    
    1225                    $C$DW$T$56      .dwtag  DW_TAG_pointer_type
    1226                            .dwattr $C$DW$T$56, DW_AT_type(*$C$DW$T$55)
    1227                            .dwattr $C$DW$T$56, DW_AT_address_class(0x20)
    1228                    
    1229                    $C$DW$T$57      .dwtag  DW_TAG_typedef
    1230                            .dwattr $C$DW$T$57, DW_AT_name("FPTR_RESERVED4_T")
    1231                            .dwattr $C$DW$T$57, DW_AT_type(*$C$DW$T$56)
    1232                            .dwattr $C$DW$T$57, DW_AT_language(DW_LANG_C)
    1233                            .dwattr $C$DW$T$57, DW_AT_decl_file("C:\ti\simplelink_cc13x0_sdk_2_30_00_20\source\ti\devices\
    1234                            .dwattr $C$DW$T$57, DW_AT_decl_line(0x61)
    1235                            .dwattr $C$DW$T$57, DW_AT_decl_column(0x19)
    1236                    
    1237                    $C$DW$T$58      .dwtag  DW_TAG_typedef
    1238                            .dwattr $C$DW$T$58, DW_AT_name("FPTR_RESERVED5_T")
    1239                            .dwattr $C$DW$T$58, DW_AT_type(*$C$DW$T$56)
    1240                            .dwattr $C$DW$T$58, DW_AT_language(DW_LANG_C)
    1241                            .dwattr $C$DW$T$58, DW_AT_decl_file("C:\ti\simplelink_cc13x0_sdk_2_30_00_20\source\ti\devices\
    1242                            .dwattr $C$DW$T$58, DW_AT_decl_line(0x63)
    1243                            .dwattr $C$DW$T$58, DW_AT_decl_column(0x19)
    1244                    
    1245                    
    1246                    $C$DW$T$60      .dwtag  DW_TAG_subroutine_type
    1247                            .dwattr $C$DW$T$60, DW_AT_language(DW_LANG_C)
    1248                    $C$DW$91        .dwtag  DW_TAG_formal_parameter
    1249                            .dwattr $C$DW$91, DW_AT_type(*$C$DW$T$25)
    1250                    
    1251                            .dwendtag $C$DW$T$60
    1252                    
    1253                    $C$DW$T$61      .dwtag  DW_TAG_pointer_type
    1254                            .dwattr $C$DW$T$61, DW_AT_type(*$C$DW$T$60)
    1255                            .dwattr $C$DW$T$61, DW_AT_address_class(0x20)
    1256                    
    1257                    $C$DW$T$64      .dwtag  DW_TAG_typedef
    1258                            .dwattr $C$DW$T$64, DW_AT_name("FPTR_ADCCOMPBIN_T")
    1259                            .dwattr $C$DW$T$64, DW_AT_type(*$C$DW$T$61)
    1260                            .dwattr $C$DW$T$64, DW_AT_language(DW_LANG_C)
    1261                            .dwattr $C$DW$T$64, DW_AT_decl_file("C:\ti\simplelink_cc13x0_sdk_2_30_00_20\source\ti\devices\
    1262                            .dwattr $C$DW$T$64, DW_AT_decl_line(0x69)
    1263                            .dwattr $C$DW$T$64, DW_AT_decl_column(0x19)
TI ARM Assembler PC v18.1.3 Wed Nov 28 13:22:05 2018

Tools Copyright (c) 1996-2017 Texas Instruments Incorporated
C:\Users\Adrian\AppData\Local\Temp\{BD3F71B0-1117-47C0-BC43-1785123CD23C} PAGE   24

    1264                    
    1265                    $C$DW$T$62      .dwtag  DW_TAG_typedef
    1266                            .dwattr $C$DW$T$62, DW_AT_name("FPTR_COMPAIN_T")
    1267                            .dwattr $C$DW$T$62, DW_AT_type(*$C$DW$T$61)
    1268                            .dwattr $C$DW$T$62, DW_AT_language(DW_LANG_C)
    1269                            .dwattr $C$DW$T$62, DW_AT_decl_file("C:\ti\simplelink_cc13x0_sdk_2_30_00_20\source\ti\devices\
    1270                            .dwattr $C$DW$T$62, DW_AT_decl_line(0x65)
    1271                            .dwattr $C$DW$T$62, DW_AT_decl_column(0x19)
    1272                    
    1273                    $C$DW$T$63      .dwtag  DW_TAG_typedef
    1274                            .dwattr $C$DW$T$63, DW_AT_name("FPTR_COMPAREF_T")
    1275                            .dwattr $C$DW$T$63, DW_AT_type(*$C$DW$T$61)
    1276                            .dwattr $C$DW$T$63, DW_AT_language(DW_LANG_C)
    1277                            .dwattr $C$DW$T$63, DW_AT_decl_file("C:\ti\simplelink_cc13x0_sdk_2_30_00_20\source\ti\devices\
    1278                            .dwattr $C$DW$T$63, DW_AT_decl_line(0x67)
    1279                            .dwattr $C$DW$T$63, DW_AT_decl_column(0x19)
    1280                    
    1281                    $C$DW$T$65      .dwtag  DW_TAG_typedef
    1282                            .dwattr $C$DW$T$65, DW_AT_name("FPTR_COMPBREF_T")
    1283                            .dwattr $C$DW$T$65, DW_AT_type(*$C$DW$T$61)
    1284                            .dwattr $C$DW$T$65, DW_AT_language(DW_LANG_C)
    1285                            .dwattr $C$DW$T$65, DW_AT_decl_file("C:\ti\simplelink_cc13x0_sdk_2_30_00_20\source\ti\devices\
    1286                            .dwattr $C$DW$T$65, DW_AT_decl_line(0x6b)
    1287                            .dwattr $C$DW$T$65, DW_AT_decl_column(0x19)
    1288                    
    1289                    $C$DW$T$182     .dwtag  DW_TAG_typedef
    1290                            .dwattr $C$DW$T$182, DW_AT_name("FPTR_VOID_UINT8_T")
    1291                            .dwattr $C$DW$T$182, DW_AT_type(*$C$DW$T$61)
    1292                            .dwattr $C$DW$T$182, DW_AT_language(DW_LANG_C)
    1293                            .dwattr $C$DW$T$182, DW_AT_decl_file("C:/ti/simplelink_cc13x0_sdk_2_30_00_20/source/ti/devices
    1294                            .dwattr $C$DW$T$182, DW_AT_decl_line(0x34)
    1295                            .dwattr $C$DW$T$182, DW_AT_decl_column(0x11)
    1296                    
    1297                    
    1298                    $C$DW$T$91      .dwtag  DW_TAG_subroutine_type
    1299                            .dwattr $C$DW$T$91, DW_AT_language(DW_LANG_C)
    1300                    $C$DW$92        .dwtag  DW_TAG_formal_parameter
    1301                            .dwattr $C$DW$92, DW_AT_type(*$C$DW$T$89)
    1302                    
    1303                            .dwendtag $C$DW$T$91
    1304                    
    1305                    $C$DW$T$92      .dwtag  DW_TAG_pointer_type
    1306                            .dwattr $C$DW$T$92, DW_AT_type(*$C$DW$T$91)
    1307                            .dwattr $C$DW$T$92, DW_AT_address_class(0x20)
    1308                    
    1309                    
    1310                    $C$DW$T$128     .dwtag  DW_TAG_subroutine_type
    1311                            .dwattr $C$DW$T$128, DW_AT_language(DW_LANG_C)
    1312                    $C$DW$93        .dwtag  DW_TAG_formal_parameter
    1313                            .dwattr $C$DW$93, DW_AT_type(*$C$DW$T$126)
    1314                    
    1315                    $C$DW$94        .dwtag  DW_TAG_formal_parameter
    1316                            .dwattr $C$DW$94, DW_AT_type(*$C$DW$T$127)
    1317                    
    1318                            .dwendtag $C$DW$T$128
TI ARM Assembler PC v18.1.3 Wed Nov 28 13:22:05 2018

Tools Copyright (c) 1996-2017 Texas Instruments Incorporated
C:\Users\Adrian\AppData\Local\Temp\{BD3F71B0-1117-47C0-BC43-1785123CD23C} PAGE   25

    1319                    
    1320                    $C$DW$T$129     .dwtag  DW_TAG_pointer_type
    1321                            .dwattr $C$DW$T$129, DW_AT_type(*$C$DW$T$128)
    1322                            .dwattr $C$DW$T$129, DW_AT_address_class(0x20)
    1323                    
    1324                    $C$DW$T$130     .dwtag  DW_TAG_typedef
    1325                            .dwattr $C$DW$T$130, DW_AT_name("ICall_PwrNotifyFn")
    1326                            .dwattr $C$DW$T$130, DW_AT_type(*$C$DW$T$129)
    1327                            .dwattr $C$DW$T$130, DW_AT_language(DW_LANG_C)
    1328                            .dwattr $C$DW$T$130, DW_AT_decl_file("C:/ti/simplelink_cc13x0_sdk_2_30_00_20/source/ti/ti154st
    1329                            .dwattr $C$DW$T$130, DW_AT_decl_line(0x333)
    1330                            .dwattr $C$DW$T$130, DW_AT_decl_column(0x10)
    1331                    
    1332                    
    1333                    $C$DW$T$144     .dwtag  DW_TAG_subroutine_type
    1334                            .dwattr $C$DW$T$144, DW_AT_language(DW_LANG_C)
    1335                    $C$DW$95        .dwtag  DW_TAG_formal_parameter
    1336                            .dwattr $C$DW$95, DW_AT_type(*$C$DW$T$140)
    1337                    
    1338                            .dwendtag $C$DW$T$144
    1339                    
    1340                    $C$DW$T$145     .dwtag  DW_TAG_pointer_type
    1341                            .dwattr $C$DW$T$145, DW_AT_type(*$C$DW$T$144)
    1342                            .dwattr $C$DW$T$145, DW_AT_address_class(0x20)
    1343                    
    1344                    $C$DW$T$146     .dwtag  DW_TAG_typedef
    1345                            .dwattr $C$DW$T$146, DW_AT_name("ICall_LeaveCS")
    1346                            .dwattr $C$DW$T$146, DW_AT_type(*$C$DW$T$145)
    1347                            .dwattr $C$DW$T$146, DW_AT_language(DW_LANG_C)
    1348                            .dwattr $C$DW$T$146, DW_AT_decl_file("C:/ti/simplelink_cc13x0_sdk_2_30_00_20/source/ti/ti154st
    1349                            .dwattr $C$DW$T$146, DW_AT_decl_line(0x37e)
    1350                            .dwattr $C$DW$T$146, DW_AT_decl_column(0x10)
    1351                    
    1352                    
    1353                    $C$DW$T$151     .dwtag  DW_TAG_subroutine_type
    1354                            .dwattr $C$DW$T$151, DW_AT_language(DW_LANG_C)
    1355                    $C$DW$96        .dwtag  DW_TAG_formal_parameter
    1356                            .dwattr $C$DW$96, DW_AT_type(*$C$DW$T$3)
    1357                    
    1358                            .dwendtag $C$DW$T$151
    1359                    
    1360                    $C$DW$T$152     .dwtag  DW_TAG_pointer_type
    1361                            .dwattr $C$DW$T$152, DW_AT_type(*$C$DW$T$151)
    1362                            .dwattr $C$DW$T$152, DW_AT_address_class(0x20)
    1363                    
    1364                    $C$DW$T$153     .dwtag  DW_TAG_typedef
    1365                            .dwattr $C$DW$T$153, DW_AT_name("ICall_TimerCback")
    1366                            .dwattr $C$DW$T$153, DW_AT_type(*$C$DW$T$152)
    1367                            .dwattr $C$DW$T$153, DW_AT_language(DW_LANG_C)
    1368                            .dwattr $C$DW$T$153, DW_AT_decl_file("C:/ti/simplelink_cc13x0_sdk_2_30_00_20/source/ti/ti154st
    1369                            .dwattr $C$DW$T$153, DW_AT_decl_line(0x1c8)
    1370                            .dwattr $C$DW$T$153, DW_AT_decl_column(0x10)
    1371                    
    1372                    $C$DW$T$160     .dwtag  DW_TAG_const_type
    1373                            .dwattr $C$DW$T$160, DW_AT_type(*$C$DW$T$2)
TI ARM Assembler PC v18.1.3 Wed Nov 28 13:22:05 2018

Tools Copyright (c) 1996-2017 Texas Instruments Incorporated
C:\Users\Adrian\AppData\Local\Temp\{BD3F71B0-1117-47C0-BC43-1785123CD23C} PAGE   26

    1374                    
    1375                    $C$DW$T$161     .dwtag  DW_TAG_pointer_type
    1376                            .dwattr $C$DW$T$161, DW_AT_type(*$C$DW$T$160)
    1377                            .dwattr $C$DW$T$161, DW_AT_address_class(0x20)
    1378                    
    1379                    
    1380                    $C$DW$T$190     .dwtag  DW_TAG_subroutine_type
    1381                            .dwattr $C$DW$T$190, DW_AT_language(DW_LANG_C)
    1382                    $C$DW$97        .dwtag  DW_TAG_formal_parameter
    1383                            .dwattr $C$DW$97, DW_AT_type(*$C$DW$T$183)
    1384                    
    1385                    $C$DW$98        .dwtag  DW_TAG_formal_parameter
    1386                            .dwattr $C$DW$98, DW_AT_type(*$C$DW$T$183)
    1387                    
    1388                            .dwendtag $C$DW$T$190
    1389                    
    1390                    $C$DW$T$191     .dwtag  DW_TAG_pointer_type
    1391                            .dwattr $C$DW$T$191, DW_AT_type(*$C$DW$T$190)
    1392                            .dwattr $C$DW$T$191, DW_AT_address_class(0x20)
    1393                    
    1394                    $C$DW$T$192     .dwtag  DW_TAG_typedef
    1395                            .dwattr $C$DW$T$192, DW_AT_name("assertCback_t")
    1396                            .dwattr $C$DW$T$192, DW_AT_type(*$C$DW$T$191)
    1397                            .dwattr $C$DW$T$192, DW_AT_language(DW_LANG_C)
    1398                            .dwattr $C$DW$T$192, DW_AT_decl_file("C:/ti/simplelink_cc13x0_sdk_2_30_00_20/source/ti/ti154st
    1399                            .dwattr $C$DW$T$192, DW_AT_decl_line(0xd3)
    1400                            .dwattr $C$DW$T$192, DW_AT_decl_column(0x10)
    1401                    
    1402                    
    1403                    $C$DW$T$196     .dwtag  DW_TAG_subroutine_type
    1404                            .dwattr $C$DW$T$196, DW_AT_language(DW_LANG_C)
    1405                    $C$DW$99        .dwtag  DW_TAG_formal_parameter
    1406                            .dwattr $C$DW$99, DW_AT_type(*$C$DW$T$195)
    1407                    
    1408                    $C$DW$100       .dwtag  DW_TAG_formal_parameter
    1409                            .dwattr $C$DW$100, DW_AT_type(*$C$DW$T$3)
    1410                    
    1411                            .dwendtag $C$DW$T$196
    1412                    
    1413                    $C$DW$T$197     .dwtag  DW_TAG_pointer_type
    1414                            .dwattr $C$DW$T$197, DW_AT_type(*$C$DW$T$196)
    1415                            .dwattr $C$DW$T$197, DW_AT_address_class(0x20)
    1416                    
    1417                    $C$DW$T$198     .dwtag  DW_TAG_typedef
    1418                            .dwattr $C$DW$T$198, DW_AT_name("ICall_RemoteTaskEntry")
    1419                            .dwattr $C$DW$T$198, DW_AT_type(*$C$DW$T$197)
    1420                            .dwattr $C$DW$T$198, DW_AT_language(DW_LANG_C)
    1421                            .dwattr $C$DW$T$198, DW_AT_decl_file("C:/ti/simplelink_cc13x0_sdk_2_30_00_20/source/ti/ti154st
    1422                            .dwattr $C$DW$T$198, DW_AT_decl_line(0x39b)
    1423                            .dwattr $C$DW$T$198, DW_AT_decl_column(0x10)
    1424                    
    1425                    $C$DW$T$4       .dwtag  DW_TAG_base_type
    1426                            .dwattr $C$DW$T$4, DW_AT_encoding(DW_ATE_boolean)
    1427                            .dwattr $C$DW$T$4, DW_AT_name("bool")
    1428                            .dwattr $C$DW$T$4, DW_AT_byte_size(0x01)
TI ARM Assembler PC v18.1.3 Wed Nov 28 13:22:05 2018

Tools Copyright (c) 1996-2017 Texas Instruments Incorporated
C:\Users\Adrian\AppData\Local\Temp\{BD3F71B0-1117-47C0-BC43-1785123CD23C} PAGE   27

    1429                    
    1430                    $C$DW$T$5       .dwtag  DW_TAG_base_type
    1431                            .dwattr $C$DW$T$5, DW_AT_encoding(DW_ATE_signed_char)
    1432                            .dwattr $C$DW$T$5, DW_AT_name("signed char")
    1433                            .dwattr $C$DW$T$5, DW_AT_byte_size(0x01)
    1434                    
    1435                    $C$DW$T$199     .dwtag  DW_TAG_typedef
    1436                            .dwattr $C$DW$T$199, DW_AT_name("__int8_t")
    1437                            .dwattr $C$DW$T$199, DW_AT_type(*$C$DW$T$5)
    1438                            .dwattr $C$DW$T$199, DW_AT_language(DW_LANG_C)
    1439                            .dwattr $C$DW$T$199, DW_AT_decl_file("C:/ti/ccsv8/tools/compiler/ti-cgt-arm_18.1.3.LTS/include
    1440                            .dwattr $C$DW$T$199, DW_AT_decl_line(0x39)
    1441                            .dwattr $C$DW$T$199, DW_AT_decl_column(0x16)
    1442                    
    1443                    $C$DW$T$200     .dwtag  DW_TAG_typedef
    1444                            .dwattr $C$DW$T$200, DW_AT_name("__int_least8_t")
    1445                            .dwattr $C$DW$T$200, DW_AT_type(*$C$DW$T$199)
    1446                            .dwattr $C$DW$T$200, DW_AT_language(DW_LANG_C)
    1447                            .dwattr $C$DW$T$200, DW_AT_decl_file("C:/ti/ccsv8/tools/compiler/ti-cgt-arm_18.1.3.LTS/include
    1448                            .dwattr $C$DW$T$200, DW_AT_decl_line(0x58)
    1449                            .dwattr $C$DW$T$200, DW_AT_decl_column(0x12)
    1450                    
    1451                    $C$DW$T$201     .dwtag  DW_TAG_typedef
    1452                            .dwattr $C$DW$T$201, DW_AT_name("int_least8_t")
    1453                            .dwattr $C$DW$T$201, DW_AT_type(*$C$DW$T$200)
    1454                            .dwattr $C$DW$T$201, DW_AT_language(DW_LANG_C)
    1455                            .dwattr $C$DW$T$201, DW_AT_decl_file("C:/ti/ccsv8/tools/compiler/ti-cgt-arm_18.1.3.LTS/include
    1456                            .dwattr $C$DW$T$201, DW_AT_decl_line(0x28)
    1457                            .dwattr $C$DW$T$201, DW_AT_decl_column(0x19)
    1458                    
    1459                    $C$DW$T$202     .dwtag  DW_TAG_typedef
    1460                            .dwattr $C$DW$T$202, DW_AT_name("int8_t")
    1461                            .dwattr $C$DW$T$202, DW_AT_type(*$C$DW$T$199)
    1462                            .dwattr $C$DW$T$202, DW_AT_language(DW_LANG_C)
    1463                            .dwattr $C$DW$T$202, DW_AT_decl_file("C:/ti/ccsv8/tools/compiler/ti-cgt-arm_18.1.3.LTS/include
    1464                            .dwattr $C$DW$T$202, DW_AT_decl_line(0x24)
    1465                            .dwattr $C$DW$T$202, DW_AT_decl_column(0x13)
    1466                    
    1467                    $C$DW$T$203     .dwtag  DW_TAG_typedef
    1468                            .dwattr $C$DW$T$203, DW_AT_name("int8")
    1469                            .dwattr $C$DW$T$203, DW_AT_type(*$C$DW$T$5)
    1470                            .dwattr $C$DW$T$203, DW_AT_language(DW_LANG_C)
    1471                            .dwattr $C$DW$T$203, DW_AT_decl_file("C:\ti\simplelink_cc13x0_sdk_2_30_00_20\source\ti\ti154st
    1472                            .dwattr $C$DW$T$203, DW_AT_decl_line(0x38)
    1473                            .dwattr $C$DW$T$203, DW_AT_decl_column(0x19)
    1474                    
    1475                    $C$DW$T$6       .dwtag  DW_TAG_base_type
    1476                            .dwattr $C$DW$T$6, DW_AT_encoding(DW_ATE_unsigned_char)
    1477                            .dwattr $C$DW$T$6, DW_AT_name("unsigned char")
    1478                            .dwattr $C$DW$T$6, DW_AT_byte_size(0x01)
    1479                    
    1480                    $C$DW$T$24      .dwtag  DW_TAG_typedef
    1481                            .dwattr $C$DW$T$24, DW_AT_name("__uint8_t")
    1482                            .dwattr $C$DW$T$24, DW_AT_type(*$C$DW$T$6)
    1483                            .dwattr $C$DW$T$24, DW_AT_language(DW_LANG_C)
TI ARM Assembler PC v18.1.3 Wed Nov 28 13:22:05 2018

Tools Copyright (c) 1996-2017 Texas Instruments Incorporated
C:\Users\Adrian\AppData\Local\Temp\{BD3F71B0-1117-47C0-BC43-1785123CD23C} PAGE   28

    1484                            .dwattr $C$DW$T$24, DW_AT_decl_file("C:/ti/ccsv8/tools/compiler/ti-cgt-arm_18.1.3.LTS/include/
    1485                            .dwattr $C$DW$T$24, DW_AT_decl_line(0x3a)
    1486                            .dwattr $C$DW$T$24, DW_AT_decl_column(0x18)
    1487                    
    1488                    $C$DW$T$209     .dwtag  DW_TAG_typedef
    1489                            .dwattr $C$DW$T$209, DW_AT_name("__sa_family_t")
    1490                            .dwattr $C$DW$T$209, DW_AT_type(*$C$DW$T$24)
    1491                            .dwattr $C$DW$T$209, DW_AT_language(DW_LANG_C)
    1492                            .dwattr $C$DW$T$209, DW_AT_decl_file("C:/ti/ccsv8/tools/compiler/ti-cgt-arm_18.1.3.LTS/include
    1493                            .dwattr $C$DW$T$209, DW_AT_decl_line(0x43)
    1494                            .dwattr $C$DW$T$209, DW_AT_decl_column(0x13)
    1495                    
    1496                    $C$DW$T$78      .dwtag  DW_TAG_typedef
    1497                            .dwattr $C$DW$T$78, DW_AT_name("__uint_least8_t")
    1498                            .dwattr $C$DW$T$78, DW_AT_type(*$C$DW$T$24)
    1499                            .dwattr $C$DW$T$78, DW_AT_language(DW_LANG_C)
    1500                            .dwattr $C$DW$T$78, DW_AT_decl_file("C:/ti/ccsv8/tools/compiler/ti-cgt-arm_18.1.3.LTS/include/
    1501                            .dwattr $C$DW$T$78, DW_AT_decl_line(0x6d)
    1502                            .dwattr $C$DW$T$78, DW_AT_decl_column(0x13)
    1503                    
    1504                    $C$DW$T$79      .dwtag  DW_TAG_typedef
    1505                            .dwattr $C$DW$T$79, DW_AT_name("uint_least8_t")
    1506                            .dwattr $C$DW$T$79, DW_AT_type(*$C$DW$T$78)
    1507                            .dwattr $C$DW$T$79, DW_AT_language(DW_LANG_C)
    1508                            .dwattr $C$DW$T$79, DW_AT_decl_file("C:/ti/ccsv8/tools/compiler/ti-cgt-arm_18.1.3.LTS/include/
    1509                            .dwattr $C$DW$T$79, DW_AT_decl_line(0x2d)
    1510                            .dwattr $C$DW$T$79, DW_AT_decl_column(0x1a)
    1511                    
    1512                    $C$DW$T$80      .dwtag  DW_TAG_typedef
    1513                            .dwattr $C$DW$T$80, DW_AT_name("ICall_EntityID")
    1514                            .dwattr $C$DW$T$80, DW_AT_type(*$C$DW$T$79)
    1515                            .dwattr $C$DW$T$80, DW_AT_language(DW_LANG_C)
    1516                            .dwattr $C$DW$T$80, DW_AT_decl_file("C:/ti/simplelink_cc13x0_sdk_2_30_00_20/source/ti/ti154sta
    1517                            .dwattr $C$DW$T$80, DW_AT_decl_line(0x1b4)
    1518                            .dwattr $C$DW$T$80, DW_AT_decl_column(0x17)
    1519                    
    1520                    $C$DW$T$148     .dwtag  DW_TAG_typedef
    1521                            .dwattr $C$DW$T$148, DW_AT_name("ICall_MSGFormat")
    1522                            .dwattr $C$DW$T$148, DW_AT_type(*$C$DW$T$79)
    1523                            .dwattr $C$DW$T$148, DW_AT_language(DW_LANG_C)
    1524                            .dwattr $C$DW$T$148, DW_AT_decl_file("C:/ti/simplelink_cc13x0_sdk_2_30_00_20/source/ti/ti154st
    1525                            .dwattr $C$DW$T$148, DW_AT_decl_line(0x1a4)
    1526                            .dwattr $C$DW$T$148, DW_AT_decl_column(0x17)
    1527                    
    1528                    $C$DW$T$25      .dwtag  DW_TAG_typedef
    1529                            .dwattr $C$DW$T$25, DW_AT_name("uint8_t")
    1530                            .dwattr $C$DW$T$25, DW_AT_type(*$C$DW$T$24)
    1531                            .dwattr $C$DW$T$25, DW_AT_language(DW_LANG_C)
    1532                            .dwattr $C$DW$T$25, DW_AT_decl_file("C:/ti/ccsv8/tools/compiler/ti-cgt-arm_18.1.3.LTS/include/
    1533                            .dwattr $C$DW$T$25, DW_AT_decl_line(0x38)
    1534                            .dwattr $C$DW$T$25, DW_AT_decl_column(0x14)
    1535                    
    1536                    $C$DW$T$26      .dwtag  DW_TAG_pointer_type
    1537                            .dwattr $C$DW$T$26, DW_AT_type(*$C$DW$T$25)
    1538                            .dwattr $C$DW$T$26, DW_AT_address_class(0x20)
TI ARM Assembler PC v18.1.3 Wed Nov 28 13:22:05 2018

Tools Copyright (c) 1996-2017 Texas Instruments Incorporated
C:\Users\Adrian\AppData\Local\Temp\{BD3F71B0-1117-47C0-BC43-1785123CD23C} PAGE   29

    1539                    
    1540                    $C$DW$T$210     .dwtag  DW_TAG_volatile_type
    1541                            .dwattr $C$DW$T$210, DW_AT_type(*$C$DW$T$25)
    1542                    
    1543                    $C$DW$T$211     .dwtag  DW_TAG_typedef
    1544                            .dwattr $C$DW$T$211, DW_AT_name("tFwpWriteByte")
    1545                            .dwattr $C$DW$T$211, DW_AT_type(*$C$DW$T$210)
    1546                            .dwattr $C$DW$T$211, DW_AT_language(DW_LANG_C)
    1547                            .dwattr $C$DW$T$211, DW_AT_decl_file("C:/ti/simplelink_cc13x0_sdk_2_30_00_20/source/ti/devices
    1548                            .dwattr $C$DW$T$211, DW_AT_decl_line(0xde)
    1549                            .dwattr $C$DW$T$211, DW_AT_decl_column(0x1a)
    1550                    
    1551                    $C$DW$T$183     .dwtag  DW_TAG_typedef
    1552                            .dwattr $C$DW$T$183, DW_AT_name("uint8")
    1553                            .dwattr $C$DW$T$183, DW_AT_type(*$C$DW$T$6)
    1554                            .dwattr $C$DW$T$183, DW_AT_language(DW_LANG_C)
    1555                            .dwattr $C$DW$T$183, DW_AT_decl_file("C:\ti\simplelink_cc13x0_sdk_2_30_00_20\source\ti\ti154st
    1556                            .dwattr $C$DW$T$183, DW_AT_decl_line(0x39)
    1557                            .dwattr $C$DW$T$183, DW_AT_decl_column(0x19)
    1558                    
    1559                    $C$DW$T$185     .dwtag  DW_TAG_pointer_type
    1560                            .dwattr $C$DW$T$185, DW_AT_type(*$C$DW$T$183)
    1561                            .dwattr $C$DW$T$185, DW_AT_address_class(0x20)
    1562                    
    1563                    $C$DW$T$213     .dwtag  DW_TAG_const_type
    1564                            .dwattr $C$DW$T$213, DW_AT_type(*$C$DW$T$185)
    1565                    
    1566                    $C$DW$T$214     .dwtag  DW_TAG_const_type
    1567                            .dwattr $C$DW$T$214, DW_AT_type(*$C$DW$T$183)
    1568                    
    1569                    $C$DW$T$7       .dwtag  DW_TAG_base_type
    1570                            .dwattr $C$DW$T$7, DW_AT_encoding(DW_ATE_signed_char)
    1571                            .dwattr $C$DW$T$7, DW_AT_name("wchar_t")
    1572                            .dwattr $C$DW$T$7, DW_AT_byte_size(0x02)
    1573                    
    1574                    $C$DW$T$8       .dwtag  DW_TAG_base_type
    1575                            .dwattr $C$DW$T$8, DW_AT_encoding(DW_ATE_signed)
    1576                            .dwattr $C$DW$T$8, DW_AT_name("short")
    1577                            .dwattr $C$DW$T$8, DW_AT_byte_size(0x02)
    1578                    
    1579                    $C$DW$T$215     .dwtag  DW_TAG_typedef
    1580                            .dwattr $C$DW$T$215, DW_AT_name("__int16_t")
    1581                            .dwattr $C$DW$T$215, DW_AT_type(*$C$DW$T$8)
    1582                            .dwattr $C$DW$T$215, DW_AT_language(DW_LANG_C)
    1583                            .dwattr $C$DW$T$215, DW_AT_decl_file("C:/ti/ccsv8/tools/compiler/ti-cgt-arm_18.1.3.LTS/include
    1584                            .dwattr $C$DW$T$215, DW_AT_decl_line(0x3b)
    1585                            .dwattr $C$DW$T$215, DW_AT_decl_column(0x11)
    1586                    
    1587                    $C$DW$T$216     .dwtag  DW_TAG_typedef
    1588                            .dwattr $C$DW$T$216, DW_AT_name("__int_least16_t")
    1589                            .dwattr $C$DW$T$216, DW_AT_type(*$C$DW$T$215)
    1590                            .dwattr $C$DW$T$216, DW_AT_language(DW_LANG_C)
    1591                            .dwattr $C$DW$T$216, DW_AT_decl_file("C:/ti/ccsv8/tools/compiler/ti-cgt-arm_18.1.3.LTS/include
    1592                            .dwattr $C$DW$T$216, DW_AT_decl_line(0x59)
    1593                            .dwattr $C$DW$T$216, DW_AT_decl_column(0x13)
TI ARM Assembler PC v18.1.3 Wed Nov 28 13:22:05 2018

Tools Copyright (c) 1996-2017 Texas Instruments Incorporated
C:\Users\Adrian\AppData\Local\Temp\{BD3F71B0-1117-47C0-BC43-1785123CD23C} PAGE   30

    1594                    
    1595                    $C$DW$T$217     .dwtag  DW_TAG_typedef
    1596                            .dwattr $C$DW$T$217, DW_AT_name("int_least16_t")
    1597                            .dwattr $C$DW$T$217, DW_AT_type(*$C$DW$T$216)
    1598                            .dwattr $C$DW$T$217, DW_AT_language(DW_LANG_C)
    1599                            .dwattr $C$DW$T$217, DW_AT_decl_file("C:/ti/ccsv8/tools/compiler/ti-cgt-arm_18.1.3.LTS/include
    1600                            .dwattr $C$DW$T$217, DW_AT_decl_line(0x29)
    1601                            .dwattr $C$DW$T$217, DW_AT_decl_column(0x1a)
    1602                    
    1603                    $C$DW$T$218     .dwtag  DW_TAG_typedef
    1604                            .dwattr $C$DW$T$218, DW_AT_name("int16_t")
    1605                            .dwattr $C$DW$T$218, DW_AT_type(*$C$DW$T$215)
    1606                            .dwattr $C$DW$T$218, DW_AT_language(DW_LANG_C)
    1607                            .dwattr $C$DW$T$218, DW_AT_decl_file("C:/ti/ccsv8/tools/compiler/ti-cgt-arm_18.1.3.LTS/include
    1608                            .dwattr $C$DW$T$218, DW_AT_decl_line(0x29)
    1609                            .dwattr $C$DW$T$218, DW_AT_decl_column(0x14)
    1610                    
    1611                    $C$DW$T$219     .dwtag  DW_TAG_typedef
    1612                            .dwattr $C$DW$T$219, DW_AT_name("int16")
    1613                            .dwattr $C$DW$T$219, DW_AT_type(*$C$DW$T$8)
    1614                            .dwattr $C$DW$T$219, DW_AT_language(DW_LANG_C)
    1615                            .dwattr $C$DW$T$219, DW_AT_decl_file("C:\ti\simplelink_cc13x0_sdk_2_30_00_20\source\ti\ti154st
    1616                            .dwattr $C$DW$T$219, DW_AT_decl_line(0x3b)
    1617                            .dwattr $C$DW$T$219, DW_AT_decl_column(0x19)
    1618                    
    1619                    $C$DW$T$9       .dwtag  DW_TAG_base_type
    1620                            .dwattr $C$DW$T$9, DW_AT_encoding(DW_ATE_unsigned)
    1621                            .dwattr $C$DW$T$9, DW_AT_name("unsigned short")
    1622                            .dwattr $C$DW$T$9, DW_AT_byte_size(0x02)
    1623                    
    1624                    $C$DW$T$220     .dwtag  DW_TAG_typedef
    1625                            .dwattr $C$DW$T$220, DW_AT_name("___wchar_t")
    1626                            .dwattr $C$DW$T$220, DW_AT_type(*$C$DW$T$9)
    1627                            .dwattr $C$DW$T$220, DW_AT_language(DW_LANG_C)
    1628                            .dwattr $C$DW$T$220, DW_AT_decl_file("C:/ti/ccsv8/tools/compiler/ti-cgt-arm_18.1.3.LTS/include
    1629                            .dwattr $C$DW$T$220, DW_AT_decl_line(0x76)
    1630                            .dwattr $C$DW$T$220, DW_AT_decl_column(0x1a)
    1631                    
    1632                    $C$DW$T$42      .dwtag  DW_TAG_typedef
    1633                            .dwattr $C$DW$T$42, DW_AT_name("__uint16_t")
    1634                            .dwattr $C$DW$T$42, DW_AT_type(*$C$DW$T$9)
    1635                            .dwattr $C$DW$T$42, DW_AT_language(DW_LANG_C)
    1636                            .dwattr $C$DW$T$42, DW_AT_decl_file("C:/ti/ccsv8/tools/compiler/ti-cgt-arm_18.1.3.LTS/include/
    1637                            .dwattr $C$DW$T$42, DW_AT_decl_line(0x3c)
    1638                            .dwattr $C$DW$T$42, DW_AT_decl_column(0x19)
    1639                    
    1640                    $C$DW$T$222     .dwtag  DW_TAG_typedef
    1641                            .dwattr $C$DW$T$222, DW_AT_name("__mode_t")
    1642                            .dwattr $C$DW$T$222, DW_AT_type(*$C$DW$T$42)
    1643                            .dwattr $C$DW$T$222, DW_AT_language(DW_LANG_C)
    1644                            .dwattr $C$DW$T$222, DW_AT_decl_file("C:/ti/ccsv8/tools/compiler/ti-cgt-arm_18.1.3.LTS/include
    1645                            .dwattr $C$DW$T$222, DW_AT_decl_line(0x39)
    1646                            .dwattr $C$DW$T$222, DW_AT_decl_column(0x14)
    1647                    
    1648                    $C$DW$T$81      .dwtag  DW_TAG_typedef
TI ARM Assembler PC v18.1.3 Wed Nov 28 13:22:05 2018

Tools Copyright (c) 1996-2017 Texas Instruments Incorporated
C:\Users\Adrian\AppData\Local\Temp\{BD3F71B0-1117-47C0-BC43-1785123CD23C} PAGE   31

    1649                            .dwattr $C$DW$T$81, DW_AT_name("__uint_least16_t")
    1650                            .dwattr $C$DW$T$81, DW_AT_type(*$C$DW$T$42)
    1651                            .dwattr $C$DW$T$81, DW_AT_language(DW_LANG_C)
    1652                            .dwattr $C$DW$T$81, DW_AT_decl_file("C:/ti/ccsv8/tools/compiler/ti-cgt-arm_18.1.3.LTS/include/
    1653                            .dwattr $C$DW$T$81, DW_AT_decl_line(0x6e)
    1654                            .dwattr $C$DW$T$81, DW_AT_decl_column(0x14)
    1655                    
    1656                    $C$DW$T$223     .dwtag  DW_TAG_typedef
    1657                            .dwattr $C$DW$T$223, DW_AT_name("__char16_t")
    1658                            .dwattr $C$DW$T$223, DW_AT_type(*$C$DW$T$81)
    1659                            .dwattr $C$DW$T$223, DW_AT_language(DW_LANG_C)
    1660                            .dwattr $C$DW$T$223, DW_AT_decl_file("C:/ti/ccsv8/tools/compiler/ti-cgt-arm_18.1.3.LTS/include
    1661                            .dwattr $C$DW$T$223, DW_AT_decl_line(0x66)
    1662                            .dwattr $C$DW$T$223, DW_AT_decl_column(0x1a)
    1663                    
    1664                    $C$DW$T$82      .dwtag  DW_TAG_typedef
    1665                            .dwattr $C$DW$T$82, DW_AT_name("uint_least16_t")
    1666                            .dwattr $C$DW$T$82, DW_AT_type(*$C$DW$T$81)
    1667                            .dwattr $C$DW$T$82, DW_AT_language(DW_LANG_C)
    1668                            .dwattr $C$DW$T$82, DW_AT_decl_file("C:/ti/ccsv8/tools/compiler/ti-cgt-arm_18.1.3.LTS/include/
    1669                            .dwattr $C$DW$T$82, DW_AT_decl_line(0x2e)
    1670                            .dwattr $C$DW$T$82, DW_AT_decl_column(0x1a)
    1671                    
    1672                    $C$DW$T$107     .dwtag  DW_TAG_typedef
    1673                            .dwattr $C$DW$T$107, DW_AT_name("ICall_FuncID")
    1674                            .dwattr $C$DW$T$107, DW_AT_type(*$C$DW$T$82)
    1675                            .dwattr $C$DW$T$107, DW_AT_language(DW_LANG_C)
    1676                            .dwattr $C$DW$T$107, DW_AT_decl_file("C:/ti/simplelink_cc13x0_sdk_2_30_00_20/source/ti/ti154st
    1677                            .dwattr $C$DW$T$107, DW_AT_decl_line(0x1a7)
    1678                            .dwattr $C$DW$T$107, DW_AT_decl_column(0x18)
    1679                    
    1680                    $C$DW$T$83      .dwtag  DW_TAG_typedef
    1681                            .dwattr $C$DW$T$83, DW_AT_name("ICall_ServiceEnum")
    1682                            .dwattr $C$DW$T$83, DW_AT_type(*$C$DW$T$82)
    1683                            .dwattr $C$DW$T$83, DW_AT_language(DW_LANG_C)
    1684                            .dwattr $C$DW$T$83, DW_AT_decl_file("C:/ti/simplelink_cc13x0_sdk_2_30_00_20/source/ti/ti154sta
    1685                            .dwattr $C$DW$T$83, DW_AT_decl_line(0x1a1)
    1686                            .dwattr $C$DW$T$83, DW_AT_decl_column(0x18)
    1687                    
    1688                    $C$DW$T$43      .dwtag  DW_TAG_typedef
    1689                            .dwattr $C$DW$T$43, DW_AT_name("uint16_t")
    1690                            .dwattr $C$DW$T$43, DW_AT_type(*$C$DW$T$42)
    1691                            .dwattr $C$DW$T$43, DW_AT_language(DW_LANG_C)
    1692                            .dwattr $C$DW$T$43, DW_AT_decl_file("C:/ti/ccsv8/tools/compiler/ti-cgt-arm_18.1.3.LTS/include/
    1693                            .dwattr $C$DW$T$43, DW_AT_decl_line(0x3d)
    1694                            .dwattr $C$DW$T$43, DW_AT_decl_column(0x15)
    1695                    
    1696                    $C$DW$T$44      .dwtag  DW_TAG_pointer_type
    1697                            .dwattr $C$DW$T$44, DW_AT_type(*$C$DW$T$43)
    1698                            .dwattr $C$DW$T$44, DW_AT_address_class(0x20)
    1699                    
    1700                    $C$DW$T$184     .dwtag  DW_TAG_typedef
    1701                            .dwattr $C$DW$T$184, DW_AT_name("uint16")
    1702                            .dwattr $C$DW$T$184, DW_AT_type(*$C$DW$T$9)
    1703                            .dwattr $C$DW$T$184, DW_AT_language(DW_LANG_C)
TI ARM Assembler PC v18.1.3 Wed Nov 28 13:22:05 2018

Tools Copyright (c) 1996-2017 Texas Instruments Incorporated
C:\Users\Adrian\AppData\Local\Temp\{BD3F71B0-1117-47C0-BC43-1785123CD23C} PAGE   32

    1704                            .dwattr $C$DW$T$184, DW_AT_decl_file("C:\ti\simplelink_cc13x0_sdk_2_30_00_20\source\ti\ti154st
    1705                            .dwattr $C$DW$T$184, DW_AT_decl_line(0x3c)
    1706                            .dwattr $C$DW$T$184, DW_AT_decl_column(0x19)
    1707                    
    1708                    $C$DW$T$224     .dwtag  DW_TAG_const_type
    1709                            .dwattr $C$DW$T$224, DW_AT_type(*$C$DW$T$184)
    1710                    
    1711                    $C$DW$T$225     .dwtag  DW_TAG_typedef
    1712                            .dwattr $C$DW$T$225, DW_AT_name("wchar_t")
    1713                            .dwattr $C$DW$T$225, DW_AT_type(*$C$DW$T$9)
    1714                            .dwattr $C$DW$T$225, DW_AT_language(DW_LANG_C)
    1715                            .dwattr $C$DW$T$225, DW_AT_decl_file("C:/ti/ccsv8/tools/compiler/ti-cgt-arm_18.1.3.LTS/include
    1716                            .dwattr $C$DW$T$225, DW_AT_decl_line(0x6e)
    1717                            .dwattr $C$DW$T$225, DW_AT_decl_column(0x1a)
    1718                    
    1719                    $C$DW$T$10      .dwtag  DW_TAG_base_type
    1720                            .dwattr $C$DW$T$10, DW_AT_encoding(DW_ATE_signed)
    1721                            .dwattr $C$DW$T$10, DW_AT_name("int")
    1722                            .dwattr $C$DW$T$10, DW_AT_byte_size(0x04)
    1723                    
    1724                    $C$DW$T$226     .dwtag  DW_TAG_typedef
    1725                            .dwattr $C$DW$T$226, DW_AT_name("_Mbstatet")
    1726                            .dwattr $C$DW$T$226, DW_AT_type(*$C$DW$T$10)
    1727                            .dwattr $C$DW$T$226, DW_AT_language(DW_LANG_C)
    1728                            .dwattr $C$DW$T$226, DW_AT_decl_file("C:/ti/ccsv8/tools/compiler/ti-cgt-arm_18.1.3.LTS/include
    1729                            .dwattr $C$DW$T$226, DW_AT_decl_line(0x84)
    1730                            .dwattr $C$DW$T$226, DW_AT_decl_column(0x0d)
    1731                    
    1732                    $C$DW$T$227     .dwtag  DW_TAG_typedef
    1733                            .dwattr $C$DW$T$227, DW_AT_name("__mbstate_t")
    1734                            .dwattr $C$DW$T$227, DW_AT_type(*$C$DW$T$226)
    1735                            .dwattr $C$DW$T$227, DW_AT_language(DW_LANG_C)
    1736                            .dwattr $C$DW$T$227, DW_AT_decl_file("C:/ti/ccsv8/tools/compiler/ti-cgt-arm_18.1.3.LTS/include
    1737                            .dwattr $C$DW$T$227, DW_AT_decl_line(0x87)
    1738                            .dwattr $C$DW$T$227, DW_AT_decl_column(0x13)
    1739                    
    1740                    $C$DW$T$228     .dwtag  DW_TAG_typedef
    1741                            .dwattr $C$DW$T$228, DW_AT_name("__accmode_t")
    1742                            .dwattr $C$DW$T$228, DW_AT_type(*$C$DW$T$10)
    1743                            .dwattr $C$DW$T$228, DW_AT_language(DW_LANG_C)
    1744                            .dwattr $C$DW$T$228, DW_AT_decl_file("C:/ti/ccsv8/tools/compiler/ti-cgt-arm_18.1.3.LTS/include
    1745                            .dwattr $C$DW$T$228, DW_AT_decl_line(0x3a)
    1746                            .dwattr $C$DW$T$228, DW_AT_decl_column(0x0e)
    1747                    
    1748                    
    1749                    $C$DW$T$229     .dwtag  DW_TAG_subroutine_type
    1750                            .dwattr $C$DW$T$229, DW_AT_type(*$C$DW$T$10)
    1751                            .dwattr $C$DW$T$229, DW_AT_language(DW_LANG_C)
    1752                    $C$DW$101       .dwtag  DW_TAG_formal_parameter
    1753                            .dwattr $C$DW$101, DW_AT_type(*$C$DW$T$161)
    1754                    
    1755                    $C$DW$102       .dwtag  DW_TAG_formal_parameter
    1756                            .dwattr $C$DW$102, DW_AT_type(*$C$DW$T$161)
    1757                    
    1758                            .dwendtag $C$DW$T$229
TI ARM Assembler PC v18.1.3 Wed Nov 28 13:22:05 2018

Tools Copyright (c) 1996-2017 Texas Instruments Incorporated
C:\Users\Adrian\AppData\Local\Temp\{BD3F71B0-1117-47C0-BC43-1785123CD23C} PAGE   33

    1759                    
    1760                    $C$DW$T$230     .dwtag  DW_TAG_pointer_type
    1761                            .dwattr $C$DW$T$230, DW_AT_type(*$C$DW$T$229)
    1762                            .dwattr $C$DW$T$230, DW_AT_address_class(0x20)
    1763                    
    1764                    $C$DW$T$231     .dwtag  DW_TAG_typedef
    1765                            .dwattr $C$DW$T$231, DW_AT_name("__TI_compar_fn")
    1766                            .dwattr $C$DW$T$231, DW_AT_type(*$C$DW$T$230)
    1767                            .dwattr $C$DW$T$231, DW_AT_language(DW_LANG_C)
    1768                            .dwattr $C$DW$T$231, DW_AT_decl_file("C:/ti/ccsv8/tools/compiler/ti-cgt-arm_18.1.3.LTS/include
    1769                            .dwattr $C$DW$T$231, DW_AT_decl_line(0xb5)
    1770                            .dwattr $C$DW$T$231, DW_AT_decl_column(0x13)
    1771                    
    1772                    $C$DW$T$232     .dwtag  DW_TAG_typedef
    1773                            .dwattr $C$DW$T$232, DW_AT_name("__cpulevel_t")
    1774                            .dwattr $C$DW$T$232, DW_AT_type(*$C$DW$T$10)
    1775                            .dwattr $C$DW$T$232, DW_AT_language(DW_LANG_C)
    1776                            .dwattr $C$DW$T$232, DW_AT_decl_file("C:/ti/ccsv8/tools/compiler/ti-cgt-arm_18.1.3.LTS/include
    1777                            .dwattr $C$DW$T$232, DW_AT_decl_line(0x4b)
    1778                            .dwattr $C$DW$T$232, DW_AT_decl_column(0x0e)
    1779                    
    1780                    $C$DW$T$233     .dwtag  DW_TAG_typedef
    1781                            .dwattr $C$DW$T$233, DW_AT_name("__cpusetid_t")
    1782                            .dwattr $C$DW$T$233, DW_AT_type(*$C$DW$T$10)
    1783                            .dwattr $C$DW$T$233, DW_AT_language(DW_LANG_C)
    1784                            .dwattr $C$DW$T$233, DW_AT_decl_file("C:/ti/ccsv8/tools/compiler/ti-cgt-arm_18.1.3.LTS/include
    1785                            .dwattr $C$DW$T$233, DW_AT_decl_line(0x4c)
    1786                            .dwattr $C$DW$T$233, DW_AT_decl_column(0x0e)
    1787                    
    1788                    $C$DW$T$234     .dwtag  DW_TAG_typedef
    1789                            .dwattr $C$DW$T$234, DW_AT_name("__cpuwhich_t")
    1790                            .dwattr $C$DW$T$234, DW_AT_type(*$C$DW$T$10)
    1791                            .dwattr $C$DW$T$234, DW_AT_language(DW_LANG_C)
    1792                            .dwattr $C$DW$T$234, DW_AT_decl_file("C:/ti/ccsv8/tools/compiler/ti-cgt-arm_18.1.3.LTS/include
    1793                            .dwattr $C$DW$T$234, DW_AT_decl_line(0x4a)
    1794                            .dwattr $C$DW$T$234, DW_AT_decl_column(0x0e)
    1795                    
    1796                    $C$DW$T$235     .dwtag  DW_TAG_typedef
    1797                            .dwattr $C$DW$T$235, DW_AT_name("__ct_rune_t")
    1798                            .dwattr $C$DW$T$235, DW_AT_type(*$C$DW$T$10)
    1799                            .dwattr $C$DW$T$235, DW_AT_language(DW_LANG_C)
    1800                            .dwattr $C$DW$T$235, DW_AT_decl_file("C:/ti/ccsv8/tools/compiler/ti-cgt-arm_18.1.3.LTS/include
    1801                            .dwattr $C$DW$T$235, DW_AT_decl_line(0x60)
    1802                            .dwattr $C$DW$T$235, DW_AT_decl_column(0x0e)
    1803                    
    1804                    $C$DW$T$236     .dwtag  DW_TAG_typedef
    1805                            .dwattr $C$DW$T$236, DW_AT_name("__rune_t")
    1806                            .dwattr $C$DW$T$236, DW_AT_type(*$C$DW$T$235)
    1807                            .dwattr $C$DW$T$236, DW_AT_language(DW_LANG_C)
    1808                            .dwattr $C$DW$T$236, DW_AT_decl_file("C:/ti/ccsv8/tools/compiler/ti-cgt-arm_18.1.3.LTS/include
    1809                            .dwattr $C$DW$T$236, DW_AT_decl_line(0x61)
    1810                            .dwattr $C$DW$T$236, DW_AT_decl_column(0x15)
    1811                    
    1812                    $C$DW$T$237     .dwtag  DW_TAG_typedef
    1813                            .dwattr $C$DW$T$237, DW_AT_name("__wint_t")
TI ARM Assembler PC v18.1.3 Wed Nov 28 13:22:05 2018

Tools Copyright (c) 1996-2017 Texas Instruments Incorporated
C:\Users\Adrian\AppData\Local\Temp\{BD3F71B0-1117-47C0-BC43-1785123CD23C} PAGE   34

    1814                            .dwattr $C$DW$T$237, DW_AT_type(*$C$DW$T$235)
    1815                            .dwattr $C$DW$T$237, DW_AT_language(DW_LANG_C)
    1816                            .dwattr $C$DW$T$237, DW_AT_decl_file("C:/ti/ccsv8/tools/compiler/ti-cgt-arm_18.1.3.LTS/include
    1817                            .dwattr $C$DW$T$237, DW_AT_decl_line(0x62)
    1818                            .dwattr $C$DW$T$237, DW_AT_decl_column(0x15)
    1819                    
    1820                    $C$DW$T$94      .dwtag  DW_TAG_typedef
    1821                            .dwattr $C$DW$T$94, DW_AT_name("__int32_t")
    1822                            .dwattr $C$DW$T$94, DW_AT_type(*$C$DW$T$10)
    1823                            .dwattr $C$DW$T$94, DW_AT_language(DW_LANG_C)
    1824                            .dwattr $C$DW$T$94, DW_AT_decl_file("C:/ti/ccsv8/tools/compiler/ti-cgt-arm_18.1.3.LTS/include/
    1825                            .dwattr $C$DW$T$94, DW_AT_decl_line(0x3d)
    1826                            .dwattr $C$DW$T$94, DW_AT_decl_column(0x0f)
    1827                    
    1828                    $C$DW$T$238     .dwtag  DW_TAG_typedef
    1829                            .dwattr $C$DW$T$238, DW_AT_name("__blksize_t")
    1830                            .dwattr $C$DW$T$238, DW_AT_type(*$C$DW$T$94)
    1831                            .dwattr $C$DW$T$238, DW_AT_language(DW_LANG_C)
    1832                            .dwattr $C$DW$T$238, DW_AT_decl_file("C:/ti/ccsv8/tools/compiler/ti-cgt-arm_18.1.3.LTS/include
    1833                            .dwattr $C$DW$T$238, DW_AT_decl_line(0x2e)
    1834                            .dwattr $C$DW$T$238, DW_AT_decl_column(0x13)
    1835                    
    1836                    $C$DW$T$239     .dwtag  DW_TAG_typedef
    1837                            .dwattr $C$DW$T$239, DW_AT_name("__clockid_t")
    1838                            .dwattr $C$DW$T$239, DW_AT_type(*$C$DW$T$94)
    1839                            .dwattr $C$DW$T$239, DW_AT_language(DW_LANG_C)
    1840                            .dwattr $C$DW$T$239, DW_AT_decl_file("C:/ti/ccsv8/tools/compiler/ti-cgt-arm_18.1.3.LTS/include
    1841                            .dwattr $C$DW$T$239, DW_AT_decl_line(0x30)
    1842                            .dwattr $C$DW$T$239, DW_AT_decl_column(0x13)
    1843                    
    1844                    $C$DW$T$240     .dwtag  DW_TAG_typedef
    1845                            .dwattr $C$DW$T$240, DW_AT_name("__critical_t")
    1846                            .dwattr $C$DW$T$240, DW_AT_type(*$C$DW$T$94)
    1847                            .dwattr $C$DW$T$240, DW_AT_language(DW_LANG_C)
    1848                            .dwattr $C$DW$T$240, DW_AT_decl_file("C:/ti/ccsv8/tools/compiler/ti-cgt-arm_18.1.3.LTS/include
    1849                            .dwattr $C$DW$T$240, DW_AT_decl_line(0x4e)
    1850                            .dwattr $C$DW$T$240, DW_AT_decl_column(0x13)
    1851                    
    1852                    $C$DW$T$95      .dwtag  DW_TAG_typedef
    1853                            .dwattr $C$DW$T$95, DW_AT_name("__int_fast16_t")
    1854                            .dwattr $C$DW$T$95, DW_AT_type(*$C$DW$T$94)
    1855                            .dwattr $C$DW$T$95, DW_AT_language(DW_LANG_C)
    1856                            .dwattr $C$DW$T$95, DW_AT_decl_file("C:/ti/ccsv8/tools/compiler/ti-cgt-arm_18.1.3.LTS/include/
    1857                            .dwattr $C$DW$T$95, DW_AT_decl_line(0x55)
    1858                            .dwattr $C$DW$T$95, DW_AT_decl_column(0x13)
    1859                    
    1860                    $C$DW$T$96      .dwtag  DW_TAG_typedef
    1861                            .dwattr $C$DW$T$96, DW_AT_name("int_fast16_t")
    1862                            .dwattr $C$DW$T$96, DW_AT_type(*$C$DW$T$95)
    1863                            .dwattr $C$DW$T$96, DW_AT_language(DW_LANG_C)
    1864                            .dwattr $C$DW$T$96, DW_AT_decl_file("C:/ti/ccsv8/tools/compiler/ti-cgt-arm_18.1.3.LTS/include/
    1865                            .dwattr $C$DW$T$96, DW_AT_decl_line(0x33)
    1866                            .dwattr $C$DW$T$96, DW_AT_decl_column(0x19)
    1867                    
    1868                    $C$DW$T$97      .dwtag  DW_TAG_typedef
TI ARM Assembler PC v18.1.3 Wed Nov 28 13:22:05 2018

Tools Copyright (c) 1996-2017 Texas Instruments Incorporated
C:\Users\Adrian\AppData\Local\Temp\{BD3F71B0-1117-47C0-BC43-1785123CD23C} PAGE   35

    1869                            .dwattr $C$DW$T$97, DW_AT_name("ICall_Errno")
    1870                            .dwattr $C$DW$T$97, DW_AT_type(*$C$DW$T$96)
    1871                            .dwattr $C$DW$T$97, DW_AT_language(DW_LANG_C)
    1872                            .dwattr $C$DW$T$97, DW_AT_decl_file("C:/ti/simplelink_cc13x0_sdk_2_30_00_20/source/ti/ti154sta
    1873                            .dwattr $C$DW$T$97, DW_AT_decl_line(0x19e)
    1874                            .dwattr $C$DW$T$97, DW_AT_decl_column(0x16)
    1875                    
    1876                    
    1877                    $C$DW$T$99      .dwtag  DW_TAG_subroutine_type
    1878                            .dwattr $C$DW$T$99, DW_AT_type(*$C$DW$T$97)
    1879                            .dwattr $C$DW$T$99, DW_AT_language(DW_LANG_C)
    1880                    $C$DW$103       .dwtag  DW_TAG_formal_parameter
    1881                            .dwattr $C$DW$103, DW_AT_type(*$C$DW$T$98)
    1882                    
    1883                            .dwendtag $C$DW$T$99
    1884                    
    1885                    $C$DW$T$100     .dwtag  DW_TAG_pointer_type
    1886                            .dwattr $C$DW$T$100, DW_AT_type(*$C$DW$T$99)
    1887                            .dwattr $C$DW$T$100, DW_AT_address_class(0x20)
    1888                    
    1889                    $C$DW$T$139     .dwtag  DW_TAG_typedef
    1890                            .dwattr $C$DW$T$139, DW_AT_name("ICall_Dispatcher")
    1891                            .dwattr $C$DW$T$139, DW_AT_type(*$C$DW$T$100)
    1892                            .dwattr $C$DW$T$139, DW_AT_language(DW_LANG_C)
    1893                            .dwattr $C$DW$T$139, DW_AT_decl_file("C:/ti/simplelink_cc13x0_sdk_2_30_00_20/source/ti/ti154st
    1894                            .dwattr $C$DW$T$139, DW_AT_decl_line(0x36c)
    1895                            .dwattr $C$DW$T$139, DW_AT_decl_column(0x17)
    1896                    
    1897                    $C$DW$T$101     .dwtag  DW_TAG_typedef
    1898                            .dwattr $C$DW$T$101, DW_AT_name("ICall_ServiceFunc")
    1899                            .dwattr $C$DW$T$101, DW_AT_type(*$C$DW$T$100)
    1900                            .dwattr $C$DW$T$101, DW_AT_language(DW_LANG_C)
    1901                            .dwattr $C$DW$T$101, DW_AT_decl_file("C:/ti/simplelink_cc13x0_sdk_2_30_00_20/source/ti/ti154st
    1902                            .dwattr $C$DW$T$101, DW_AT_decl_line(0x3a3)
    1903                            .dwattr $C$DW$T$101, DW_AT_decl_column(0x17)
    1904                    
    1905                    $C$DW$T$241     .dwtag  DW_TAG_typedef
    1906                            .dwattr $C$DW$T$241, DW_AT_name("__int_fast32_t")
    1907                            .dwattr $C$DW$T$241, DW_AT_type(*$C$DW$T$94)
    1908                            .dwattr $C$DW$T$241, DW_AT_language(DW_LANG_C)
    1909                            .dwattr $C$DW$T$241, DW_AT_decl_file("C:/ti/ccsv8/tools/compiler/ti-cgt-arm_18.1.3.LTS/include
    1910                            .dwattr $C$DW$T$241, DW_AT_decl_line(0x56)
    1911                            .dwattr $C$DW$T$241, DW_AT_decl_column(0x13)
    1912                    
    1913                    $C$DW$T$242     .dwtag  DW_TAG_typedef
    1914                            .dwattr $C$DW$T$242, DW_AT_name("int_fast32_t")
    1915                            .dwattr $C$DW$T$242, DW_AT_type(*$C$DW$T$241)
    1916                            .dwattr $C$DW$T$242, DW_AT_language(DW_LANG_C)
    1917                            .dwattr $C$DW$T$242, DW_AT_decl_file("C:/ti/ccsv8/tools/compiler/ti-cgt-arm_18.1.3.LTS/include
    1918                            .dwattr $C$DW$T$242, DW_AT_decl_line(0x34)
    1919                            .dwattr $C$DW$T$242, DW_AT_decl_column(0x19)
    1920                    
    1921                    $C$DW$T$243     .dwtag  DW_TAG_typedef
    1922                            .dwattr $C$DW$T$243, DW_AT_name("__int_fast8_t")
    1923                            .dwattr $C$DW$T$243, DW_AT_type(*$C$DW$T$94)
TI ARM Assembler PC v18.1.3 Wed Nov 28 13:22:05 2018

Tools Copyright (c) 1996-2017 Texas Instruments Incorporated
C:\Users\Adrian\AppData\Local\Temp\{BD3F71B0-1117-47C0-BC43-1785123CD23C} PAGE   36

    1924                            .dwattr $C$DW$T$243, DW_AT_language(DW_LANG_C)
    1925                            .dwattr $C$DW$T$243, DW_AT_decl_file("C:/ti/ccsv8/tools/compiler/ti-cgt-arm_18.1.3.LTS/include
    1926                            .dwattr $C$DW$T$243, DW_AT_decl_line(0x54)
    1927                            .dwattr $C$DW$T$243, DW_AT_decl_column(0x13)
    1928                    
    1929                    $C$DW$T$244     .dwtag  DW_TAG_typedef
    1930                            .dwattr $C$DW$T$244, DW_AT_name("int_fast8_t")
    1931                            .dwattr $C$DW$T$244, DW_AT_type(*$C$DW$T$243)
    1932                            .dwattr $C$DW$T$244, DW_AT_language(DW_LANG_C)
    1933                            .dwattr $C$DW$T$244, DW_AT_decl_file("C:/ti/ccsv8/tools/compiler/ti-cgt-arm_18.1.3.LTS/include
    1934                            .dwattr $C$DW$T$244, DW_AT_decl_line(0x32)
    1935                            .dwattr $C$DW$T$244, DW_AT_decl_column(0x18)
    1936                    
    1937                    $C$DW$T$114     .dwtag  DW_TAG_typedef
    1938                            .dwattr $C$DW$T$114, DW_AT_name("__int_least32_t")
    1939                            .dwattr $C$DW$T$114, DW_AT_type(*$C$DW$T$94)
    1940                            .dwattr $C$DW$T$114, DW_AT_language(DW_LANG_C)
    1941                            .dwattr $C$DW$T$114, DW_AT_decl_file("C:/ti/ccsv8/tools/compiler/ti-cgt-arm_18.1.3.LTS/include
    1942                            .dwattr $C$DW$T$114, DW_AT_decl_line(0x5a)
    1943                            .dwattr $C$DW$T$114, DW_AT_decl_column(0x13)
    1944                    
    1945                    $C$DW$T$115     .dwtag  DW_TAG_typedef
    1946                            .dwattr $C$DW$T$115, DW_AT_name("int_least32_t")
    1947                            .dwattr $C$DW$T$115, DW_AT_type(*$C$DW$T$114)
    1948                            .dwattr $C$DW$T$115, DW_AT_language(DW_LANG_C)
    1949                            .dwattr $C$DW$T$115, DW_AT_decl_file("C:/ti/ccsv8/tools/compiler/ti-cgt-arm_18.1.3.LTS/include
    1950                            .dwattr $C$DW$T$115, DW_AT_decl_line(0x2a)
    1951                            .dwattr $C$DW$T$115, DW_AT_decl_column(0x1a)
    1952                    
    1953                    $C$DW$T$245     .dwtag  DW_TAG_typedef
    1954                            .dwattr $C$DW$T$245, DW_AT_name("__intfptr_t")
    1955                            .dwattr $C$DW$T$245, DW_AT_type(*$C$DW$T$94)
    1956                            .dwattr $C$DW$T$245, DW_AT_language(DW_LANG_C)
    1957                            .dwattr $C$DW$T$245, DW_AT_decl_file("C:/ti/ccsv8/tools/compiler/ti-cgt-arm_18.1.3.LTS/include
    1958                            .dwattr $C$DW$T$245, DW_AT_decl_line(0x51)
    1959                            .dwattr $C$DW$T$245, DW_AT_decl_column(0x13)
    1960                    
    1961                    $C$DW$T$246     .dwtag  DW_TAG_typedef
    1962                            .dwattr $C$DW$T$246, DW_AT_name("__intptr_t")
    1963                            .dwattr $C$DW$T$246, DW_AT_type(*$C$DW$T$94)
    1964                            .dwattr $C$DW$T$246, DW_AT_language(DW_LANG_C)
    1965                            .dwattr $C$DW$T$246, DW_AT_decl_file("C:/ti/ccsv8/tools/compiler/ti-cgt-arm_18.1.3.LTS/include
    1966                            .dwattr $C$DW$T$246, DW_AT_decl_line(0x53)
    1967                            .dwattr $C$DW$T$246, DW_AT_decl_column(0x13)
    1968                    
    1969                    $C$DW$T$247     .dwtag  DW_TAG_typedef
    1970                            .dwattr $C$DW$T$247, DW_AT_name("intptr_t")
    1971                            .dwattr $C$DW$T$247, DW_AT_type(*$C$DW$T$246)
    1972                            .dwattr $C$DW$T$247, DW_AT_language(DW_LANG_C)
    1973                            .dwattr $C$DW$T$247, DW_AT_decl_file("C:/ti/ccsv8/tools/compiler/ti-cgt-arm_18.1.3.LTS/include
    1974                            .dwattr $C$DW$T$247, DW_AT_decl_line(0x4c)
    1975                            .dwattr $C$DW$T$247, DW_AT_decl_column(0x15)
    1976                    
    1977                    $C$DW$T$248     .dwtag  DW_TAG_typedef
    1978                            .dwattr $C$DW$T$248, DW_AT_name("__lwpid_t")
TI ARM Assembler PC v18.1.3 Wed Nov 28 13:22:05 2018

Tools Copyright (c) 1996-2017 Texas Instruments Incorporated
C:\Users\Adrian\AppData\Local\Temp\{BD3F71B0-1117-47C0-BC43-1785123CD23C} PAGE   37

    1979                            .dwattr $C$DW$T$248, DW_AT_type(*$C$DW$T$94)
    1980                            .dwattr $C$DW$T$248, DW_AT_language(DW_LANG_C)
    1981                            .dwattr $C$DW$T$248, DW_AT_decl_file("C:/ti/ccsv8/tools/compiler/ti-cgt-arm_18.1.3.LTS/include
    1982                            .dwattr $C$DW$T$248, DW_AT_decl_line(0x38)
    1983                            .dwattr $C$DW$T$248, DW_AT_decl_column(0x13)
    1984                    
    1985                    $C$DW$T$249     .dwtag  DW_TAG_typedef
    1986                            .dwattr $C$DW$T$249, DW_AT_name("__pid_t")
    1987                            .dwattr $C$DW$T$249, DW_AT_type(*$C$DW$T$94)
    1988                            .dwattr $C$DW$T$249, DW_AT_language(DW_LANG_C)
    1989                            .dwattr $C$DW$T$249, DW_AT_decl_file("C:/ti/ccsv8/tools/compiler/ti-cgt-arm_18.1.3.LTS/include
    1990                            .dwattr $C$DW$T$249, DW_AT_decl_line(0x3f)
    1991                            .dwattr $C$DW$T$249, DW_AT_decl_column(0x13)
    1992                    
    1993                    $C$DW$T$250     .dwtag  DW_TAG_typedef
    1994                            .dwattr $C$DW$T$250, DW_AT_name("__ptrdiff_t")
    1995                            .dwattr $C$DW$T$250, DW_AT_type(*$C$DW$T$94)
    1996                            .dwattr $C$DW$T$250, DW_AT_language(DW_LANG_C)
    1997                            .dwattr $C$DW$T$250, DW_AT_decl_file("C:/ti/ccsv8/tools/compiler/ti-cgt-arm_18.1.3.LTS/include
    1998                            .dwattr $C$DW$T$250, DW_AT_decl_line(0x5c)
    1999                            .dwattr $C$DW$T$250, DW_AT_decl_column(0x13)
    2000                    
    2001                    $C$DW$T$251     .dwtag  DW_TAG_typedef
    2002                            .dwattr $C$DW$T$251, DW_AT_name("__register_t")
    2003                            .dwattr $C$DW$T$251, DW_AT_type(*$C$DW$T$94)
    2004                            .dwattr $C$DW$T$251, DW_AT_language(DW_LANG_C)
    2005                            .dwattr $C$DW$T$251, DW_AT_decl_file("C:/ti/ccsv8/tools/compiler/ti-cgt-arm_18.1.3.LTS/include
    2006                            .dwattr $C$DW$T$251, DW_AT_decl_line(0x5d)
    2007                            .dwattr $C$DW$T$251, DW_AT_decl_column(0x13)
    2008                    
    2009                    $C$DW$T$252     .dwtag  DW_TAG_typedef
    2010                            .dwattr $C$DW$T$252, DW_AT_name("__segsz_t")
    2011                            .dwattr $C$DW$T$252, DW_AT_type(*$C$DW$T$94)
    2012                            .dwattr $C$DW$T$252, DW_AT_language(DW_LANG_C)
    2013                            .dwattr $C$DW$T$252, DW_AT_decl_file("C:/ti/ccsv8/tools/compiler/ti-cgt-arm_18.1.3.LTS/include
    2014                            .dwattr $C$DW$T$252, DW_AT_decl_line(0x5e)
    2015                            .dwattr $C$DW$T$252, DW_AT_decl_column(0x13)
    2016                    
    2017                    $C$DW$T$253     .dwtag  DW_TAG_typedef
    2018                            .dwattr $C$DW$T$253, DW_AT_name("__ssize_t")
    2019                            .dwattr $C$DW$T$253, DW_AT_type(*$C$DW$T$94)
    2020                            .dwattr $C$DW$T$253, DW_AT_language(DW_LANG_C)
    2021                            .dwattr $C$DW$T$253, DW_AT_decl_file("C:/ti/ccsv8/tools/compiler/ti-cgt-arm_18.1.3.LTS/include
    2022                            .dwattr $C$DW$T$253, DW_AT_decl_line(0x60)
    2023                            .dwattr $C$DW$T$253, DW_AT_decl_column(0x13)
    2024                    
    2025                    $C$DW$T$254     .dwtag  DW_TAG_typedef
    2026                            .dwattr $C$DW$T$254, DW_AT_name("int32_t")
    2027                            .dwattr $C$DW$T$254, DW_AT_type(*$C$DW$T$94)
    2028                            .dwattr $C$DW$T$254, DW_AT_language(DW_LANG_C)
    2029                            .dwattr $C$DW$T$254, DW_AT_decl_file("C:/ti/ccsv8/tools/compiler/ti-cgt-arm_18.1.3.LTS/include
    2030                            .dwattr $C$DW$T$254, DW_AT_decl_line(0x2e)
    2031                            .dwattr $C$DW$T$254, DW_AT_decl_column(0x14)
    2032                    
    2033                    $C$DW$T$255     .dwtag  DW_TAG_typedef
TI ARM Assembler PC v18.1.3 Wed Nov 28 13:22:05 2018

Tools Copyright (c) 1996-2017 Texas Instruments Incorporated
C:\Users\Adrian\AppData\Local\Temp\{BD3F71B0-1117-47C0-BC43-1785123CD23C} PAGE   38

    2034                            .dwattr $C$DW$T$255, DW_AT_name("__nl_item")
    2035                            .dwattr $C$DW$T$255, DW_AT_type(*$C$DW$T$10)
    2036                            .dwattr $C$DW$T$255, DW_AT_language(DW_LANG_C)
    2037                            .dwattr $C$DW$T$255, DW_AT_decl_file("C:/ti/ccsv8/tools/compiler/ti-cgt-arm_18.1.3.LTS/include
    2038                            .dwattr $C$DW$T$255, DW_AT_decl_line(0x3b)
    2039                            .dwattr $C$DW$T$255, DW_AT_decl_column(0x0e)
    2040                    
    2041                    $C$DW$T$11      .dwtag  DW_TAG_base_type
    2042                            .dwattr $C$DW$T$11, DW_AT_encoding(DW_ATE_unsigned)
    2043                            .dwattr $C$DW$T$11, DW_AT_name("unsigned int")
    2044                            .dwattr $C$DW$T$11, DW_AT_byte_size(0x04)
    2045                    
    2046                    $C$DW$T$256     .dwtag  DW_TAG_typedef
    2047                            .dwattr $C$DW$T$256, DW_AT_name("__UINT32")
    2048                            .dwattr $C$DW$T$256, DW_AT_type(*$C$DW$T$11)
    2049                            .dwattr $C$DW$T$256, DW_AT_language(DW_LANG_C)
    2050                            .dwattr $C$DW$T$256, DW_AT_decl_file("C:/ti/simplelink_cc13x0_sdk_2_30_00_20/source/ti/devices
    2051                            .dwattr $C$DW$T$256, DW_AT_decl_line(0x45)
    2052                            .dwattr $C$DW$T$256, DW_AT_decl_column(0x17)
    2053                    
    2054                    $C$DW$T$22      .dwtag  DW_TAG_typedef
    2055                            .dwattr $C$DW$T$22, DW_AT_name("__uint32_t")
    2056                            .dwattr $C$DW$T$22, DW_AT_type(*$C$DW$T$11)
    2057                            .dwattr $C$DW$T$22, DW_AT_language(DW_LANG_C)
    2058                            .dwattr $C$DW$T$22, DW_AT_decl_file("C:/ti/ccsv8/tools/compiler/ti-cgt-arm_18.1.3.LTS/include/
    2059                            .dwattr $C$DW$T$22, DW_AT_decl_line(0x3e)
    2060                            .dwattr $C$DW$T$22, DW_AT_decl_column(0x17)
    2061                    
    2062                    $C$DW$T$264     .dwtag  DW_TAG_typedef
    2063                            .dwattr $C$DW$T$264, DW_AT_name("__clock_t")
    2064                            .dwattr $C$DW$T$264, DW_AT_type(*$C$DW$T$22)
    2065                            .dwattr $C$DW$T$264, DW_AT_language(DW_LANG_C)
    2066                            .dwattr $C$DW$T$264, DW_AT_decl_file("C:/ti/ccsv8/tools/compiler/ti-cgt-arm_18.1.3.LTS/include
    2067                            .dwattr $C$DW$T$264, DW_AT_decl_line(0x4d)
    2068                            .dwattr $C$DW$T$264, DW_AT_decl_column(0x14)
    2069                    
    2070                    $C$DW$T$265     .dwtag  DW_TAG_typedef
    2071                            .dwattr $C$DW$T$265, DW_AT_name("__fflags_t")
    2072                            .dwattr $C$DW$T$265, DW_AT_type(*$C$DW$T$22)
    2073                            .dwattr $C$DW$T$265, DW_AT_language(DW_LANG_C)
    2074                            .dwattr $C$DW$T$265, DW_AT_decl_file("C:/ti/ccsv8/tools/compiler/ti-cgt-arm_18.1.3.LTS/include
    2075                            .dwattr $C$DW$T$265, DW_AT_decl_line(0x31)
    2076                            .dwattr $C$DW$T$265, DW_AT_decl_column(0x14)
    2077                    
    2078                    $C$DW$T$266     .dwtag  DW_TAG_typedef
    2079                            .dwattr $C$DW$T$266, DW_AT_name("__fixpt_t")
    2080                            .dwattr $C$DW$T$266, DW_AT_type(*$C$DW$T$22)
    2081                            .dwattr $C$DW$T$266, DW_AT_language(DW_LANG_C)
    2082                            .dwattr $C$DW$T$266, DW_AT_decl_file("C:/ti/ccsv8/tools/compiler/ti-cgt-arm_18.1.3.LTS/include
    2083                            .dwattr $C$DW$T$266, DW_AT_decl_line(0x76)
    2084                            .dwattr $C$DW$T$266, DW_AT_decl_column(0x14)
    2085                    
    2086                    $C$DW$T$267     .dwtag  DW_TAG_typedef
    2087                            .dwattr $C$DW$T$267, DW_AT_name("__gid_t")
    2088                            .dwattr $C$DW$T$267, DW_AT_type(*$C$DW$T$22)
TI ARM Assembler PC v18.1.3 Wed Nov 28 13:22:05 2018

Tools Copyright (c) 1996-2017 Texas Instruments Incorporated
C:\Users\Adrian\AppData\Local\Temp\{BD3F71B0-1117-47C0-BC43-1785123CD23C} PAGE   39

    2089                            .dwattr $C$DW$T$267, DW_AT_language(DW_LANG_C)
    2090                            .dwattr $C$DW$T$267, DW_AT_decl_file("C:/ti/ccsv8/tools/compiler/ti-cgt-arm_18.1.3.LTS/include
    2091                            .dwattr $C$DW$T$267, DW_AT_decl_line(0x34)
    2092                            .dwattr $C$DW$T$267, DW_AT_decl_column(0x14)
    2093                    
    2094                    $C$DW$T$268     .dwtag  DW_TAG_typedef
    2095                            .dwattr $C$DW$T$268, DW_AT_name("__size_t")
    2096                            .dwattr $C$DW$T$268, DW_AT_type(*$C$DW$T$22)
    2097                            .dwattr $C$DW$T$268, DW_AT_language(DW_LANG_C)
    2098                            .dwattr $C$DW$T$268, DW_AT_decl_file("C:/ti/ccsv8/tools/compiler/ti-cgt-arm_18.1.3.LTS/include
    2099                            .dwattr $C$DW$T$268, DW_AT_decl_line(0x5f)
    2100                            .dwattr $C$DW$T$268, DW_AT_decl_column(0x14)
    2101                    
    2102                    $C$DW$T$269     .dwtag  DW_TAG_typedef
    2103                            .dwattr $C$DW$T$269, DW_AT_name("__socklen_t")
    2104                            .dwattr $C$DW$T$269, DW_AT_type(*$C$DW$T$22)
    2105                            .dwattr $C$DW$T$269, DW_AT_language(DW_LANG_C)
    2106                            .dwattr $C$DW$T$269, DW_AT_decl_file("C:/ti/ccsv8/tools/compiler/ti-cgt-arm_18.1.3.LTS/include
    2107                            .dwattr $C$DW$T$269, DW_AT_decl_line(0x44)
    2108                            .dwattr $C$DW$T$269, DW_AT_decl_column(0x14)
    2109                    
    2110                    $C$DW$T$270     .dwtag  DW_TAG_typedef
    2111                            .dwattr $C$DW$T$270, DW_AT_name("__time_t")
    2112                            .dwattr $C$DW$T$270, DW_AT_type(*$C$DW$T$22)
    2113                            .dwattr $C$DW$T$270, DW_AT_language(DW_LANG_C)
    2114                            .dwattr $C$DW$T$270, DW_AT_decl_file("C:/ti/ccsv8/tools/compiler/ti-cgt-arm_18.1.3.LTS/include
    2115                            .dwattr $C$DW$T$270, DW_AT_decl_line(0x64)
    2116                            .dwattr $C$DW$T$270, DW_AT_decl_column(0x19)
    2117                    
    2118                    $C$DW$T$271     .dwtag  DW_TAG_typedef
    2119                            .dwattr $C$DW$T$271, DW_AT_name("__u_register_t")
    2120                            .dwattr $C$DW$T$271, DW_AT_type(*$C$DW$T$22)
    2121                            .dwattr $C$DW$T$271, DW_AT_language(DW_LANG_C)
    2122                            .dwattr $C$DW$T$271, DW_AT_decl_file("C:/ti/ccsv8/tools/compiler/ti-cgt-arm_18.1.3.LTS/include
    2123                            .dwattr $C$DW$T$271, DW_AT_decl_line(0x71)
    2124                            .dwattr $C$DW$T$271, DW_AT_decl_column(0x14)
    2125                    
    2126                    $C$DW$T$272     .dwtag  DW_TAG_typedef
    2127                            .dwattr $C$DW$T$272, DW_AT_name("__uid_t")
    2128                            .dwattr $C$DW$T$272, DW_AT_type(*$C$DW$T$22)
    2129                            .dwattr $C$DW$T$272, DW_AT_language(DW_LANG_C)
    2130                            .dwattr $C$DW$T$272, DW_AT_decl_file("C:/ti/ccsv8/tools/compiler/ti-cgt-arm_18.1.3.LTS/include
    2131                            .dwattr $C$DW$T$272, DW_AT_decl_line(0x48)
    2132                            .dwattr $C$DW$T$272, DW_AT_decl_column(0x14)
    2133                    
    2134                    $C$DW$T$273     .dwtag  DW_TAG_typedef
    2135                            .dwattr $C$DW$T$273, DW_AT_name("__uint_fast16_t")
    2136                            .dwattr $C$DW$T$273, DW_AT_type(*$C$DW$T$22)
    2137                            .dwattr $C$DW$T$273, DW_AT_language(DW_LANG_C)
    2138                            .dwattr $C$DW$T$273, DW_AT_decl_file("C:/ti/ccsv8/tools/compiler/ti-cgt-arm_18.1.3.LTS/include
    2139                            .dwattr $C$DW$T$273, DW_AT_decl_line(0x6a)
    2140                            .dwattr $C$DW$T$273, DW_AT_decl_column(0x14)
    2141                    
    2142                    $C$DW$T$274     .dwtag  DW_TAG_typedef
    2143                            .dwattr $C$DW$T$274, DW_AT_name("uint_fast16_t")
TI ARM Assembler PC v18.1.3 Wed Nov 28 13:22:05 2018

Tools Copyright (c) 1996-2017 Texas Instruments Incorporated
C:\Users\Adrian\AppData\Local\Temp\{BD3F71B0-1117-47C0-BC43-1785123CD23C} PAGE   40

    2144                            .dwattr $C$DW$T$274, DW_AT_type(*$C$DW$T$273)
    2145                            .dwattr $C$DW$T$274, DW_AT_language(DW_LANG_C)
    2146                            .dwattr $C$DW$T$274, DW_AT_decl_file("C:/ti/ccsv8/tools/compiler/ti-cgt-arm_18.1.3.LTS/include
    2147                            .dwattr $C$DW$T$274, DW_AT_decl_line(0x38)
    2148                            .dwattr $C$DW$T$274, DW_AT_decl_column(0x1a)
    2149                    
    2150                    $C$DW$T$118     .dwtag  DW_TAG_typedef
    2151                            .dwattr $C$DW$T$118, DW_AT_name("__uint_fast32_t")
    2152                            .dwattr $C$DW$T$118, DW_AT_type(*$C$DW$T$22)
    2153                            .dwattr $C$DW$T$118, DW_AT_language(DW_LANG_C)
    2154                            .dwattr $C$DW$T$118, DW_AT_decl_file("C:/ti/ccsv8/tools/compiler/ti-cgt-arm_18.1.3.LTS/include
    2155                            .dwattr $C$DW$T$118, DW_AT_decl_line(0x6b)
    2156                            .dwattr $C$DW$T$118, DW_AT_decl_column(0x14)
    2157                    
    2158                    $C$DW$T$119     .dwtag  DW_TAG_typedef
    2159                            .dwattr $C$DW$T$119, DW_AT_name("uint_fast32_t")
    2160                            .dwattr $C$DW$T$119, DW_AT_type(*$C$DW$T$118)
    2161                            .dwattr $C$DW$T$119, DW_AT_language(DW_LANG_C)
    2162                            .dwattr $C$DW$T$119, DW_AT_decl_file("C:/ti/ccsv8/tools/compiler/ti-cgt-arm_18.1.3.LTS/include
    2163                            .dwattr $C$DW$T$119, DW_AT_decl_line(0x39)
    2164                            .dwattr $C$DW$T$119, DW_AT_decl_column(0x1a)
    2165                    
    2166                    $C$DW$T$120     .dwtag  DW_TAG_typedef
    2167                            .dwattr $C$DW$T$120, DW_AT_name("ICall_PwrBitmap_t")
    2168                            .dwattr $C$DW$T$120, DW_AT_type(*$C$DW$T$119)
    2169                            .dwattr $C$DW$T$120, DW_AT_language(DW_LANG_C)
    2170                            .dwattr $C$DW$T$120, DW_AT_decl_file("C:/ti/simplelink_cc13x0_sdk_2_30_00_20/source/ti/ti154st
    2171                            .dwattr $C$DW$T$120, DW_AT_decl_line(0x287)
    2172                            .dwattr $C$DW$T$120, DW_AT_decl_column(0x17)
    2173                    
    2174                    $C$DW$T$122     .dwtag  DW_TAG_typedef
    2175                            .dwattr $C$DW$T$122, DW_AT_name("__uint_fast8_t")
    2176                            .dwattr $C$DW$T$122, DW_AT_type(*$C$DW$T$22)
    2177                            .dwattr $C$DW$T$122, DW_AT_language(DW_LANG_C)
    2178                            .dwattr $C$DW$T$122, DW_AT_decl_file("C:/ti/ccsv8/tools/compiler/ti-cgt-arm_18.1.3.LTS/include
    2179                            .dwattr $C$DW$T$122, DW_AT_decl_line(0x69)
    2180                            .dwattr $C$DW$T$122, DW_AT_decl_column(0x14)
    2181                    
    2182                    $C$DW$T$123     .dwtag  DW_TAG_typedef
    2183                            .dwattr $C$DW$T$123, DW_AT_name("uint_fast8_t")
    2184                            .dwattr $C$DW$T$123, DW_AT_type(*$C$DW$T$122)
    2185                            .dwattr $C$DW$T$123, DW_AT_language(DW_LANG_C)
    2186                            .dwattr $C$DW$T$123, DW_AT_decl_file("C:/ti/ccsv8/tools/compiler/ti-cgt-arm_18.1.3.LTS/include
    2187                            .dwattr $C$DW$T$123, DW_AT_decl_line(0x37)
    2188                            .dwattr $C$DW$T$123, DW_AT_decl_column(0x19)
    2189                    
    2190                    $C$DW$T$126     .dwtag  DW_TAG_typedef
    2191                            .dwattr $C$DW$T$126, DW_AT_name("ICall_PwrTransition")
    2192                            .dwattr $C$DW$T$126, DW_AT_type(*$C$DW$T$123)
    2193                            .dwattr $C$DW$T$126, DW_AT_language(DW_LANG_C)
    2194                            .dwattr $C$DW$T$126, DW_AT_decl_file("C:/ti/simplelink_cc13x0_sdk_2_30_00_20/source/ti/ti154st
    2195                            .dwattr $C$DW$T$126, DW_AT_decl_line(0x326)
    2196                            .dwattr $C$DW$T$126, DW_AT_decl_column(0x16)
    2197                    
    2198                    $C$DW$T$70      .dwtag  DW_TAG_typedef
TI ARM Assembler PC v18.1.3 Wed Nov 28 13:22:05 2018

Tools Copyright (c) 1996-2017 Texas Instruments Incorporated
C:\Users\Adrian\AppData\Local\Temp\{BD3F71B0-1117-47C0-BC43-1785123CD23C} PAGE   41

    2199                            .dwattr $C$DW$T$70, DW_AT_name("__uint_least32_t")
    2200                            .dwattr $C$DW$T$70, DW_AT_type(*$C$DW$T$22)
    2201                            .dwattr $C$DW$T$70, DW_AT_language(DW_LANG_C)
    2202                            .dwattr $C$DW$T$70, DW_AT_decl_file("C:/ti/ccsv8/tools/compiler/ti-cgt-arm_18.1.3.LTS/include/
    2203                            .dwattr $C$DW$T$70, DW_AT_decl_line(0x6f)
    2204                            .dwattr $C$DW$T$70, DW_AT_decl_column(0x14)
    2205                    
    2206                    $C$DW$T$275     .dwtag  DW_TAG_typedef
    2207                            .dwattr $C$DW$T$275, DW_AT_name("__char32_t")
    2208                            .dwattr $C$DW$T$275, DW_AT_type(*$C$DW$T$70)
    2209                            .dwattr $C$DW$T$275, DW_AT_language(DW_LANG_C)
    2210                            .dwattr $C$DW$T$275, DW_AT_decl_file("C:/ti/ccsv8/tools/compiler/ti-cgt-arm_18.1.3.LTS/include
    2211                            .dwattr $C$DW$T$275, DW_AT_decl_line(0x67)
    2212                            .dwattr $C$DW$T$275, DW_AT_decl_column(0x1a)
    2213                    
    2214                    $C$DW$T$71      .dwtag  DW_TAG_typedef
    2215                            .dwattr $C$DW$T$71, DW_AT_name("uint_least32_t")
    2216                            .dwattr $C$DW$T$71, DW_AT_type(*$C$DW$T$70)
    2217                            .dwattr $C$DW$T$71, DW_AT_language(DW_LANG_C)
    2218                            .dwattr $C$DW$T$71, DW_AT_decl_file("C:/ti/ccsv8/tools/compiler/ti-cgt-arm_18.1.3.LTS/include/
    2219                            .dwattr $C$DW$T$71, DW_AT_decl_line(0x2f)
    2220                            .dwattr $C$DW$T$71, DW_AT_decl_column(0x1a)
    2221                    
    2222                    $C$DW$T$140     .dwtag  DW_TAG_typedef
    2223                            .dwattr $C$DW$T$140, DW_AT_name("ICall_CSState")
    2224                            .dwattr $C$DW$T$140, DW_AT_type(*$C$DW$T$71)
    2225                            .dwattr $C$DW$T$140, DW_AT_language(DW_LANG_C)
    2226                            .dwattr $C$DW$T$140, DW_AT_decl_file("C:/ti/simplelink_cc13x0_sdk_2_30_00_20/source/ti/ti154st
    2227                            .dwattr $C$DW$T$140, DW_AT_decl_line(0x371)
    2228                            .dwattr $C$DW$T$140, DW_AT_decl_column(0x18)
    2229                    
    2230                    
    2231                    $C$DW$T$141     .dwtag  DW_TAG_subroutine_type
    2232                            .dwattr $C$DW$T$141, DW_AT_type(*$C$DW$T$140)
    2233                            .dwattr $C$DW$T$141, DW_AT_language(DW_LANG_C)
    2234                            .dwendtag $C$DW$T$141
    2235                    
    2236                    $C$DW$T$142     .dwtag  DW_TAG_pointer_type
    2237                            .dwattr $C$DW$T$142, DW_AT_type(*$C$DW$T$141)
    2238                            .dwattr $C$DW$T$142, DW_AT_address_class(0x20)
    2239                    
    2240                    $C$DW$T$143     .dwtag  DW_TAG_typedef
    2241                            .dwattr $C$DW$T$143, DW_AT_name("ICall_EnterCS")
    2242                            .dwattr $C$DW$T$143, DW_AT_type(*$C$DW$T$142)
    2243                            .dwattr $C$DW$T$143, DW_AT_language(DW_LANG_C)
    2244                            .dwattr $C$DW$T$143, DW_AT_decl_file("C:/ti/simplelink_cc13x0_sdk_2_30_00_20/source/ti/ti154st
    2245                            .dwattr $C$DW$T$143, DW_AT_decl_line(0x377)
    2246                            .dwattr $C$DW$T$143, DW_AT_decl_column(0x19)
    2247                    
    2248                    $C$DW$T$276     .dwtag  DW_TAG_typedef
    2249                            .dwattr $C$DW$T$276, DW_AT_name("halIntState_t")
    2250                            .dwattr $C$DW$T$276, DW_AT_type(*$C$DW$T$140)
    2251                            .dwattr $C$DW$T$276, DW_AT_language(DW_LANG_C)
    2252                            .dwattr $C$DW$T$276, DW_AT_decl_file("C:\ti\simplelink_cc13x0_sdk_2_30_00_20\source\ti\ti154st
    2253                            .dwattr $C$DW$T$276, DW_AT_decl_line(0x6f)
TI ARM Assembler PC v18.1.3 Wed Nov 28 13:22:05 2018

Tools Copyright (c) 1996-2017 Texas Instruments Incorporated
C:\Users\Adrian\AppData\Local\Temp\{BD3F71B0-1117-47C0-BC43-1785123CD23C} PAGE   42

    2254                            .dwattr $C$DW$T$276, DW_AT_decl_column(0x17)
    2255                    
    2256                    $C$DW$T$72      .dwtag  DW_TAG_pointer_type
    2257                            .dwattr $C$DW$T$72, DW_AT_type(*$C$DW$T$71)
    2258                            .dwattr $C$DW$T$72, DW_AT_address_class(0x20)
    2259                    
    2260                    $C$DW$T$73      .dwtag  DW_TAG_typedef
    2261                            .dwattr $C$DW$T$73, DW_AT_name("icall_lite_id_t")
    2262                            .dwattr $C$DW$T$73, DW_AT_type(*$C$DW$T$71)
    2263                            .dwattr $C$DW$T$73, DW_AT_language(DW_LANG_C)
    2264                            .dwattr $C$DW$T$73, DW_AT_decl_file("C:/ti/simplelink_cc13x0_sdk_2_30_00_20/source/ti/ti154sta
    2265                            .dwattr $C$DW$T$73, DW_AT_decl_line(0x3ec)
    2266                            .dwattr $C$DW$T$73, DW_AT_decl_column(0x18)
    2267                    
    2268                    $C$DW$T$277     .dwtag  DW_TAG_typedef
    2269                            .dwattr $C$DW$T$277, DW_AT_name("__uintfptr_t")
    2270                            .dwattr $C$DW$T$277, DW_AT_type(*$C$DW$T$22)
    2271                            .dwattr $C$DW$T$277, DW_AT_language(DW_LANG_C)
    2272                            .dwattr $C$DW$T$277, DW_AT_decl_file("C:/ti/ccsv8/tools/compiler/ti-cgt-arm_18.1.3.LTS/include
    2273                            .dwattr $C$DW$T$277, DW_AT_decl_line(0x66)
    2274                            .dwattr $C$DW$T$277, DW_AT_decl_column(0x14)
    2275                    
    2276                    $C$DW$T$278     .dwtag  DW_TAG_typedef
    2277                            .dwattr $C$DW$T$278, DW_AT_name("__uintptr_t")
    2278                            .dwattr $C$DW$T$278, DW_AT_type(*$C$DW$T$22)
    2279                            .dwattr $C$DW$T$278, DW_AT_language(DW_LANG_C)
    2280                            .dwattr $C$DW$T$278, DW_AT_decl_file("C:/ti/ccsv8/tools/compiler/ti-cgt-arm_18.1.3.LTS/include
    2281                            .dwattr $C$DW$T$278, DW_AT_decl_line(0x68)
    2282                            .dwattr $C$DW$T$278, DW_AT_decl_column(0x14)
    2283                    
    2284                    $C$DW$T$279     .dwtag  DW_TAG_typedef
    2285                            .dwattr $C$DW$T$279, DW_AT_name("uintptr_t")
    2286                            .dwattr $C$DW$T$279, DW_AT_type(*$C$DW$T$278)
    2287                            .dwattr $C$DW$T$279, DW_AT_language(DW_LANG_C)
    2288                            .dwattr $C$DW$T$279, DW_AT_decl_file("C:/ti/ccsv8/tools/compiler/ti-cgt-arm_18.1.3.LTS/include
    2289                            .dwattr $C$DW$T$279, DW_AT_decl_line(0x50)
    2290                            .dwattr $C$DW$T$279, DW_AT_decl_column(0x16)
    2291                    
    2292                    $C$DW$T$280     .dwtag  DW_TAG_typedef
    2293                            .dwattr $C$DW$T$280, DW_AT_name("__vm_offset_t")
    2294                            .dwattr $C$DW$T$280, DW_AT_type(*$C$DW$T$22)
    2295                            .dwattr $C$DW$T$280, DW_AT_language(DW_LANG_C)
    2296                            .dwattr $C$DW$T$280, DW_AT_decl_file("C:/ti/ccsv8/tools/compiler/ti-cgt-arm_18.1.3.LTS/include
    2297                            .dwattr $C$DW$T$280, DW_AT_decl_line(0x72)
    2298                            .dwattr $C$DW$T$280, DW_AT_decl_column(0x14)
    2299                    
    2300                    $C$DW$T$281     .dwtag  DW_TAG_typedef
    2301                            .dwattr $C$DW$T$281, DW_AT_name("__vm_paddr_t")
    2302                            .dwattr $C$DW$T$281, DW_AT_type(*$C$DW$T$22)
    2303                            .dwattr $C$DW$T$281, DW_AT_language(DW_LANG_C)
    2304                            .dwattr $C$DW$T$281, DW_AT_decl_file("C:/ti/ccsv8/tools/compiler/ti-cgt-arm_18.1.3.LTS/include
    2305                            .dwattr $C$DW$T$281, DW_AT_decl_line(0x73)
    2306                            .dwattr $C$DW$T$281, DW_AT_decl_column(0x14)
    2307                    
    2308                    $C$DW$T$282     .dwtag  DW_TAG_typedef
TI ARM Assembler PC v18.1.3 Wed Nov 28 13:22:05 2018

Tools Copyright (c) 1996-2017 Texas Instruments Incorporated
C:\Users\Adrian\AppData\Local\Temp\{BD3F71B0-1117-47C0-BC43-1785123CD23C} PAGE   43

    2309                            .dwattr $C$DW$T$282, DW_AT_name("__vm_size_t")
    2310                            .dwattr $C$DW$T$282, DW_AT_type(*$C$DW$T$22)
    2311                            .dwattr $C$DW$T$282, DW_AT_language(DW_LANG_C)
    2312                            .dwattr $C$DW$T$282, DW_AT_decl_file("C:/ti/ccsv8/tools/compiler/ti-cgt-arm_18.1.3.LTS/include
    2313                            .dwattr $C$DW$T$282, DW_AT_decl_line(0x74)
    2314                            .dwattr $C$DW$T$282, DW_AT_decl_column(0x14)
    2315                    
    2316                    $C$DW$T$23      .dwtag  DW_TAG_typedef
    2317                            .dwattr $C$DW$T$23, DW_AT_name("uint32_t")
    2318                            .dwattr $C$DW$T$23, DW_AT_type(*$C$DW$T$22)
    2319                            .dwattr $C$DW$T$23, DW_AT_language(DW_LANG_C)
    2320                            .dwattr $C$DW$T$23, DW_AT_decl_file("C:/ti/ccsv8/tools/compiler/ti-cgt-arm_18.1.3.LTS/include/
    2321                            .dwattr $C$DW$T$23, DW_AT_decl_line(0x42)
    2322                            .dwattr $C$DW$T$23, DW_AT_decl_column(0x15)
    2323                    
    2324                    
    2325                    $C$DW$T$27      .dwtag  DW_TAG_subroutine_type
    2326                            .dwattr $C$DW$T$27, DW_AT_type(*$C$DW$T$23)
    2327                            .dwattr $C$DW$T$27, DW_AT_language(DW_LANG_C)
    2328                    $C$DW$104       .dwtag  DW_TAG_formal_parameter
    2329                            .dwattr $C$DW$104, DW_AT_type(*$C$DW$T$26)
    2330                    
    2331                    $C$DW$105       .dwtag  DW_TAG_formal_parameter
    2332                            .dwattr $C$DW$105, DW_AT_type(*$C$DW$T$23)
    2333                    
    2334                    $C$DW$106       .dwtag  DW_TAG_formal_parameter
    2335                            .dwattr $C$DW$106, DW_AT_type(*$C$DW$T$23)
    2336                    
    2337                            .dwendtag $C$DW$T$27
    2338                    
    2339                    $C$DW$T$28      .dwtag  DW_TAG_pointer_type
    2340                            .dwattr $C$DW$T$28, DW_AT_type(*$C$DW$T$27)
    2341                            .dwattr $C$DW$T$28, DW_AT_address_class(0x20)
    2342                    
    2343                    $C$DW$T$29      .dwtag  DW_TAG_typedef
    2344                            .dwattr $C$DW$T$29, DW_AT_name("FPTR_CRC32_T")
    2345                            .dwattr $C$DW$T$29, DW_AT_type(*$C$DW$T$28)
    2346                            .dwattr $C$DW$T$29, DW_AT_language(DW_LANG_C)
    2347                            .dwattr $C$DW$T$29, DW_AT_decl_file("C:\ti\simplelink_cc13x0_sdk_2_30_00_20\source\ti\devices\
    2348                            .dwattr $C$DW$T$29, DW_AT_decl_line(0x3e)
    2349                            .dwattr $C$DW$T$29, DW_AT_decl_column(0x19)
    2350                    
    2351                    $C$DW$T$38      .dwtag  DW_TAG_typedef
    2352                            .dwattr $C$DW$T$38, DW_AT_name("FPTR_RESERVED3_T")
    2353                            .dwattr $C$DW$T$38, DW_AT_type(*$C$DW$T$28)
    2354                            .dwattr $C$DW$T$38, DW_AT_language(DW_LANG_C)
    2355                            .dwattr $C$DW$T$38, DW_AT_decl_file("C:\ti\simplelink_cc13x0_sdk_2_30_00_20\source\ti\devices\
    2356                            .dwattr $C$DW$T$38, DW_AT_decl_line(0x4a)
    2357                            .dwattr $C$DW$T$38, DW_AT_decl_column(0x19)
    2358                    
    2359                    
    2360                    $C$DW$T$30      .dwtag  DW_TAG_subroutine_type
    2361                            .dwattr $C$DW$T$30, DW_AT_type(*$C$DW$T$23)
    2362                            .dwattr $C$DW$T$30, DW_AT_language(DW_LANG_C)
    2363                            .dwendtag $C$DW$T$30
TI ARM Assembler PC v18.1.3 Wed Nov 28 13:22:05 2018

Tools Copyright (c) 1996-2017 Texas Instruments Incorporated
C:\Users\Adrian\AppData\Local\Temp\{BD3F71B0-1117-47C0-BC43-1785123CD23C} PAGE   44

    2364                    
    2365                    $C$DW$T$31      .dwtag  DW_TAG_pointer_type
    2366                            .dwattr $C$DW$T$31, DW_AT_type(*$C$DW$T$30)
    2367                            .dwattr $C$DW$T$31, DW_AT_address_class(0x20)
    2368                    
    2369                    $C$DW$T$33      .dwtag  DW_TAG_typedef
    2370                            .dwattr $C$DW$T$33, DW_AT_name("FPTR_GETCHIPID_T")
    2371                            .dwattr $C$DW$T$33, DW_AT_type(*$C$DW$T$31)
    2372                            .dwattr $C$DW$T$33, DW_AT_language(DW_LANG_C)
    2373                            .dwattr $C$DW$T$33, DW_AT_decl_file("C:\ti\simplelink_cc13x0_sdk_2_30_00_20\source\ti\devices\
    2374                            .dwattr $C$DW$T$33, DW_AT_decl_line(0x44)
    2375                            .dwattr $C$DW$T$33, DW_AT_decl_column(0x19)
    2376                    
    2377                    $C$DW$T$32      .dwtag  DW_TAG_typedef
    2378                            .dwattr $C$DW$T$32, DW_AT_name("FPTR_GETFLSIZE_T")
    2379                            .dwattr $C$DW$T$32, DW_AT_type(*$C$DW$T$31)
    2380                            .dwattr $C$DW$T$32, DW_AT_language(DW_LANG_C)
    2381                            .dwattr $C$DW$T$32, DW_AT_decl_file("C:\ti\simplelink_cc13x0_sdk_2_30_00_20\source\ti\devices\
    2382                            .dwattr $C$DW$T$32, DW_AT_decl_line(0x42)
    2383                            .dwattr $C$DW$T$32, DW_AT_decl_column(0x19)
    2384                    
    2385                    $C$DW$T$37      .dwtag  DW_TAG_typedef
    2386                            .dwattr $C$DW$T$37, DW_AT_name("FPTR_RESERVED2_T")
    2387                            .dwattr $C$DW$T$37, DW_AT_type(*$C$DW$T$31)
    2388                            .dwattr $C$DW$T$37, DW_AT_language(DW_LANG_C)
    2389                            .dwattr $C$DW$T$37, DW_AT_decl_file("C:\ti\simplelink_cc13x0_sdk_2_30_00_20\source\ti\devices\
    2390                            .dwattr $C$DW$T$37, DW_AT_decl_line(0x48)
    2391                            .dwattr $C$DW$T$37, DW_AT_decl_column(0x19)
    2392                    
    2393                    
    2394                    $C$DW$T$34      .dwtag  DW_TAG_subroutine_type
    2395                            .dwattr $C$DW$T$34, DW_AT_type(*$C$DW$T$23)
    2396                            .dwattr $C$DW$T$34, DW_AT_language(DW_LANG_C)
    2397                    $C$DW$107       .dwtag  DW_TAG_formal_parameter
    2398                            .dwattr $C$DW$107, DW_AT_type(*$C$DW$T$23)
    2399                    
    2400                            .dwendtag $C$DW$T$34
    2401                    
    2402                    $C$DW$T$35      .dwtag  DW_TAG_pointer_type
    2403                            .dwattr $C$DW$T$35, DW_AT_type(*$C$DW$T$34)
    2404                            .dwattr $C$DW$T$35, DW_AT_address_class(0x20)
    2405                    
    2406                    $C$DW$T$36      .dwtag  DW_TAG_typedef
    2407                            .dwattr $C$DW$T$36, DW_AT_name("FPTR_RESERVED1_T")
    2408                            .dwattr $C$DW$T$36, DW_AT_type(*$C$DW$T$35)
    2409                            .dwattr $C$DW$T$36, DW_AT_language(DW_LANG_C)
    2410                            .dwattr $C$DW$T$36, DW_AT_decl_file("C:\ti\simplelink_cc13x0_sdk_2_30_00_20\source\ti\devices\
    2411                            .dwattr $C$DW$T$36, DW_AT_decl_line(0x46)
    2412                            .dwattr $C$DW$T$36, DW_AT_decl_column(0x19)
    2413                    
    2414                    
    2415                    $C$DW$T$45      .dwtag  DW_TAG_subroutine_type
    2416                            .dwattr $C$DW$T$45, DW_AT_type(*$C$DW$T$23)
    2417                            .dwattr $C$DW$T$45, DW_AT_language(DW_LANG_C)
    2418                    $C$DW$108       .dwtag  DW_TAG_formal_parameter
TI ARM Assembler PC v18.1.3 Wed Nov 28 13:22:05 2018

Tools Copyright (c) 1996-2017 Texas Instruments Incorporated
C:\Users\Adrian\AppData\Local\Temp\{BD3F71B0-1117-47C0-BC43-1785123CD23C} PAGE   45

    2419                            .dwattr $C$DW$108, DW_AT_type(*$C$DW$T$44)
    2420                    
    2421                    $C$DW$109       .dwtag  DW_TAG_formal_parameter
    2422                            .dwattr $C$DW$109, DW_AT_type(*$C$DW$T$43)
    2423                    
    2424                    $C$DW$110       .dwtag  DW_TAG_formal_parameter
    2425                            .dwattr $C$DW$110, DW_AT_type(*$C$DW$T$43)
    2426                    
    2427                            .dwendtag $C$DW$T$45
    2428                    
    2429                    $C$DW$T$46      .dwtag  DW_TAG_pointer_type
    2430                            .dwattr $C$DW$T$46, DW_AT_type(*$C$DW$T$45)
    2431                            .dwattr $C$DW$T$46, DW_AT_address_class(0x20)
    2432                    
    2433                    $C$DW$T$47      .dwtag  DW_TAG_typedef
    2434                            .dwattr $C$DW$T$47, DW_AT_name("FPTR_FLETCHER32_T")
    2435                            .dwattr $C$DW$T$47, DW_AT_type(*$C$DW$T$46)
    2436                            .dwattr $C$DW$T$47, DW_AT_language(DW_LANG_C)
    2437                            .dwattr $C$DW$T$47, DW_AT_decl_file("C:\ti\simplelink_cc13x0_sdk_2_30_00_20\source\ti\devices\
    2438                            .dwattr $C$DW$T$47, DW_AT_decl_line(0x4f)
    2439                            .dwattr $C$DW$T$47, DW_AT_decl_column(0x19)
    2440                    
    2441                    $C$DW$T$48      .dwtag  DW_TAG_pointer_type
    2442                            .dwattr $C$DW$T$48, DW_AT_type(*$C$DW$T$23)
    2443                            .dwattr $C$DW$T$48, DW_AT_address_class(0x20)
    2444                    
    2445                    
    2446                    $C$DW$T$49      .dwtag  DW_TAG_subroutine_type
    2447                            .dwattr $C$DW$T$49, DW_AT_type(*$C$DW$T$23)
    2448                            .dwattr $C$DW$T$49, DW_AT_language(DW_LANG_C)
    2449                    $C$DW$111       .dwtag  DW_TAG_formal_parameter
    2450                            .dwattr $C$DW$111, DW_AT_type(*$C$DW$T$48)
    2451                    
    2452                    $C$DW$112       .dwtag  DW_TAG_formal_parameter
    2453                            .dwattr $C$DW$112, DW_AT_type(*$C$DW$T$23)
    2454                    
    2455                            .dwendtag $C$DW$T$49
    2456                    
    2457                    $C$DW$T$50      .dwtag  DW_TAG_pointer_type
    2458                            .dwattr $C$DW$T$50, DW_AT_type(*$C$DW$T$49)
    2459                            .dwattr $C$DW$T$50, DW_AT_address_class(0x20)
    2460                    
    2461                    $C$DW$T$52      .dwtag  DW_TAG_typedef
    2462                            .dwattr $C$DW$T$52, DW_AT_name("FPTR_MAXVAL_T")
    2463                            .dwattr $C$DW$T$52, DW_AT_type(*$C$DW$T$50)
    2464                            .dwattr $C$DW$T$52, DW_AT_language(DW_LANG_C)
    2465                            .dwattr $C$DW$T$52, DW_AT_decl_file("C:\ti\simplelink_cc13x0_sdk_2_30_00_20\source\ti\devices\
    2466                            .dwattr $C$DW$T$52, DW_AT_decl_line(0x56)
    2467                            .dwattr $C$DW$T$52, DW_AT_decl_column(0x19)
    2468                    
    2469                    $C$DW$T$53      .dwtag  DW_TAG_typedef
    2470                            .dwattr $C$DW$T$53, DW_AT_name("FPTR_MEANVAL_T")
    2471                            .dwattr $C$DW$T$53, DW_AT_type(*$C$DW$T$50)
    2472                            .dwattr $C$DW$T$53, DW_AT_language(DW_LANG_C)
    2473                            .dwattr $C$DW$T$53, DW_AT_decl_file("C:\ti\simplelink_cc13x0_sdk_2_30_00_20\source\ti\devices\
TI ARM Assembler PC v18.1.3 Wed Nov 28 13:22:05 2018

Tools Copyright (c) 1996-2017 Texas Instruments Incorporated
C:\Users\Adrian\AppData\Local\Temp\{BD3F71B0-1117-47C0-BC43-1785123CD23C} PAGE   46

    2474                            .dwattr $C$DW$T$53, DW_AT_decl_line(0x59)
    2475                            .dwattr $C$DW$T$53, DW_AT_decl_column(0x19)
    2476                    
    2477                    $C$DW$T$51      .dwtag  DW_TAG_typedef
    2478                            .dwattr $C$DW$T$51, DW_AT_name("FPTR_MINVAL_T")
    2479                            .dwattr $C$DW$T$51, DW_AT_type(*$C$DW$T$50)
    2480                            .dwattr $C$DW$T$51, DW_AT_language(DW_LANG_C)
    2481                            .dwattr $C$DW$T$51, DW_AT_decl_file("C:\ti\simplelink_cc13x0_sdk_2_30_00_20\source\ti\devices\
    2482                            .dwattr $C$DW$T$51, DW_AT_decl_line(0x53)
    2483                            .dwattr $C$DW$T$51, DW_AT_decl_column(0x19)
    2484                    
    2485                    $C$DW$T$54      .dwtag  DW_TAG_typedef
    2486                            .dwattr $C$DW$T$54, DW_AT_name("FPTR_STDDVAL_T")
    2487                            .dwattr $C$DW$T$54, DW_AT_type(*$C$DW$T$50)
    2488                            .dwattr $C$DW$T$54, DW_AT_language(DW_LANG_C)
    2489                            .dwattr $C$DW$T$54, DW_AT_decl_file("C:\ti\simplelink_cc13x0_sdk_2_30_00_20\source\ti\devices\
    2490                            .dwattr $C$DW$T$54, DW_AT_decl_line(0x5c)
    2491                            .dwattr $C$DW$T$54, DW_AT_decl_column(0x19)
    2492                    
    2493                    $C$DW$T$283     .dwtag  DW_TAG_typedef
    2494                            .dwattr $C$DW$T$283, DW_AT_name("__useconds_t")
    2495                            .dwattr $C$DW$T$283, DW_AT_type(*$C$DW$T$11)
    2496                            .dwattr $C$DW$T$283, DW_AT_language(DW_LANG_C)
    2497                            .dwattr $C$DW$T$283, DW_AT_decl_file("C:/ti/ccsv8/tools/compiler/ti-cgt-arm_18.1.3.LTS/include
    2498                            .dwattr $C$DW$T$283, DW_AT_decl_line(0x49)
    2499                            .dwattr $C$DW$T$283, DW_AT_decl_column(0x16)
    2500                    
    2501                    $C$DW$T$89      .dwtag  DW_TAG_typedef
    2502                            .dwattr $C$DW$T$89, DW_AT_name("size_t")
    2503                            .dwattr $C$DW$T$89, DW_AT_type(*$C$DW$T$11)
    2504                            .dwattr $C$DW$T$89, DW_AT_language(DW_LANG_C)
    2505                            .dwattr $C$DW$T$89, DW_AT_decl_file("C:/ti/ccsv8/tools/compiler/ti-cgt-arm_18.1.3.LTS/include/
    2506                            .dwattr $C$DW$T$89, DW_AT_decl_line(0x68)
    2507                            .dwattr $C$DW$T$89, DW_AT_decl_column(0x19)
    2508                    
    2509                    $C$DW$T$12      .dwtag  DW_TAG_base_type
    2510                            .dwattr $C$DW$T$12, DW_AT_encoding(DW_ATE_signed)
    2511                            .dwattr $C$DW$T$12, DW_AT_name("long")
    2512                            .dwattr $C$DW$T$12, DW_AT_byte_size(0x04)
    2513                    
    2514                    $C$DW$T$284     .dwtag  DW_TAG_typedef
    2515                            .dwattr $C$DW$T$284, DW_AT_name("__key_t")
    2516                            .dwattr $C$DW$T$284, DW_AT_type(*$C$DW$T$12)
    2517                            .dwattr $C$DW$T$284, DW_AT_language(DW_LANG_C)
    2518                            .dwattr $C$DW$T$284, DW_AT_decl_file("C:/ti/ccsv8/tools/compiler/ti-cgt-arm_18.1.3.LTS/include
    2519                            .dwattr $C$DW$T$284, DW_AT_decl_line(0x37)
    2520                            .dwattr $C$DW$T$284, DW_AT_decl_column(0x0f)
    2521                    
    2522                    $C$DW$T$285     .dwtag  DW_TAG_typedef
    2523                            .dwattr $C$DW$T$285, DW_AT_name("__suseconds_t")
    2524                            .dwattr $C$DW$T$285, DW_AT_type(*$C$DW$T$12)
    2525                            .dwattr $C$DW$T$285, DW_AT_language(DW_LANG_C)
    2526                            .dwattr $C$DW$T$285, DW_AT_decl_file("C:/ti/ccsv8/tools/compiler/ti-cgt-arm_18.1.3.LTS/include
    2527                            .dwattr $C$DW$T$285, DW_AT_decl_line(0x45)
    2528                            .dwattr $C$DW$T$285, DW_AT_decl_column(0x0f)
TI ARM Assembler PC v18.1.3 Wed Nov 28 13:22:05 2018

Tools Copyright (c) 1996-2017 Texas Instruments Incorporated
C:\Users\Adrian\AppData\Local\Temp\{BD3F71B0-1117-47C0-BC43-1785123CD23C} PAGE   47

    2529                    
    2530                    $C$DW$T$286     .dwtag  DW_TAG_typedef
    2531                            .dwattr $C$DW$T$286, DW_AT_name("int32")
    2532                            .dwattr $C$DW$T$286, DW_AT_type(*$C$DW$T$12)
    2533                            .dwattr $C$DW$T$286, DW_AT_language(DW_LANG_C)
    2534                            .dwattr $C$DW$T$286, DW_AT_decl_file("C:\ti\simplelink_cc13x0_sdk_2_30_00_20\source\ti\ti154st
    2535                            .dwattr $C$DW$T$286, DW_AT_decl_line(0x3e)
    2536                            .dwattr $C$DW$T$286, DW_AT_decl_column(0x19)
    2537                    
    2538                    $C$DW$T$13      .dwtag  DW_TAG_base_type
    2539                            .dwattr $C$DW$T$13, DW_AT_encoding(DW_ATE_unsigned)
    2540                            .dwattr $C$DW$T$13, DW_AT_name("unsigned long")
    2541                            .dwattr $C$DW$T$13, DW_AT_byte_size(0x04)
    2542                    
    2543                    $C$DW$T$187     .dwtag  DW_TAG_typedef
    2544                            .dwattr $C$DW$T$187, DW_AT_name("uint32")
    2545                            .dwattr $C$DW$T$187, DW_AT_type(*$C$DW$T$13)
    2546                            .dwattr $C$DW$T$187, DW_AT_language(DW_LANG_C)
    2547                            .dwattr $C$DW$T$187, DW_AT_decl_file("C:\ti\simplelink_cc13x0_sdk_2_30_00_20\source\ti\ti154st
    2548                            .dwattr $C$DW$T$187, DW_AT_decl_line(0x3f)
    2549                            .dwattr $C$DW$T$187, DW_AT_decl_column(0x19)
    2550                    
    2551                    $C$DW$T$287     .dwtag  DW_TAG_typedef
    2552                            .dwattr $C$DW$T$287, DW_AT_name("halDataAlign_t")
    2553                            .dwattr $C$DW$T$287, DW_AT_type(*$C$DW$T$187)
    2554                            .dwattr $C$DW$T$287, DW_AT_language(DW_LANG_C)
    2555                            .dwattr $C$DW$T$287, DW_AT_decl_file("C:\ti\simplelink_cc13x0_sdk_2_30_00_20\source\ti\ti154st
    2556                            .dwattr $C$DW$T$287, DW_AT_decl_line(0x43)
    2557                            .dwattr $C$DW$T$287, DW_AT_decl_column(0x19)
    2558                    
    2559                    $C$DW$T$14      .dwtag  DW_TAG_base_type
    2560                            .dwattr $C$DW$T$14, DW_AT_encoding(DW_ATE_signed)
    2561                            .dwattr $C$DW$T$14, DW_AT_name("long long")
    2562                            .dwattr $C$DW$T$14, DW_AT_byte_size(0x08)
    2563                    
    2564                    $C$DW$T$289     .dwtag  DW_TAG_typedef
    2565                            .dwattr $C$DW$T$289, DW_AT_name("__int64_t")
    2566                            .dwattr $C$DW$T$289, DW_AT_type(*$C$DW$T$14)
    2567                            .dwattr $C$DW$T$289, DW_AT_language(DW_LANG_C)
    2568                            .dwattr $C$DW$T$289, DW_AT_decl_file("C:/ti/ccsv8/tools/compiler/ti-cgt-arm_18.1.3.LTS/include
    2569                            .dwattr $C$DW$T$289, DW_AT_decl_line(0x43)
    2570                            .dwattr $C$DW$T$289, DW_AT_decl_column(0x14)
    2571                    
    2572                    $C$DW$T$290     .dwtag  DW_TAG_typedef
    2573                            .dwattr $C$DW$T$290, DW_AT_name("__blkcnt_t")
    2574                            .dwattr $C$DW$T$290, DW_AT_type(*$C$DW$T$289)
    2575                            .dwattr $C$DW$T$290, DW_AT_language(DW_LANG_C)
    2576                            .dwattr $C$DW$T$290, DW_AT_decl_file("C:/ti/ccsv8/tools/compiler/ti-cgt-arm_18.1.3.LTS/include
    2577                            .dwattr $C$DW$T$290, DW_AT_decl_line(0x2f)
    2578                            .dwattr $C$DW$T$290, DW_AT_decl_column(0x13)
    2579                    
    2580                    $C$DW$T$291     .dwtag  DW_TAG_typedef
    2581                            .dwattr $C$DW$T$291, DW_AT_name("__id_t")
    2582                            .dwattr $C$DW$T$291, DW_AT_type(*$C$DW$T$289)
    2583                            .dwattr $C$DW$T$291, DW_AT_language(DW_LANG_C)
TI ARM Assembler PC v18.1.3 Wed Nov 28 13:22:05 2018

Tools Copyright (c) 1996-2017 Texas Instruments Incorporated
C:\Users\Adrian\AppData\Local\Temp\{BD3F71B0-1117-47C0-BC43-1785123CD23C} PAGE   48

    2584                            .dwattr $C$DW$T$291, DW_AT_decl_file("C:/ti/ccsv8/tools/compiler/ti-cgt-arm_18.1.3.LTS/include
    2585                            .dwattr $C$DW$T$291, DW_AT_decl_line(0x35)
    2586                            .dwattr $C$DW$T$291, DW_AT_decl_column(0x13)
    2587                    
    2588                    $C$DW$T$292     .dwtag  DW_TAG_typedef
    2589                            .dwattr $C$DW$T$292, DW_AT_name("__int_fast64_t")
    2590                            .dwattr $C$DW$T$292, DW_AT_type(*$C$DW$T$289)
    2591                            .dwattr $C$DW$T$292, DW_AT_language(DW_LANG_C)
    2592                            .dwattr $C$DW$T$292, DW_AT_decl_file("C:/ti/ccsv8/tools/compiler/ti-cgt-arm_18.1.3.LTS/include
    2593                            .dwattr $C$DW$T$292, DW_AT_decl_line(0x57)
    2594                            .dwattr $C$DW$T$292, DW_AT_decl_column(0x13)
    2595                    
    2596                    $C$DW$T$293     .dwtag  DW_TAG_typedef
    2597                            .dwattr $C$DW$T$293, DW_AT_name("int_fast64_t")
    2598                            .dwattr $C$DW$T$293, DW_AT_type(*$C$DW$T$292)
    2599                            .dwattr $C$DW$T$293, DW_AT_language(DW_LANG_C)
    2600                            .dwattr $C$DW$T$293, DW_AT_decl_file("C:/ti/ccsv8/tools/compiler/ti-cgt-arm_18.1.3.LTS/include
    2601                            .dwattr $C$DW$T$293, DW_AT_decl_line(0x35)
    2602                            .dwattr $C$DW$T$293, DW_AT_decl_column(0x19)
    2603                    
    2604                    $C$DW$T$294     .dwtag  DW_TAG_typedef
    2605                            .dwattr $C$DW$T$294, DW_AT_name("__int_least64_t")
    2606                            .dwattr $C$DW$T$294, DW_AT_type(*$C$DW$T$289)
    2607                            .dwattr $C$DW$T$294, DW_AT_language(DW_LANG_C)
    2608                            .dwattr $C$DW$T$294, DW_AT_decl_file("C:/ti/ccsv8/tools/compiler/ti-cgt-arm_18.1.3.LTS/include
    2609                            .dwattr $C$DW$T$294, DW_AT_decl_line(0x5b)
    2610                            .dwattr $C$DW$T$294, DW_AT_decl_column(0x13)
    2611                    
    2612                    $C$DW$T$295     .dwtag  DW_TAG_typedef
    2613                            .dwattr $C$DW$T$295, DW_AT_name("int_least64_t")
    2614                            .dwattr $C$DW$T$295, DW_AT_type(*$C$DW$T$294)
    2615                            .dwattr $C$DW$T$295, DW_AT_language(DW_LANG_C)
    2616                            .dwattr $C$DW$T$295, DW_AT_decl_file("C:/ti/ccsv8/tools/compiler/ti-cgt-arm_18.1.3.LTS/include
    2617                            .dwattr $C$DW$T$295, DW_AT_decl_line(0x2b)
    2618                            .dwattr $C$DW$T$295, DW_AT_decl_column(0x1a)
    2619                    
    2620                    $C$DW$T$296     .dwtag  DW_TAG_typedef
    2621                            .dwattr $C$DW$T$296, DW_AT_name("__intmax_t")
    2622                            .dwattr $C$DW$T$296, DW_AT_type(*$C$DW$T$289)
    2623                            .dwattr $C$DW$T$296, DW_AT_language(DW_LANG_C)
    2624                            .dwattr $C$DW$T$296, DW_AT_decl_file("C:/ti/ccsv8/tools/compiler/ti-cgt-arm_18.1.3.LTS/include
    2625                            .dwattr $C$DW$T$296, DW_AT_decl_line(0x52)
    2626                            .dwattr $C$DW$T$296, DW_AT_decl_column(0x13)
    2627                    
    2628                    $C$DW$T$297     .dwtag  DW_TAG_typedef
    2629                            .dwattr $C$DW$T$297, DW_AT_name("intmax_t")
    2630                            .dwattr $C$DW$T$297, DW_AT_type(*$C$DW$T$296)
    2631                            .dwattr $C$DW$T$297, DW_AT_language(DW_LANG_C)
    2632                            .dwattr $C$DW$T$297, DW_AT_decl_file("C:/ti/ccsv8/tools/compiler/ti-cgt-arm_18.1.3.LTS/include
    2633                            .dwattr $C$DW$T$297, DW_AT_decl_line(0x54)
    2634                            .dwattr $C$DW$T$297, DW_AT_decl_column(0x15)
    2635                    
    2636                    $C$DW$T$298     .dwtag  DW_TAG_typedef
    2637                            .dwattr $C$DW$T$298, DW_AT_name("__off64_t")
    2638                            .dwattr $C$DW$T$298, DW_AT_type(*$C$DW$T$289)
TI ARM Assembler PC v18.1.3 Wed Nov 28 13:22:05 2018

Tools Copyright (c) 1996-2017 Texas Instruments Incorporated
C:\Users\Adrian\AppData\Local\Temp\{BD3F71B0-1117-47C0-BC43-1785123CD23C} PAGE   49

    2639                            .dwattr $C$DW$T$298, DW_AT_language(DW_LANG_C)
    2640                            .dwattr $C$DW$T$298, DW_AT_decl_file("C:/ti/ccsv8/tools/compiler/ti-cgt-arm_18.1.3.LTS/include
    2641                            .dwattr $C$DW$T$298, DW_AT_decl_line(0x3e)
    2642                            .dwattr $C$DW$T$298, DW_AT_decl_column(0x13)
    2643                    
    2644                    $C$DW$T$299     .dwtag  DW_TAG_typedef
    2645                            .dwattr $C$DW$T$299, DW_AT_name("__off_t")
    2646                            .dwattr $C$DW$T$299, DW_AT_type(*$C$DW$T$289)
    2647                            .dwattr $C$DW$T$299, DW_AT_language(DW_LANG_C)
    2648                            .dwattr $C$DW$T$299, DW_AT_decl_file("C:/ti/ccsv8/tools/compiler/ti-cgt-arm_18.1.3.LTS/include
    2649                            .dwattr $C$DW$T$299, DW_AT_decl_line(0x3d)
    2650                            .dwattr $C$DW$T$299, DW_AT_decl_column(0x13)
    2651                    
    2652                    $C$DW$T$300     .dwtag  DW_TAG_typedef
    2653                            .dwattr $C$DW$T$300, DW_AT_name("__rlim_t")
    2654                            .dwattr $C$DW$T$300, DW_AT_type(*$C$DW$T$289)
    2655                            .dwattr $C$DW$T$300, DW_AT_language(DW_LANG_C)
    2656                            .dwattr $C$DW$T$300, DW_AT_decl_file("C:/ti/ccsv8/tools/compiler/ti-cgt-arm_18.1.3.LTS/include
    2657                            .dwattr $C$DW$T$300, DW_AT_decl_line(0x40)
    2658                            .dwattr $C$DW$T$300, DW_AT_decl_column(0x13)
    2659                    
    2660                    $C$DW$T$301     .dwtag  DW_TAG_typedef
    2661                            .dwattr $C$DW$T$301, DW_AT_name("int64_t")
    2662                            .dwattr $C$DW$T$301, DW_AT_type(*$C$DW$T$289)
    2663                            .dwattr $C$DW$T$301, DW_AT_language(DW_LANG_C)
    2664                            .dwattr $C$DW$T$301, DW_AT_decl_file("C:/ti/ccsv8/tools/compiler/ti-cgt-arm_18.1.3.LTS/include
    2665                            .dwattr $C$DW$T$301, DW_AT_decl_line(0x33)
    2666                            .dwattr $C$DW$T$301, DW_AT_decl_column(0x14)
    2667                    
    2668                    $C$DW$T$15      .dwtag  DW_TAG_base_type
    2669                            .dwattr $C$DW$T$15, DW_AT_encoding(DW_ATE_unsigned)
    2670                            .dwattr $C$DW$T$15, DW_AT_name("unsigned long long")
    2671                            .dwattr $C$DW$T$15, DW_AT_byte_size(0x08)
    2672                    
    2673                    $C$DW$T$302     .dwtag  DW_TAG_typedef
    2674                            .dwattr $C$DW$T$302, DW_AT_name("__uint64_t")
    2675                            .dwattr $C$DW$T$302, DW_AT_type(*$C$DW$T$15)
    2676                            .dwattr $C$DW$T$302, DW_AT_language(DW_LANG_C)
    2677                            .dwattr $C$DW$T$302, DW_AT_decl_file("C:/ti/ccsv8/tools/compiler/ti-cgt-arm_18.1.3.LTS/include
    2678                            .dwattr $C$DW$T$302, DW_AT_decl_line(0x48)
    2679                            .dwattr $C$DW$T$302, DW_AT_decl_column(0x1c)
    2680                    
    2681                    $C$DW$T$303     .dwtag  DW_TAG_typedef
    2682                            .dwattr $C$DW$T$303, DW_AT_name("__dev_t")
    2683                            .dwattr $C$DW$T$303, DW_AT_type(*$C$DW$T$302)
    2684                            .dwattr $C$DW$T$303, DW_AT_language(DW_LANG_C)
    2685                            .dwattr $C$DW$T$303, DW_AT_decl_file("C:/ti/ccsv8/tools/compiler/ti-cgt-arm_18.1.3.LTS/include
    2686                            .dwattr $C$DW$T$303, DW_AT_decl_line(0x74)
    2687                            .dwattr $C$DW$T$303, DW_AT_decl_column(0x14)
    2688                    
    2689                    $C$DW$T$304     .dwtag  DW_TAG_typedef
    2690                            .dwattr $C$DW$T$304, DW_AT_name("__fsblkcnt_t")
    2691                            .dwattr $C$DW$T$304, DW_AT_type(*$C$DW$T$302)
    2692                            .dwattr $C$DW$T$304, DW_AT_language(DW_LANG_C)
    2693                            .dwattr $C$DW$T$304, DW_AT_decl_file("C:/ti/ccsv8/tools/compiler/ti-cgt-arm_18.1.3.LTS/include
TI ARM Assembler PC v18.1.3 Wed Nov 28 13:22:05 2018

Tools Copyright (c) 1996-2017 Texas Instruments Incorporated
C:\Users\Adrian\AppData\Local\Temp\{BD3F71B0-1117-47C0-BC43-1785123CD23C} PAGE   50

    2694                            .dwattr $C$DW$T$304, DW_AT_decl_line(0x32)
    2695                            .dwattr $C$DW$T$304, DW_AT_decl_column(0x14)
    2696                    
    2697                    $C$DW$T$305     .dwtag  DW_TAG_typedef
    2698                            .dwattr $C$DW$T$305, DW_AT_name("__fsfilcnt_t")
    2699                            .dwattr $C$DW$T$305, DW_AT_type(*$C$DW$T$302)
    2700                            .dwattr $C$DW$T$305, DW_AT_language(DW_LANG_C)
    2701                            .dwattr $C$DW$T$305, DW_AT_decl_file("C:/ti/ccsv8/tools/compiler/ti-cgt-arm_18.1.3.LTS/include
    2702                            .dwattr $C$DW$T$305, DW_AT_decl_line(0x33)
    2703                            .dwattr $C$DW$T$305, DW_AT_decl_column(0x14)
    2704                    
    2705                    $C$DW$T$306     .dwtag  DW_TAG_typedef
    2706                            .dwattr $C$DW$T$306, DW_AT_name("__ino_t")
    2707                            .dwattr $C$DW$T$306, DW_AT_type(*$C$DW$T$302)
    2708                            .dwattr $C$DW$T$306, DW_AT_language(DW_LANG_C)
    2709                            .dwattr $C$DW$T$306, DW_AT_decl_file("C:/ti/ccsv8/tools/compiler/ti-cgt-arm_18.1.3.LTS/include
    2710                            .dwattr $C$DW$T$306, DW_AT_decl_line(0x36)
    2711                            .dwattr $C$DW$T$306, DW_AT_decl_column(0x14)
    2712                    
    2713                    $C$DW$T$307     .dwtag  DW_TAG_typedef
    2714                            .dwattr $C$DW$T$307, DW_AT_name("__nlink_t")
    2715                            .dwattr $C$DW$T$307, DW_AT_type(*$C$DW$T$302)
    2716                            .dwattr $C$DW$T$307, DW_AT_language(DW_LANG_C)
    2717                            .dwattr $C$DW$T$307, DW_AT_decl_file("C:/ti/ccsv8/tools/compiler/ti-cgt-arm_18.1.3.LTS/include
    2718                            .dwattr $C$DW$T$307, DW_AT_decl_line(0x3c)
    2719                            .dwattr $C$DW$T$307, DW_AT_decl_column(0x14)
    2720                    
    2721                    $C$DW$T$308     .dwtag  DW_TAG_typedef
    2722                            .dwattr $C$DW$T$308, DW_AT_name("__uint_fast64_t")
    2723                            .dwattr $C$DW$T$308, DW_AT_type(*$C$DW$T$302)
    2724                            .dwattr $C$DW$T$308, DW_AT_language(DW_LANG_C)
    2725                            .dwattr $C$DW$T$308, DW_AT_decl_file("C:/ti/ccsv8/tools/compiler/ti-cgt-arm_18.1.3.LTS/include
    2726                            .dwattr $C$DW$T$308, DW_AT_decl_line(0x6c)
    2727                            .dwattr $C$DW$T$308, DW_AT_decl_column(0x14)
    2728                    
    2729                    $C$DW$T$309     .dwtag  DW_TAG_typedef
    2730                            .dwattr $C$DW$T$309, DW_AT_name("uint_fast64_t")
    2731                            .dwattr $C$DW$T$309, DW_AT_type(*$C$DW$T$308)
    2732                            .dwattr $C$DW$T$309, DW_AT_language(DW_LANG_C)
    2733                            .dwattr $C$DW$T$309, DW_AT_decl_file("C:/ti/ccsv8/tools/compiler/ti-cgt-arm_18.1.3.LTS/include
    2734                            .dwattr $C$DW$T$309, DW_AT_decl_line(0x3a)
    2735                            .dwattr $C$DW$T$309, DW_AT_decl_column(0x1a)
    2736                    
    2737                    $C$DW$T$310     .dwtag  DW_TAG_typedef
    2738                            .dwattr $C$DW$T$310, DW_AT_name("__uint_least64_t")
    2739                            .dwattr $C$DW$T$310, DW_AT_type(*$C$DW$T$302)
    2740                            .dwattr $C$DW$T$310, DW_AT_language(DW_LANG_C)
    2741                            .dwattr $C$DW$T$310, DW_AT_decl_file("C:/ti/ccsv8/tools/compiler/ti-cgt-arm_18.1.3.LTS/include
    2742                            .dwattr $C$DW$T$310, DW_AT_decl_line(0x70)
    2743                            .dwattr $C$DW$T$310, DW_AT_decl_column(0x14)
    2744                    
    2745                    $C$DW$T$311     .dwtag  DW_TAG_typedef
    2746                            .dwattr $C$DW$T$311, DW_AT_name("uint_least64_t")
    2747                            .dwattr $C$DW$T$311, DW_AT_type(*$C$DW$T$310)
    2748                            .dwattr $C$DW$T$311, DW_AT_language(DW_LANG_C)
TI ARM Assembler PC v18.1.3 Wed Nov 28 13:22:05 2018

Tools Copyright (c) 1996-2017 Texas Instruments Incorporated
C:\Users\Adrian\AppData\Local\Temp\{BD3F71B0-1117-47C0-BC43-1785123CD23C} PAGE   51

    2749                            .dwattr $C$DW$T$311, DW_AT_decl_file("C:/ti/ccsv8/tools/compiler/ti-cgt-arm_18.1.3.LTS/include
    2750                            .dwattr $C$DW$T$311, DW_AT_decl_line(0x30)
    2751                            .dwattr $C$DW$T$311, DW_AT_decl_column(0x1a)
    2752                    
    2753                    $C$DW$T$312     .dwtag  DW_TAG_typedef
    2754                            .dwattr $C$DW$T$312, DW_AT_name("__uintmax_t")
    2755                            .dwattr $C$DW$T$312, DW_AT_type(*$C$DW$T$302)
    2756                            .dwattr $C$DW$T$312, DW_AT_language(DW_LANG_C)
    2757                            .dwattr $C$DW$T$312, DW_AT_decl_file("C:/ti/ccsv8/tools/compiler/ti-cgt-arm_18.1.3.LTS/include
    2758                            .dwattr $C$DW$T$312, DW_AT_decl_line(0x67)
    2759                            .dwattr $C$DW$T$312, DW_AT_decl_column(0x14)
    2760                    
    2761                    $C$DW$T$313     .dwtag  DW_TAG_typedef
    2762                            .dwattr $C$DW$T$313, DW_AT_name("__rman_res_t")
    2763                            .dwattr $C$DW$T$313, DW_AT_type(*$C$DW$T$312)
    2764                            .dwattr $C$DW$T$313, DW_AT_language(DW_LANG_C)
    2765                            .dwattr $C$DW$T$313, DW_AT_decl_file("C:/ti/ccsv8/tools/compiler/ti-cgt-arm_18.1.3.LTS/include
    2766                            .dwattr $C$DW$T$313, DW_AT_decl_line(0x8f)
    2767                            .dwattr $C$DW$T$313, DW_AT_decl_column(0x19)
    2768                    
    2769                    $C$DW$T$314     .dwtag  DW_TAG_typedef
    2770                            .dwattr $C$DW$T$314, DW_AT_name("uintmax_t")
    2771                            .dwattr $C$DW$T$314, DW_AT_type(*$C$DW$T$312)
    2772                            .dwattr $C$DW$T$314, DW_AT_language(DW_LANG_C)
    2773                            .dwattr $C$DW$T$314, DW_AT_decl_file("C:/ti/ccsv8/tools/compiler/ti-cgt-arm_18.1.3.LTS/include
    2774                            .dwattr $C$DW$T$314, DW_AT_decl_line(0x58)
    2775                            .dwattr $C$DW$T$314, DW_AT_decl_column(0x16)
    2776                    
    2777                    $C$DW$T$315     .dwtag  DW_TAG_typedef
    2778                            .dwattr $C$DW$T$315, DW_AT_name("uint64_t")
    2779                            .dwattr $C$DW$T$315, DW_AT_type(*$C$DW$T$302)
    2780                            .dwattr $C$DW$T$315, DW_AT_language(DW_LANG_C)
    2781                            .dwattr $C$DW$T$315, DW_AT_decl_file("C:/ti/ccsv8/tools/compiler/ti-cgt-arm_18.1.3.LTS/include
    2782                            .dwattr $C$DW$T$315, DW_AT_decl_line(0x47)
    2783                            .dwattr $C$DW$T$315, DW_AT_decl_column(0x15)
    2784                    
    2785                    $C$DW$T$16      .dwtag  DW_TAG_base_type
    2786                            .dwattr $C$DW$T$16, DW_AT_encoding(DW_ATE_float)
    2787                            .dwattr $C$DW$T$16, DW_AT_name("float")
    2788                            .dwattr $C$DW$T$16, DW_AT_byte_size(0x04)
    2789                    
    2790                    $C$DW$T$316     .dwtag  DW_TAG_typedef
    2791                            .dwattr $C$DW$T$316, DW_AT_name("__float_t")
    2792                            .dwattr $C$DW$T$316, DW_AT_type(*$C$DW$T$16)
    2793                            .dwattr $C$DW$T$316, DW_AT_language(DW_LANG_C)
    2794                            .dwattr $C$DW$T$316, DW_AT_decl_file("C:/ti/ccsv8/tools/compiler/ti-cgt-arm_18.1.3.LTS/include
    2795                            .dwattr $C$DW$T$316, DW_AT_decl_line(0x50)
    2796                            .dwattr $C$DW$T$316, DW_AT_decl_column(0x10)
    2797                    
    2798                    $C$DW$T$17      .dwtag  DW_TAG_base_type
    2799                            .dwattr $C$DW$T$17, DW_AT_encoding(DW_ATE_float)
    2800                            .dwattr $C$DW$T$17, DW_AT_name("double")
    2801                            .dwattr $C$DW$T$17, DW_AT_byte_size(0x08)
    2802                    
    2803                    $C$DW$T$317     .dwtag  DW_TAG_typedef
TI ARM Assembler PC v18.1.3 Wed Nov 28 13:22:05 2018

Tools Copyright (c) 1996-2017 Texas Instruments Incorporated
C:\Users\Adrian\AppData\Local\Temp\{BD3F71B0-1117-47C0-BC43-1785123CD23C} PAGE   52

    2804                            .dwattr $C$DW$T$317, DW_AT_name("__double_t")
    2805                            .dwattr $C$DW$T$317, DW_AT_type(*$C$DW$T$17)
    2806                            .dwattr $C$DW$T$317, DW_AT_language(DW_LANG_C)
    2807                            .dwattr $C$DW$T$317, DW_AT_decl_file("C:/ti/ccsv8/tools/compiler/ti-cgt-arm_18.1.3.LTS/include
    2808                            .dwattr $C$DW$T$317, DW_AT_decl_line(0x4f)
    2809                            .dwattr $C$DW$T$317, DW_AT_decl_column(0x11)
    2810                    
    2811                    $C$DW$T$18      .dwtag  DW_TAG_base_type
    2812                            .dwattr $C$DW$T$18, DW_AT_encoding(DW_ATE_float)
    2813                            .dwattr $C$DW$T$18, DW_AT_name("long double")
    2814                            .dwattr $C$DW$T$18, DW_AT_byte_size(0x08)
    2815                    
    2816                    $C$DW$T$111     .dwtag  DW_TAG_base_type
    2817                            .dwattr $C$DW$T$111, DW_AT_encoding(DW_ATE_unsigned_char)
    2818                            .dwattr $C$DW$T$111, DW_AT_name("unsigned char")
    2819                            .dwattr $C$DW$T$111, DW_AT_byte_size(0x01)
    2820                    
    2821                    
    2822                    $C$DW$T$162     .dwtag  DW_TAG_subroutine_type
    2823                            .dwattr $C$DW$T$162, DW_AT_type(*$C$DW$T$111)
    2824                            .dwattr $C$DW$T$162, DW_AT_language(DW_LANG_C)
    2825                    $C$DW$113       .dwtag  DW_TAG_formal_parameter
    2826                            .dwattr $C$DW$113, DW_AT_type(*$C$DW$T$83)
    2827                    
    2828                    $C$DW$114       .dwtag  DW_TAG_formal_parameter
    2829                            .dwattr $C$DW$114, DW_AT_type(*$C$DW$T$80)
    2830                    
    2831                    $C$DW$115       .dwtag  DW_TAG_formal_parameter
    2832                            .dwattr $C$DW$115, DW_AT_type(*$C$DW$T$161)
    2833                    
    2834                            .dwendtag $C$DW$T$162
    2835                    
    2836                    $C$DW$T$163     .dwtag  DW_TAG_pointer_type
    2837                            .dwattr $C$DW$T$163, DW_AT_type(*$C$DW$T$162)
    2838                            .dwattr $C$DW$T$163, DW_AT_address_class(0x20)
    2839                    
    2840                    $C$DW$T$164     .dwtag  DW_TAG_typedef
    2841                            .dwattr $C$DW$T$164, DW_AT_name("ICall_MsgMatchFn")
    2842                            .dwattr $C$DW$T$164, DW_AT_type(*$C$DW$T$163)
    2843                            .dwattr $C$DW$T$164, DW_AT_language(DW_LANG_C)
    2844                            .dwattr $C$DW$T$164, DW_AT_decl_file("C:/ti/simplelink_cc13x0_sdk_2_30_00_20/source/ti/ti154st
    2845                            .dwattr $C$DW$T$164, DW_AT_decl_line(0x1c1)
    2846                            .dwattr $C$DW$T$164, DW_AT_decl_column(0x10)
    2847                    
    2848                    
    2849                    $C$DW$T$19      .dwtag  DW_TAG_structure_type
    2850                            .dwattr $C$DW$T$19, DW_AT_name("__mq")
    2851                            .dwattr $C$DW$T$19, DW_AT_declaration
    2852                            .dwattr $C$DW$T$19, DW_AT_decl_file("C:/ti/ccsv8/tools/compiler/ti-cgt-arm_18.1.3.LTS/include/
    2853                            .dwattr $C$DW$T$19, DW_AT_decl_line(0x47)
    2854                            .dwattr $C$DW$T$19, DW_AT_decl_column(0x10)
    2855                            .dwendtag $C$DW$T$19
    2856                    
    2857                    $C$DW$T$318     .dwtag  DW_TAG_pointer_type
    2858                            .dwattr $C$DW$T$318, DW_AT_type(*$C$DW$T$19)
TI ARM Assembler PC v18.1.3 Wed Nov 28 13:22:05 2018

Tools Copyright (c) 1996-2017 Texas Instruments Incorporated
C:\Users\Adrian\AppData\Local\Temp\{BD3F71B0-1117-47C0-BC43-1785123CD23C} PAGE   53

    2859                            .dwattr $C$DW$T$318, DW_AT_address_class(0x20)
    2860                    
    2861                    $C$DW$T$319     .dwtag  DW_TAG_typedef
    2862                            .dwattr $C$DW$T$319, DW_AT_name("__mqd_t")
    2863                            .dwattr $C$DW$T$319, DW_AT_type(*$C$DW$T$318)
    2864                            .dwattr $C$DW$T$319, DW_AT_language(DW_LANG_C)
    2865                            .dwattr $C$DW$T$319, DW_AT_decl_file("C:/ti/ccsv8/tools/compiler/ti-cgt-arm_18.1.3.LTS/include
    2866                            .dwattr $C$DW$T$319, DW_AT_decl_line(0x47)
    2867                            .dwattr $C$DW$T$319, DW_AT_decl_column(0x16)
    2868                    
    2869                    
    2870                    $C$DW$T$20      .dwtag  DW_TAG_structure_type
    2871                            .dwattr $C$DW$T$20, DW_AT_name("__timer")
    2872                            .dwattr $C$DW$T$20, DW_AT_declaration
    2873                            .dwattr $C$DW$T$20, DW_AT_decl_file("C:/ti/ccsv8/tools/compiler/ti-cgt-arm_18.1.3.LTS/include/
    2874                            .dwattr $C$DW$T$20, DW_AT_decl_line(0x46)
    2875                            .dwattr $C$DW$T$20, DW_AT_decl_column(0x10)
    2876                            .dwendtag $C$DW$T$20
    2877                    
    2878                    $C$DW$T$320     .dwtag  DW_TAG_pointer_type
    2879                            .dwattr $C$DW$T$320, DW_AT_type(*$C$DW$T$20)
    2880                            .dwattr $C$DW$T$320, DW_AT_address_class(0x20)
    2881                    
    2882                    $C$DW$T$321     .dwtag  DW_TAG_typedef
    2883                            .dwattr $C$DW$T$321, DW_AT_name("__timer_t")
    2884                            .dwattr $C$DW$T$321, DW_AT_type(*$C$DW$T$320)
    2885                            .dwattr $C$DW$T$321, DW_AT_language(DW_LANG_C)
    2886                            .dwattr $C$DW$T$321, DW_AT_decl_file("C:/ti/ccsv8/tools/compiler/ti-cgt-arm_18.1.3.LTS/include
    2887                            .dwattr $C$DW$T$321, DW_AT_decl_line(0x46)
    2888                            .dwattr $C$DW$T$321, DW_AT_decl_column(0x19)
    2889                    
    2890                    
    2891                    $C$DW$T$87      .dwtag  DW_TAG_structure_type
    2892                            .dwattr $C$DW$T$87, DW_AT_name("__va_list_t")
    2893                            .dwattr $C$DW$T$87, DW_AT_byte_size(0x04)
    2894                    $C$DW$116       .dwtag  DW_TAG_member
    2895                            .dwattr $C$DW$116, DW_AT_type(*$C$DW$T$3)
    2896                            .dwattr $C$DW$116, DW_AT_name("__ap")
    2897                            .dwattr $C$DW$116, DW_AT_TI_symbol_name("__ap")
    2898                            .dwattr $C$DW$116, DW_AT_data_member_location[DW_OP_plus_uconst 0x0]
    2899                            .dwattr $C$DW$116, DW_AT_accessibility(DW_ACCESS_public)
    2900                            .dwattr $C$DW$116, DW_AT_decl_file("C:/ti/ccsv8/tools/compiler/ti-cgt-arm_18.1.3.LTS/include/m
    2901                            .dwattr $C$DW$116, DW_AT_decl_line(0x88)
    2902                            .dwattr $C$DW$116, DW_AT_decl_column(0x0c)
    2903                    
    2904                            .dwattr $C$DW$T$87, DW_AT_decl_file("C:/ti/ccsv8/tools/compiler/ti-cgt-arm_18.1.3.LTS/include/
    2905                            .dwattr $C$DW$T$87, DW_AT_decl_line(0x87)
    2906                            .dwattr $C$DW$T$87, DW_AT_decl_column(0x10)
    2907                            .dwendtag $C$DW$T$87
    2908                    
    2909                    $C$DW$T$322     .dwtag  DW_TAG_typedef
    2910                            .dwattr $C$DW$T$322, DW_AT_name("__va_list")
    2911                            .dwattr $C$DW$T$322, DW_AT_type(*$C$DW$T$87)
    2912                            .dwattr $C$DW$T$322, DW_AT_language(DW_LANG_C)
    2913                            .dwattr $C$DW$T$322, DW_AT_decl_file("C:/ti/ccsv8/tools/compiler/ti-cgt-arm_18.1.3.LTS/include
TI ARM Assembler PC v18.1.3 Wed Nov 28 13:22:05 2018

Tools Copyright (c) 1996-2017 Texas Instruments Incorporated
C:\Users\Adrian\AppData\Local\Temp\{BD3F71B0-1117-47C0-BC43-1785123CD23C} PAGE   54

    2914                            .dwattr $C$DW$T$322, DW_AT_decl_line(0x89)
    2915                            .dwattr $C$DW$T$322, DW_AT_decl_column(0x03)
    2916                    
    2917                    
    2918                    $C$DW$T$90      .dwtag  DW_TAG_structure_type
    2919                            .dwattr $C$DW$T$90, DW_AT_name("_icall_alloc_args_t")
    2920                            .dwattr $C$DW$T$90, DW_AT_byte_size(0x0c)
    2921                    $C$DW$117       .dwtag  DW_TAG_member
    2922                            .dwattr $C$DW$117, DW_AT_type(*$C$DW$T$88)
    2923                            .dwattr $C$DW$117, DW_AT_name("hdr")
    2924                            .dwattr $C$DW$117, DW_AT_TI_symbol_name("hdr")
    2925                            .dwattr $C$DW$117, DW_AT_data_member_location[DW_OP_plus_uconst 0x0]
    2926                            .dwattr $C$DW$117, DW_AT_accessibility(DW_ACCESS_public)
    2927                            .dwattr $C$DW$117, DW_AT_decl_file("C:/ti/simplelink_cc13x0_sdk_2_30_00_20/source/ti/ti154stac
    2928                            .dwattr $C$DW$117, DW_AT_decl_line(0x1e3)
    2929                            .dwattr $C$DW$117, DW_AT_decl_column(0x15)
    2930                    
    2931                    $C$DW$118       .dwtag  DW_TAG_member
    2932                            .dwattr $C$DW$118, DW_AT_type(*$C$DW$T$89)
    2933                            .dwattr $C$DW$118, DW_AT_name("size")
    2934                            .dwattr $C$DW$118, DW_AT_TI_symbol_name("size")
    2935                            .dwattr $C$DW$118, DW_AT_data_member_location[DW_OP_plus_uconst 0x4]
    2936                            .dwattr $C$DW$118, DW_AT_accessibility(DW_ACCESS_public)
    2937                            .dwattr $C$DW$118, DW_AT_decl_file("C:/ti/simplelink_cc13x0_sdk_2_30_00_20/source/ti/ti154stac
    2938                            .dwattr $C$DW$118, DW_AT_decl_line(0x1e5)
    2939                            .dwattr $C$DW$118, DW_AT_decl_column(0x0a)
    2940                    
    2941                    $C$DW$119       .dwtag  DW_TAG_member
    2942                            .dwattr $C$DW$119, DW_AT_type(*$C$DW$T$3)
    2943                            .dwattr $C$DW$119, DW_AT_name("ptr")
    2944                            .dwattr $C$DW$119, DW_AT_TI_symbol_name("ptr")
    2945                            .dwattr $C$DW$119, DW_AT_data_member_location[DW_OP_plus_uconst 0x8]
    2946                            .dwattr $C$DW$119, DW_AT_accessibility(DW_ACCESS_public)
    2947                            .dwattr $C$DW$119, DW_AT_decl_file("C:/ti/simplelink_cc13x0_sdk_2_30_00_20/source/ti/ti154stac
    2948                            .dwattr $C$DW$119, DW_AT_decl_line(0x1e7)
    2949                            .dwattr $C$DW$119, DW_AT_decl_column(0x0a)
    2950                    
    2951                            .dwattr $C$DW$T$90, DW_AT_decl_file("C:/ti/simplelink_cc13x0_sdk_2_30_00_20/source/ti/ti154sta
    2952                            .dwattr $C$DW$T$90, DW_AT_decl_line(0x1e0)
    2953                            .dwattr $C$DW$T$90, DW_AT_decl_column(0x10)
    2954                            .dwendtag $C$DW$T$90
    2955                    
    2956                    $C$DW$T$323     .dwtag  DW_TAG_typedef
    2957                            .dwattr $C$DW$T$323, DW_AT_name("ICall_AllocArgs")
    2958                            .dwattr $C$DW$T$323, DW_AT_type(*$C$DW$T$90)
    2959                            .dwattr $C$DW$T$323, DW_AT_language(DW_LANG_C)
    2960                            .dwattr $C$DW$T$323, DW_AT_decl_file("C:/ti/simplelink_cc13x0_sdk_2_30_00_20/source/ti/ti154st
    2961                            .dwattr $C$DW$T$323, DW_AT_decl_line(0x1e8)
    2962                            .dwattr $C$DW$T$323, DW_AT_decl_column(0x03)
    2963                    
    2964                    
    2965                    $C$DW$T$93      .dwtag  DW_TAG_structure_type
    2966                            .dwattr $C$DW$T$93, DW_AT_name("_icall_create_task_args_t")
    2967                            .dwattr $C$DW$T$93, DW_AT_byte_size(0x10)
    2968                    $C$DW$120       .dwtag  DW_TAG_member
TI ARM Assembler PC v18.1.3 Wed Nov 28 13:22:05 2018

Tools Copyright (c) 1996-2017 Texas Instruments Incorporated
C:\Users\Adrian\AppData\Local\Temp\{BD3F71B0-1117-47C0-BC43-1785123CD23C} PAGE   55

    2969                            .dwattr $C$DW$120, DW_AT_type(*$C$DW$T$88)
    2970                            .dwattr $C$DW$120, DW_AT_name("hdr")
    2971                            .dwattr $C$DW$120, DW_AT_TI_symbol_name("hdr")
    2972                            .dwattr $C$DW$120, DW_AT_data_member_location[DW_OP_plus_uconst 0x0]
    2973                            .dwattr $C$DW$120, DW_AT_accessibility(DW_ACCESS_public)
    2974                            .dwattr $C$DW$120, DW_AT_decl_file("C:/ti/simplelink_cc13x0_sdk_2_30_00_20/source/ti/ti154stac
    2975                            .dwattr $C$DW$120, DW_AT_decl_line(0x2bc)
    2976                            .dwattr $C$DW$120, DW_AT_decl_column(0x15)
    2977                    
    2978                    $C$DW$121       .dwtag  DW_TAG_member
    2979                            .dwattr $C$DW$121, DW_AT_type(*$C$DW$T$92)
    2980                            .dwattr $C$DW$121, DW_AT_name("entryfn")
    2981                            .dwattr $C$DW$121, DW_AT_TI_symbol_name("entryfn")
    2982                            .dwattr $C$DW$121, DW_AT_data_member_location[DW_OP_plus_uconst 0x4]
    2983                            .dwattr $C$DW$121, DW_AT_accessibility(DW_ACCESS_public)
    2984                            .dwattr $C$DW$121, DW_AT_decl_file("C:/ti/simplelink_cc13x0_sdk_2_30_00_20/source/ti/ti154stac
    2985                            .dwattr $C$DW$121, DW_AT_decl_line(0x2be)
    2986                            .dwattr $C$DW$121, DW_AT_decl_column(0x0a)
    2987                    
    2988                    $C$DW$122       .dwtag  DW_TAG_member
    2989                            .dwattr $C$DW$122, DW_AT_type(*$C$DW$T$79)
    2990                            .dwattr $C$DW$122, DW_AT_name("priority")
    2991                            .dwattr $C$DW$122, DW_AT_TI_symbol_name("priority")
    2992                            .dwattr $C$DW$122, DW_AT_data_member_location[DW_OP_plus_uconst 0x8]
    2993                            .dwattr $C$DW$122, DW_AT_accessibility(DW_ACCESS_public)
    2994                            .dwattr $C$DW$122, DW_AT_decl_file("C:/ti/simplelink_cc13x0_sdk_2_30_00_20/source/ti/ti154stac
    2995                            .dwattr $C$DW$122, DW_AT_decl_line(0x2c0)
    2996                            .dwattr $C$DW$122, DW_AT_decl_column(0x11)
    2997                    
    2998                    $C$DW$123       .dwtag  DW_TAG_member
    2999                            .dwattr $C$DW$123, DW_AT_type(*$C$DW$T$82)
    3000                            .dwattr $C$DW$123, DW_AT_name("stacksize")
    3001                            .dwattr $C$DW$123, DW_AT_TI_symbol_name("stacksize")
    3002                            .dwattr $C$DW$123, DW_AT_data_member_location[DW_OP_plus_uconst 0xa]
    3003                            .dwattr $C$DW$123, DW_AT_accessibility(DW_ACCESS_public)
    3004                            .dwattr $C$DW$123, DW_AT_decl_file("C:/ti/simplelink_cc13x0_sdk_2_30_00_20/source/ti/ti154stac
    3005                            .dwattr $C$DW$123, DW_AT_decl_line(0x2c2)
    3006                            .dwattr $C$DW$123, DW_AT_decl_column(0x12)
    3007                    
    3008                    $C$DW$124       .dwtag  DW_TAG_member
    3009                            .dwattr $C$DW$124, DW_AT_type(*$C$DW$T$89)
    3010                            .dwattr $C$DW$124, DW_AT_name("arg")
    3011                            .dwattr $C$DW$124, DW_AT_TI_symbol_name("arg")
    3012                            .dwattr $C$DW$124, DW_AT_data_member_location[DW_OP_plus_uconst 0xc]
    3013                            .dwattr $C$DW$124, DW_AT_accessibility(DW_ACCESS_public)
    3014                            .dwattr $C$DW$124, DW_AT_decl_file("C:/ti/simplelink_cc13x0_sdk_2_30_00_20/source/ti/ti154stac
    3015                            .dwattr $C$DW$124, DW_AT_decl_line(0x2c4)
    3016                            .dwattr $C$DW$124, DW_AT_decl_column(0x0a)
    3017                    
    3018                            .dwattr $C$DW$T$93, DW_AT_decl_file("C:/ti/simplelink_cc13x0_sdk_2_30_00_20/source/ti/ti154sta
    3019                            .dwattr $C$DW$T$93, DW_AT_decl_line(0x2b9)
    3020                            .dwattr $C$DW$T$93, DW_AT_decl_column(0x10)
    3021                            .dwendtag $C$DW$T$93
    3022                    
    3023                    $C$DW$T$324     .dwtag  DW_TAG_typedef
TI ARM Assembler PC v18.1.3 Wed Nov 28 13:22:05 2018

Tools Copyright (c) 1996-2017 Texas Instruments Incorporated
C:\Users\Adrian\AppData\Local\Temp\{BD3F71B0-1117-47C0-BC43-1785123CD23C} PAGE   56

    3024                            .dwattr $C$DW$T$324, DW_AT_name("ICall_CreateTaskArgs")
    3025                            .dwattr $C$DW$T$324, DW_AT_type(*$C$DW$T$93)
    3026                            .dwattr $C$DW$T$324, DW_AT_language(DW_LANG_C)
    3027                            .dwattr $C$DW$T$324, DW_AT_decl_file("C:/ti/simplelink_cc13x0_sdk_2_30_00_20/source/ti/ti154st
    3028                            .dwattr $C$DW$T$324, DW_AT_decl_line(0x2c5)
    3029                            .dwattr $C$DW$T$324, DW_AT_decl_column(0x03)
    3030                    
    3031                    
    3032                    $C$DW$T$103     .dwtag  DW_TAG_structure_type
    3033                            .dwattr $C$DW$T$103, DW_AT_name("_icall_enroll_service_args_t")
    3034                            .dwattr $C$DW$T$103, DW_AT_byte_size(0x14)
    3035                    $C$DW$125       .dwtag  DW_TAG_member
    3036                            .dwattr $C$DW$125, DW_AT_type(*$C$DW$T$88)
    3037                            .dwattr $C$DW$125, DW_AT_name("hdr")
    3038                            .dwattr $C$DW$125, DW_AT_TI_symbol_name("hdr")
    3039                            .dwattr $C$DW$125, DW_AT_data_member_location[DW_OP_plus_uconst 0x0]
    3040                            .dwattr $C$DW$125, DW_AT_accessibility(DW_ACCESS_public)
    3041                            .dwattr $C$DW$125, DW_AT_decl_file("C:/ti/simplelink_cc13x0_sdk_2_30_00_20/source/ti/ti154stac
    3042                            .dwattr $C$DW$125, DW_AT_decl_line(0x3a9)
    3043                            .dwattr $C$DW$125, DW_AT_decl_column(0x15)
    3044                    
    3045                    $C$DW$126       .dwtag  DW_TAG_member
    3046                            .dwattr $C$DW$126, DW_AT_type(*$C$DW$T$83)
    3047                            .dwattr $C$DW$126, DW_AT_name("service")
    3048                            .dwattr $C$DW$126, DW_AT_TI_symbol_name("service")
    3049                            .dwattr $C$DW$126, DW_AT_data_member_location[DW_OP_plus_uconst 0x4]
    3050                            .dwattr $C$DW$126, DW_AT_accessibility(DW_ACCESS_public)
    3051                            .dwattr $C$DW$126, DW_AT_decl_file("C:/ti/simplelink_cc13x0_sdk_2_30_00_20/source/ti/ti154stac
    3052                            .dwattr $C$DW$126, DW_AT_decl_line(0x3ab)
    3053                            .dwattr $C$DW$126, DW_AT_decl_column(0x15)
    3054                    
    3055                    $C$DW$127       .dwtag  DW_TAG_member
    3056                            .dwattr $C$DW$127, DW_AT_type(*$C$DW$T$101)
    3057                            .dwattr $C$DW$127, DW_AT_name("fn")
    3058                            .dwattr $C$DW$127, DW_AT_TI_symbol_name("fn")
    3059                            .dwattr $C$DW$127, DW_AT_data_member_location[DW_OP_plus_uconst 0x8]
    3060                            .dwattr $C$DW$127, DW_AT_accessibility(DW_ACCESS_public)
    3061                            .dwattr $C$DW$127, DW_AT_decl_file("C:/ti/simplelink_cc13x0_sdk_2_30_00_20/source/ti/ti154stac
    3062                            .dwattr $C$DW$127, DW_AT_decl_line(0x3ad)
    3063                            .dwattr $C$DW$127, DW_AT_decl_column(0x15)
    3064                    
    3065                    $C$DW$128       .dwtag  DW_TAG_member
    3066                            .dwattr $C$DW$128, DW_AT_type(*$C$DW$T$80)
    3067                            .dwattr $C$DW$128, DW_AT_name("entity")
    3068                            .dwattr $C$DW$128, DW_AT_TI_symbol_name("entity")
    3069                            .dwattr $C$DW$128, DW_AT_data_member_location[DW_OP_plus_uconst 0xc]
    3070                            .dwattr $C$DW$128, DW_AT_accessibility(DW_ACCESS_public)
    3071                            .dwattr $C$DW$128, DW_AT_decl_file("C:/ti/simplelink_cc13x0_sdk_2_30_00_20/source/ti/ti154stac
    3072                            .dwattr $C$DW$128, DW_AT_decl_line(0x3af)
    3073                            .dwattr $C$DW$128, DW_AT_decl_column(0x12)
    3074                    
    3075                    $C$DW$129       .dwtag  DW_TAG_member
    3076                            .dwattr $C$DW$129, DW_AT_type(*$C$DW$T$102)
    3077                            .dwattr $C$DW$129, DW_AT_name("msgSyncHdl")
    3078                            .dwattr $C$DW$129, DW_AT_TI_symbol_name("msgSyncHdl")
TI ARM Assembler PC v18.1.3 Wed Nov 28 13:22:05 2018

Tools Copyright (c) 1996-2017 Texas Instruments Incorporated
C:\Users\Adrian\AppData\Local\Temp\{BD3F71B0-1117-47C0-BC43-1785123CD23C} PAGE   57

    3079                            .dwattr $C$DW$129, DW_AT_data_member_location[DW_OP_plus_uconst 0x10]
    3080                            .dwattr $C$DW$129, DW_AT_accessibility(DW_ACCESS_public)
    3081                            .dwattr $C$DW$129, DW_AT_decl_file("C:/ti/simplelink_cc13x0_sdk_2_30_00_20/source/ti/ti154stac
    3082                            .dwattr $C$DW$129, DW_AT_decl_line(0x3b2)
    3083                            .dwattr $C$DW$129, DW_AT_decl_column(0x14)
    3084                    
    3085                            .dwattr $C$DW$T$103, DW_AT_decl_file("C:/ti/simplelink_cc13x0_sdk_2_30_00_20/source/ti/ti154st
    3086                            .dwattr $C$DW$T$103, DW_AT_decl_line(0x3a6)
    3087                            .dwattr $C$DW$T$103, DW_AT_decl_column(0x10)
    3088                            .dwendtag $C$DW$T$103
    3089                    
