TI ARM Assembler PC v18.1.3 Wed Nov 28 13:22:08 2018

Tools Copyright (c) 1996-2017 Texas Instruments Incorporated
C:\Users\Adrian\AppData\Local\Temp\{9AD3DFEE-EA71-445C-92FF-0A88F830FC75} PAGE    1

       1                    ;******************************************************************************
       2                    ;* TI ARM C/C++ Codegen                                        PC v18.1.3.LTS *
       3                    ;* Date/Time created: Wed Nov 28 13:22:08 2018                                *
       4                    ;******************************************************************************
       5                            .compiler_opts --abi=eabi --arm_vmrs_si_workaround=off --code_state=16 --diag_wrap=off --embed
       6 00000000                   .thumb
       7                    
       8                    $C$DW$CU        .dwtag  DW_TAG_compile_unit
       9                            .dwattr $C$DW$CU, DW_AT_name("../Application/MAC/OSAL/osal_memory_icall.c")
      10                            .dwattr $C$DW$CU, DW_AT_producer("TI TI ARM C/C++ Codegen PC v18.1.3.LTS Copyright (c) 1996-20
      11                            .dwattr $C$DW$CU, DW_AT_TI_version(0x01)
      12                            .dwattr $C$DW$CU, DW_AT_comp_dir("C:\Users\Adrian\workspace_v8\collector_cc1350lp\collector_cc
      13                    
      14                    ;*****************************************************************************
      15                    ;* FUNCTION SYNONYMS                                                         *
      16                    ;*****************************************************************************
      17                            .global osal_mem_free
      18          00000000! osal_mem_free   .set ICall_free
      19                    
      20                    $C$DW$1 .dwtag  DW_TAG_subprogram
      21                            .dwattr $C$DW$1, DW_AT_name("ICall_malloc")
      22                            .dwattr $C$DW$1, DW_AT_TI_symbol_name("ICall_malloc")
      23                            .dwattr $C$DW$1, DW_AT_type(*$C$DW$T$3)
      24                            .dwattr $C$DW$1, DW_AT_declaration
      25                            .dwattr $C$DW$1, DW_AT_external
      26                            .dwattr $C$DW$1, DW_AT_decl_file("C:/ti/simplelink_cc13x0_sdk_2_30_00_20/source/ti/ti154stack/
      27                            .dwattr $C$DW$1, DW_AT_decl_line(0x7c2)
      28                            .dwattr $C$DW$1, DW_AT_decl_column(0x0e)
      29                    $C$DW$2 .dwtag  DW_TAG_formal_parameter
      30                            .dwattr $C$DW$2, DW_AT_type(*$C$DW$T$42)
      31                    
      32                            .dwendtag $C$DW$1
      33                    
      34                    $C$DW$3 .dwtag  DW_TAG_variable
      35                            .dwattr $C$DW$3, DW_AT_name("ICall_dispatcher")
      36                            .dwattr $C$DW$3, DW_AT_TI_symbol_name("ICall_dispatcher")
      37                            .dwattr $C$DW$3, DW_AT_type(*$C$DW$T$103)
      38                            .dwattr $C$DW$3, DW_AT_declaration
      39                            .dwattr $C$DW$3, DW_AT_external
      40                            .dwattr $C$DW$3, DW_AT_decl_file("C:/ti/simplelink_cc13x0_sdk_2_30_00_20/source/ti/ti154stack/
      41                            .dwattr $C$DW$3, DW_AT_decl_line(0x381)
      42                            .dwattr $C$DW$3, DW_AT_decl_column(0x19)
      43                    
      44                    ;       C:\ti\ccsv8\tools\compiler\ti-cgt-arm_18.1.3.LTS\bin\armopt.exe C:/Users/Adrian/workspace_v8/c
      45 00000000                   .sect   ".text:ICall_free"
      46                            .clink
      47                            .thumbfunc ICall_free
      48 00000000                   .thumb
      49                    
      50                    $C$DW$4 .dwtag  DW_TAG_subprogram
      51                            .dwattr $C$DW$4, DW_AT_name("ICall_free")
      52                            .dwattr $C$DW$4, DW_AT_low_pc(ICall_free)
      53                            .dwattr $C$DW$4, DW_AT_high_pc(0x00)
      54                            .dwattr $C$DW$4, DW_AT_TI_symbol_name("ICall_free")
      55                            .dwattr $C$DW$4, DW_AT_TI_begin_file("C:/ti/simplelink_cc13x0_sdk_2_30_00_20/source/ti/ti154st
TI ARM Assembler PC v18.1.3 Wed Nov 28 13:22:08 2018

Tools Copyright (c) 1996-2017 Texas Instruments Incorporated
C:\Users\Adrian\AppData\Local\Temp\{9AD3DFEE-EA71-445C-92FF-0A88F830FC75} PAGE    2

      56                            .dwattr $C$DW$4, DW_AT_TI_begin_line(0x7d6)
      57                            .dwattr $C$DW$4, DW_AT_TI_begin_column(0x0d)
      58                            .dwattr $C$DW$4, DW_AT_decl_file("C:/ti/simplelink_cc13x0_sdk_2_30_00_20/source/ti/ti154stack/
      59                            .dwattr $C$DW$4, DW_AT_decl_line(0x7d6)
      60                            .dwattr $C$DW$4, DW_AT_decl_column(0x0d)
      61                            .dwattr $C$DW$4, DW_AT_TI_max_frame_size(0x10)
      62                            .dwpsn  file "C:/ti/simplelink_cc13x0_sdk_2_30_00_20/source/ti/ti154stack/icall/src/inc/icall.
      63                    
      64                            .dwfde $C$DW$CIE, ICall_free
      65                    $C$DW$5 .dwtag  DW_TAG_formal_parameter
      66                            .dwattr $C$DW$5, DW_AT_name("msg")
      67                            .dwattr $C$DW$5, DW_AT_TI_symbol_name("msg")
      68                            .dwattr $C$DW$5, DW_AT_type(*$C$DW$T$3)
      69                            .dwattr $C$DW$5, DW_AT_location[DW_OP_reg0]
      70                    
      71                    
      72                    ;*****************************************************************************
      73                    ;* FUNCTION NAME: ICall_free                                                 *
      74                    ;*                                                                           *
      75                    ;*   Regs Modified     : A1,A2,A3,A4,V9,SP,LR,SR                             *
      76                    ;*   Regs Used         : A1,A2,A3,A4,V9,SP,LR,SR                             *
      77                    ;*   Local Frame Size  : 0 Args + 8 Auto + 4 Save = 12 byte                  *
      78                    ;*****************************************************************************
      79                    ICall_free:
      80                    ;* --------------------------------------------------------------------------*
      81                    $C$DW$6 .dwtag  DW_TAG_variable
      82                            .dwattr $C$DW$6, DW_AT_name("args")
      83                            .dwattr $C$DW$6, DW_AT_TI_symbol_name("args")
      84                            .dwattr $C$DW$6, DW_AT_type(*$C$DW$T$278)
      85                            .dwattr $C$DW$6, DW_AT_location[DW_OP_breg13 0]
      86                    
      87                    ;* A1    assigned to msg
      88                    $C$DW$7 .dwtag  DW_TAG_variable
      89                            .dwattr $C$DW$7, DW_AT_name("msg")
      90                            .dwattr $C$DW$7, DW_AT_TI_symbol_name("msg")
      91                            .dwattr $C$DW$7, DW_AT_type(*$C$DW$T$146)
      92                            .dwattr $C$DW$7, DW_AT_location[DW_OP_reg0]
      93                    
      94                            .dwcfi  cfa_offset, 0
      95 00000000 B50E              PUSH      {A2, A3, A4, LR}      ; [DPU_V7M3_PIPE]  ; [ORIG 16-BIT INS]
      96                            .dwcfi  cfa_offset, 16
      97                            .dwcfi  save_reg_to_mem, 14, -4
      98                            .dwcfi  save_reg_to_mem, 3, -8
      99                            .dwcfi  save_reg_to_mem, 2, -12
     100                            .dwcfi  save_reg_to_mem, 1, -16
     101                            .dwpsn  file "C:/ti/simplelink_cc13x0_sdk_2_30_00_20/source/ti/ti154stack/icall/src/inc/icall.
     102 00000002 2108              MOVS      A2, #8                ; [DPU_V7M3_PIPE] |2009|  ; [ORIG 16-BIT INS]
     103                            .dwpsn  file "C:/ti/simplelink_cc13x0_sdk_2_30_00_20/source/ti/ti154stack/icall/src/inc/icall.
     104 00000004 9001              STR       A1, [SP, #4]          ; [DPU_V7M3_PIPE] |2011|  ; [ORIG 16-BIT INS]
     105                            .dwpsn  file "C:/ti/simplelink_cc13x0_sdk_2_30_00_20/source/ti/ti154stack/icall/src/inc/icall.
     106 00000006 4805              LDR       A1, $C$CON1           ; [DPU_V7M3_PIPE] |2012|  ; [ORIG 16-BIT INS]
     107                            .dwpsn  file "C:/ti/simplelink_cc13x0_sdk_2_30_00_20/source/ti/ti154stack/icall/src/inc/icall.
     108 00000008 1000F8AD          STRH      A2, [SP, #0]          ; [DPU_V7M3_PIPE] |2009|  ; [KEEP 32-BIT INS]
     109                            .dwpsn  file "C:/ti/simplelink_cc13x0_sdk_2_30_00_20/source/ti/ti154stack/icall/src/inc/icall.
     110 0000000c 2105              MOVS      A2, #5                ; [DPU_V7M3_PIPE] |2010|  ; [ORIG 16-BIT INS]
TI ARM Assembler PC v18.1.3 Wed Nov 28 13:22:08 2018

Tools Copyright (c) 1996-2017 Texas Instruments Incorporated
C:\Users\Adrian\AppData\Local\Temp\{9AD3DFEE-EA71-445C-92FF-0A88F830FC75} PAGE    3

     111 0000000e 1002F8AD          STRH      A2, [SP, #2]          ; [DPU_V7M3_PIPE] |2010|  ; [KEEP 32-BIT INS]
     112                            .dwpsn  file "C:/ti/simplelink_cc13x0_sdk_2_30_00_20/source/ti/ti154stack/icall/src/inc/icall.
     113 00000012 6801              LDR       A2, [A1, #0]          ; [DPU_V7M3_PIPE] |2012|  ; [ORIG 16-BIT INS]
     114 00000014 4668              MOV       A1, SP                ; [DPU_V7M3_PIPE] |2012|  ; [ORIG 16-BIT INS]
     115                    $C$DW$8 .dwtag  DW_TAG_TI_branch
     116                            .dwattr $C$DW$8, DW_AT_low_pc(0x00)
     117                            .dwattr $C$DW$8, DW_AT_TI_call
     118                            .dwattr $C$DW$8, DW_AT_TI_indirect
     119                    
     120 00000016 4788              BLX       A2                    ; [DPU_V7M3_PIPE] |2012|  ; [ORIG 16-BIT INS]
     121                            ; CALL OCCURS {}                 ; [] |2012| 
     122                    $C$DW$9 .dwtag  DW_TAG_TI_branch
     123                            .dwattr $C$DW$9, DW_AT_low_pc(0x00)
     124                            .dwattr $C$DW$9, DW_AT_TI_return
     125                    
     126 00000018 BD0E              POP       {A2, A3, A4, PC}      ; [DPU_V7M3_PIPE]  ; [ORIG 16-BIT INS]
     127                            .dwcfi  cfa_offset, 0
     128                            .dwcfi  restore_reg, 3
     129                            .dwcfi  restore_reg, 2
     130                            .dwcfi  restore_reg, 1
     131                            ; BRANCH OCCURS                  ; [] 
     132                            .dwattr $C$DW$4, DW_AT_TI_end_file("C:/ti/simplelink_cc13x0_sdk_2_30_00_20/source/ti/ti154stac
     133                            .dwattr $C$DW$4, DW_AT_TI_end_line(0x7dd)
     134                            .dwattr $C$DW$4, DW_AT_TI_end_column(0x01)
     135                            .dwendentry
     136                            .dwendtag $C$DW$4
     137                    
     138 00000000                   .sect   ".text:osal_mem_alloc"
     139                            .clink
     140                            .thumbfunc osal_mem_alloc
     141 00000000                   .thumb
     142                            .global osal_mem_alloc
     143                    
     144                    $C$DW$10        .dwtag  DW_TAG_subprogram
     145                            .dwattr $C$DW$10, DW_AT_name("osal_mem_alloc")
     146                            .dwattr $C$DW$10, DW_AT_low_pc(osal_mem_alloc)
     147                            .dwattr $C$DW$10, DW_AT_high_pc(0x00)
     148                            .dwattr $C$DW$10, DW_AT_TI_symbol_name("osal_mem_alloc")
     149                            .dwattr $C$DW$10, DW_AT_external
     150                            .dwattr $C$DW$10, DW_AT_type(*$C$DW$T$3)
     151                            .dwattr $C$DW$10, DW_AT_TI_begin_file("../Application/MAC/OSAL/osal_memory_icall.c")
     152                            .dwattr $C$DW$10, DW_AT_TI_begin_line(0x52)
     153                            .dwattr $C$DW$10, DW_AT_TI_begin_column(0x07)
     154                            .dwattr $C$DW$10, DW_AT_decl_file("../Application/MAC/OSAL/osal_memory_icall.c")
     155                            .dwattr $C$DW$10, DW_AT_decl_line(0x52)
     156                            .dwattr $C$DW$10, DW_AT_decl_column(0x07)
     157                            .dwattr $C$DW$10, DW_AT_TI_max_frame_size(0x10)
     158                            .dwpsn  file "../Application/MAC/OSAL/osal_memory_icall.c",line 84,column 1,is_stmt,address os
     159                    
     160                            .dwfde $C$DW$CIE, osal_mem_alloc
     161                    $C$DW$11        .dwtag  DW_TAG_formal_parameter
     162                            .dwattr $C$DW$11, DW_AT_name("size")
     163                            .dwattr $C$DW$11, DW_AT_TI_symbol_name("size")
     164                            .dwattr $C$DW$11, DW_AT_type(*$C$DW$T$10)
     165                            .dwattr $C$DW$11, DW_AT_location[DW_OP_reg0]
TI ARM Assembler PC v18.1.3 Wed Nov 28 13:22:08 2018

Tools Copyright (c) 1996-2017 Texas Instruments Incorporated
C:\Users\Adrian\AppData\Local\Temp\{9AD3DFEE-EA71-445C-92FF-0A88F830FC75} PAGE    4

     166                    
     167                    
     168                    ;*****************************************************************************
     169                    ;* FUNCTION NAME: osal_mem_alloc                                             *
     170                    ;*                                                                           *
     171                    ;*   Regs Modified     : A1,A2,A3,A4,V9,SP,LR,SR                             *
     172                    ;*   Regs Used         : A1,A2,A3,A4,V9,SP,LR,SR                             *
     173                    ;*   Local Frame Size  : 0 Args + 12 Auto + 4 Save = 16 byte                 *
     174                    ;*****************************************************************************
     175                    osal_mem_alloc:
     176                    ;* --------------------------------------------------------------------------*
     177                    $C$DW$12        .dwtag  DW_TAG_variable
     178                            .dwattr $C$DW$12, DW_AT_name("args")
     179                            .dwattr $C$DW$12, DW_AT_TI_symbol_name("args")
     180                            .dwattr $C$DW$12, DW_AT_type(*$C$DW$T$272)
     181                            .dwattr $C$DW$12, DW_AT_location[DW_OP_breg13 0]
     182                    
     183                    ;* A1    assigned to size
     184                    $C$DW$13        .dwtag  DW_TAG_variable
     185                            .dwattr $C$DW$13, DW_AT_name("size")
     186                            .dwattr $C$DW$13, DW_AT_TI_symbol_name("size")
     187                            .dwattr $C$DW$13, DW_AT_type(*$C$DW$T$178)
     188                            .dwattr $C$DW$13, DW_AT_location[DW_OP_reg0]
     189                    
     190                    ;* A1    assigned to buf
     191                    $C$DW$14        .dwtag  DW_TAG_variable
     192                            .dwattr $C$DW$14, DW_AT_name("buf")
     193                            .dwattr $C$DW$14, DW_AT_TI_symbol_name("buf")
     194                            .dwattr $C$DW$14, DW_AT_type(*$C$DW$T$168)
     195                            .dwattr $C$DW$14, DW_AT_location[DW_OP_reg0]
     196                    
     197                            .dwcfi  cfa_offset, 0
     198 00000000 B50E              PUSH      {A2, A3, A4, LR}      ; [DPU_V7M3_PIPE]  ; [ORIG 16-BIT INS]
     199                            .dwcfi  cfa_offset, 16
     200                            .dwcfi  save_reg_to_mem, 14, -4
     201                            .dwcfi  save_reg_to_mem, 3, -8
     202                            .dwcfi  save_reg_to_mem, 2, -12
     203                            .dwcfi  save_reg_to_mem, 1, -16
     204                            .dwpsn  file "C:/ti/simplelink_cc13x0_sdk_2_30_00_20/source/ti/ti154stack/icall/src/inc/icall.
     205 00000002 2108              MOVS      A2, #8                ; [DPU_V7M3_PIPE] |1991|  ; [ORIG 16-BIT INS]
     206                            .dwpsn  file "C:/ti/simplelink_cc13x0_sdk_2_30_00_20/source/ti/ti154stack/icall/src/inc/icall.
     207 00000004 9001              STR       A1, [SP, #4]          ; [DPU_V7M3_PIPE] |1993|  ; [ORIG 16-BIT INS]
     208                            .dwpsn  file "C:/ti/simplelink_cc13x0_sdk_2_30_00_20/source/ti/ti154stack/icall/src/inc/icall.
     209 00000006 4807              LDR       A1, $C$CON3           ; [DPU_V7M3_PIPE] |1994|  ; [ORIG 16-BIT INS]
     210                            .dwpsn  file "C:/ti/simplelink_cc13x0_sdk_2_30_00_20/source/ti/ti154stack/icall/src/inc/icall.
     211 00000008 1000F8AD          STRH      A2, [SP, #0]          ; [DPU_V7M3_PIPE] |1991|  ; [KEEP 32-BIT INS]
     212                            .dwpsn  file "C:/ti/simplelink_cc13x0_sdk_2_30_00_20/source/ti/ti154stack/icall/src/inc/icall.
     213 0000000c 2104              MOVS      A2, #4                ; [DPU_V7M3_PIPE] |1992|  ; [ORIG 16-BIT INS]
     214 0000000e 1002F8AD          STRH      A2, [SP, #2]          ; [DPU_V7M3_PIPE] |1992|  ; [KEEP 32-BIT INS]
     215                            .dwpsn  file "C:/ti/simplelink_cc13x0_sdk_2_30_00_20/source/ti/ti154stack/icall/src/inc/icall.
     216 00000012 6801              LDR       A2, [A1, #0]          ; [DPU_V7M3_PIPE] |1994|  ; [ORIG 16-BIT INS]
     217 00000014 4668              MOV       A1, SP                ; [DPU_V7M3_PIPE] |1994|  ; [ORIG 16-BIT INS]
     218                    $C$DW$15        .dwtag  DW_TAG_TI_branch
     219                            .dwattr $C$DW$15, DW_AT_low_pc(0x00)
     220                            .dwattr $C$DW$15, DW_AT_TI_call
TI ARM Assembler PC v18.1.3 Wed Nov 28 13:22:08 2018

Tools Copyright (c) 1996-2017 Texas Instruments Incorporated
C:\Users\Adrian\AppData\Local\Temp\{9AD3DFEE-EA71-445C-92FF-0A88F830FC75} PAGE    5

     221                            .dwattr $C$DW$15, DW_AT_TI_indirect
     222                    
     223 00000016 4788              BLX       A2                    ; [DPU_V7M3_PIPE] |1994|  ; [ORIG 16-BIT INS]
     224                            ; CALL OCCURS {}                 ; [] |1994| 
     225 00000018 2800              CMP       A1, #0                ; [DPU_V7M3_PIPE] |1994|  ; [ORIG 16-BIT INS]
     226 0000001a BF0C              ITE       EQ                    ; [DPU_V7M3_PIPE]  ; [ORIG 16-BIT INS]
     227                            .dwpsn  file "C:/ti/simplelink_cc13x0_sdk_2_30_00_20/source/ti/ti154stack/icall/src/inc/icall.
     228 0000001c 9802              LDREQ     A1, [SP, #8]          ; [DPU_V7M3_PIPE] |1999|  ; [ORIG 16-BIT INS]
     229                            .dwpsn  file "C:/ti/simplelink_cc13x0_sdk_2_30_00_20/source/ti/ti154stack/icall/src/inc/icall.
     230 0000001e 2000              MOVNE     A1, #0                ; [DPU_V7M3_PIPE] |1997|  ; [ORIG 16-BIT INS]
     231                    $C$DW$16        .dwtag  DW_TAG_TI_branch
     232                            .dwattr $C$DW$16, DW_AT_low_pc(0x00)
     233                            .dwattr $C$DW$16, DW_AT_TI_return
     234                    
     235 00000020 BD0E              POP       {A2, A3, A4, PC}      ; [DPU_V7M3_PIPE]  ; [ORIG 16-BIT INS]
     236                            .dwcfi  cfa_offset, 0
     237                            .dwcfi  restore_reg, 3
     238                            .dwcfi  restore_reg, 2
     239                            .dwcfi  restore_reg, 1
     240                            ; BRANCH OCCURS                  ; [] 
     241                            .dwattr $C$DW$10, DW_AT_TI_end_file("../Application/MAC/OSAL/osal_memory_icall.c")
     242                            .dwattr $C$DW$10, DW_AT_TI_end_line(0x6a)
     243                            .dwattr $C$DW$10, DW_AT_TI_end_column(0x01)
     244                            .dwendentry
     245                            .dwendtag $C$DW$10
     246                    
     247                    ;******************************************************************************
     248                    ;* CONSTANT TABLE                                                             *
     249                    ;******************************************************************************
     250 0000001a                   .sect   ".text:ICall_free"
     251                            .align  4
     252 0000001a 000046C0! ||$C$CON1||:    .bits   ICall_dispatcher,32
         0000001e 00000000 
     253                    ;******************************************************************************
     254                    ;* CONSTANT TABLE                                                             *
     255                    ;******************************************************************************
     256 00000022                   .sect   ".text:osal_mem_alloc"
     257                            .align  4
     258 00000022 000046C0! ||$C$CON3||:    .bits   ICall_dispatcher,32
         00000026 00000000 
     259                    ;*****************************************************************************
     260                    ;* UNDEFINED EXTERNAL REFERENCES                                             *
     261                    ;*****************************************************************************
     262                            .global ICall_dispatcher
     263                    
     264                    ;******************************************************************************
     265                    ;* BUILD ATTRIBUTES                                                           *
     266                    ;******************************************************************************
     267                            .battr "aeabi", Tag_File, 1, Tag_ABI_PCS_wchar_t(2)
     268                            .battr "aeabi", Tag_File, 1, Tag_ABI_FP_rounding(0)
     269                            .battr "aeabi", Tag_File, 1, Tag_ABI_FP_denormal(0)
     270                            .battr "aeabi", Tag_File, 1, Tag_ABI_FP_exceptions(0)
     271                            .battr "aeabi", Tag_File, 1, Tag_ABI_FP_number_model(1)
     272                            .battr "aeabi", Tag_File, 1, Tag_ABI_enum_size(1)
     273                            .battr "aeabi", Tag_File, 1, Tag_ABI_optimization_goals(0)
TI ARM Assembler PC v18.1.3 Wed Nov 28 13:22:08 2018

Tools Copyright (c) 1996-2017 Texas Instruments Incorporated
C:\Users\Adrian\AppData\Local\Temp\{9AD3DFEE-EA71-445C-92FF-0A88F830FC75} PAGE    6

     274                            .battr "aeabi", Tag_File, 1, Tag_ABI_FP_optimization_goals(0)
     275                            .battr "TI", Tag_File, 1, Tag_Bitfield_layout(2)
     276                            .battr "aeabi", Tag_File, 1, Tag_ABI_VFP_args(3)
     277                            .battr "TI", Tag_File, 1, Tag_FP_interface(1)
     278                    
     279                    ;******************************************************************************
     280                    ;* TYPE INFORMATION                                                           *
     281                    ;******************************************************************************
     282                    
     283                    $C$DW$T$133     .dwtag  DW_TAG_enumeration_type
     284                            .dwattr $C$DW$T$133, DW_AT_byte_size(0x01)
     285                    $C$DW$17        .dwtag  DW_TAG_enumerator
     286                            .dwattr $C$DW$17, DW_AT_name("ICALL_RTI_APP_CMD_EVENT")
     287                            .dwattr $C$DW$17, DW_AT_const_value(0xe0)
     288                            .dwattr $C$DW$17, DW_AT_decl_file("C:/ti/simplelink_cc13x0_sdk_2_30_00_20/source/ti/ti154stack
     289                            .dwattr $C$DW$17, DW_AT_decl_line(0x3de)
     290                            .dwattr $C$DW$17, DW_AT_decl_column(0x04)
     291                    
     292                    $C$DW$18        .dwtag  DW_TAG_enumerator
     293                            .dwattr $C$DW$18, DW_AT_name("ICALL_RTI_STACK_CMD_EVENT")
     294                            .dwattr $C$DW$18, DW_AT_const_value(0xe1)
     295                            .dwattr $C$DW$18, DW_AT_decl_file("C:/ti/simplelink_cc13x0_sdk_2_30_00_20/source/ti/ti154stack
     296                            .dwattr $C$DW$18, DW_AT_decl_line(0x3e0)
     297                            .dwattr $C$DW$18, DW_AT_decl_column(0x04)
     298                    
     299                    $C$DW$19        .dwtag  DW_TAG_enumerator
     300                            .dwattr $C$DW$19, DW_AT_name("ICALL_RTI_APP_ASYNC_CMD_EVENT")
     301                            .dwattr $C$DW$19, DW_AT_const_value(0xe2)
     302                            .dwattr $C$DW$19, DW_AT_decl_file("C:/ti/simplelink_cc13x0_sdk_2_30_00_20/source/ti/ti154stack
     303                            .dwattr $C$DW$19, DW_AT_decl_line(0x3e2)
     304                            .dwattr $C$DW$19, DW_AT_decl_column(0x04)
     305                    
     306                    $C$DW$20        .dwtag  DW_TAG_enumerator
     307                            .dwattr $C$DW$20, DW_AT_name("ICALL_RTI_APP_SYNC_CMD_EVENT")
     308                            .dwattr $C$DW$20, DW_AT_const_value(0xe3)
     309                            .dwattr $C$DW$20, DW_AT_decl_file("C:/ti/simplelink_cc13x0_sdk_2_30_00_20/source/ti/ti154stack
     310                            .dwattr $C$DW$20, DW_AT_decl_line(0x3e4)
     311                            .dwattr $C$DW$20, DW_AT_decl_column(0x04)
     312                    
     313                    $C$DW$21        .dwtag  DW_TAG_enumerator
     314                            .dwattr $C$DW$21, DW_AT_name("ICALL_RCN_APP_ASYNC_CMD_EVENT")
     315                            .dwattr $C$DW$21, DW_AT_const_value(0xe4)
     316                            .dwattr $C$DW$21, DW_AT_decl_file("C:/ti/simplelink_cc13x0_sdk_2_30_00_20/source/ti/ti154stack
     317                            .dwattr $C$DW$21, DW_AT_decl_line(0x3e6)
     318                            .dwattr $C$DW$21, DW_AT_decl_column(0x04)
     319                    
     320                    $C$DW$22        .dwtag  DW_TAG_enumerator
     321                            .dwattr $C$DW$22, DW_AT_name("ICALL_RCN_APP_SYNC_CMD_EVENT")
     322                            .dwattr $C$DW$22, DW_AT_const_value(0xe5)
     323                            .dwattr $C$DW$22, DW_AT_decl_file("C:/ti/simplelink_cc13x0_sdk_2_30_00_20/source/ti/ti154stack
     324                            .dwattr $C$DW$22, DW_AT_decl_line(0x3e8)
     325                            .dwattr $C$DW$22, DW_AT_decl_column(0x04)
     326                    
     327                            .dwattr $C$DW$T$133, DW_AT_decl_file("C:/ti/simplelink_cc13x0_sdk_2_30_00_20/source/ti/ti154st
     328                            .dwattr $C$DW$T$133, DW_AT_decl_line(0x3dc)
TI ARM Assembler PC v18.1.3 Wed Nov 28 13:22:08 2018

Tools Copyright (c) 1996-2017 Texas Instruments Incorporated
C:\Users\Adrian\AppData\Local\Temp\{9AD3DFEE-EA71-445C-92FF-0A88F830FC75} PAGE    7

     329                            .dwattr $C$DW$T$133, DW_AT_decl_column(0x01)
     330                            .dwendtag $C$DW$T$133
     331                    
     332                    $C$DW$T$134     .dwtag  DW_TAG_typedef
     333                            .dwattr $C$DW$T$134, DW_AT_name("ICall_RemotiCmdEvent_t")
     334                            .dwattr $C$DW$T$134, DW_AT_type(*$C$DW$T$133)
     335                            .dwattr $C$DW$T$134, DW_AT_language(DW_LANG_C)
     336                            .dwattr $C$DW$T$134, DW_AT_decl_file("C:/ti/simplelink_cc13x0_sdk_2_30_00_20/source/ti/ti154st
     337                            .dwattr $C$DW$T$134, DW_AT_decl_line(0x3e9)
     338                            .dwattr $C$DW$T$134, DW_AT_decl_column(0x02)
     339                    
     340                    
     341                    $C$DW$T$21      .dwtag  DW_TAG_structure_type
     342                            .dwattr $C$DW$T$21, DW_AT_byte_size(0x10)
     343                    $C$DW$23        .dwtag  DW_TAG_member
     344                            .dwattr $C$DW$23, DW_AT_type(*$C$DW$T$14)
     345                            .dwattr $C$DW$23, DW_AT_name("__max_align1")
     346                            .dwattr $C$DW$23, DW_AT_TI_symbol_name("__max_align1")
     347                            .dwattr $C$DW$23, DW_AT_data_member_location[DW_OP_plus_uconst 0x0]
     348                            .dwattr $C$DW$23, DW_AT_accessibility(DW_ACCESS_public)
     349                            .dwattr $C$DW$23, DW_AT_decl_file("C:/ti/ccsv8/tools/compiler/ti-cgt-arm_18.1.3.LTS/include/sy
     350                            .dwattr $C$DW$23, DW_AT_decl_line(0x70)
     351                            .dwattr $C$DW$23, DW_AT_decl_column(0x0c)
     352                    
     353                    $C$DW$24        .dwtag  DW_TAG_member
     354                            .dwattr $C$DW$24, DW_AT_type(*$C$DW$T$18)
     355                            .dwattr $C$DW$24, DW_AT_name("__max_align2")
     356                            .dwattr $C$DW$24, DW_AT_TI_symbol_name("__max_align2")
     357                            .dwattr $C$DW$24, DW_AT_data_member_location[DW_OP_plus_uconst 0x8]
     358                            .dwattr $C$DW$24, DW_AT_accessibility(DW_ACCESS_public)
     359                            .dwattr $C$DW$24, DW_AT_decl_file("C:/ti/ccsv8/tools/compiler/ti-cgt-arm_18.1.3.LTS/include/sy
     360                            .dwattr $C$DW$24, DW_AT_decl_line(0x71)
     361                            .dwattr $C$DW$24, DW_AT_decl_column(0x0e)
     362                    
     363                            .dwattr $C$DW$T$21, DW_AT_decl_file("C:/ti/ccsv8/tools/compiler/ti-cgt-arm_18.1.3.LTS/include/
     364                            .dwattr $C$DW$T$21, DW_AT_decl_line(0x6f)
     365                            .dwattr $C$DW$T$21, DW_AT_decl_column(0x10)
     366                            .dwendtag $C$DW$T$21
     367                    
     368                    $C$DW$T$135     .dwtag  DW_TAG_typedef
     369                            .dwattr $C$DW$T$135, DW_AT_name("__max_align_t")
     370                            .dwattr $C$DW$T$135, DW_AT_type(*$C$DW$T$21)
     371                            .dwattr $C$DW$T$135, DW_AT_language(DW_LANG_C)
     372                            .dwattr $C$DW$T$135, DW_AT_decl_file("C:/ti/ccsv8/tools/compiler/ti-cgt-arm_18.1.3.LTS/include
     373                            .dwattr $C$DW$T$135, DW_AT_decl_line(0x72)
     374                            .dwattr $C$DW$T$135, DW_AT_decl_column(0x03)
     375                    
     376                    
     377                    $C$DW$T$22      .dwtag  DW_TAG_structure_type
     378                            .dwattr $C$DW$T$22, DW_AT_byte_size(0x08)
     379                    $C$DW$25        .dwtag  DW_TAG_member
     380                            .dwattr $C$DW$25, DW_AT_type(*$C$DW$T$10)
     381                            .dwattr $C$DW$25, DW_AT_name("quot")
     382                            .dwattr $C$DW$25, DW_AT_TI_symbol_name("quot")
     383                            .dwattr $C$DW$25, DW_AT_data_member_location[DW_OP_plus_uconst 0x0]
TI ARM Assembler PC v18.1.3 Wed Nov 28 13:22:08 2018

Tools Copyright (c) 1996-2017 Texas Instruments Incorporated
C:\Users\Adrian\AppData\Local\Temp\{9AD3DFEE-EA71-445C-92FF-0A88F830FC75} PAGE    8

     384                            .dwattr $C$DW$25, DW_AT_accessibility(DW_ACCESS_public)
     385                            .dwattr $C$DW$25, DW_AT_decl_file("C:/ti/ccsv8/tools/compiler/ti-cgt-arm_18.1.3.LTS/include/st
     386                            .dwattr $C$DW$25, DW_AT_decl_line(0x49)
     387                            .dwattr $C$DW$25, DW_AT_decl_column(0x16)
     388                    
     389                    $C$DW$26        .dwtag  DW_TAG_member
     390                            .dwattr $C$DW$26, DW_AT_type(*$C$DW$T$10)
     391                            .dwattr $C$DW$26, DW_AT_name("rem")
     392                            .dwattr $C$DW$26, DW_AT_TI_symbol_name("rem")
     393                            .dwattr $C$DW$26, DW_AT_data_member_location[DW_OP_plus_uconst 0x4]
     394                            .dwattr $C$DW$26, DW_AT_accessibility(DW_ACCESS_public)
     395                            .dwattr $C$DW$26, DW_AT_decl_file("C:/ti/ccsv8/tools/compiler/ti-cgt-arm_18.1.3.LTS/include/st
     396                            .dwattr $C$DW$26, DW_AT_decl_line(0x49)
     397                            .dwattr $C$DW$26, DW_AT_decl_column(0x1c)
     398                    
     399                            .dwattr $C$DW$T$22, DW_AT_decl_file("C:/ti/ccsv8/tools/compiler/ti-cgt-arm_18.1.3.LTS/include/
     400                            .dwattr $C$DW$T$22, DW_AT_decl_line(0x49)
     401                            .dwattr $C$DW$T$22, DW_AT_decl_column(0x10)
     402                            .dwendtag $C$DW$T$22
     403                    
     404                    $C$DW$T$136     .dwtag  DW_TAG_typedef
     405                            .dwattr $C$DW$T$136, DW_AT_name("div_t")
     406                            .dwattr $C$DW$T$136, DW_AT_type(*$C$DW$T$22)
     407                            .dwattr $C$DW$T$136, DW_AT_language(DW_LANG_C)
     408                            .dwattr $C$DW$T$136, DW_AT_decl_file("C:/ti/ccsv8/tools/compiler/ti-cgt-arm_18.1.3.LTS/include
     409                            .dwattr $C$DW$T$136, DW_AT_decl_line(0x49)
     410                            .dwattr $C$DW$T$136, DW_AT_decl_column(0x23)
     411                    
     412                    
     413                    $C$DW$T$23      .dwtag  DW_TAG_structure_type
     414                            .dwattr $C$DW$T$23, DW_AT_byte_size(0x08)
     415                    $C$DW$27        .dwtag  DW_TAG_member
     416                            .dwattr $C$DW$27, DW_AT_type(*$C$DW$T$10)
     417                            .dwattr $C$DW$27, DW_AT_name("quot")
     418                            .dwattr $C$DW$27, DW_AT_TI_symbol_name("quot")
     419                            .dwattr $C$DW$27, DW_AT_data_member_location[DW_OP_plus_uconst 0x0]
     420                            .dwattr $C$DW$27, DW_AT_accessibility(DW_ACCESS_public)
     421                            .dwattr $C$DW$27, DW_AT_decl_file("C:/ti/ccsv8/tools/compiler/ti-cgt-arm_18.1.3.LTS/include/st
     422                            .dwattr $C$DW$27, DW_AT_decl_line(0x4e)
     423                            .dwattr $C$DW$27, DW_AT_decl_column(0x16)
     424                    
     425                    $C$DW$28        .dwtag  DW_TAG_member
     426                            .dwattr $C$DW$28, DW_AT_type(*$C$DW$T$10)
     427                            .dwattr $C$DW$28, DW_AT_name("rem")
     428                            .dwattr $C$DW$28, DW_AT_TI_symbol_name("rem")
     429                            .dwattr $C$DW$28, DW_AT_data_member_location[DW_OP_plus_uconst 0x4]
     430                            .dwattr $C$DW$28, DW_AT_accessibility(DW_ACCESS_public)
     431                            .dwattr $C$DW$28, DW_AT_decl_file("C:/ti/ccsv8/tools/compiler/ti-cgt-arm_18.1.3.LTS/include/st
     432                            .dwattr $C$DW$28, DW_AT_decl_line(0x4e)
     433                            .dwattr $C$DW$28, DW_AT_decl_column(0x1c)
     434                    
     435                            .dwattr $C$DW$T$23, DW_AT_decl_file("C:/ti/ccsv8/tools/compiler/ti-cgt-arm_18.1.3.LTS/include/
     436                            .dwattr $C$DW$T$23, DW_AT_decl_line(0x4e)
     437                            .dwattr $C$DW$T$23, DW_AT_decl_column(0x10)
     438                            .dwendtag $C$DW$T$23
TI ARM Assembler PC v18.1.3 Wed Nov 28 13:22:08 2018

Tools Copyright (c) 1996-2017 Texas Instruments Incorporated
C:\Users\Adrian\AppData\Local\Temp\{9AD3DFEE-EA71-445C-92FF-0A88F830FC75} PAGE    9

     439                    
     440                    $C$DW$T$137     .dwtag  DW_TAG_typedef
     441                            .dwattr $C$DW$T$137, DW_AT_name("ldiv_t")
     442                            .dwattr $C$DW$T$137, DW_AT_type(*$C$DW$T$23)
     443                            .dwattr $C$DW$T$137, DW_AT_language(DW_LANG_C)
     444                            .dwattr $C$DW$T$137, DW_AT_decl_file("C:/ti/ccsv8/tools/compiler/ti-cgt-arm_18.1.3.LTS/include
     445                            .dwattr $C$DW$T$137, DW_AT_decl_line(0x4e)
     446                            .dwattr $C$DW$T$137, DW_AT_decl_column(0x23)
     447                    
     448                    
     449                    $C$DW$T$24      .dwtag  DW_TAG_structure_type
     450                            .dwattr $C$DW$T$24, DW_AT_byte_size(0x10)
     451                    $C$DW$29        .dwtag  DW_TAG_member
     452                            .dwattr $C$DW$29, DW_AT_type(*$C$DW$T$14)
     453                            .dwattr $C$DW$29, DW_AT_name("quot")
     454                            .dwattr $C$DW$29, DW_AT_TI_symbol_name("quot")
     455                            .dwattr $C$DW$29, DW_AT_data_member_location[DW_OP_plus_uconst 0x0]
     456                            .dwattr $C$DW$29, DW_AT_accessibility(DW_ACCESS_public)
     457                            .dwattr $C$DW$29, DW_AT_decl_file("C:/ti/ccsv8/tools/compiler/ti-cgt-arm_18.1.3.LTS/include/st
     458                            .dwattr $C$DW$29, DW_AT_decl_line(0x56)
     459                            .dwattr $C$DW$29, DW_AT_decl_column(0x1c)
     460                    
     461                    $C$DW$30        .dwtag  DW_TAG_member
     462                            .dwattr $C$DW$30, DW_AT_type(*$C$DW$T$14)
     463                            .dwattr $C$DW$30, DW_AT_name("rem")
     464                            .dwattr $C$DW$30, DW_AT_TI_symbol_name("rem")
     465                            .dwattr $C$DW$30, DW_AT_data_member_location[DW_OP_plus_uconst 0x8]
     466                            .dwattr $C$DW$30, DW_AT_accessibility(DW_ACCESS_public)
     467                            .dwattr $C$DW$30, DW_AT_decl_file("C:/ti/ccsv8/tools/compiler/ti-cgt-arm_18.1.3.LTS/include/st
     468                            .dwattr $C$DW$30, DW_AT_decl_line(0x56)
     469                            .dwattr $C$DW$30, DW_AT_decl_column(0x22)
     470                    
     471                            .dwattr $C$DW$T$24, DW_AT_decl_file("C:/ti/ccsv8/tools/compiler/ti-cgt-arm_18.1.3.LTS/include/
     472                            .dwattr $C$DW$T$24, DW_AT_decl_line(0x56)
     473                            .dwattr $C$DW$T$24, DW_AT_decl_column(0x10)
     474                            .dwendtag $C$DW$T$24
     475                    
     476                    $C$DW$T$138     .dwtag  DW_TAG_typedef
     477                            .dwattr $C$DW$T$138, DW_AT_name("lldiv_t")
     478                            .dwattr $C$DW$T$138, DW_AT_type(*$C$DW$T$24)
     479                            .dwattr $C$DW$T$138, DW_AT_language(DW_LANG_C)
     480                            .dwattr $C$DW$T$138, DW_AT_decl_file("C:/ti/ccsv8/tools/compiler/ti-cgt-arm_18.1.3.LTS/include
     481                            .dwattr $C$DW$T$138, DW_AT_decl_line(0x56)
     482                            .dwattr $C$DW$T$138, DW_AT_decl_column(0x29)
     483                    
     484                    
     485                    $C$DW$T$30      .dwtag  DW_TAG_structure_type
     486                            .dwattr $C$DW$T$30, DW_AT_byte_size(0x08)
     487                    $C$DW$31        .dwtag  DW_TAG_member
     488                            .dwattr $C$DW$31, DW_AT_type(*$C$DW$T$28)
     489                            .dwattr $C$DW$31, DW_AT_name("pointerStack")
     490                            .dwattr $C$DW$31, DW_AT_TI_symbol_name("pointerStack")
     491                            .dwattr $C$DW$31, DW_AT_data_member_location[DW_OP_plus_uconst 0x0]
     492                            .dwattr $C$DW$31, DW_AT_accessibility(DW_ACCESS_public)
     493                            .dwattr $C$DW$31, DW_AT_decl_file("C:/ti/simplelink_cc13x0_sdk_2_30_00_20/source/ti/ti154stack
TI ARM Assembler PC v18.1.3 Wed Nov 28 13:22:08 2018

Tools Copyright (c) 1996-2017 Texas Instruments Incorporated
C:\Users\Adrian\AppData\Local\Temp\{9AD3DFEE-EA71-445C-92FF-0A88F830FC75} PAGE   10

     494                            .dwattr $C$DW$31, DW_AT_decl_line(0x3f5)
     495                            .dwattr $C$DW$31, DW_AT_decl_column(0x16)
     496                    
     497                    $C$DW$32        .dwtag  DW_TAG_member
     498                            .dwattr $C$DW$32, DW_AT_type(*$C$DW$T$29)
     499                            .dwattr $C$DW$32, DW_AT_name("directAPI")
     500                            .dwattr $C$DW$32, DW_AT_TI_symbol_name("directAPI")
     501                            .dwattr $C$DW$32, DW_AT_data_member_location[DW_OP_plus_uconst 0x4]
     502                            .dwattr $C$DW$32, DW_AT_accessibility(DW_ACCESS_public)
     503                            .dwattr $C$DW$32, DW_AT_decl_file("C:/ti/simplelink_cc13x0_sdk_2_30_00_20/source/ti/ti154stack
     504                            .dwattr $C$DW$32, DW_AT_decl_line(0x3f6)
     505                            .dwattr $C$DW$32, DW_AT_decl_column(0x15)
     506                    
     507                            .dwattr $C$DW$T$30, DW_AT_decl_file("C:/ti/simplelink_cc13x0_sdk_2_30_00_20/source/ti/ti154sta
     508                            .dwattr $C$DW$T$30, DW_AT_decl_line(0x3f4)
     509                            .dwattr $C$DW$T$30, DW_AT_decl_column(0x01)
     510                            .dwendtag $C$DW$T$30
     511                    
     512                    $C$DW$T$32      .dwtag  DW_TAG_typedef
     513                            .dwattr $C$DW$T$32, DW_AT_name("icall_directAPIMsg_t")
     514                            .dwattr $C$DW$T$32, DW_AT_type(*$C$DW$T$30)
     515                            .dwattr $C$DW$T$32, DW_AT_language(DW_LANG_C)
     516                            .dwattr $C$DW$T$32, DW_AT_decl_file("C:/ti/simplelink_cc13x0_sdk_2_30_00_20/source/ti/ti154sta
     517                            .dwattr $C$DW$T$32, DW_AT_decl_line(0x3f7)
     518                            .dwattr $C$DW$T$32, DW_AT_decl_column(0x03)
     519                    
     520                    
     521                    $C$DW$T$33      .dwtag  DW_TAG_structure_type
     522                            .dwattr $C$DW$T$33, DW_AT_byte_size(0x14)
     523                    $C$DW$33        .dwtag  DW_TAG_member
     524                            .dwattr $C$DW$33, DW_AT_type(*$C$DW$T$31)
     525                            .dwattr $C$DW$33, DW_AT_name("hdr")
     526                            .dwattr $C$DW$33, DW_AT_TI_symbol_name("hdr")
     527                            .dwattr $C$DW$33, DW_AT_data_member_location[DW_OP_plus_uconst 0x0]
     528                            .dwattr $C$DW$33, DW_AT_accessibility(DW_ACCESS_public)
     529                            .dwattr $C$DW$33, DW_AT_decl_file("C:/ti/simplelink_cc13x0_sdk_2_30_00_20/source/ti/ti154stack
     530                            .dwattr $C$DW$33, DW_AT_decl_line(0x3fb)
     531                            .dwattr $C$DW$33, DW_AT_decl_column(0x10)
     532                    
     533                    $C$DW$34        .dwtag  DW_TAG_member
     534                            .dwattr $C$DW$34, DW_AT_type(*$C$DW$T$32)
     535                            .dwattr $C$DW$34, DW_AT_name("msg")
     536                            .dwattr $C$DW$34, DW_AT_TI_symbol_name("msg")
     537                            .dwattr $C$DW$34, DW_AT_data_member_location[DW_OP_plus_uconst 0xc]
     538                            .dwattr $C$DW$34, DW_AT_accessibility(DW_ACCESS_public)
     539                            .dwattr $C$DW$34, DW_AT_decl_file("C:/ti/simplelink_cc13x0_sdk_2_30_00_20/source/ti/ti154stack
     540                            .dwattr $C$DW$34, DW_AT_decl_line(0x3fc)
     541                            .dwattr $C$DW$34, DW_AT_decl_column(0x1a)
     542                    
     543                            .dwattr $C$DW$T$33, DW_AT_decl_file("C:/ti/simplelink_cc13x0_sdk_2_30_00_20/source/ti/ti154sta
     544                            .dwattr $C$DW$T$33, DW_AT_decl_line(0x3fa)
     545                            .dwattr $C$DW$T$33, DW_AT_decl_column(0x01)
     546                            .dwendtag $C$DW$T$33
     547                    
     548                    $C$DW$T$139     .dwtag  DW_TAG_typedef
TI ARM Assembler PC v18.1.3 Wed Nov 28 13:22:08 2018

Tools Copyright (c) 1996-2017 Texas Instruments Incorporated
C:\Users\Adrian\AppData\Local\Temp\{9AD3DFEE-EA71-445C-92FF-0A88F830FC75} PAGE   11

     549                            .dwattr $C$DW$T$139, DW_AT_name("icallLiteMsg_t")
     550                            .dwattr $C$DW$T$139, DW_AT_type(*$C$DW$T$33)
     551                            .dwattr $C$DW$T$139, DW_AT_language(DW_LANG_C)
     552                            .dwattr $C$DW$T$139, DW_AT_decl_file("C:/ti/simplelink_cc13x0_sdk_2_30_00_20/source/ti/ti154st
     553                            .dwattr $C$DW$T$139, DW_AT_decl_line(0x3fd)
     554                            .dwattr $C$DW$T$139, DW_AT_decl_column(0x03)
     555                    
     556                    
     557                    $C$DW$T$35      .dwtag  DW_TAG_structure_type
     558                            .dwattr $C$DW$T$35, DW_AT_byte_size(0x02)
     559                    $C$DW$35        .dwtag  DW_TAG_member
     560                            .dwattr $C$DW$35, DW_AT_type(*$C$DW$T$34)
     561                            .dwattr $C$DW$35, DW_AT_name("event")
     562                            .dwattr $C$DW$35, DW_AT_TI_symbol_name("event")
     563                            .dwattr $C$DW$35, DW_AT_data_member_location[DW_OP_plus_uconst 0x0]
     564                            .dwattr $C$DW$35, DW_AT_accessibility(DW_ACCESS_public)
     565                            .dwattr $C$DW$35, DW_AT_decl_file("..\Application\MAC\OSAL\osal.h")
     566                            .dwattr $C$DW$35, DW_AT_decl_line(0x79)
     567                            .dwattr $C$DW$35, DW_AT_decl_column(0x0a)
     568                    
     569                    $C$DW$36        .dwtag  DW_TAG_member
     570                            .dwattr $C$DW$36, DW_AT_type(*$C$DW$T$34)
     571                            .dwattr $C$DW$36, DW_AT_name("status")
     572                            .dwattr $C$DW$36, DW_AT_TI_symbol_name("status")
     573                            .dwattr $C$DW$36, DW_AT_data_member_location[DW_OP_plus_uconst 0x1]
     574                            .dwattr $C$DW$36, DW_AT_accessibility(DW_ACCESS_public)
     575                            .dwattr $C$DW$36, DW_AT_decl_file("..\Application\MAC\OSAL\osal.h")
     576                            .dwattr $C$DW$36, DW_AT_decl_line(0x7a)
     577                            .dwattr $C$DW$36, DW_AT_decl_column(0x0a)
     578                    
     579                            .dwattr $C$DW$T$35, DW_AT_decl_file("..\Application\MAC\OSAL\osal.h")
     580                            .dwattr $C$DW$T$35, DW_AT_decl_line(0x78)
     581                            .dwattr $C$DW$T$35, DW_AT_decl_column(0x01)
     582                            .dwendtag $C$DW$T$35
     583                    
     584                    $C$DW$T$140     .dwtag  DW_TAG_typedef
     585                            .dwattr $C$DW$T$140, DW_AT_name("osal_event_hdr_t")
     586                            .dwattr $C$DW$T$140, DW_AT_type(*$C$DW$T$35)
     587                            .dwattr $C$DW$T$140, DW_AT_language(DW_LANG_C)
     588                            .dwattr $C$DW$T$140, DW_AT_decl_file("..\Application\MAC\OSAL\osal.h")
     589                            .dwattr $C$DW$T$140, DW_AT_decl_line(0x7b)
     590                            .dwattr $C$DW$T$140, DW_AT_decl_column(0x03)
     591                    
     592                    
     593                    $C$DW$T$44      .dwtag  DW_TAG_union_type
     594                            .dwattr $C$DW$T$44, DW_AT_byte_size(0x02)
     595                    $C$DW$37        .dwtag  DW_TAG_member
     596                            .dwattr $C$DW$37, DW_AT_type(*$C$DW$T$39)
     597                            .dwattr $C$DW$37, DW_AT_name("entityId")
     598                            .dwattr $C$DW$37, DW_AT_TI_symbol_name("entityId")
     599                            .dwattr $C$DW$37, DW_AT_data_member_location[DW_OP_plus_uconst 0x0]
     600                            .dwattr $C$DW$37, DW_AT_accessibility(DW_ACCESS_public)
     601                            .dwattr $C$DW$37, DW_AT_decl_file("C:/ti/simplelink_cc13x0_sdk_2_30_00_20/source/ti/ti154stack
     602                            .dwattr $C$DW$37, DW_AT_decl_line(0x1fe)
     603                            .dwattr $C$DW$37, DW_AT_decl_column(0x14)
TI ARM Assembler PC v18.1.3 Wed Nov 28 13:22:08 2018

Tools Copyright (c) 1996-2017 Texas Instruments Incorporated
C:\Users\Adrian\AppData\Local\Temp\{9AD3DFEE-EA71-445C-92FF-0A88F830FC75} PAGE   12

     604                    
     605                    $C$DW$38        .dwtag  DW_TAG_member
     606                            .dwattr $C$DW$38, DW_AT_type(*$C$DW$T$43)
     607                            .dwattr $C$DW$38, DW_AT_name("servId")
     608                            .dwattr $C$DW$38, DW_AT_TI_symbol_name("servId")
     609                            .dwattr $C$DW$38, DW_AT_data_member_location[DW_OP_plus_uconst 0x0]
     610                            .dwattr $C$DW$38, DW_AT_accessibility(DW_ACCESS_public)
     611                            .dwattr $C$DW$38, DW_AT_decl_file("C:/ti/simplelink_cc13x0_sdk_2_30_00_20/source/ti/ti154stack
     612                            .dwattr $C$DW$38, DW_AT_decl_line(0x200)
     613                            .dwattr $C$DW$38, DW_AT_decl_column(0x17)
     614                    
     615                            .dwattr $C$DW$T$44, DW_AT_decl_file("C:/ti/simplelink_cc13x0_sdk_2_30_00_20/source/ti/ti154sta
     616                            .dwattr $C$DW$T$44, DW_AT_decl_line(0x1fc)
     617                            .dwattr $C$DW$T$44, DW_AT_decl_column(0x03)
     618                            .dwendtag $C$DW$T$44
     619                    
     620                    
     621                    $C$DW$T$45      .dwtag  DW_TAG_union_type
     622                            .dwattr $C$DW$T$45, DW_AT_byte_size(0x02)
     623                    $C$DW$39        .dwtag  DW_TAG_member
     624                            .dwattr $C$DW$39, DW_AT_type(*$C$DW$T$43)
     625                            .dwattr $C$DW$39, DW_AT_name("servId")
     626                            .dwattr $C$DW$39, DW_AT_TI_symbol_name("servId")
     627                            .dwattr $C$DW$39, DW_AT_data_member_location[DW_OP_plus_uconst 0x0]
     628                            .dwattr $C$DW$39, DW_AT_accessibility(DW_ACCESS_public)
     629                            .dwattr $C$DW$39, DW_AT_decl_file("C:/ti/simplelink_cc13x0_sdk_2_30_00_20/source/ti/ti154stack
     630                            .dwattr $C$DW$39, DW_AT_decl_line(0x211)
     631                            .dwattr $C$DW$39, DW_AT_decl_column(0x17)
     632                    
     633                    $C$DW$40        .dwtag  DW_TAG_member
     634                            .dwattr $C$DW$40, DW_AT_type(*$C$DW$T$39)
     635                            .dwattr $C$DW$40, DW_AT_name("entityId")
     636                            .dwattr $C$DW$40, DW_AT_TI_symbol_name("entityId")
     637                            .dwattr $C$DW$40, DW_AT_data_member_location[DW_OP_plus_uconst 0x0]
     638                            .dwattr $C$DW$40, DW_AT_accessibility(DW_ACCESS_public)
     639                            .dwattr $C$DW$40, DW_AT_decl_file("C:/ti/simplelink_cc13x0_sdk_2_30_00_20/source/ti/ti154stack
     640                            .dwattr $C$DW$40, DW_AT_decl_line(0x213)
     641                            .dwattr $C$DW$40, DW_AT_decl_column(0x14)
     642                    
     643                            .dwattr $C$DW$T$45, DW_AT_decl_file("C:/ti/simplelink_cc13x0_sdk_2_30_00_20/source/ti/ti154sta
     644                            .dwattr $C$DW$T$45, DW_AT_decl_line(0x20f)
     645                            .dwattr $C$DW$T$45, DW_AT_decl_column(0x03)
     646                            .dwendtag $C$DW$T$45
     647                    
     648                    
     649                    $C$DW$T$46      .dwtag  DW_TAG_structure_type
     650                            .dwattr $C$DW$T$46, DW_AT_name("_ICall_LiteCmdStatus_")
     651                            .dwattr $C$DW$T$46, DW_AT_byte_size(0x01)
     652                    $C$DW$41        .dwtag  DW_TAG_member
     653                            .dwattr $C$DW$41, DW_AT_type(*$C$DW$T$38)
     654                            .dwattr $C$DW$41, DW_AT_name("cmdId")
     655                            .dwattr $C$DW$41, DW_AT_TI_symbol_name("cmdId")
     656                            .dwattr $C$DW$41, DW_AT_data_member_location[DW_OP_plus_uconst 0x0]
     657                            .dwattr $C$DW$41, DW_AT_accessibility(DW_ACCESS_public)
     658                            .dwattr $C$DW$41, DW_AT_decl_file("C:/ti/simplelink_cc13x0_sdk_2_30_00_20/source/ti/ti154stack
TI ARM Assembler PC v18.1.3 Wed Nov 28 13:22:08 2018

Tools Copyright (c) 1996-2017 Texas Instruments Incorporated
C:\Users\Adrian\AppData\Local\Temp\{9AD3DFEE-EA71-445C-92FF-0A88F830FC75} PAGE   13

     659                            .dwattr $C$DW$41, DW_AT_decl_line(0x3f0)
     660                            .dwattr $C$DW$41, DW_AT_decl_column(0x11)
     661                    
     662                            .dwattr $C$DW$T$46, DW_AT_decl_file("C:/ti/simplelink_cc13x0_sdk_2_30_00_20/source/ti/ti154sta
     663                            .dwattr $C$DW$T$46, DW_AT_decl_line(0x3ee)
     664                            .dwattr $C$DW$T$46, DW_AT_decl_column(0x10)
     665                            .dwendtag $C$DW$T$46
     666                    
     667                    $C$DW$T$141     .dwtag  DW_TAG_typedef
     668                            .dwattr $C$DW$T$141, DW_AT_name("ICall_LiteCmdStatus")
     669                            .dwattr $C$DW$T$141, DW_AT_type(*$C$DW$T$46)
     670                            .dwattr $C$DW$T$141, DW_AT_language(DW_LANG_C)
     671                            .dwattr $C$DW$T$141, DW_AT_decl_file("C:/ti/simplelink_cc13x0_sdk_2_30_00_20/source/ti/ti154st
     672                            .dwattr $C$DW$T$141, DW_AT_decl_line(0x3f1)
     673                            .dwattr $C$DW$T$141, DW_AT_decl_column(0x03)
     674                    
     675                    $C$DW$T$2       .dwtag  DW_TAG_unspecified_type
     676                            .dwattr $C$DW$T$2, DW_AT_name("void")
     677                    
     678                    $C$DW$T$3       .dwtag  DW_TAG_pointer_type
     679                            .dwattr $C$DW$T$3, DW_AT_type(*$C$DW$T$2)
     680                            .dwattr $C$DW$T$3, DW_AT_address_class(0x20)
     681                    
     682                    $C$DW$T$142     .dwtag  DW_TAG_typedef
     683                            .dwattr $C$DW$T$142, DW_AT_name("ICall_Semaphore")
     684                            .dwattr $C$DW$T$142, DW_AT_type(*$C$DW$T$3)
     685                            .dwattr $C$DW$T$142, DW_AT_language(DW_LANG_C)
     686                            .dwattr $C$DW$T$142, DW_AT_decl_file("C:/ti/simplelink_cc13x0_sdk_2_30_00_20/source/ti/ti154st
     687                            .dwattr $C$DW$T$142, DW_AT_decl_line(0x1ac)
     688                            .dwattr $C$DW$T$142, DW_AT_decl_column(0x0f)
     689                    
     690                    $C$DW$T$62      .dwtag  DW_TAG_typedef
     691                            .dwattr $C$DW$T$62, DW_AT_name("ICall_SyncHandle")
     692                            .dwattr $C$DW$T$62, DW_AT_type(*$C$DW$T$3)
     693                            .dwattr $C$DW$T$62, DW_AT_language(DW_LANG_C)
     694                            .dwattr $C$DW$T$62, DW_AT_decl_file("C:/ti/simplelink_cc13x0_sdk_2_30_00_20/source/ti/ti154sta
     695                            .dwattr $C$DW$T$62, DW_AT_decl_line(0x1aa)
     696                            .dwattr $C$DW$T$62, DW_AT_decl_column(0x0f)
     697                    
     698                    $C$DW$T$114     .dwtag  DW_TAG_typedef
     699                            .dwattr $C$DW$T$114, DW_AT_name("ICall_TimerID")
     700                            .dwattr $C$DW$T$114, DW_AT_type(*$C$DW$T$3)
     701                            .dwattr $C$DW$T$114, DW_AT_language(DW_LANG_C)
     702                            .dwattr $C$DW$T$114, DW_AT_decl_file("C:/ti/simplelink_cc13x0_sdk_2_30_00_20/source/ti/ti154st
     703                            .dwattr $C$DW$T$114, DW_AT_decl_line(0x1b7)
     704                            .dwattr $C$DW$T$114, DW_AT_decl_column(0x0f)
     705                    
     706                    $C$DW$T$146     .dwtag  DW_TAG_const_type
     707                            .dwattr $C$DW$T$146, DW_AT_type(*$C$DW$T$3)
     708                    
     709                    $C$DW$T$147     .dwtag  DW_TAG_typedef
     710                            .dwattr $C$DW$T$147, DW_AT_name("osal_msg_q_t")
     711                            .dwattr $C$DW$T$147, DW_AT_type(*$C$DW$T$3)
     712                            .dwattr $C$DW$T$147, DW_AT_language(DW_LANG_C)
     713                            .dwattr $C$DW$T$147, DW_AT_decl_file("..\Application\MAC\OSAL\osal.h")
TI ARM Assembler PC v18.1.3 Wed Nov 28 13:22:08 2018

Tools Copyright (c) 1996-2017 Texas Instruments Incorporated
C:\Users\Adrian\AppData\Local\Temp\{9AD3DFEE-EA71-445C-92FF-0A88F830FC75} PAGE   14

     714                            .dwattr $C$DW$T$147, DW_AT_decl_line(0x7d)
     715                            .dwattr $C$DW$T$147, DW_AT_decl_column(0x10)
     716                    
     717                    
     718                    $C$DW$T$51      .dwtag  DW_TAG_subroutine_type
     719                            .dwattr $C$DW$T$51, DW_AT_language(DW_LANG_C)
     720                    $C$DW$42        .dwtag  DW_TAG_formal_parameter
     721                            .dwattr $C$DW$42, DW_AT_type(*$C$DW$T$49)
     722                    
     723                            .dwendtag $C$DW$T$51
     724                    
     725                    $C$DW$T$52      .dwtag  DW_TAG_pointer_type
     726                            .dwattr $C$DW$T$52, DW_AT_type(*$C$DW$T$51)
     727                            .dwattr $C$DW$T$52, DW_AT_address_class(0x20)
     728                    
     729                    
     730                    $C$DW$T$90      .dwtag  DW_TAG_subroutine_type
     731                            .dwattr $C$DW$T$90, DW_AT_language(DW_LANG_C)
     732                    $C$DW$43        .dwtag  DW_TAG_formal_parameter
     733                            .dwattr $C$DW$43, DW_AT_type(*$C$DW$T$88)
     734                    
     735                    $C$DW$44        .dwtag  DW_TAG_formal_parameter
     736                            .dwattr $C$DW$44, DW_AT_type(*$C$DW$T$89)
     737                    
     738                            .dwendtag $C$DW$T$90
     739                    
     740                    $C$DW$T$91      .dwtag  DW_TAG_pointer_type
     741                            .dwattr $C$DW$T$91, DW_AT_type(*$C$DW$T$90)
     742                            .dwattr $C$DW$T$91, DW_AT_address_class(0x20)
     743                    
     744                    $C$DW$T$92      .dwtag  DW_TAG_typedef
     745                            .dwattr $C$DW$T$92, DW_AT_name("ICall_PwrNotifyFn")
     746                            .dwattr $C$DW$T$92, DW_AT_type(*$C$DW$T$91)
     747                            .dwattr $C$DW$T$92, DW_AT_language(DW_LANG_C)
     748                            .dwattr $C$DW$T$92, DW_AT_decl_file("C:/ti/simplelink_cc13x0_sdk_2_30_00_20/source/ti/ti154sta
     749                            .dwattr $C$DW$T$92, DW_AT_decl_line(0x333)
     750                            .dwattr $C$DW$T$92, DW_AT_decl_column(0x10)
     751                    
     752                    
     753                    $C$DW$T$99      .dwtag  DW_TAG_subroutine_type
     754                            .dwattr $C$DW$T$99, DW_AT_language(DW_LANG_C)
     755                            .dwendtag $C$DW$T$99
     756                    
     757                    $C$DW$T$100     .dwtag  DW_TAG_pointer_type
     758                            .dwattr $C$DW$T$100, DW_AT_type(*$C$DW$T$99)
     759                            .dwattr $C$DW$T$100, DW_AT_address_class(0x20)
     760                    
     761                    $C$DW$T$131     .dwtag  DW_TAG_typedef
     762                            .dwattr $C$DW$T$131, DW_AT_name("APPASRTINTF_callAssrtHndler")
     763                            .dwattr $C$DW$T$131, DW_AT_type(*$C$DW$T$100)
     764                            .dwattr $C$DW$T$131, DW_AT_language(DW_LANG_C)
     765                            .dwattr $C$DW$T$131, DW_AT_decl_file("C:/ti/simplelink_cc13x0_sdk_2_30_00_20/source/ti/ti154st
     766                            .dwattr $C$DW$T$131, DW_AT_decl_line(0x43)
     767                            .dwattr $C$DW$T$131, DW_AT_decl_column(0x10)
     768                    
TI ARM Assembler PC v18.1.3 Wed Nov 28 13:22:08 2018

Tools Copyright (c) 1996-2017 Texas Instruments Incorporated
C:\Users\Adrian\AppData\Local\Temp\{9AD3DFEE-EA71-445C-92FF-0A88F830FC75} PAGE   15

     769                    $C$DW$T$148     .dwtag  DW_TAG_typedef
     770                            .dwattr $C$DW$T$148, DW_AT_name("__TI_atexit_fn")
     771                            .dwattr $C$DW$T$148, DW_AT_type(*$C$DW$T$100)
     772                            .dwattr $C$DW$T$148, DW_AT_language(DW_LANG_C)
     773                            .dwattr $C$DW$T$148, DW_AT_decl_file("C:/ti/ccsv8/tools/compiler/ti-cgt-arm_18.1.3.LTS/include
     774                            .dwattr $C$DW$T$148, DW_AT_decl_line(0xb2)
     775                            .dwattr $C$DW$T$148, DW_AT_decl_column(0x14)
     776                    
     777                    
     778                    $C$DW$T$108     .dwtag  DW_TAG_subroutine_type
     779                            .dwattr $C$DW$T$108, DW_AT_language(DW_LANG_C)
     780                    $C$DW$45        .dwtag  DW_TAG_formal_parameter
     781                            .dwattr $C$DW$45, DW_AT_type(*$C$DW$T$104)
     782                    
     783                            .dwendtag $C$DW$T$108
     784                    
     785                    $C$DW$T$109     .dwtag  DW_TAG_pointer_type
     786                            .dwattr $C$DW$T$109, DW_AT_type(*$C$DW$T$108)
     787                            .dwattr $C$DW$T$109, DW_AT_address_class(0x20)
     788                    
     789                    $C$DW$T$110     .dwtag  DW_TAG_typedef
     790                            .dwattr $C$DW$T$110, DW_AT_name("ICall_LeaveCS")
     791                            .dwattr $C$DW$T$110, DW_AT_type(*$C$DW$T$109)
     792                            .dwattr $C$DW$T$110, DW_AT_language(DW_LANG_C)
     793                            .dwattr $C$DW$T$110, DW_AT_decl_file("C:/ti/simplelink_cc13x0_sdk_2_30_00_20/source/ti/ti154st
     794                            .dwattr $C$DW$T$110, DW_AT_decl_line(0x37e)
     795                            .dwattr $C$DW$T$110, DW_AT_decl_column(0x10)
     796                    
     797                    
     798                    $C$DW$T$115     .dwtag  DW_TAG_subroutine_type
     799                            .dwattr $C$DW$T$115, DW_AT_language(DW_LANG_C)
     800                    $C$DW$46        .dwtag  DW_TAG_formal_parameter
     801                            .dwattr $C$DW$46, DW_AT_type(*$C$DW$T$3)
     802                    
     803                            .dwendtag $C$DW$T$115
     804                    
     805                    $C$DW$T$116     .dwtag  DW_TAG_pointer_type
     806                            .dwattr $C$DW$T$116, DW_AT_type(*$C$DW$T$115)
     807                            .dwattr $C$DW$T$116, DW_AT_address_class(0x20)
     808                    
     809                    $C$DW$T$117     .dwtag  DW_TAG_typedef
     810                            .dwattr $C$DW$T$117, DW_AT_name("ICall_TimerCback")
     811                            .dwattr $C$DW$T$117, DW_AT_type(*$C$DW$T$116)
     812                            .dwattr $C$DW$T$117, DW_AT_language(DW_LANG_C)
     813                            .dwattr $C$DW$T$117, DW_AT_decl_file("C:/ti/simplelink_cc13x0_sdk_2_30_00_20/source/ti/ti154st
     814                            .dwattr $C$DW$T$117, DW_AT_decl_line(0x1c8)
     815                            .dwattr $C$DW$T$117, DW_AT_decl_column(0x10)
     816                    
     817                    $C$DW$T$149     .dwtag  DW_TAG_typedef
     818                            .dwattr $C$DW$T$149, DW_AT_name("osal_highres_timer_cback_t")
     819                            .dwattr $C$DW$T$149, DW_AT_type(*$C$DW$T$116)
     820                            .dwattr $C$DW$T$149, DW_AT_language(DW_LANG_C)
     821                            .dwattr $C$DW$T$149, DW_AT_decl_file("..\Application\MAC\OSAL\osal.h")
     822                            .dwattr $C$DW$T$149, DW_AT_decl_line(0x81)
     823                            .dwattr $C$DW$T$149, DW_AT_decl_column(0x10)
TI ARM Assembler PC v18.1.3 Wed Nov 28 13:22:08 2018

Tools Copyright (c) 1996-2017 Texas Instruments Incorporated
C:\Users\Adrian\AppData\Local\Temp\{9AD3DFEE-EA71-445C-92FF-0A88F830FC75} PAGE   16

     824                    
     825                    $C$DW$T$150     .dwtag  DW_TAG_typedef
     826                            .dwattr $C$DW$T$150, DW_AT_name("osal_icallMsg_hook_t")
     827                            .dwattr $C$DW$T$150, DW_AT_type(*$C$DW$T$116)
     828                            .dwattr $C$DW$T$150, DW_AT_language(DW_LANG_C)
     829                            .dwattr $C$DW$T$150, DW_AT_decl_file("..\Application\MAC\OSAL\osal.h")
     830                            .dwattr $C$DW$T$150, DW_AT_decl_line(0x85)
     831                            .dwattr $C$DW$T$150, DW_AT_decl_column(0x10)
     832                    
     833                    $C$DW$T$125     .dwtag  DW_TAG_const_type
     834                            .dwattr $C$DW$T$125, DW_AT_type(*$C$DW$T$2)
     835                    
     836                    $C$DW$T$126     .dwtag  DW_TAG_pointer_type
     837                            .dwattr $C$DW$T$126, DW_AT_type(*$C$DW$T$125)
     838                            .dwattr $C$DW$T$126, DW_AT_address_class(0x20)
     839                    
     840                    
     841                    $C$DW$T$151     .dwtag  DW_TAG_subroutine_type
     842                            .dwattr $C$DW$T$151, DW_AT_language(DW_LANG_C)
     843                    $C$DW$47        .dwtag  DW_TAG_formal_parameter
     844                            .dwattr $C$DW$47, DW_AT_type(*$C$DW$T$34)
     845                    
     846                    $C$DW$48        .dwtag  DW_TAG_formal_parameter
     847                            .dwattr $C$DW$48, DW_AT_type(*$C$DW$T$34)
     848                    
     849                            .dwendtag $C$DW$T$151
     850                    
     851                    $C$DW$T$152     .dwtag  DW_TAG_pointer_type
     852                            .dwattr $C$DW$T$152, DW_AT_type(*$C$DW$T$151)
     853                            .dwattr $C$DW$T$152, DW_AT_address_class(0x20)
     854                    
     855                    $C$DW$T$153     .dwtag  DW_TAG_typedef
     856                            .dwattr $C$DW$T$153, DW_AT_name("assertCback_t")
     857                            .dwattr $C$DW$T$153, DW_AT_type(*$C$DW$T$152)
     858                            .dwattr $C$DW$T$153, DW_AT_language(DW_LANG_C)
     859                            .dwattr $C$DW$T$153, DW_AT_decl_file("C:/ti/simplelink_cc13x0_sdk_2_30_00_20/source/ti/ti154st
     860                            .dwattr $C$DW$T$153, DW_AT_decl_line(0xd3)
     861                            .dwattr $C$DW$T$153, DW_AT_decl_column(0x10)
     862                    
     863                    
     864                    $C$DW$T$157     .dwtag  DW_TAG_subroutine_type
     865                            .dwattr $C$DW$T$157, DW_AT_language(DW_LANG_C)
     866                    $C$DW$49        .dwtag  DW_TAG_formal_parameter
     867                            .dwattr $C$DW$49, DW_AT_type(*$C$DW$T$156)
     868                    
     869                    $C$DW$50        .dwtag  DW_TAG_formal_parameter
     870                            .dwattr $C$DW$50, DW_AT_type(*$C$DW$T$3)
     871                    
     872                            .dwendtag $C$DW$T$157
     873                    
     874                    $C$DW$T$158     .dwtag  DW_TAG_pointer_type
     875                            .dwattr $C$DW$T$158, DW_AT_type(*$C$DW$T$157)
     876                            .dwattr $C$DW$T$158, DW_AT_address_class(0x20)
     877                    
     878                    $C$DW$T$159     .dwtag  DW_TAG_typedef
TI ARM Assembler PC v18.1.3 Wed Nov 28 13:22:08 2018

Tools Copyright (c) 1996-2017 Texas Instruments Incorporated
C:\Users\Adrian\AppData\Local\Temp\{9AD3DFEE-EA71-445C-92FF-0A88F830FC75} PAGE   17

     879                            .dwattr $C$DW$T$159, DW_AT_name("ICall_RemoteTaskEntry")
     880                            .dwattr $C$DW$T$159, DW_AT_type(*$C$DW$T$158)
     881                            .dwattr $C$DW$T$159, DW_AT_language(DW_LANG_C)
     882                            .dwattr $C$DW$T$159, DW_AT_decl_file("C:/ti/simplelink_cc13x0_sdk_2_30_00_20/source/ti/ti154st
     883                            .dwattr $C$DW$T$159, DW_AT_decl_line(0x39b)
     884                            .dwattr $C$DW$T$159, DW_AT_decl_column(0x10)
     885                    
     886                    $C$DW$T$4       .dwtag  DW_TAG_base_type
     887                            .dwattr $C$DW$T$4, DW_AT_encoding(DW_ATE_boolean)
     888                            .dwattr $C$DW$T$4, DW_AT_name("bool")
     889                            .dwattr $C$DW$T$4, DW_AT_byte_size(0x01)
     890                    
     891                    $C$DW$T$5       .dwtag  DW_TAG_base_type
     892                            .dwattr $C$DW$T$5, DW_AT_encoding(DW_ATE_signed_char)
     893                            .dwattr $C$DW$T$5, DW_AT_name("signed char")
     894                            .dwattr $C$DW$T$5, DW_AT_byte_size(0x01)
     895                    
     896                    $C$DW$T$160     .dwtag  DW_TAG_typedef
     897                            .dwattr $C$DW$T$160, DW_AT_name("__int8_t")
     898                            .dwattr $C$DW$T$160, DW_AT_type(*$C$DW$T$5)
     899                            .dwattr $C$DW$T$160, DW_AT_language(DW_LANG_C)
     900                            .dwattr $C$DW$T$160, DW_AT_decl_file("C:/ti/ccsv8/tools/compiler/ti-cgt-arm_18.1.3.LTS/include
     901                            .dwattr $C$DW$T$160, DW_AT_decl_line(0x39)
     902                            .dwattr $C$DW$T$160, DW_AT_decl_column(0x16)
     903                    
     904                    $C$DW$T$161     .dwtag  DW_TAG_typedef
     905                            .dwattr $C$DW$T$161, DW_AT_name("__int_least8_t")
     906                            .dwattr $C$DW$T$161, DW_AT_type(*$C$DW$T$160)
     907                            .dwattr $C$DW$T$161, DW_AT_language(DW_LANG_C)
     908                            .dwattr $C$DW$T$161, DW_AT_decl_file("C:/ti/ccsv8/tools/compiler/ti-cgt-arm_18.1.3.LTS/include
     909                            .dwattr $C$DW$T$161, DW_AT_decl_line(0x58)
     910                            .dwattr $C$DW$T$161, DW_AT_decl_column(0x12)
     911                    
     912                    $C$DW$T$162     .dwtag  DW_TAG_typedef
     913                            .dwattr $C$DW$T$162, DW_AT_name("int_least8_t")
     914                            .dwattr $C$DW$T$162, DW_AT_type(*$C$DW$T$161)
     915                            .dwattr $C$DW$T$162, DW_AT_language(DW_LANG_C)
     916                            .dwattr $C$DW$T$162, DW_AT_decl_file("C:/ti/ccsv8/tools/compiler/ti-cgt-arm_18.1.3.LTS/include
     917                            .dwattr $C$DW$T$162, DW_AT_decl_line(0x28)
     918                            .dwattr $C$DW$T$162, DW_AT_decl_column(0x19)
     919                    
     920                    $C$DW$T$163     .dwtag  DW_TAG_typedef
     921                            .dwattr $C$DW$T$163, DW_AT_name("int8_t")
     922                            .dwattr $C$DW$T$163, DW_AT_type(*$C$DW$T$160)
     923                            .dwattr $C$DW$T$163, DW_AT_language(DW_LANG_C)
     924                            .dwattr $C$DW$T$163, DW_AT_decl_file("C:/ti/ccsv8/tools/compiler/ti-cgt-arm_18.1.3.LTS/include
     925                            .dwattr $C$DW$T$163, DW_AT_decl_line(0x24)
     926                            .dwattr $C$DW$T$163, DW_AT_decl_column(0x13)
     927                    
     928                    $C$DW$T$164     .dwtag  DW_TAG_typedef
     929                            .dwattr $C$DW$T$164, DW_AT_name("int8")
     930                            .dwattr $C$DW$T$164, DW_AT_type(*$C$DW$T$5)
     931                            .dwattr $C$DW$T$164, DW_AT_language(DW_LANG_C)
     932                            .dwattr $C$DW$T$164, DW_AT_decl_file("C:\ti\simplelink_cc13x0_sdk_2_30_00_20\source\ti\ti154st
     933                            .dwattr $C$DW$T$164, DW_AT_decl_line(0x38)
TI ARM Assembler PC v18.1.3 Wed Nov 28 13:22:08 2018

Tools Copyright (c) 1996-2017 Texas Instruments Incorporated
C:\Users\Adrian\AppData\Local\Temp\{9AD3DFEE-EA71-445C-92FF-0A88F830FC75} PAGE   18

     934                            .dwattr $C$DW$T$164, DW_AT_decl_column(0x19)
     935                    
     936                    $C$DW$T$6       .dwtag  DW_TAG_base_type
     937                            .dwattr $C$DW$T$6, DW_AT_encoding(DW_ATE_unsigned_char)
     938                            .dwattr $C$DW$T$6, DW_AT_name("unsigned char")
     939                            .dwattr $C$DW$T$6, DW_AT_byte_size(0x01)
     940                    
     941                    $C$DW$T$36      .dwtag  DW_TAG_typedef
     942                            .dwattr $C$DW$T$36, DW_AT_name("__uint8_t")
     943                            .dwattr $C$DW$T$36, DW_AT_type(*$C$DW$T$6)
     944                            .dwattr $C$DW$T$36, DW_AT_language(DW_LANG_C)
     945                            .dwattr $C$DW$T$36, DW_AT_decl_file("C:/ti/ccsv8/tools/compiler/ti-cgt-arm_18.1.3.LTS/include/
     946                            .dwattr $C$DW$T$36, DW_AT_decl_line(0x3a)
     947                            .dwattr $C$DW$T$36, DW_AT_decl_column(0x18)
     948                    
     949                    $C$DW$T$166     .dwtag  DW_TAG_typedef
     950                            .dwattr $C$DW$T$166, DW_AT_name("__sa_family_t")
     951                            .dwattr $C$DW$T$166, DW_AT_type(*$C$DW$T$36)
     952                            .dwattr $C$DW$T$166, DW_AT_language(DW_LANG_C)
     953                            .dwattr $C$DW$T$166, DW_AT_decl_file("C:/ti/ccsv8/tools/compiler/ti-cgt-arm_18.1.3.LTS/include
     954                            .dwattr $C$DW$T$166, DW_AT_decl_line(0x43)
     955                            .dwattr $C$DW$T$166, DW_AT_decl_column(0x13)
     956                    
     957                    $C$DW$T$37      .dwtag  DW_TAG_typedef
     958                            .dwattr $C$DW$T$37, DW_AT_name("__uint_least8_t")
     959                            .dwattr $C$DW$T$37, DW_AT_type(*$C$DW$T$36)
     960                            .dwattr $C$DW$T$37, DW_AT_language(DW_LANG_C)
     961                            .dwattr $C$DW$T$37, DW_AT_decl_file("C:/ti/ccsv8/tools/compiler/ti-cgt-arm_18.1.3.LTS/include/
     962                            .dwattr $C$DW$T$37, DW_AT_decl_line(0x6d)
     963                            .dwattr $C$DW$T$37, DW_AT_decl_column(0x13)
     964                    
     965                    $C$DW$T$38      .dwtag  DW_TAG_typedef
     966                            .dwattr $C$DW$T$38, DW_AT_name("uint_least8_t")
     967                            .dwattr $C$DW$T$38, DW_AT_type(*$C$DW$T$37)
     968                            .dwattr $C$DW$T$38, DW_AT_language(DW_LANG_C)
     969                            .dwattr $C$DW$T$38, DW_AT_decl_file("C:/ti/ccsv8/tools/compiler/ti-cgt-arm_18.1.3.LTS/include/
     970                            .dwattr $C$DW$T$38, DW_AT_decl_line(0x2d)
     971                            .dwattr $C$DW$T$38, DW_AT_decl_column(0x1a)
     972                    
     973                    $C$DW$T$39      .dwtag  DW_TAG_typedef
     974                            .dwattr $C$DW$T$39, DW_AT_name("ICall_EntityID")
     975                            .dwattr $C$DW$T$39, DW_AT_type(*$C$DW$T$38)
     976                            .dwattr $C$DW$T$39, DW_AT_language(DW_LANG_C)
     977                            .dwattr $C$DW$T$39, DW_AT_decl_file("C:/ti/simplelink_cc13x0_sdk_2_30_00_20/source/ti/ti154sta
     978                            .dwattr $C$DW$T$39, DW_AT_decl_line(0x1b4)
     979                            .dwattr $C$DW$T$39, DW_AT_decl_column(0x17)
     980                    
     981                    $C$DW$T$112     .dwtag  DW_TAG_typedef
     982                            .dwattr $C$DW$T$112, DW_AT_name("ICall_MSGFormat")
     983                            .dwattr $C$DW$T$112, DW_AT_type(*$C$DW$T$38)
     984                            .dwattr $C$DW$T$112, DW_AT_language(DW_LANG_C)
     985                            .dwattr $C$DW$T$112, DW_AT_decl_file("C:/ti/simplelink_cc13x0_sdk_2_30_00_20/source/ti/ti154st
     986                            .dwattr $C$DW$T$112, DW_AT_decl_line(0x1a4)
     987                            .dwattr $C$DW$T$112, DW_AT_decl_column(0x17)
     988                    
TI ARM Assembler PC v18.1.3 Wed Nov 28 13:22:08 2018

Tools Copyright (c) 1996-2017 Texas Instruments Incorporated
C:\Users\Adrian\AppData\Local\Temp\{9AD3DFEE-EA71-445C-92FF-0A88F830FC75} PAGE   19

     989                    $C$DW$T$77      .dwtag  DW_TAG_typedef
     990                            .dwattr $C$DW$T$77, DW_AT_name("uint8_t")
     991                            .dwattr $C$DW$T$77, DW_AT_type(*$C$DW$T$36)
     992                            .dwattr $C$DW$T$77, DW_AT_language(DW_LANG_C)
     993                            .dwattr $C$DW$T$77, DW_AT_decl_file("C:/ti/ccsv8/tools/compiler/ti-cgt-arm_18.1.3.LTS/include/
     994                            .dwattr $C$DW$T$77, DW_AT_decl_line(0x38)
     995                            .dwattr $C$DW$T$77, DW_AT_decl_column(0x14)
     996                    
     997                    $C$DW$T$34      .dwtag  DW_TAG_typedef
     998                            .dwattr $C$DW$T$34, DW_AT_name("uint8")
     999                            .dwattr $C$DW$T$34, DW_AT_type(*$C$DW$T$6)
    1000                            .dwattr $C$DW$T$34, DW_AT_language(DW_LANG_C)
    1001                            .dwattr $C$DW$T$34, DW_AT_decl_file("C:\ti\simplelink_cc13x0_sdk_2_30_00_20\source\ti\ti154sta
    1002                            .dwattr $C$DW$T$34, DW_AT_decl_line(0x39)
    1003                            .dwattr $C$DW$T$34, DW_AT_decl_column(0x19)
    1004                    
    1005                    $C$DW$T$167     .dwtag  DW_TAG_typedef
    1006                            .dwattr $C$DW$T$167, DW_AT_name("Status_t")
    1007                            .dwattr $C$DW$T$167, DW_AT_type(*$C$DW$T$34)
    1008                            .dwattr $C$DW$T$167, DW_AT_language(DW_LANG_C)
    1009                            .dwattr $C$DW$T$167, DW_AT_decl_file("..\Application\MAC\OSAL\comdef.h")
    1010                            .dwattr $C$DW$T$167, DW_AT_decl_line(0x77)
    1011                            .dwattr $C$DW$T$167, DW_AT_decl_column(0x0f)
    1012                    
    1013                    $C$DW$T$168     .dwtag  DW_TAG_pointer_type
    1014                            .dwattr $C$DW$T$168, DW_AT_type(*$C$DW$T$34)
    1015                            .dwattr $C$DW$T$168, DW_AT_address_class(0x20)
    1016                    
    1017                    $C$DW$T$7       .dwtag  DW_TAG_base_type
    1018                            .dwattr $C$DW$T$7, DW_AT_encoding(DW_ATE_signed_char)
    1019                            .dwattr $C$DW$T$7, DW_AT_name("wchar_t")
    1020                            .dwattr $C$DW$T$7, DW_AT_byte_size(0x02)
    1021                    
    1022                    $C$DW$T$8       .dwtag  DW_TAG_base_type
    1023                            .dwattr $C$DW$T$8, DW_AT_encoding(DW_ATE_signed)
    1024                            .dwattr $C$DW$T$8, DW_AT_name("short")
    1025                            .dwattr $C$DW$T$8, DW_AT_byte_size(0x02)
    1026                    
    1027                    $C$DW$T$169     .dwtag  DW_TAG_typedef
    1028                            .dwattr $C$DW$T$169, DW_AT_name("__int16_t")
    1029                            .dwattr $C$DW$T$169, DW_AT_type(*$C$DW$T$8)
    1030                            .dwattr $C$DW$T$169, DW_AT_language(DW_LANG_C)
    1031                            .dwattr $C$DW$T$169, DW_AT_decl_file("C:/ti/ccsv8/tools/compiler/ti-cgt-arm_18.1.3.LTS/include
    1032                            .dwattr $C$DW$T$169, DW_AT_decl_line(0x3b)
    1033                            .dwattr $C$DW$T$169, DW_AT_decl_column(0x11)
    1034                    
    1035                    $C$DW$T$170     .dwtag  DW_TAG_typedef
    1036                            .dwattr $C$DW$T$170, DW_AT_name("__int_least16_t")
    1037                            .dwattr $C$DW$T$170, DW_AT_type(*$C$DW$T$169)
    1038                            .dwattr $C$DW$T$170, DW_AT_language(DW_LANG_C)
    1039                            .dwattr $C$DW$T$170, DW_AT_decl_file("C:/ti/ccsv8/tools/compiler/ti-cgt-arm_18.1.3.LTS/include
    1040                            .dwattr $C$DW$T$170, DW_AT_decl_line(0x59)
    1041                            .dwattr $C$DW$T$170, DW_AT_decl_column(0x13)
    1042                    
    1043                    $C$DW$T$171     .dwtag  DW_TAG_typedef
TI ARM Assembler PC v18.1.3 Wed Nov 28 13:22:08 2018

Tools Copyright (c) 1996-2017 Texas Instruments Incorporated
C:\Users\Adrian\AppData\Local\Temp\{9AD3DFEE-EA71-445C-92FF-0A88F830FC75} PAGE   20

    1044                            .dwattr $C$DW$T$171, DW_AT_name("int_least16_t")
    1045                            .dwattr $C$DW$T$171, DW_AT_type(*$C$DW$T$170)
    1046                            .dwattr $C$DW$T$171, DW_AT_language(DW_LANG_C)
    1047                            .dwattr $C$DW$T$171, DW_AT_decl_file("C:/ti/ccsv8/tools/compiler/ti-cgt-arm_18.1.3.LTS/include
    1048                            .dwattr $C$DW$T$171, DW_AT_decl_line(0x29)
    1049                            .dwattr $C$DW$T$171, DW_AT_decl_column(0x1a)
    1050                    
    1051                    $C$DW$T$172     .dwtag  DW_TAG_typedef
    1052                            .dwattr $C$DW$T$172, DW_AT_name("int16_t")
    1053                            .dwattr $C$DW$T$172, DW_AT_type(*$C$DW$T$169)
    1054                            .dwattr $C$DW$T$172, DW_AT_language(DW_LANG_C)
    1055                            .dwattr $C$DW$T$172, DW_AT_decl_file("C:/ti/ccsv8/tools/compiler/ti-cgt-arm_18.1.3.LTS/include
    1056                            .dwattr $C$DW$T$172, DW_AT_decl_line(0x29)
    1057                            .dwattr $C$DW$T$172, DW_AT_decl_column(0x14)
    1058                    
    1059                    $C$DW$T$173     .dwtag  DW_TAG_typedef
    1060                            .dwattr $C$DW$T$173, DW_AT_name("int16")
    1061                            .dwattr $C$DW$T$173, DW_AT_type(*$C$DW$T$8)
    1062                            .dwattr $C$DW$T$173, DW_AT_language(DW_LANG_C)
    1063                            .dwattr $C$DW$T$173, DW_AT_decl_file("C:\ti\simplelink_cc13x0_sdk_2_30_00_20\source\ti\ti154st
    1064                            .dwattr $C$DW$T$173, DW_AT_decl_line(0x3b)
    1065                            .dwattr $C$DW$T$173, DW_AT_decl_column(0x19)
    1066                    
    1067                    $C$DW$T$9       .dwtag  DW_TAG_base_type
    1068                            .dwattr $C$DW$T$9, DW_AT_encoding(DW_ATE_unsigned)
    1069                            .dwattr $C$DW$T$9, DW_AT_name("unsigned short")
    1070                            .dwattr $C$DW$T$9, DW_AT_byte_size(0x02)
    1071                    
    1072                    $C$DW$T$174     .dwtag  DW_TAG_typedef
    1073                            .dwattr $C$DW$T$174, DW_AT_name("___wchar_t")
    1074                            .dwattr $C$DW$T$174, DW_AT_type(*$C$DW$T$9)
    1075                            .dwattr $C$DW$T$174, DW_AT_language(DW_LANG_C)
    1076                            .dwattr $C$DW$T$174, DW_AT_decl_file("C:/ti/ccsv8/tools/compiler/ti-cgt-arm_18.1.3.LTS/include
    1077                            .dwattr $C$DW$T$174, DW_AT_decl_line(0x76)
    1078                            .dwattr $C$DW$T$174, DW_AT_decl_column(0x1a)
    1079                    
    1080                    $C$DW$T$40      .dwtag  DW_TAG_typedef
    1081                            .dwattr $C$DW$T$40, DW_AT_name("__uint16_t")
    1082                            .dwattr $C$DW$T$40, DW_AT_type(*$C$DW$T$9)
    1083                            .dwattr $C$DW$T$40, DW_AT_language(DW_LANG_C)
    1084                            .dwattr $C$DW$T$40, DW_AT_decl_file("C:/ti/ccsv8/tools/compiler/ti-cgt-arm_18.1.3.LTS/include/
    1085                            .dwattr $C$DW$T$40, DW_AT_decl_line(0x3c)
    1086                            .dwattr $C$DW$T$40, DW_AT_decl_column(0x19)
    1087                    
    1088                    $C$DW$T$176     .dwtag  DW_TAG_typedef
    1089                            .dwattr $C$DW$T$176, DW_AT_name("__mode_t")
    1090                            .dwattr $C$DW$T$176, DW_AT_type(*$C$DW$T$40)
    1091                            .dwattr $C$DW$T$176, DW_AT_language(DW_LANG_C)
    1092                            .dwattr $C$DW$T$176, DW_AT_decl_file("C:/ti/ccsv8/tools/compiler/ti-cgt-arm_18.1.3.LTS/include
    1093                            .dwattr $C$DW$T$176, DW_AT_decl_line(0x39)
    1094                            .dwattr $C$DW$T$176, DW_AT_decl_column(0x14)
    1095                    
    1096                    $C$DW$T$41      .dwtag  DW_TAG_typedef
    1097                            .dwattr $C$DW$T$41, DW_AT_name("__uint_least16_t")
    1098                            .dwattr $C$DW$T$41, DW_AT_type(*$C$DW$T$40)
TI ARM Assembler PC v18.1.3 Wed Nov 28 13:22:08 2018

Tools Copyright (c) 1996-2017 Texas Instruments Incorporated
C:\Users\Adrian\AppData\Local\Temp\{9AD3DFEE-EA71-445C-92FF-0A88F830FC75} PAGE   21

    1099                            .dwattr $C$DW$T$41, DW_AT_language(DW_LANG_C)
    1100                            .dwattr $C$DW$T$41, DW_AT_decl_file("C:/ti/ccsv8/tools/compiler/ti-cgt-arm_18.1.3.LTS/include/
    1101                            .dwattr $C$DW$T$41, DW_AT_decl_line(0x6e)
    1102                            .dwattr $C$DW$T$41, DW_AT_decl_column(0x14)
    1103                    
    1104                    $C$DW$T$177     .dwtag  DW_TAG_typedef
    1105                            .dwattr $C$DW$T$177, DW_AT_name("__char16_t")
    1106                            .dwattr $C$DW$T$177, DW_AT_type(*$C$DW$T$41)
    1107                            .dwattr $C$DW$T$177, DW_AT_language(DW_LANG_C)
    1108                            .dwattr $C$DW$T$177, DW_AT_decl_file("C:/ti/ccsv8/tools/compiler/ti-cgt-arm_18.1.3.LTS/include
    1109                            .dwattr $C$DW$T$177, DW_AT_decl_line(0x66)
    1110                            .dwattr $C$DW$T$177, DW_AT_decl_column(0x1a)
    1111                    
    1112                    $C$DW$T$42      .dwtag  DW_TAG_typedef
    1113                            .dwattr $C$DW$T$42, DW_AT_name("uint_least16_t")
    1114                            .dwattr $C$DW$T$42, DW_AT_type(*$C$DW$T$41)
    1115                            .dwattr $C$DW$T$42, DW_AT_language(DW_LANG_C)
    1116                            .dwattr $C$DW$T$42, DW_AT_decl_file("C:/ti/ccsv8/tools/compiler/ti-cgt-arm_18.1.3.LTS/include/
    1117                            .dwattr $C$DW$T$42, DW_AT_decl_line(0x2e)
    1118                            .dwattr $C$DW$T$42, DW_AT_decl_column(0x1a)
    1119                    
    1120                    $C$DW$T$67      .dwtag  DW_TAG_typedef
    1121                            .dwattr $C$DW$T$67, DW_AT_name("ICall_FuncID")
    1122                            .dwattr $C$DW$T$67, DW_AT_type(*$C$DW$T$42)
    1123                            .dwattr $C$DW$T$67, DW_AT_language(DW_LANG_C)
    1124                            .dwattr $C$DW$T$67, DW_AT_decl_file("C:/ti/simplelink_cc13x0_sdk_2_30_00_20/source/ti/ti154sta
    1125                            .dwattr $C$DW$T$67, DW_AT_decl_line(0x1a7)
    1126                            .dwattr $C$DW$T$67, DW_AT_decl_column(0x18)
    1127                    
    1128                    $C$DW$T$43      .dwtag  DW_TAG_typedef
    1129                            .dwattr $C$DW$T$43, DW_AT_name("ICall_ServiceEnum")
    1130                            .dwattr $C$DW$T$43, DW_AT_type(*$C$DW$T$42)
    1131                            .dwattr $C$DW$T$43, DW_AT_language(DW_LANG_C)
    1132                            .dwattr $C$DW$T$43, DW_AT_decl_file("C:/ti/simplelink_cc13x0_sdk_2_30_00_20/source/ti/ti154sta
    1133                            .dwattr $C$DW$T$43, DW_AT_decl_line(0x1a1)
    1134                            .dwattr $C$DW$T$43, DW_AT_decl_column(0x18)
    1135                    
    1136                    $C$DW$T$78      .dwtag  DW_TAG_typedef
    1137                            .dwattr $C$DW$T$78, DW_AT_name("uint16_t")
    1138                            .dwattr $C$DW$T$78, DW_AT_type(*$C$DW$T$40)
    1139                            .dwattr $C$DW$T$78, DW_AT_language(DW_LANG_C)
    1140                            .dwattr $C$DW$T$78, DW_AT_decl_file("C:/ti/ccsv8/tools/compiler/ti-cgt-arm_18.1.3.LTS/include/
    1141                            .dwattr $C$DW$T$78, DW_AT_decl_line(0x3d)
    1142                            .dwattr $C$DW$T$78, DW_AT_decl_column(0x15)
    1143                    
    1144                    $C$DW$T$144     .dwtag  DW_TAG_typedef
    1145                            .dwattr $C$DW$T$144, DW_AT_name("uint16")
    1146                            .dwattr $C$DW$T$144, DW_AT_type(*$C$DW$T$9)
    1147                            .dwattr $C$DW$T$144, DW_AT_language(DW_LANG_C)
    1148                            .dwattr $C$DW$T$144, DW_AT_decl_file("C:\ti\simplelink_cc13x0_sdk_2_30_00_20\source\ti\ti154st
    1149                            .dwattr $C$DW$T$144, DW_AT_decl_line(0x3c)
    1150                            .dwattr $C$DW$T$144, DW_AT_decl_column(0x19)
    1151                    
    1152                    $C$DW$T$178     .dwtag  DW_TAG_const_type
    1153                            .dwattr $C$DW$T$178, DW_AT_type(*$C$DW$T$144)
TI ARM Assembler PC v18.1.3 Wed Nov 28 13:22:08 2018

Tools Copyright (c) 1996-2017 Texas Instruments Incorporated
C:\Users\Adrian\AppData\Local\Temp\{9AD3DFEE-EA71-445C-92FF-0A88F830FC75} PAGE   22

    1154                    
    1155                    $C$DW$T$179     .dwtag  DW_TAG_typedef
    1156                            .dwattr $C$DW$T$179, DW_AT_name("wchar_t")
    1157                            .dwattr $C$DW$T$179, DW_AT_type(*$C$DW$T$9)
    1158                            .dwattr $C$DW$T$179, DW_AT_language(DW_LANG_C)
    1159                            .dwattr $C$DW$T$179, DW_AT_decl_file("C:/ti/ccsv8/tools/compiler/ti-cgt-arm_18.1.3.LTS/include
    1160                            .dwattr $C$DW$T$179, DW_AT_decl_line(0x6e)
    1161                            .dwattr $C$DW$T$179, DW_AT_decl_column(0x1a)
    1162                    
    1163                    $C$DW$T$10      .dwtag  DW_TAG_base_type
    1164                            .dwattr $C$DW$T$10, DW_AT_encoding(DW_ATE_signed)
    1165                            .dwattr $C$DW$T$10, DW_AT_name("int")
    1166                            .dwattr $C$DW$T$10, DW_AT_byte_size(0x04)
    1167                    
    1168                    $C$DW$T$180     .dwtag  DW_TAG_typedef
    1169                            .dwattr $C$DW$T$180, DW_AT_name("_Mbstatet")
    1170                            .dwattr $C$DW$T$180, DW_AT_type(*$C$DW$T$10)
    1171                            .dwattr $C$DW$T$180, DW_AT_language(DW_LANG_C)
    1172                            .dwattr $C$DW$T$180, DW_AT_decl_file("C:/ti/ccsv8/tools/compiler/ti-cgt-arm_18.1.3.LTS/include
    1173                            .dwattr $C$DW$T$180, DW_AT_decl_line(0x84)
    1174                            .dwattr $C$DW$T$180, DW_AT_decl_column(0x0d)
    1175                    
    1176                    $C$DW$T$181     .dwtag  DW_TAG_typedef
    1177                            .dwattr $C$DW$T$181, DW_AT_name("__mbstate_t")
    1178                            .dwattr $C$DW$T$181, DW_AT_type(*$C$DW$T$180)
    1179                            .dwattr $C$DW$T$181, DW_AT_language(DW_LANG_C)
    1180                            .dwattr $C$DW$T$181, DW_AT_decl_file("C:/ti/ccsv8/tools/compiler/ti-cgt-arm_18.1.3.LTS/include
    1181                            .dwattr $C$DW$T$181, DW_AT_decl_line(0x87)
    1182                            .dwattr $C$DW$T$181, DW_AT_decl_column(0x13)
    1183                    
    1184                    $C$DW$T$182     .dwtag  DW_TAG_typedef
    1185                            .dwattr $C$DW$T$182, DW_AT_name("__accmode_t")
    1186                            .dwattr $C$DW$T$182, DW_AT_type(*$C$DW$T$10)
    1187                            .dwattr $C$DW$T$182, DW_AT_language(DW_LANG_C)
    1188                            .dwattr $C$DW$T$182, DW_AT_decl_file("C:/ti/ccsv8/tools/compiler/ti-cgt-arm_18.1.3.LTS/include
    1189                            .dwattr $C$DW$T$182, DW_AT_decl_line(0x3a)
    1190                            .dwattr $C$DW$T$182, DW_AT_decl_column(0x0e)
    1191                    
    1192                    
    1193                    $C$DW$T$183     .dwtag  DW_TAG_subroutine_type
    1194                            .dwattr $C$DW$T$183, DW_AT_type(*$C$DW$T$10)
    1195                            .dwattr $C$DW$T$183, DW_AT_language(DW_LANG_C)
    1196                    $C$DW$51        .dwtag  DW_TAG_formal_parameter
    1197                            .dwattr $C$DW$51, DW_AT_type(*$C$DW$T$126)
    1198                    
    1199                    $C$DW$52        .dwtag  DW_TAG_formal_parameter
    1200                            .dwattr $C$DW$52, DW_AT_type(*$C$DW$T$126)
    1201                    
    1202                            .dwendtag $C$DW$T$183
    1203                    
    1204                    $C$DW$T$184     .dwtag  DW_TAG_pointer_type
    1205                            .dwattr $C$DW$T$184, DW_AT_type(*$C$DW$T$183)
    1206                            .dwattr $C$DW$T$184, DW_AT_address_class(0x20)
    1207                    
    1208                    $C$DW$T$185     .dwtag  DW_TAG_typedef
TI ARM Assembler PC v18.1.3 Wed Nov 28 13:22:08 2018

Tools Copyright (c) 1996-2017 Texas Instruments Incorporated
C:\Users\Adrian\AppData\Local\Temp\{9AD3DFEE-EA71-445C-92FF-0A88F830FC75} PAGE   23

    1209                            .dwattr $C$DW$T$185, DW_AT_name("__TI_compar_fn")
    1210                            .dwattr $C$DW$T$185, DW_AT_type(*$C$DW$T$184)
    1211                            .dwattr $C$DW$T$185, DW_AT_language(DW_LANG_C)
    1212                            .dwattr $C$DW$T$185, DW_AT_decl_file("C:/ti/ccsv8/tools/compiler/ti-cgt-arm_18.1.3.LTS/include
    1213                            .dwattr $C$DW$T$185, DW_AT_decl_line(0xb5)
    1214                            .dwattr $C$DW$T$185, DW_AT_decl_column(0x13)
    1215                    
    1216                    $C$DW$T$188     .dwtag  DW_TAG_typedef
    1217                            .dwattr $C$DW$T$188, DW_AT_name("__cpulevel_t")
    1218                            .dwattr $C$DW$T$188, DW_AT_type(*$C$DW$T$10)
    1219                            .dwattr $C$DW$T$188, DW_AT_language(DW_LANG_C)
    1220                            .dwattr $C$DW$T$188, DW_AT_decl_file("C:/ti/ccsv8/tools/compiler/ti-cgt-arm_18.1.3.LTS/include
    1221                            .dwattr $C$DW$T$188, DW_AT_decl_line(0x4b)
    1222                            .dwattr $C$DW$T$188, DW_AT_decl_column(0x0e)
    1223                    
    1224                    $C$DW$T$189     .dwtag  DW_TAG_typedef
    1225                            .dwattr $C$DW$T$189, DW_AT_name("__cpusetid_t")
    1226                            .dwattr $C$DW$T$189, DW_AT_type(*$C$DW$T$10)
    1227                            .dwattr $C$DW$T$189, DW_AT_language(DW_LANG_C)
    1228                            .dwattr $C$DW$T$189, DW_AT_decl_file("C:/ti/ccsv8/tools/compiler/ti-cgt-arm_18.1.3.LTS/include
    1229                            .dwattr $C$DW$T$189, DW_AT_decl_line(0x4c)
    1230                            .dwattr $C$DW$T$189, DW_AT_decl_column(0x0e)
    1231                    
    1232                    $C$DW$T$190     .dwtag  DW_TAG_typedef
    1233                            .dwattr $C$DW$T$190, DW_AT_name("__cpuwhich_t")
    1234                            .dwattr $C$DW$T$190, DW_AT_type(*$C$DW$T$10)
    1235                            .dwattr $C$DW$T$190, DW_AT_language(DW_LANG_C)
    1236                            .dwattr $C$DW$T$190, DW_AT_decl_file("C:/ti/ccsv8/tools/compiler/ti-cgt-arm_18.1.3.LTS/include
    1237                            .dwattr $C$DW$T$190, DW_AT_decl_line(0x4a)
    1238                            .dwattr $C$DW$T$190, DW_AT_decl_column(0x0e)
    1239                    
    1240                    $C$DW$T$191     .dwtag  DW_TAG_typedef
    1241                            .dwattr $C$DW$T$191, DW_AT_name("__ct_rune_t")
    1242                            .dwattr $C$DW$T$191, DW_AT_type(*$C$DW$T$10)
    1243                            .dwattr $C$DW$T$191, DW_AT_language(DW_LANG_C)
    1244                            .dwattr $C$DW$T$191, DW_AT_decl_file("C:/ti/ccsv8/tools/compiler/ti-cgt-arm_18.1.3.LTS/include
    1245                            .dwattr $C$DW$T$191, DW_AT_decl_line(0x60)
    1246                            .dwattr $C$DW$T$191, DW_AT_decl_column(0x0e)
    1247                    
    1248                    $C$DW$T$192     .dwtag  DW_TAG_typedef
    1249                            .dwattr $C$DW$T$192, DW_AT_name("__rune_t")
    1250                            .dwattr $C$DW$T$192, DW_AT_type(*$C$DW$T$191)
    1251                            .dwattr $C$DW$T$192, DW_AT_language(DW_LANG_C)
    1252                            .dwattr $C$DW$T$192, DW_AT_decl_file("C:/ti/ccsv8/tools/compiler/ti-cgt-arm_18.1.3.LTS/include
    1253                            .dwattr $C$DW$T$192, DW_AT_decl_line(0x61)
    1254                            .dwattr $C$DW$T$192, DW_AT_decl_column(0x15)
    1255                    
    1256                    $C$DW$T$193     .dwtag  DW_TAG_typedef
    1257                            .dwattr $C$DW$T$193, DW_AT_name("__wint_t")
    1258                            .dwattr $C$DW$T$193, DW_AT_type(*$C$DW$T$191)
    1259                            .dwattr $C$DW$T$193, DW_AT_language(DW_LANG_C)
    1260                            .dwattr $C$DW$T$193, DW_AT_decl_file("C:/ti/ccsv8/tools/compiler/ti-cgt-arm_18.1.3.LTS/include
    1261                            .dwattr $C$DW$T$193, DW_AT_decl_line(0x62)
    1262                            .dwattr $C$DW$T$193, DW_AT_decl_column(0x15)
    1263                    
TI ARM Assembler PC v18.1.3 Wed Nov 28 13:22:08 2018

Tools Copyright (c) 1996-2017 Texas Instruments Incorporated
C:\Users\Adrian\AppData\Local\Temp\{9AD3DFEE-EA71-445C-92FF-0A88F830FC75} PAGE   24

    1264                    $C$DW$T$54      .dwtag  DW_TAG_typedef
    1265                            .dwattr $C$DW$T$54, DW_AT_name("__int32_t")
    1266                            .dwattr $C$DW$T$54, DW_AT_type(*$C$DW$T$10)
    1267                            .dwattr $C$DW$T$54, DW_AT_language(DW_LANG_C)
    1268                            .dwattr $C$DW$T$54, DW_AT_decl_file("C:/ti/ccsv8/tools/compiler/ti-cgt-arm_18.1.3.LTS/include/
    1269                            .dwattr $C$DW$T$54, DW_AT_decl_line(0x3d)
    1270                            .dwattr $C$DW$T$54, DW_AT_decl_column(0x0f)
    1271                    
    1272                    $C$DW$T$194     .dwtag  DW_TAG_typedef
    1273                            .dwattr $C$DW$T$194, DW_AT_name("__blksize_t")
    1274                            .dwattr $C$DW$T$194, DW_AT_type(*$C$DW$T$54)
    1275                            .dwattr $C$DW$T$194, DW_AT_language(DW_LANG_C)
    1276                            .dwattr $C$DW$T$194, DW_AT_decl_file("C:/ti/ccsv8/tools/compiler/ti-cgt-arm_18.1.3.LTS/include
    1277                            .dwattr $C$DW$T$194, DW_AT_decl_line(0x2e)
    1278                            .dwattr $C$DW$T$194, DW_AT_decl_column(0x13)
    1279                    
    1280                    $C$DW$T$195     .dwtag  DW_TAG_typedef
    1281                            .dwattr $C$DW$T$195, DW_AT_name("__clockid_t")
    1282                            .dwattr $C$DW$T$195, DW_AT_type(*$C$DW$T$54)
    1283                            .dwattr $C$DW$T$195, DW_AT_language(DW_LANG_C)
    1284                            .dwattr $C$DW$T$195, DW_AT_decl_file("C:/ti/ccsv8/tools/compiler/ti-cgt-arm_18.1.3.LTS/include
    1285                            .dwattr $C$DW$T$195, DW_AT_decl_line(0x30)
    1286                            .dwattr $C$DW$T$195, DW_AT_decl_column(0x13)
    1287                    
    1288                    $C$DW$T$196     .dwtag  DW_TAG_typedef
    1289                            .dwattr $C$DW$T$196, DW_AT_name("__critical_t")
    1290                            .dwattr $C$DW$T$196, DW_AT_type(*$C$DW$T$54)
    1291                            .dwattr $C$DW$T$196, DW_AT_language(DW_LANG_C)
    1292                            .dwattr $C$DW$T$196, DW_AT_decl_file("C:/ti/ccsv8/tools/compiler/ti-cgt-arm_18.1.3.LTS/include
    1293                            .dwattr $C$DW$T$196, DW_AT_decl_line(0x4e)
    1294                            .dwattr $C$DW$T$196, DW_AT_decl_column(0x13)
    1295                    
    1296                    $C$DW$T$55      .dwtag  DW_TAG_typedef
    1297                            .dwattr $C$DW$T$55, DW_AT_name("__int_fast16_t")
    1298                            .dwattr $C$DW$T$55, DW_AT_type(*$C$DW$T$54)
    1299                            .dwattr $C$DW$T$55, DW_AT_language(DW_LANG_C)
    1300                            .dwattr $C$DW$T$55, DW_AT_decl_file("C:/ti/ccsv8/tools/compiler/ti-cgt-arm_18.1.3.LTS/include/
    1301                            .dwattr $C$DW$T$55, DW_AT_decl_line(0x55)
    1302                            .dwattr $C$DW$T$55, DW_AT_decl_column(0x13)
    1303                    
    1304                    $C$DW$T$56      .dwtag  DW_TAG_typedef
    1305                            .dwattr $C$DW$T$56, DW_AT_name("int_fast16_t")
    1306                            .dwattr $C$DW$T$56, DW_AT_type(*$C$DW$T$55)
    1307                            .dwattr $C$DW$T$56, DW_AT_language(DW_LANG_C)
    1308                            .dwattr $C$DW$T$56, DW_AT_decl_file("C:/ti/ccsv8/tools/compiler/ti-cgt-arm_18.1.3.LTS/include/
    1309                            .dwattr $C$DW$T$56, DW_AT_decl_line(0x33)
    1310                            .dwattr $C$DW$T$56, DW_AT_decl_column(0x19)
    1311                    
    1312                    $C$DW$T$57      .dwtag  DW_TAG_typedef
    1313                            .dwattr $C$DW$T$57, DW_AT_name("ICall_Errno")
    1314                            .dwattr $C$DW$T$57, DW_AT_type(*$C$DW$T$56)
    1315                            .dwattr $C$DW$T$57, DW_AT_language(DW_LANG_C)
    1316                            .dwattr $C$DW$T$57, DW_AT_decl_file("C:/ti/simplelink_cc13x0_sdk_2_30_00_20/source/ti/ti154sta
    1317                            .dwattr $C$DW$T$57, DW_AT_decl_line(0x19e)
    1318                            .dwattr $C$DW$T$57, DW_AT_decl_column(0x16)
TI ARM Assembler PC v18.1.3 Wed Nov 28 13:22:08 2018

Tools Copyright (c) 1996-2017 Texas Instruments Incorporated
C:\Users\Adrian\AppData\Local\Temp\{9AD3DFEE-EA71-445C-92FF-0A88F830FC75} PAGE   25

    1319                    
    1320                    
    1321                    $C$DW$T$59      .dwtag  DW_TAG_subroutine_type
    1322                            .dwattr $C$DW$T$59, DW_AT_type(*$C$DW$T$57)
    1323                            .dwattr $C$DW$T$59, DW_AT_language(DW_LANG_C)
    1324                    $C$DW$53        .dwtag  DW_TAG_formal_parameter
    1325                            .dwattr $C$DW$53, DW_AT_type(*$C$DW$T$58)
    1326                    
    1327                            .dwendtag $C$DW$T$59
    1328                    
    1329                    $C$DW$T$60      .dwtag  DW_TAG_pointer_type
    1330                            .dwattr $C$DW$T$60, DW_AT_type(*$C$DW$T$59)
    1331                            .dwattr $C$DW$T$60, DW_AT_address_class(0x20)
    1332                    
    1333                    $C$DW$T$103     .dwtag  DW_TAG_typedef
    1334                            .dwattr $C$DW$T$103, DW_AT_name("ICall_Dispatcher")
    1335                            .dwattr $C$DW$T$103, DW_AT_type(*$C$DW$T$60)
    1336                            .dwattr $C$DW$T$103, DW_AT_language(DW_LANG_C)
    1337                            .dwattr $C$DW$T$103, DW_AT_decl_file("C:/ti/simplelink_cc13x0_sdk_2_30_00_20/source/ti/ti154st
    1338                            .dwattr $C$DW$T$103, DW_AT_decl_line(0x36c)
    1339                            .dwattr $C$DW$T$103, DW_AT_decl_column(0x17)
    1340                    
    1341                    $C$DW$T$61      .dwtag  DW_TAG_typedef
    1342                            .dwattr $C$DW$T$61, DW_AT_name("ICall_ServiceFunc")
    1343                            .dwattr $C$DW$T$61, DW_AT_type(*$C$DW$T$60)
    1344                            .dwattr $C$DW$T$61, DW_AT_language(DW_LANG_C)
    1345                            .dwattr $C$DW$T$61, DW_AT_decl_file("C:/ti/simplelink_cc13x0_sdk_2_30_00_20/source/ti/ti154sta
    1346                            .dwattr $C$DW$T$61, DW_AT_decl_line(0x3a3)
    1347                            .dwattr $C$DW$T$61, DW_AT_decl_column(0x17)
    1348                    
    1349                    $C$DW$T$197     .dwtag  DW_TAG_typedef
    1350                            .dwattr $C$DW$T$197, DW_AT_name("__int_fast32_t")
    1351                            .dwattr $C$DW$T$197, DW_AT_type(*$C$DW$T$54)
    1352                            .dwattr $C$DW$T$197, DW_AT_language(DW_LANG_C)
    1353                            .dwattr $C$DW$T$197, DW_AT_decl_file("C:/ti/ccsv8/tools/compiler/ti-cgt-arm_18.1.3.LTS/include
    1354                            .dwattr $C$DW$T$197, DW_AT_decl_line(0x56)
    1355                            .dwattr $C$DW$T$197, DW_AT_decl_column(0x13)
    1356                    
    1357                    $C$DW$T$198     .dwtag  DW_TAG_typedef
    1358                            .dwattr $C$DW$T$198, DW_AT_name("int_fast32_t")
    1359                            .dwattr $C$DW$T$198, DW_AT_type(*$C$DW$T$197)
    1360                            .dwattr $C$DW$T$198, DW_AT_language(DW_LANG_C)
    1361                            .dwattr $C$DW$T$198, DW_AT_decl_file("C:/ti/ccsv8/tools/compiler/ti-cgt-arm_18.1.3.LTS/include
    1362                            .dwattr $C$DW$T$198, DW_AT_decl_line(0x34)
    1363                            .dwattr $C$DW$T$198, DW_AT_decl_column(0x19)
    1364                    
    1365                    $C$DW$T$199     .dwtag  DW_TAG_typedef
    1366                            .dwattr $C$DW$T$199, DW_AT_name("__int_fast8_t")
    1367                            .dwattr $C$DW$T$199, DW_AT_type(*$C$DW$T$54)
    1368                            .dwattr $C$DW$T$199, DW_AT_language(DW_LANG_C)
    1369                            .dwattr $C$DW$T$199, DW_AT_decl_file("C:/ti/ccsv8/tools/compiler/ti-cgt-arm_18.1.3.LTS/include
    1370                            .dwattr $C$DW$T$199, DW_AT_decl_line(0x54)
    1371                            .dwattr $C$DW$T$199, DW_AT_decl_column(0x13)
    1372                    
    1373                    $C$DW$T$200     .dwtag  DW_TAG_typedef
TI ARM Assembler PC v18.1.3 Wed Nov 28 13:22:08 2018

Tools Copyright (c) 1996-2017 Texas Instruments Incorporated
C:\Users\Adrian\AppData\Local\Temp\{9AD3DFEE-EA71-445C-92FF-0A88F830FC75} PAGE   26

    1374                            .dwattr $C$DW$T$200, DW_AT_name("int_fast8_t")
    1375                            .dwattr $C$DW$T$200, DW_AT_type(*$C$DW$T$199)
    1376                            .dwattr $C$DW$T$200, DW_AT_language(DW_LANG_C)
    1377                            .dwattr $C$DW$T$200, DW_AT_decl_file("C:/ti/ccsv8/tools/compiler/ti-cgt-arm_18.1.3.LTS/include
    1378                            .dwattr $C$DW$T$200, DW_AT_decl_line(0x32)
    1379                            .dwattr $C$DW$T$200, DW_AT_decl_column(0x18)
    1380                    
    1381                    $C$DW$T$74      .dwtag  DW_TAG_typedef
    1382                            .dwattr $C$DW$T$74, DW_AT_name("__int_least32_t")
    1383                            .dwattr $C$DW$T$74, DW_AT_type(*$C$DW$T$54)
    1384                            .dwattr $C$DW$T$74, DW_AT_language(DW_LANG_C)
    1385                            .dwattr $C$DW$T$74, DW_AT_decl_file("C:/ti/ccsv8/tools/compiler/ti-cgt-arm_18.1.3.LTS/include/
    1386                            .dwattr $C$DW$T$74, DW_AT_decl_line(0x5a)
    1387                            .dwattr $C$DW$T$74, DW_AT_decl_column(0x13)
    1388                    
    1389                    $C$DW$T$75      .dwtag  DW_TAG_typedef
    1390                            .dwattr $C$DW$T$75, DW_AT_name("int_least32_t")
    1391                            .dwattr $C$DW$T$75, DW_AT_type(*$C$DW$T$74)
    1392                            .dwattr $C$DW$T$75, DW_AT_language(DW_LANG_C)
    1393                            .dwattr $C$DW$T$75, DW_AT_decl_file("C:/ti/ccsv8/tools/compiler/ti-cgt-arm_18.1.3.LTS/include/
    1394                            .dwattr $C$DW$T$75, DW_AT_decl_line(0x2a)
    1395                            .dwattr $C$DW$T$75, DW_AT_decl_column(0x1a)
    1396                    
    1397                    $C$DW$T$201     .dwtag  DW_TAG_typedef
    1398                            .dwattr $C$DW$T$201, DW_AT_name("__intfptr_t")
    1399                            .dwattr $C$DW$T$201, DW_AT_type(*$C$DW$T$54)
    1400                            .dwattr $C$DW$T$201, DW_AT_language(DW_LANG_C)
    1401                            .dwattr $C$DW$T$201, DW_AT_decl_file("C:/ti/ccsv8/tools/compiler/ti-cgt-arm_18.1.3.LTS/include
    1402                            .dwattr $C$DW$T$201, DW_AT_decl_line(0x51)
    1403                            .dwattr $C$DW$T$201, DW_AT_decl_column(0x13)
    1404                    
    1405                    $C$DW$T$202     .dwtag  DW_TAG_typedef
    1406                            .dwattr $C$DW$T$202, DW_AT_name("__intptr_t")
    1407                            .dwattr $C$DW$T$202, DW_AT_type(*$C$DW$T$54)
    1408                            .dwattr $C$DW$T$202, DW_AT_language(DW_LANG_C)
    1409                            .dwattr $C$DW$T$202, DW_AT_decl_file("C:/ti/ccsv8/tools/compiler/ti-cgt-arm_18.1.3.LTS/include
    1410                            .dwattr $C$DW$T$202, DW_AT_decl_line(0x53)
    1411                            .dwattr $C$DW$T$202, DW_AT_decl_column(0x13)
    1412                    
    1413                    $C$DW$T$203     .dwtag  DW_TAG_typedef
    1414                            .dwattr $C$DW$T$203, DW_AT_name("intptr_t")
    1415                            .dwattr $C$DW$T$203, DW_AT_type(*$C$DW$T$202)
    1416                            .dwattr $C$DW$T$203, DW_AT_language(DW_LANG_C)
    1417                            .dwattr $C$DW$T$203, DW_AT_decl_file("C:/ti/ccsv8/tools/compiler/ti-cgt-arm_18.1.3.LTS/include
    1418                            .dwattr $C$DW$T$203, DW_AT_decl_line(0x4c)
    1419                            .dwattr $C$DW$T$203, DW_AT_decl_column(0x15)
    1420                    
    1421                    $C$DW$T$204     .dwtag  DW_TAG_typedef
    1422                            .dwattr $C$DW$T$204, DW_AT_name("__lwpid_t")
    1423                            .dwattr $C$DW$T$204, DW_AT_type(*$C$DW$T$54)
    1424                            .dwattr $C$DW$T$204, DW_AT_language(DW_LANG_C)
    1425                            .dwattr $C$DW$T$204, DW_AT_decl_file("C:/ti/ccsv8/tools/compiler/ti-cgt-arm_18.1.3.LTS/include
    1426                            .dwattr $C$DW$T$204, DW_AT_decl_line(0x38)
    1427                            .dwattr $C$DW$T$204, DW_AT_decl_column(0x13)
    1428                    
TI ARM Assembler PC v18.1.3 Wed Nov 28 13:22:08 2018

Tools Copyright (c) 1996-2017 Texas Instruments Incorporated
C:\Users\Adrian\AppData\Local\Temp\{9AD3DFEE-EA71-445C-92FF-0A88F830FC75} PAGE   27

    1429                    $C$DW$T$205     .dwtag  DW_TAG_typedef
    1430                            .dwattr $C$DW$T$205, DW_AT_name("__pid_t")
    1431                            .dwattr $C$DW$T$205, DW_AT_type(*$C$DW$T$54)
    1432                            .dwattr $C$DW$T$205, DW_AT_language(DW_LANG_C)
    1433                            .dwattr $C$DW$T$205, DW_AT_decl_file("C:/ti/ccsv8/tools/compiler/ti-cgt-arm_18.1.3.LTS/include
    1434                            .dwattr $C$DW$T$205, DW_AT_decl_line(0x3f)
    1435                            .dwattr $C$DW$T$205, DW_AT_decl_column(0x13)
    1436                    
    1437                    $C$DW$T$206     .dwtag  DW_TAG_typedef
    1438                            .dwattr $C$DW$T$206, DW_AT_name("__ptrdiff_t")
    1439                            .dwattr $C$DW$T$206, DW_AT_type(*$C$DW$T$54)
    1440                            .dwattr $C$DW$T$206, DW_AT_language(DW_LANG_C)
    1441                            .dwattr $C$DW$T$206, DW_AT_decl_file("C:/ti/ccsv8/tools/compiler/ti-cgt-arm_18.1.3.LTS/include
    1442                            .dwattr $C$DW$T$206, DW_AT_decl_line(0x5c)
    1443                            .dwattr $C$DW$T$206, DW_AT_decl_column(0x13)
    1444                    
    1445                    $C$DW$T$207     .dwtag  DW_TAG_typedef
    1446                            .dwattr $C$DW$T$207, DW_AT_name("__register_t")
    1447                            .dwattr $C$DW$T$207, DW_AT_type(*$C$DW$T$54)
    1448                            .dwattr $C$DW$T$207, DW_AT_language(DW_LANG_C)
    1449                            .dwattr $C$DW$T$207, DW_AT_decl_file("C:/ti/ccsv8/tools/compiler/ti-cgt-arm_18.1.3.LTS/include
    1450                            .dwattr $C$DW$T$207, DW_AT_decl_line(0x5d)
    1451                            .dwattr $C$DW$T$207, DW_AT_decl_column(0x13)
    1452                    
    1453                    $C$DW$T$208     .dwtag  DW_TAG_typedef
    1454                            .dwattr $C$DW$T$208, DW_AT_name("__segsz_t")
    1455                            .dwattr $C$DW$T$208, DW_AT_type(*$C$DW$T$54)
    1456                            .dwattr $C$DW$T$208, DW_AT_language(DW_LANG_C)
    1457                            .dwattr $C$DW$T$208, DW_AT_decl_file("C:/ti/ccsv8/tools/compiler/ti-cgt-arm_18.1.3.LTS/include
    1458                            .dwattr $C$DW$T$208, DW_AT_decl_line(0x5e)
    1459                            .dwattr $C$DW$T$208, DW_AT_decl_column(0x13)
    1460                    
    1461                    $C$DW$T$209     .dwtag  DW_TAG_typedef
    1462                            .dwattr $C$DW$T$209, DW_AT_name("__ssize_t")
    1463                            .dwattr $C$DW$T$209, DW_AT_type(*$C$DW$T$54)
    1464                            .dwattr $C$DW$T$209, DW_AT_language(DW_LANG_C)
    1465                            .dwattr $C$DW$T$209, DW_AT_decl_file("C:/ti/ccsv8/tools/compiler/ti-cgt-arm_18.1.3.LTS/include
    1466                            .dwattr $C$DW$T$209, DW_AT_decl_line(0x60)
    1467                            .dwattr $C$DW$T$209, DW_AT_decl_column(0x13)
    1468                    
    1469                    $C$DW$T$210     .dwtag  DW_TAG_typedef
    1470                            .dwattr $C$DW$T$210, DW_AT_name("int32_t")
    1471                            .dwattr $C$DW$T$210, DW_AT_type(*$C$DW$T$54)
    1472                            .dwattr $C$DW$T$210, DW_AT_language(DW_LANG_C)
    1473                            .dwattr $C$DW$T$210, DW_AT_decl_file("C:/ti/ccsv8/tools/compiler/ti-cgt-arm_18.1.3.LTS/include
    1474                            .dwattr $C$DW$T$210, DW_AT_decl_line(0x2e)
    1475                            .dwattr $C$DW$T$210, DW_AT_decl_column(0x14)
    1476                    
    1477                    $C$DW$T$211     .dwtag  DW_TAG_typedef
    1478                            .dwattr $C$DW$T$211, DW_AT_name("__nl_item")
    1479                            .dwattr $C$DW$T$211, DW_AT_type(*$C$DW$T$10)
    1480                            .dwattr $C$DW$T$211, DW_AT_language(DW_LANG_C)
    1481                            .dwattr $C$DW$T$211, DW_AT_decl_file("C:/ti/ccsv8/tools/compiler/ti-cgt-arm_18.1.3.LTS/include
    1482                            .dwattr $C$DW$T$211, DW_AT_decl_line(0x3b)
    1483                            .dwattr $C$DW$T$211, DW_AT_decl_column(0x0e)
TI ARM Assembler PC v18.1.3 Wed Nov 28 13:22:08 2018

Tools Copyright (c) 1996-2017 Texas Instruments Incorporated
C:\Users\Adrian\AppData\Local\Temp\{9AD3DFEE-EA71-445C-92FF-0A88F830FC75} PAGE   28

    1484                    
    1485                    $C$DW$T$11      .dwtag  DW_TAG_base_type
    1486                            .dwattr $C$DW$T$11, DW_AT_encoding(DW_ATE_unsigned)
    1487                            .dwattr $C$DW$T$11, DW_AT_name("unsigned int")
    1488                            .dwattr $C$DW$T$11, DW_AT_byte_size(0x04)
    1489                    
    1490                    $C$DW$T$25      .dwtag  DW_TAG_typedef
    1491                            .dwattr $C$DW$T$25, DW_AT_name("__uint32_t")
    1492                            .dwattr $C$DW$T$25, DW_AT_type(*$C$DW$T$11)
    1493                            .dwattr $C$DW$T$25, DW_AT_language(DW_LANG_C)
    1494                            .dwattr $C$DW$T$25, DW_AT_decl_file("C:/ti/ccsv8/tools/compiler/ti-cgt-arm_18.1.3.LTS/include/
    1495                            .dwattr $C$DW$T$25, DW_AT_decl_line(0x3e)
    1496                            .dwattr $C$DW$T$25, DW_AT_decl_column(0x17)
    1497                    
    1498                    $C$DW$T$212     .dwtag  DW_TAG_typedef
    1499                            .dwattr $C$DW$T$212, DW_AT_name("__clock_t")
    1500                            .dwattr $C$DW$T$212, DW_AT_type(*$C$DW$T$25)
    1501                            .dwattr $C$DW$T$212, DW_AT_language(DW_LANG_C)
    1502                            .dwattr $C$DW$T$212, DW_AT_decl_file("C:/ti/ccsv8/tools/compiler/ti-cgt-arm_18.1.3.LTS/include
    1503                            .dwattr $C$DW$T$212, DW_AT_decl_line(0x4d)
    1504                            .dwattr $C$DW$T$212, DW_AT_decl_column(0x14)
    1505                    
    1506                    $C$DW$T$213     .dwtag  DW_TAG_typedef
    1507                            .dwattr $C$DW$T$213, DW_AT_name("__fflags_t")
    1508                            .dwattr $C$DW$T$213, DW_AT_type(*$C$DW$T$25)
    1509                            .dwattr $C$DW$T$213, DW_AT_language(DW_LANG_C)
    1510                            .dwattr $C$DW$T$213, DW_AT_decl_file("C:/ti/ccsv8/tools/compiler/ti-cgt-arm_18.1.3.LTS/include
    1511                            .dwattr $C$DW$T$213, DW_AT_decl_line(0x31)
    1512                            .dwattr $C$DW$T$213, DW_AT_decl_column(0x14)
    1513                    
    1514                    $C$DW$T$214     .dwtag  DW_TAG_typedef
    1515                            .dwattr $C$DW$T$214, DW_AT_name("__fixpt_t")
    1516                            .dwattr $C$DW$T$214, DW_AT_type(*$C$DW$T$25)
    1517                            .dwattr $C$DW$T$214, DW_AT_language(DW_LANG_C)
    1518                            .dwattr $C$DW$T$214, DW_AT_decl_file("C:/ti/ccsv8/tools/compiler/ti-cgt-arm_18.1.3.LTS/include
    1519                            .dwattr $C$DW$T$214, DW_AT_decl_line(0x76)
    1520                            .dwattr $C$DW$T$214, DW_AT_decl_column(0x14)
    1521                    
    1522                    $C$DW$T$215     .dwtag  DW_TAG_typedef
    1523                            .dwattr $C$DW$T$215, DW_AT_name("__gid_t")
    1524                            .dwattr $C$DW$T$215, DW_AT_type(*$C$DW$T$25)
    1525                            .dwattr $C$DW$T$215, DW_AT_language(DW_LANG_C)
    1526                            .dwattr $C$DW$T$215, DW_AT_decl_file("C:/ti/ccsv8/tools/compiler/ti-cgt-arm_18.1.3.LTS/include
    1527                            .dwattr $C$DW$T$215, DW_AT_decl_line(0x34)
    1528                            .dwattr $C$DW$T$215, DW_AT_decl_column(0x14)
    1529                    
    1530                    $C$DW$T$216     .dwtag  DW_TAG_typedef
    1531                            .dwattr $C$DW$T$216, DW_AT_name("__size_t")
    1532                            .dwattr $C$DW$T$216, DW_AT_type(*$C$DW$T$25)
    1533                            .dwattr $C$DW$T$216, DW_AT_language(DW_LANG_C)
    1534                            .dwattr $C$DW$T$216, DW_AT_decl_file("C:/ti/ccsv8/tools/compiler/ti-cgt-arm_18.1.3.LTS/include
    1535                            .dwattr $C$DW$T$216, DW_AT_decl_line(0x5f)
    1536                            .dwattr $C$DW$T$216, DW_AT_decl_column(0x14)
    1537                    
    1538                    $C$DW$T$217     .dwtag  DW_TAG_typedef
TI ARM Assembler PC v18.1.3 Wed Nov 28 13:22:08 2018

Tools Copyright (c) 1996-2017 Texas Instruments Incorporated
C:\Users\Adrian\AppData\Local\Temp\{9AD3DFEE-EA71-445C-92FF-0A88F830FC75} PAGE   29

    1539                            .dwattr $C$DW$T$217, DW_AT_name("__socklen_t")
    1540                            .dwattr $C$DW$T$217, DW_AT_type(*$C$DW$T$25)
    1541                            .dwattr $C$DW$T$217, DW_AT_language(DW_LANG_C)
    1542                            .dwattr $C$DW$T$217, DW_AT_decl_file("C:/ti/ccsv8/tools/compiler/ti-cgt-arm_18.1.3.LTS/include
    1543                            .dwattr $C$DW$T$217, DW_AT_decl_line(0x44)
    1544                            .dwattr $C$DW$T$217, DW_AT_decl_column(0x14)
    1545                    
    1546                    $C$DW$T$218     .dwtag  DW_TAG_typedef
    1547                            .dwattr $C$DW$T$218, DW_AT_name("__time_t")
    1548                            .dwattr $C$DW$T$218, DW_AT_type(*$C$DW$T$25)
    1549                            .dwattr $C$DW$T$218, DW_AT_language(DW_LANG_C)
    1550                            .dwattr $C$DW$T$218, DW_AT_decl_file("C:/ti/ccsv8/tools/compiler/ti-cgt-arm_18.1.3.LTS/include
    1551                            .dwattr $C$DW$T$218, DW_AT_decl_line(0x64)
    1552                            .dwattr $C$DW$T$218, DW_AT_decl_column(0x19)
    1553                    
    1554                    $C$DW$T$219     .dwtag  DW_TAG_typedef
    1555                            .dwattr $C$DW$T$219, DW_AT_name("__u_register_t")
    1556                            .dwattr $C$DW$T$219, DW_AT_type(*$C$DW$T$25)
    1557                            .dwattr $C$DW$T$219, DW_AT_language(DW_LANG_C)
    1558                            .dwattr $C$DW$T$219, DW_AT_decl_file("C:/ti/ccsv8/tools/compiler/ti-cgt-arm_18.1.3.LTS/include
    1559                            .dwattr $C$DW$T$219, DW_AT_decl_line(0x71)
    1560                            .dwattr $C$DW$T$219, DW_AT_decl_column(0x14)
    1561                    
    1562                    $C$DW$T$220     .dwtag  DW_TAG_typedef
    1563                            .dwattr $C$DW$T$220, DW_AT_name("__uid_t")
    1564                            .dwattr $C$DW$T$220, DW_AT_type(*$C$DW$T$25)
    1565                            .dwattr $C$DW$T$220, DW_AT_language(DW_LANG_C)
    1566                            .dwattr $C$DW$T$220, DW_AT_decl_file("C:/ti/ccsv8/tools/compiler/ti-cgt-arm_18.1.3.LTS/include
    1567                            .dwattr $C$DW$T$220, DW_AT_decl_line(0x48)
    1568                            .dwattr $C$DW$T$220, DW_AT_decl_column(0x14)
    1569                    
    1570                    $C$DW$T$221     .dwtag  DW_TAG_typedef
    1571                            .dwattr $C$DW$T$221, DW_AT_name("__uint_fast16_t")
    1572                            .dwattr $C$DW$T$221, DW_AT_type(*$C$DW$T$25)
    1573                            .dwattr $C$DW$T$221, DW_AT_language(DW_LANG_C)
    1574                            .dwattr $C$DW$T$221, DW_AT_decl_file("C:/ti/ccsv8/tools/compiler/ti-cgt-arm_18.1.3.LTS/include
    1575                            .dwattr $C$DW$T$221, DW_AT_decl_line(0x6a)
    1576                            .dwattr $C$DW$T$221, DW_AT_decl_column(0x14)
    1577                    
    1578                    $C$DW$T$222     .dwtag  DW_TAG_typedef
    1579                            .dwattr $C$DW$T$222, DW_AT_name("uint_fast16_t")
    1580                            .dwattr $C$DW$T$222, DW_AT_type(*$C$DW$T$221)
    1581                            .dwattr $C$DW$T$222, DW_AT_language(DW_LANG_C)
    1582                            .dwattr $C$DW$T$222, DW_AT_decl_file("C:/ti/ccsv8/tools/compiler/ti-cgt-arm_18.1.3.LTS/include
    1583                            .dwattr $C$DW$T$222, DW_AT_decl_line(0x38)
    1584                            .dwattr $C$DW$T$222, DW_AT_decl_column(0x1a)
    1585                    
    1586                    $C$DW$T$80      .dwtag  DW_TAG_typedef
    1587                            .dwattr $C$DW$T$80, DW_AT_name("__uint_fast32_t")
    1588                            .dwattr $C$DW$T$80, DW_AT_type(*$C$DW$T$25)
    1589                            .dwattr $C$DW$T$80, DW_AT_language(DW_LANG_C)
    1590                            .dwattr $C$DW$T$80, DW_AT_decl_file("C:/ti/ccsv8/tools/compiler/ti-cgt-arm_18.1.3.LTS/include/
    1591                            .dwattr $C$DW$T$80, DW_AT_decl_line(0x6b)
    1592                            .dwattr $C$DW$T$80, DW_AT_decl_column(0x14)
    1593                    
TI ARM Assembler PC v18.1.3 Wed Nov 28 13:22:08 2018

Tools Copyright (c) 1996-2017 Texas Instruments Incorporated
C:\Users\Adrian\AppData\Local\Temp\{9AD3DFEE-EA71-445C-92FF-0A88F830FC75} PAGE   30

    1594                    $C$DW$T$81      .dwtag  DW_TAG_typedef
    1595                            .dwattr $C$DW$T$81, DW_AT_name("uint_fast32_t")
    1596                            .dwattr $C$DW$T$81, DW_AT_type(*$C$DW$T$80)
    1597                            .dwattr $C$DW$T$81, DW_AT_language(DW_LANG_C)
    1598                            .dwattr $C$DW$T$81, DW_AT_decl_file("C:/ti/ccsv8/tools/compiler/ti-cgt-arm_18.1.3.LTS/include/
    1599                            .dwattr $C$DW$T$81, DW_AT_decl_line(0x39)
    1600                            .dwattr $C$DW$T$81, DW_AT_decl_column(0x1a)
    1601                    
    1602                    $C$DW$T$82      .dwtag  DW_TAG_typedef
    1603                            .dwattr $C$DW$T$82, DW_AT_name("ICall_PwrBitmap_t")
    1604                            .dwattr $C$DW$T$82, DW_AT_type(*$C$DW$T$81)
    1605                            .dwattr $C$DW$T$82, DW_AT_language(DW_LANG_C)
    1606                            .dwattr $C$DW$T$82, DW_AT_decl_file("C:/ti/simplelink_cc13x0_sdk_2_30_00_20/source/ti/ti154sta
    1607                            .dwattr $C$DW$T$82, DW_AT_decl_line(0x287)
    1608                            .dwattr $C$DW$T$82, DW_AT_decl_column(0x17)
    1609                    
    1610                    $C$DW$T$84      .dwtag  DW_TAG_typedef
    1611                            .dwattr $C$DW$T$84, DW_AT_name("__uint_fast8_t")
    1612                            .dwattr $C$DW$T$84, DW_AT_type(*$C$DW$T$25)
    1613                            .dwattr $C$DW$T$84, DW_AT_language(DW_LANG_C)
    1614                            .dwattr $C$DW$T$84, DW_AT_decl_file("C:/ti/ccsv8/tools/compiler/ti-cgt-arm_18.1.3.LTS/include/
    1615                            .dwattr $C$DW$T$84, DW_AT_decl_line(0x69)
    1616                            .dwattr $C$DW$T$84, DW_AT_decl_column(0x14)
    1617                    
    1618                    $C$DW$T$85      .dwtag  DW_TAG_typedef
    1619                            .dwattr $C$DW$T$85, DW_AT_name("uint_fast8_t")
    1620                            .dwattr $C$DW$T$85, DW_AT_type(*$C$DW$T$84)
    1621                            .dwattr $C$DW$T$85, DW_AT_language(DW_LANG_C)
    1622                            .dwattr $C$DW$T$85, DW_AT_decl_file("C:/ti/ccsv8/tools/compiler/ti-cgt-arm_18.1.3.LTS/include/
    1623                            .dwattr $C$DW$T$85, DW_AT_decl_line(0x37)
    1624                            .dwattr $C$DW$T$85, DW_AT_decl_column(0x19)
    1625                    
    1626                    $C$DW$T$88      .dwtag  DW_TAG_typedef
    1627                            .dwattr $C$DW$T$88, DW_AT_name("ICall_PwrTransition")
    1628                            .dwattr $C$DW$T$88, DW_AT_type(*$C$DW$T$85)
    1629                            .dwattr $C$DW$T$88, DW_AT_language(DW_LANG_C)
    1630                            .dwattr $C$DW$T$88, DW_AT_decl_file("C:/ti/simplelink_cc13x0_sdk_2_30_00_20/source/ti/ti154sta
    1631                            .dwattr $C$DW$T$88, DW_AT_decl_line(0x326)
    1632                            .dwattr $C$DW$T$88, DW_AT_decl_column(0x16)
    1633                    
    1634                    $C$DW$T$26      .dwtag  DW_TAG_typedef
    1635                            .dwattr $C$DW$T$26, DW_AT_name("__uint_least32_t")
    1636                            .dwattr $C$DW$T$26, DW_AT_type(*$C$DW$T$25)
    1637                            .dwattr $C$DW$T$26, DW_AT_language(DW_LANG_C)
    1638                            .dwattr $C$DW$T$26, DW_AT_decl_file("C:/ti/ccsv8/tools/compiler/ti-cgt-arm_18.1.3.LTS/include/
    1639                            .dwattr $C$DW$T$26, DW_AT_decl_line(0x6f)
    1640                            .dwattr $C$DW$T$26, DW_AT_decl_column(0x14)
    1641                    
    1642                    $C$DW$T$223     .dwtag  DW_TAG_typedef
    1643                            .dwattr $C$DW$T$223, DW_AT_name("__char32_t")
    1644                            .dwattr $C$DW$T$223, DW_AT_type(*$C$DW$T$26)
    1645                            .dwattr $C$DW$T$223, DW_AT_language(DW_LANG_C)
    1646                            .dwattr $C$DW$T$223, DW_AT_decl_file("C:/ti/ccsv8/tools/compiler/ti-cgt-arm_18.1.3.LTS/include
    1647                            .dwattr $C$DW$T$223, DW_AT_decl_line(0x67)
    1648                            .dwattr $C$DW$T$223, DW_AT_decl_column(0x1a)
TI ARM Assembler PC v18.1.3 Wed Nov 28 13:22:08 2018

Tools Copyright (c) 1996-2017 Texas Instruments Incorporated
C:\Users\Adrian\AppData\Local\Temp\{9AD3DFEE-EA71-445C-92FF-0A88F830FC75} PAGE   31

    1649                    
    1650                    $C$DW$T$27      .dwtag  DW_TAG_typedef
    1651                            .dwattr $C$DW$T$27, DW_AT_name("uint_least32_t")
    1652                            .dwattr $C$DW$T$27, DW_AT_type(*$C$DW$T$26)
    1653                            .dwattr $C$DW$T$27, DW_AT_language(DW_LANG_C)
    1654                            .dwattr $C$DW$T$27, DW_AT_decl_file("C:/ti/ccsv8/tools/compiler/ti-cgt-arm_18.1.3.LTS/include/
    1655                            .dwattr $C$DW$T$27, DW_AT_decl_line(0x2f)
    1656                            .dwattr $C$DW$T$27, DW_AT_decl_column(0x1a)
    1657                    
    1658                    $C$DW$T$104     .dwtag  DW_TAG_typedef
    1659                            .dwattr $C$DW$T$104, DW_AT_name("ICall_CSState")
    1660                            .dwattr $C$DW$T$104, DW_AT_type(*$C$DW$T$27)
    1661                            .dwattr $C$DW$T$104, DW_AT_language(DW_LANG_C)
    1662                            .dwattr $C$DW$T$104, DW_AT_decl_file("C:/ti/simplelink_cc13x0_sdk_2_30_00_20/source/ti/ti154st
    1663                            .dwattr $C$DW$T$104, DW_AT_decl_line(0x371)
    1664                            .dwattr $C$DW$T$104, DW_AT_decl_column(0x18)
    1665                    
    1666                    
    1667                    $C$DW$T$105     .dwtag  DW_TAG_subroutine_type
    1668                            .dwattr $C$DW$T$105, DW_AT_type(*$C$DW$T$104)
    1669                            .dwattr $C$DW$T$105, DW_AT_language(DW_LANG_C)
    1670                            .dwendtag $C$DW$T$105
    1671                    
    1672                    $C$DW$T$106     .dwtag  DW_TAG_pointer_type
    1673                            .dwattr $C$DW$T$106, DW_AT_type(*$C$DW$T$105)
    1674                            .dwattr $C$DW$T$106, DW_AT_address_class(0x20)
    1675                    
    1676                    $C$DW$T$107     .dwtag  DW_TAG_typedef
    1677                            .dwattr $C$DW$T$107, DW_AT_name("ICall_EnterCS")
    1678                            .dwattr $C$DW$T$107, DW_AT_type(*$C$DW$T$106)
    1679                            .dwattr $C$DW$T$107, DW_AT_language(DW_LANG_C)
    1680                            .dwattr $C$DW$T$107, DW_AT_decl_file("C:/ti/simplelink_cc13x0_sdk_2_30_00_20/source/ti/ti154st
    1681                            .dwattr $C$DW$T$107, DW_AT_decl_line(0x377)
    1682                            .dwattr $C$DW$T$107, DW_AT_decl_column(0x19)
    1683                    
    1684                    $C$DW$T$28      .dwtag  DW_TAG_pointer_type
    1685                            .dwattr $C$DW$T$28, DW_AT_type(*$C$DW$T$27)
    1686                            .dwattr $C$DW$T$28, DW_AT_address_class(0x20)
    1687                    
    1688                    $C$DW$T$29      .dwtag  DW_TAG_typedef
    1689                            .dwattr $C$DW$T$29, DW_AT_name("icall_lite_id_t")
    1690                            .dwattr $C$DW$T$29, DW_AT_type(*$C$DW$T$27)
    1691                            .dwattr $C$DW$T$29, DW_AT_language(DW_LANG_C)
    1692                            .dwattr $C$DW$T$29, DW_AT_decl_file("C:/ti/simplelink_cc13x0_sdk_2_30_00_20/source/ti/ti154sta
    1693                            .dwattr $C$DW$T$29, DW_AT_decl_line(0x3ec)
    1694                            .dwattr $C$DW$T$29, DW_AT_decl_column(0x18)
    1695                    
    1696                    $C$DW$T$224     .dwtag  DW_TAG_typedef
    1697                            .dwattr $C$DW$T$224, DW_AT_name("__uintfptr_t")
    1698                            .dwattr $C$DW$T$224, DW_AT_type(*$C$DW$T$25)
    1699                            .dwattr $C$DW$T$224, DW_AT_language(DW_LANG_C)
    1700                            .dwattr $C$DW$T$224, DW_AT_decl_file("C:/ti/ccsv8/tools/compiler/ti-cgt-arm_18.1.3.LTS/include
    1701                            .dwattr $C$DW$T$224, DW_AT_decl_line(0x66)
    1702                            .dwattr $C$DW$T$224, DW_AT_decl_column(0x14)
    1703                    
TI ARM Assembler PC v18.1.3 Wed Nov 28 13:22:08 2018

Tools Copyright (c) 1996-2017 Texas Instruments Incorporated
C:\Users\Adrian\AppData\Local\Temp\{9AD3DFEE-EA71-445C-92FF-0A88F830FC75} PAGE   32

    1704                    $C$DW$T$225     .dwtag  DW_TAG_typedef
    1705                            .dwattr $C$DW$T$225, DW_AT_name("__uintptr_t")
    1706                            .dwattr $C$DW$T$225, DW_AT_type(*$C$DW$T$25)
    1707                            .dwattr $C$DW$T$225, DW_AT_language(DW_LANG_C)
    1708                            .dwattr $C$DW$T$225, DW_AT_decl_file("C:/ti/ccsv8/tools/compiler/ti-cgt-arm_18.1.3.LTS/include
    1709                            .dwattr $C$DW$T$225, DW_AT_decl_line(0x68)
    1710                            .dwattr $C$DW$T$225, DW_AT_decl_column(0x14)
    1711                    
    1712                    $C$DW$T$226     .dwtag  DW_TAG_typedef
    1713                            .dwattr $C$DW$T$226, DW_AT_name("uintptr_t")
    1714                            .dwattr $C$DW$T$226, DW_AT_type(*$C$DW$T$225)
    1715                            .dwattr $C$DW$T$226, DW_AT_language(DW_LANG_C)
    1716                            .dwattr $C$DW$T$226, DW_AT_decl_file("C:/ti/ccsv8/tools/compiler/ti-cgt-arm_18.1.3.LTS/include
    1717                            .dwattr $C$DW$T$226, DW_AT_decl_line(0x50)
    1718                            .dwattr $C$DW$T$226, DW_AT_decl_column(0x16)
    1719                    
    1720                    $C$DW$T$227     .dwtag  DW_TAG_typedef
    1721                            .dwattr $C$DW$T$227, DW_AT_name("__vm_offset_t")
    1722                            .dwattr $C$DW$T$227, DW_AT_type(*$C$DW$T$25)
    1723                            .dwattr $C$DW$T$227, DW_AT_language(DW_LANG_C)
    1724                            .dwattr $C$DW$T$227, DW_AT_decl_file("C:/ti/ccsv8/tools/compiler/ti-cgt-arm_18.1.3.LTS/include
    1725                            .dwattr $C$DW$T$227, DW_AT_decl_line(0x72)
    1726                            .dwattr $C$DW$T$227, DW_AT_decl_column(0x14)
    1727                    
    1728                    $C$DW$T$228     .dwtag  DW_TAG_typedef
    1729                            .dwattr $C$DW$T$228, DW_AT_name("__vm_paddr_t")
    1730                            .dwattr $C$DW$T$228, DW_AT_type(*$C$DW$T$25)
    1731                            .dwattr $C$DW$T$228, DW_AT_language(DW_LANG_C)
    1732                            .dwattr $C$DW$T$228, DW_AT_decl_file("C:/ti/ccsv8/tools/compiler/ti-cgt-arm_18.1.3.LTS/include
    1733                            .dwattr $C$DW$T$228, DW_AT_decl_line(0x73)
    1734                            .dwattr $C$DW$T$228, DW_AT_decl_column(0x14)
    1735                    
    1736                    $C$DW$T$229     .dwtag  DW_TAG_typedef
    1737                            .dwattr $C$DW$T$229, DW_AT_name("__vm_size_t")
    1738                            .dwattr $C$DW$T$229, DW_AT_type(*$C$DW$T$25)
    1739                            .dwattr $C$DW$T$229, DW_AT_language(DW_LANG_C)
    1740                            .dwattr $C$DW$T$229, DW_AT_decl_file("C:/ti/ccsv8/tools/compiler/ti-cgt-arm_18.1.3.LTS/include
    1741                            .dwattr $C$DW$T$229, DW_AT_decl_line(0x74)
    1742                            .dwattr $C$DW$T$229, DW_AT_decl_column(0x14)
    1743                    
    1744                    $C$DW$T$120     .dwtag  DW_TAG_typedef
    1745                            .dwattr $C$DW$T$120, DW_AT_name("uint32_t")
    1746                            .dwattr $C$DW$T$120, DW_AT_type(*$C$DW$T$25)
    1747                            .dwattr $C$DW$T$120, DW_AT_language(DW_LANG_C)
    1748                            .dwattr $C$DW$T$120, DW_AT_decl_file("C:/ti/ccsv8/tools/compiler/ti-cgt-arm_18.1.3.LTS/include
    1749                            .dwattr $C$DW$T$120, DW_AT_decl_line(0x42)
    1750                            .dwattr $C$DW$T$120, DW_AT_decl_column(0x15)
    1751                    
    1752                    $C$DW$T$230     .dwtag  DW_TAG_typedef
    1753                            .dwattr $C$DW$T$230, DW_AT_name("__useconds_t")
    1754                            .dwattr $C$DW$T$230, DW_AT_type(*$C$DW$T$11)
    1755                            .dwattr $C$DW$T$230, DW_AT_language(DW_LANG_C)
    1756                            .dwattr $C$DW$T$230, DW_AT_decl_file("C:/ti/ccsv8/tools/compiler/ti-cgt-arm_18.1.3.LTS/include
    1757                            .dwattr $C$DW$T$230, DW_AT_decl_line(0x49)
    1758                            .dwattr $C$DW$T$230, DW_AT_decl_column(0x16)
TI ARM Assembler PC v18.1.3 Wed Nov 28 13:22:08 2018

Tools Copyright (c) 1996-2017 Texas Instruments Incorporated
C:\Users\Adrian\AppData\Local\Temp\{9AD3DFEE-EA71-445C-92FF-0A88F830FC75} PAGE   33

    1759                    
    1760                    $C$DW$T$49      .dwtag  DW_TAG_typedef
    1761                            .dwattr $C$DW$T$49, DW_AT_name("size_t")
    1762                            .dwattr $C$DW$T$49, DW_AT_type(*$C$DW$T$11)
    1763                            .dwattr $C$DW$T$49, DW_AT_language(DW_LANG_C)
    1764                            .dwattr $C$DW$T$49, DW_AT_decl_file("C:/ti/ccsv8/tools/compiler/ti-cgt-arm_18.1.3.LTS/include/
    1765                            .dwattr $C$DW$T$49, DW_AT_decl_line(0x68)
    1766                            .dwattr $C$DW$T$49, DW_AT_decl_column(0x19)
    1767                    
    1768                    $C$DW$T$12      .dwtag  DW_TAG_base_type
    1769                            .dwattr $C$DW$T$12, DW_AT_encoding(DW_ATE_signed)
    1770                            .dwattr $C$DW$T$12, DW_AT_name("long")
    1771                            .dwattr $C$DW$T$12, DW_AT_byte_size(0x04)
    1772                    
    1773                    $C$DW$T$231     .dwtag  DW_TAG_typedef
    1774                            .dwattr $C$DW$T$231, DW_AT_name("__key_t")
    1775                            .dwattr $C$DW$T$231, DW_AT_type(*$C$DW$T$12)
    1776                            .dwattr $C$DW$T$231, DW_AT_language(DW_LANG_C)
    1777                            .dwattr $C$DW$T$231, DW_AT_decl_file("C:/ti/ccsv8/tools/compiler/ti-cgt-arm_18.1.3.LTS/include
    1778                            .dwattr $C$DW$T$231, DW_AT_decl_line(0x37)
    1779                            .dwattr $C$DW$T$231, DW_AT_decl_column(0x0f)
    1780                    
    1781                    $C$DW$T$232     .dwtag  DW_TAG_typedef
    1782                            .dwattr $C$DW$T$232, DW_AT_name("__suseconds_t")
    1783                            .dwattr $C$DW$T$232, DW_AT_type(*$C$DW$T$12)
    1784                            .dwattr $C$DW$T$232, DW_AT_language(DW_LANG_C)
    1785                            .dwattr $C$DW$T$232, DW_AT_decl_file("C:/ti/ccsv8/tools/compiler/ti-cgt-arm_18.1.3.LTS/include
    1786                            .dwattr $C$DW$T$232, DW_AT_decl_line(0x45)
    1787                            .dwattr $C$DW$T$232, DW_AT_decl_column(0x0f)
    1788                    
    1789                    $C$DW$T$233     .dwtag  DW_TAG_typedef
    1790                            .dwattr $C$DW$T$233, DW_AT_name("int32")
    1791                            .dwattr $C$DW$T$233, DW_AT_type(*$C$DW$T$12)
    1792                            .dwattr $C$DW$T$233, DW_AT_language(DW_LANG_C)
    1793                            .dwattr $C$DW$T$233, DW_AT_decl_file("C:\ti\simplelink_cc13x0_sdk_2_30_00_20\source\ti\ti154st
    1794                            .dwattr $C$DW$T$233, DW_AT_decl_line(0x3e)
    1795                            .dwattr $C$DW$T$233, DW_AT_decl_column(0x19)
    1796                    
    1797                    $C$DW$T$234     .dwtag  DW_TAG_typedef
    1798                            .dwattr $C$DW$T$234, DW_AT_name("int24")
    1799                            .dwattr $C$DW$T$234, DW_AT_type(*$C$DW$T$233)
    1800                            .dwattr $C$DW$T$234, DW_AT_language(DW_LANG_C)
    1801                            .dwattr $C$DW$T$234, DW_AT_decl_file("..\Application\MAC\OSAL\comdef.h")
    1802                            .dwattr $C$DW$T$234, DW_AT_decl_line(0x7a)
    1803                            .dwattr $C$DW$T$234, DW_AT_decl_column(0x11)
    1804                    
    1805                    $C$DW$T$13      .dwtag  DW_TAG_base_type
    1806                            .dwattr $C$DW$T$13, DW_AT_encoding(DW_ATE_unsigned)
    1807                            .dwattr $C$DW$T$13, DW_AT_name("unsigned long")
    1808                            .dwattr $C$DW$T$13, DW_AT_byte_size(0x04)
    1809                    
    1810                    $C$DW$T$235     .dwtag  DW_TAG_typedef
    1811                            .dwattr $C$DW$T$235, DW_AT_name("uint32")
    1812                            .dwattr $C$DW$T$235, DW_AT_type(*$C$DW$T$13)
    1813                            .dwattr $C$DW$T$235, DW_AT_language(DW_LANG_C)
TI ARM Assembler PC v18.1.3 Wed Nov 28 13:22:08 2018

Tools Copyright (c) 1996-2017 Texas Instruments Incorporated
C:\Users\Adrian\AppData\Local\Temp\{9AD3DFEE-EA71-445C-92FF-0A88F830FC75} PAGE   34

    1814                            .dwattr $C$DW$T$235, DW_AT_decl_file("C:\ti\simplelink_cc13x0_sdk_2_30_00_20\source\ti\ti154st
    1815                            .dwattr $C$DW$T$235, DW_AT_decl_line(0x3f)
    1816                            .dwattr $C$DW$T$235, DW_AT_decl_column(0x19)
    1817                    
    1818                    $C$DW$T$236     .dwtag  DW_TAG_typedef
    1819                            .dwattr $C$DW$T$236, DW_AT_name("halDataAlign_t")
    1820                            .dwattr $C$DW$T$236, DW_AT_type(*$C$DW$T$235)
    1821                            .dwattr $C$DW$T$236, DW_AT_language(DW_LANG_C)
    1822                            .dwattr $C$DW$T$236, DW_AT_decl_file("C:\ti\simplelink_cc13x0_sdk_2_30_00_20\source\ti\ti154st
    1823                            .dwattr $C$DW$T$236, DW_AT_decl_line(0x43)
    1824                            .dwattr $C$DW$T$236, DW_AT_decl_column(0x19)
    1825                    
    1826                    $C$DW$T$237     .dwtag  DW_TAG_typedef
    1827                            .dwattr $C$DW$T$237, DW_AT_name("uint24")
    1828                            .dwattr $C$DW$T$237, DW_AT_type(*$C$DW$T$235)
    1829                            .dwattr $C$DW$T$237, DW_AT_language(DW_LANG_C)
    1830                            .dwattr $C$DW$T$237, DW_AT_decl_file("..\Application\MAC\OSAL\comdef.h")
    1831                            .dwattr $C$DW$T$237, DW_AT_decl_line(0x7b)
    1832                            .dwattr $C$DW$T$237, DW_AT_decl_column(0x11)
    1833                    
    1834                    $C$DW$T$14      .dwtag  DW_TAG_base_type
    1835                            .dwattr $C$DW$T$14, DW_AT_encoding(DW_ATE_signed)
    1836                            .dwattr $C$DW$T$14, DW_AT_name("long long")
    1837                            .dwattr $C$DW$T$14, DW_AT_byte_size(0x08)
    1838                    
    1839                    $C$DW$T$238     .dwtag  DW_TAG_typedef
    1840                            .dwattr $C$DW$T$238, DW_AT_name("__int64_t")
    1841                            .dwattr $C$DW$T$238, DW_AT_type(*$C$DW$T$14)
    1842                            .dwattr $C$DW$T$238, DW_AT_language(DW_LANG_C)
    1843                            .dwattr $C$DW$T$238, DW_AT_decl_file("C:/ti/ccsv8/tools/compiler/ti-cgt-arm_18.1.3.LTS/include
    1844                            .dwattr $C$DW$T$238, DW_AT_decl_line(0x43)
    1845                            .dwattr $C$DW$T$238, DW_AT_decl_column(0x14)
    1846                    
    1847                    $C$DW$T$239     .dwtag  DW_TAG_typedef
    1848                            .dwattr $C$DW$T$239, DW_AT_name("__blkcnt_t")
    1849                            .dwattr $C$DW$T$239, DW_AT_type(*$C$DW$T$238)
    1850                            .dwattr $C$DW$T$239, DW_AT_language(DW_LANG_C)
    1851                            .dwattr $C$DW$T$239, DW_AT_decl_file("C:/ti/ccsv8/tools/compiler/ti-cgt-arm_18.1.3.LTS/include
    1852                            .dwattr $C$DW$T$239, DW_AT_decl_line(0x2f)
    1853                            .dwattr $C$DW$T$239, DW_AT_decl_column(0x13)
    1854                    
    1855                    $C$DW$T$240     .dwtag  DW_TAG_typedef
    1856                            .dwattr $C$DW$T$240, DW_AT_name("__id_t")
    1857                            .dwattr $C$DW$T$240, DW_AT_type(*$C$DW$T$238)
    1858                            .dwattr $C$DW$T$240, DW_AT_language(DW_LANG_C)
    1859                            .dwattr $C$DW$T$240, DW_AT_decl_file("C:/ti/ccsv8/tools/compiler/ti-cgt-arm_18.1.3.LTS/include
    1860                            .dwattr $C$DW$T$240, DW_AT_decl_line(0x35)
    1861                            .dwattr $C$DW$T$240, DW_AT_decl_column(0x13)
    1862                    
    1863                    $C$DW$T$241     .dwtag  DW_TAG_typedef
    1864                            .dwattr $C$DW$T$241, DW_AT_name("__int_fast64_t")
    1865                            .dwattr $C$DW$T$241, DW_AT_type(*$C$DW$T$238)
    1866                            .dwattr $C$DW$T$241, DW_AT_language(DW_LANG_C)
    1867                            .dwattr $C$DW$T$241, DW_AT_decl_file("C:/ti/ccsv8/tools/compiler/ti-cgt-arm_18.1.3.LTS/include
    1868                            .dwattr $C$DW$T$241, DW_AT_decl_line(0x57)
TI ARM Assembler PC v18.1.3 Wed Nov 28 13:22:08 2018

Tools Copyright (c) 1996-2017 Texas Instruments Incorporated
C:\Users\Adrian\AppData\Local\Temp\{9AD3DFEE-EA71-445C-92FF-0A88F830FC75} PAGE   35

    1869                            .dwattr $C$DW$T$241, DW_AT_decl_column(0x13)
    1870                    
    1871                    $C$DW$T$242     .dwtag  DW_TAG_typedef
    1872                            .dwattr $C$DW$T$242, DW_AT_name("int_fast64_t")
    1873                            .dwattr $C$DW$T$242, DW_AT_type(*$C$DW$T$241)
    1874                            .dwattr $C$DW$T$242, DW_AT_language(DW_LANG_C)
    1875                            .dwattr $C$DW$T$242, DW_AT_decl_file("C:/ti/ccsv8/tools/compiler/ti-cgt-arm_18.1.3.LTS/include
    1876                            .dwattr $C$DW$T$242, DW_AT_decl_line(0x35)
    1877                            .dwattr $C$DW$T$242, DW_AT_decl_column(0x19)
    1878                    
    1879                    $C$DW$T$243     .dwtag  DW_TAG_typedef
    1880                            .dwattr $C$DW$T$243, DW_AT_name("__int_least64_t")
    1881                            .dwattr $C$DW$T$243, DW_AT_type(*$C$DW$T$238)
    1882                            .dwattr $C$DW$T$243, DW_AT_language(DW_LANG_C)
    1883                            .dwattr $C$DW$T$243, DW_AT_decl_file("C:/ti/ccsv8/tools/compiler/ti-cgt-arm_18.1.3.LTS/include
    1884                            .dwattr $C$DW$T$243, DW_AT_decl_line(0x5b)
    1885                            .dwattr $C$DW$T$243, DW_AT_decl_column(0x13)
    1886                    
    1887                    $C$DW$T$244     .dwtag  DW_TAG_typedef
    1888                            .dwattr $C$DW$T$244, DW_AT_name("int_least64_t")
    1889                            .dwattr $C$DW$T$244, DW_AT_type(*$C$DW$T$243)
    1890                            .dwattr $C$DW$T$244, DW_AT_language(DW_LANG_C)
    1891                            .dwattr $C$DW$T$244, DW_AT_decl_file("C:/ti/ccsv8/tools/compiler/ti-cgt-arm_18.1.3.LTS/include
    1892                            .dwattr $C$DW$T$244, DW_AT_decl_line(0x2b)
    1893                            .dwattr $C$DW$T$244, DW_AT_decl_column(0x1a)
    1894                    
    1895                    $C$DW$T$245     .dwtag  DW_TAG_typedef
    1896                            .dwattr $C$DW$T$245, DW_AT_name("__intmax_t")
    1897                            .dwattr $C$DW$T$245, DW_AT_type(*$C$DW$T$238)
    1898                            .dwattr $C$DW$T$245, DW_AT_language(DW_LANG_C)
    1899                            .dwattr $C$DW$T$245, DW_AT_decl_file("C:/ti/ccsv8/tools/compiler/ti-cgt-arm_18.1.3.LTS/include
    1900                            .dwattr $C$DW$T$245, DW_AT_decl_line(0x52)
    1901                            .dwattr $C$DW$T$245, DW_AT_decl_column(0x13)
    1902                    
    1903                    $C$DW$T$246     .dwtag  DW_TAG_typedef
    1904                            .dwattr $C$DW$T$246, DW_AT_name("intmax_t")
    1905                            .dwattr $C$DW$T$246, DW_AT_type(*$C$DW$T$245)
    1906                            .dwattr $C$DW$T$246, DW_AT_language(DW_LANG_C)
    1907                            .dwattr $C$DW$T$246, DW_AT_decl_file("C:/ti/ccsv8/tools/compiler/ti-cgt-arm_18.1.3.LTS/include
    1908                            .dwattr $C$DW$T$246, DW_AT_decl_line(0x54)
    1909                            .dwattr $C$DW$T$246, DW_AT_decl_column(0x15)
    1910                    
    1911                    $C$DW$T$247     .dwtag  DW_TAG_typedef
    1912                            .dwattr $C$DW$T$247, DW_AT_name("__off64_t")
    1913                            .dwattr $C$DW$T$247, DW_AT_type(*$C$DW$T$238)
    1914                            .dwattr $C$DW$T$247, DW_AT_language(DW_LANG_C)
    1915                            .dwattr $C$DW$T$247, DW_AT_decl_file("C:/ti/ccsv8/tools/compiler/ti-cgt-arm_18.1.3.LTS/include
    1916                            .dwattr $C$DW$T$247, DW_AT_decl_line(0x3e)
    1917                            .dwattr $C$DW$T$247, DW_AT_decl_column(0x13)
    1918                    
    1919                    $C$DW$T$248     .dwtag  DW_TAG_typedef
    1920                            .dwattr $C$DW$T$248, DW_AT_name("__off_t")
    1921                            .dwattr $C$DW$T$248, DW_AT_type(*$C$DW$T$238)
    1922                            .dwattr $C$DW$T$248, DW_AT_language(DW_LANG_C)
    1923                            .dwattr $C$DW$T$248, DW_AT_decl_file("C:/ti/ccsv8/tools/compiler/ti-cgt-arm_18.1.3.LTS/include
TI ARM Assembler PC v18.1.3 Wed Nov 28 13:22:08 2018

Tools Copyright (c) 1996-2017 Texas Instruments Incorporated
C:\Users\Adrian\AppData\Local\Temp\{9AD3DFEE-EA71-445C-92FF-0A88F830FC75} PAGE   36

    1924                            .dwattr $C$DW$T$248, DW_AT_decl_line(0x3d)
    1925                            .dwattr $C$DW$T$248, DW_AT_decl_column(0x13)
    1926                    
    1927                    $C$DW$T$249     .dwtag  DW_TAG_typedef
    1928                            .dwattr $C$DW$T$249, DW_AT_name("__rlim_t")
    1929                            .dwattr $C$DW$T$249, DW_AT_type(*$C$DW$T$238)
    1930                            .dwattr $C$DW$T$249, DW_AT_language(DW_LANG_C)
    1931                            .dwattr $C$DW$T$249, DW_AT_decl_file("C:/ti/ccsv8/tools/compiler/ti-cgt-arm_18.1.3.LTS/include
    1932                            .dwattr $C$DW$T$249, DW_AT_decl_line(0x40)
    1933                            .dwattr $C$DW$T$249, DW_AT_decl_column(0x13)
    1934                    
    1935                    $C$DW$T$250     .dwtag  DW_TAG_typedef
    1936                            .dwattr $C$DW$T$250, DW_AT_name("int64_t")
    1937                            .dwattr $C$DW$T$250, DW_AT_type(*$C$DW$T$238)
    1938                            .dwattr $C$DW$T$250, DW_AT_language(DW_LANG_C)
    1939                            .dwattr $C$DW$T$250, DW_AT_decl_file("C:/ti/ccsv8/tools/compiler/ti-cgt-arm_18.1.3.LTS/include
    1940                            .dwattr $C$DW$T$250, DW_AT_decl_line(0x33)
    1941                            .dwattr $C$DW$T$250, DW_AT_decl_column(0x14)
    1942                    
    1943                    $C$DW$T$15      .dwtag  DW_TAG_base_type
    1944                            .dwattr $C$DW$T$15, DW_AT_encoding(DW_ATE_unsigned)
    1945                            .dwattr $C$DW$T$15, DW_AT_name("unsigned long long")
    1946                            .dwattr $C$DW$T$15, DW_AT_byte_size(0x08)
    1947                    
    1948                    $C$DW$T$251     .dwtag  DW_TAG_typedef
    1949                            .dwattr $C$DW$T$251, DW_AT_name("__uint64_t")
    1950                            .dwattr $C$DW$T$251, DW_AT_type(*$C$DW$T$15)
    1951                            .dwattr $C$DW$T$251, DW_AT_language(DW_LANG_C)
    1952                            .dwattr $C$DW$T$251, DW_AT_decl_file("C:/ti/ccsv8/tools/compiler/ti-cgt-arm_18.1.3.LTS/include
    1953                            .dwattr $C$DW$T$251, DW_AT_decl_line(0x48)
    1954                            .dwattr $C$DW$T$251, DW_AT_decl_column(0x1c)
    1955                    
    1956                    $C$DW$T$252     .dwtag  DW_TAG_typedef
    1957                            .dwattr $C$DW$T$252, DW_AT_name("__dev_t")
    1958                            .dwattr $C$DW$T$252, DW_AT_type(*$C$DW$T$251)
    1959                            .dwattr $C$DW$T$252, DW_AT_language(DW_LANG_C)
    1960                            .dwattr $C$DW$T$252, DW_AT_decl_file("C:/ti/ccsv8/tools/compiler/ti-cgt-arm_18.1.3.LTS/include
    1961                            .dwattr $C$DW$T$252, DW_AT_decl_line(0x74)
    1962                            .dwattr $C$DW$T$252, DW_AT_decl_column(0x14)
    1963                    
    1964                    $C$DW$T$253     .dwtag  DW_TAG_typedef
    1965                            .dwattr $C$DW$T$253, DW_AT_name("__fsblkcnt_t")
    1966                            .dwattr $C$DW$T$253, DW_AT_type(*$C$DW$T$251)
    1967                            .dwattr $C$DW$T$253, DW_AT_language(DW_LANG_C)
    1968                            .dwattr $C$DW$T$253, DW_AT_decl_file("C:/ti/ccsv8/tools/compiler/ti-cgt-arm_18.1.3.LTS/include
    1969                            .dwattr $C$DW$T$253, DW_AT_decl_line(0x32)
    1970                            .dwattr $C$DW$T$253, DW_AT_decl_column(0x14)
    1971                    
    1972                    $C$DW$T$254     .dwtag  DW_TAG_typedef
    1973                            .dwattr $C$DW$T$254, DW_AT_name("__fsfilcnt_t")
    1974                            .dwattr $C$DW$T$254, DW_AT_type(*$C$DW$T$251)
    1975                            .dwattr $C$DW$T$254, DW_AT_language(DW_LANG_C)
    1976                            .dwattr $C$DW$T$254, DW_AT_decl_file("C:/ti/ccsv8/tools/compiler/ti-cgt-arm_18.1.3.LTS/include
    1977                            .dwattr $C$DW$T$254, DW_AT_decl_line(0x33)
    1978                            .dwattr $C$DW$T$254, DW_AT_decl_column(0x14)
TI ARM Assembler PC v18.1.3 Wed Nov 28 13:22:08 2018

Tools Copyright (c) 1996-2017 Texas Instruments Incorporated
C:\Users\Adrian\AppData\Local\Temp\{9AD3DFEE-EA71-445C-92FF-0A88F830FC75} PAGE   37

    1979                    
    1980                    $C$DW$T$255     .dwtag  DW_TAG_typedef
    1981                            .dwattr $C$DW$T$255, DW_AT_name("__ino_t")
    1982                            .dwattr $C$DW$T$255, DW_AT_type(*$C$DW$T$251)
    1983                            .dwattr $C$DW$T$255, DW_AT_language(DW_LANG_C)
    1984                            .dwattr $C$DW$T$255, DW_AT_decl_file("C:/ti/ccsv8/tools/compiler/ti-cgt-arm_18.1.3.LTS/include
    1985                            .dwattr $C$DW$T$255, DW_AT_decl_line(0x36)
    1986                            .dwattr $C$DW$T$255, DW_AT_decl_column(0x14)
    1987                    
    1988                    $C$DW$T$256     .dwtag  DW_TAG_typedef
    1989                            .dwattr $C$DW$T$256, DW_AT_name("__nlink_t")
    1990                            .dwattr $C$DW$T$256, DW_AT_type(*$C$DW$T$251)
    1991                            .dwattr $C$DW$T$256, DW_AT_language(DW_LANG_C)
    1992                            .dwattr $C$DW$T$256, DW_AT_decl_file("C:/ti/ccsv8/tools/compiler/ti-cgt-arm_18.1.3.LTS/include
    1993                            .dwattr $C$DW$T$256, DW_AT_decl_line(0x3c)
    1994                            .dwattr $C$DW$T$256, DW_AT_decl_column(0x14)
    1995                    
    1996                    $C$DW$T$257     .dwtag  DW_TAG_typedef
    1997                            .dwattr $C$DW$T$257, DW_AT_name("__uint_fast64_t")
    1998                            .dwattr $C$DW$T$257, DW_AT_type(*$C$DW$T$251)
    1999                            .dwattr $C$DW$T$257, DW_AT_language(DW_LANG_C)
    2000                            .dwattr $C$DW$T$257, DW_AT_decl_file("C:/ti/ccsv8/tools/compiler/ti-cgt-arm_18.1.3.LTS/include
    2001                            .dwattr $C$DW$T$257, DW_AT_decl_line(0x6c)
    2002                            .dwattr $C$DW$T$257, DW_AT_decl_column(0x14)
    2003                    
    2004                    $C$DW$T$258     .dwtag  DW_TAG_typedef
    2005                            .dwattr $C$DW$T$258, DW_AT_name("uint_fast64_t")
    2006                            .dwattr $C$DW$T$258, DW_AT_type(*$C$DW$T$257)
    2007                            .dwattr $C$DW$T$258, DW_AT_language(DW_LANG_C)
    2008                            .dwattr $C$DW$T$258, DW_AT_decl_file("C:/ti/ccsv8/tools/compiler/ti-cgt-arm_18.1.3.LTS/include
    2009                            .dwattr $C$DW$T$258, DW_AT_decl_line(0x3a)
    2010                            .dwattr $C$DW$T$258, DW_AT_decl_column(0x1a)
    2011                    
    2012                    $C$DW$T$259     .dwtag  DW_TAG_typedef
    2013                            .dwattr $C$DW$T$259, DW_AT_name("__uint_least64_t")
    2014                            .dwattr $C$DW$T$259, DW_AT_type(*$C$DW$T$251)
    2015                            .dwattr $C$DW$T$259, DW_AT_language(DW_LANG_C)
    2016                            .dwattr $C$DW$T$259, DW_AT_decl_file("C:/ti/ccsv8/tools/compiler/ti-cgt-arm_18.1.3.LTS/include
    2017                            .dwattr $C$DW$T$259, DW_AT_decl_line(0x70)
    2018                            .dwattr $C$DW$T$259, DW_AT_decl_column(0x14)
    2019                    
    2020                    $C$DW$T$260     .dwtag  DW_TAG_typedef
    2021                            .dwattr $C$DW$T$260, DW_AT_name("uint_least64_t")
    2022                            .dwattr $C$DW$T$260, DW_AT_type(*$C$DW$T$259)
    2023                            .dwattr $C$DW$T$260, DW_AT_language(DW_LANG_C)
    2024                            .dwattr $C$DW$T$260, DW_AT_decl_file("C:/ti/ccsv8/tools/compiler/ti-cgt-arm_18.1.3.LTS/include
    2025                            .dwattr $C$DW$T$260, DW_AT_decl_line(0x30)
    2026                            .dwattr $C$DW$T$260, DW_AT_decl_column(0x1a)
    2027                    
    2028                    $C$DW$T$261     .dwtag  DW_TAG_typedef
    2029                            .dwattr $C$DW$T$261, DW_AT_name("__uintmax_t")
    2030                            .dwattr $C$DW$T$261, DW_AT_type(*$C$DW$T$251)
    2031                            .dwattr $C$DW$T$261, DW_AT_language(DW_LANG_C)
    2032                            .dwattr $C$DW$T$261, DW_AT_decl_file("C:/ti/ccsv8/tools/compiler/ti-cgt-arm_18.1.3.LTS/include
    2033                            .dwattr $C$DW$T$261, DW_AT_decl_line(0x67)
TI ARM Assembler PC v18.1.3 Wed Nov 28 13:22:08 2018

Tools Copyright (c) 1996-2017 Texas Instruments Incorporated
C:\Users\Adrian\AppData\Local\Temp\{9AD3DFEE-EA71-445C-92FF-0A88F830FC75} PAGE   38

    2034                            .dwattr $C$DW$T$261, DW_AT_decl_column(0x14)
    2035                    
    2036                    $C$DW$T$262     .dwtag  DW_TAG_typedef
    2037                            .dwattr $C$DW$T$262, DW_AT_name("__rman_res_t")
    2038                            .dwattr $C$DW$T$262, DW_AT_type(*$C$DW$T$261)
    2039                            .dwattr $C$DW$T$262, DW_AT_language(DW_LANG_C)
    2040                            .dwattr $C$DW$T$262, DW_AT_decl_file("C:/ti/ccsv8/tools/compiler/ti-cgt-arm_18.1.3.LTS/include
    2041                            .dwattr $C$DW$T$262, DW_AT_decl_line(0x8f)
    2042                            .dwattr $C$DW$T$262, DW_AT_decl_column(0x19)
    2043                    
    2044                    $C$DW$T$263     .dwtag  DW_TAG_typedef
    2045                            .dwattr $C$DW$T$263, DW_AT_name("uintmax_t")
    2046                            .dwattr $C$DW$T$263, DW_AT_type(*$C$DW$T$261)
    2047                            .dwattr $C$DW$T$263, DW_AT_language(DW_LANG_C)
    2048                            .dwattr $C$DW$T$263, DW_AT_decl_file("C:/ti/ccsv8/tools/compiler/ti-cgt-arm_18.1.3.LTS/include
    2049                            .dwattr $C$DW$T$263, DW_AT_decl_line(0x58)
    2050                            .dwattr $C$DW$T$263, DW_AT_decl_column(0x16)
    2051                    
    2052                    $C$DW$T$264     .dwtag  DW_TAG_typedef
    2053                            .dwattr $C$DW$T$264, DW_AT_name("uint64_t")
    2054                            .dwattr $C$DW$T$264, DW_AT_type(*$C$DW$T$251)
    2055                            .dwattr $C$DW$T$264, DW_AT_language(DW_LANG_C)
    2056                            .dwattr $C$DW$T$264, DW_AT_decl_file("C:/ti/ccsv8/tools/compiler/ti-cgt-arm_18.1.3.LTS/include
    2057                            .dwattr $C$DW$T$264, DW_AT_decl_line(0x47)
    2058                            .dwattr $C$DW$T$264, DW_AT_decl_column(0x15)
    2059                    
    2060                    $C$DW$T$16      .dwtag  DW_TAG_base_type
    2061                            .dwattr $C$DW$T$16, DW_AT_encoding(DW_ATE_float)
    2062                            .dwattr $C$DW$T$16, DW_AT_name("float")
    2063                            .dwattr $C$DW$T$16, DW_AT_byte_size(0x04)
    2064                    
    2065                    $C$DW$T$265     .dwtag  DW_TAG_typedef
    2066                            .dwattr $C$DW$T$265, DW_AT_name("__float_t")
    2067                            .dwattr $C$DW$T$265, DW_AT_type(*$C$DW$T$16)
    2068                            .dwattr $C$DW$T$265, DW_AT_language(DW_LANG_C)
    2069                            .dwattr $C$DW$T$265, DW_AT_decl_file("C:/ti/ccsv8/tools/compiler/ti-cgt-arm_18.1.3.LTS/include
    2070                            .dwattr $C$DW$T$265, DW_AT_decl_line(0x50)
    2071                            .dwattr $C$DW$T$265, DW_AT_decl_column(0x10)
    2072                    
    2073                    $C$DW$T$17      .dwtag  DW_TAG_base_type
    2074                            .dwattr $C$DW$T$17, DW_AT_encoding(DW_ATE_float)
    2075                            .dwattr $C$DW$T$17, DW_AT_name("double")
    2076                            .dwattr $C$DW$T$17, DW_AT_byte_size(0x08)
    2077                    
    2078                    $C$DW$T$266     .dwtag  DW_TAG_typedef
    2079                            .dwattr $C$DW$T$266, DW_AT_name("__double_t")
    2080                            .dwattr $C$DW$T$266, DW_AT_type(*$C$DW$T$17)
    2081                            .dwattr $C$DW$T$266, DW_AT_language(DW_LANG_C)
    2082                            .dwattr $C$DW$T$266, DW_AT_decl_file("C:/ti/ccsv8/tools/compiler/ti-cgt-arm_18.1.3.LTS/include
    2083                            .dwattr $C$DW$T$266, DW_AT_decl_line(0x4f)
    2084                            .dwattr $C$DW$T$266, DW_AT_decl_column(0x11)
    2085                    
    2086                    $C$DW$T$18      .dwtag  DW_TAG_base_type
    2087                            .dwattr $C$DW$T$18, DW_AT_encoding(DW_ATE_float)
    2088                            .dwattr $C$DW$T$18, DW_AT_name("long double")
TI ARM Assembler PC v18.1.3 Wed Nov 28 13:22:08 2018

Tools Copyright (c) 1996-2017 Texas Instruments Incorporated
C:\Users\Adrian\AppData\Local\Temp\{9AD3DFEE-EA71-445C-92FF-0A88F830FC75} PAGE   39

    2089                            .dwattr $C$DW$T$18, DW_AT_byte_size(0x08)
    2090                    
    2091                    $C$DW$T$71      .dwtag  DW_TAG_base_type
    2092                            .dwattr $C$DW$T$71, DW_AT_encoding(DW_ATE_unsigned_char)
    2093                            .dwattr $C$DW$T$71, DW_AT_name("unsigned char")
    2094                            .dwattr $C$DW$T$71, DW_AT_byte_size(0x01)
    2095                    
    2096                    
    2097                    $C$DW$T$127     .dwtag  DW_TAG_subroutine_type
    2098                            .dwattr $C$DW$T$127, DW_AT_type(*$C$DW$T$71)
    2099                            .dwattr $C$DW$T$127, DW_AT_language(DW_LANG_C)
    2100                    $C$DW$54        .dwtag  DW_TAG_formal_parameter
    2101                            .dwattr $C$DW$54, DW_AT_type(*$C$DW$T$43)
    2102                    
    2103                    $C$DW$55        .dwtag  DW_TAG_formal_parameter
    2104                            .dwattr $C$DW$55, DW_AT_type(*$C$DW$T$39)
    2105                    
    2106                    $C$DW$56        .dwtag  DW_TAG_formal_parameter
    2107                            .dwattr $C$DW$56, DW_AT_type(*$C$DW$T$126)
    2108                    
    2109                            .dwendtag $C$DW$T$127
    2110                    
    2111                    $C$DW$T$128     .dwtag  DW_TAG_pointer_type
    2112                            .dwattr $C$DW$T$128, DW_AT_type(*$C$DW$T$127)
    2113                            .dwattr $C$DW$T$128, DW_AT_address_class(0x20)
    2114                    
    2115                    $C$DW$T$129     .dwtag  DW_TAG_typedef
    2116                            .dwattr $C$DW$T$129, DW_AT_name("ICall_MsgMatchFn")
    2117                            .dwattr $C$DW$T$129, DW_AT_type(*$C$DW$T$128)
    2118                            .dwattr $C$DW$T$129, DW_AT_language(DW_LANG_C)
    2119                            .dwattr $C$DW$T$129, DW_AT_decl_file("C:/ti/simplelink_cc13x0_sdk_2_30_00_20/source/ti/ti154st
    2120                            .dwattr $C$DW$T$129, DW_AT_decl_line(0x1c1)
    2121                            .dwattr $C$DW$T$129, DW_AT_decl_column(0x10)
    2122                    
    2123                    
    2124                    $C$DW$T$19      .dwtag  DW_TAG_structure_type
    2125                            .dwattr $C$DW$T$19, DW_AT_name("__mq")
    2126                            .dwattr $C$DW$T$19, DW_AT_declaration
    2127                            .dwattr $C$DW$T$19, DW_AT_decl_file("C:/ti/ccsv8/tools/compiler/ti-cgt-arm_18.1.3.LTS/include/
    2128                            .dwattr $C$DW$T$19, DW_AT_decl_line(0x47)
    2129                            .dwattr $C$DW$T$19, DW_AT_decl_column(0x10)
    2130                            .dwendtag $C$DW$T$19
    2131                    
    2132                    $C$DW$T$267     .dwtag  DW_TAG_pointer_type
    2133                            .dwattr $C$DW$T$267, DW_AT_type(*$C$DW$T$19)
    2134                            .dwattr $C$DW$T$267, DW_AT_address_class(0x20)
    2135                    
    2136                    $C$DW$T$268     .dwtag  DW_TAG_typedef
    2137                            .dwattr $C$DW$T$268, DW_AT_name("__mqd_t")
    2138                            .dwattr $C$DW$T$268, DW_AT_type(*$C$DW$T$267)
    2139                            .dwattr $C$DW$T$268, DW_AT_language(DW_LANG_C)
    2140                            .dwattr $C$DW$T$268, DW_AT_decl_file("C:/ti/ccsv8/tools/compiler/ti-cgt-arm_18.1.3.LTS/include
    2141                            .dwattr $C$DW$T$268, DW_AT_decl_line(0x47)
    2142                            .dwattr $C$DW$T$268, DW_AT_decl_column(0x16)
    2143                    
TI ARM Assembler PC v18.1.3 Wed Nov 28 13:22:08 2018

Tools Copyright (c) 1996-2017 Texas Instruments Incorporated
C:\Users\Adrian\AppData\Local\Temp\{9AD3DFEE-EA71-445C-92FF-0A88F830FC75} PAGE   40

    2144                    
    2145                    $C$DW$T$20      .dwtag  DW_TAG_structure_type
    2146                            .dwattr $C$DW$T$20, DW_AT_name("__timer")
    2147                            .dwattr $C$DW$T$20, DW_AT_declaration
    2148                            .dwattr $C$DW$T$20, DW_AT_decl_file("C:/ti/ccsv8/tools/compiler/ti-cgt-arm_18.1.3.LTS/include/
    2149                            .dwattr $C$DW$T$20, DW_AT_decl_line(0x46)
    2150                            .dwattr $C$DW$T$20, DW_AT_decl_column(0x10)
    2151                            .dwendtag $C$DW$T$20
    2152                    
    2153                    $C$DW$T$269     .dwtag  DW_TAG_pointer_type
    2154                            .dwattr $C$DW$T$269, DW_AT_type(*$C$DW$T$20)
    2155                            .dwattr $C$DW$T$269, DW_AT_address_class(0x20)
    2156                    
    2157                    $C$DW$T$270     .dwtag  DW_TAG_typedef
    2158                            .dwattr $C$DW$T$270, DW_AT_name("__timer_t")
    2159                            .dwattr $C$DW$T$270, DW_AT_type(*$C$DW$T$269)
    2160                            .dwattr $C$DW$T$270, DW_AT_language(DW_LANG_C)
    2161                            .dwattr $C$DW$T$270, DW_AT_decl_file("C:/ti/ccsv8/tools/compiler/ti-cgt-arm_18.1.3.LTS/include
    2162                            .dwattr $C$DW$T$270, DW_AT_decl_line(0x46)
    2163                            .dwattr $C$DW$T$270, DW_AT_decl_column(0x19)
    2164                    
    2165                    
    2166                    $C$DW$T$47      .dwtag  DW_TAG_structure_type
    2167                            .dwattr $C$DW$T$47, DW_AT_name("__va_list_t")
    2168                            .dwattr $C$DW$T$47, DW_AT_byte_size(0x04)
    2169                    $C$DW$57        .dwtag  DW_TAG_member
    2170                            .dwattr $C$DW$57, DW_AT_type(*$C$DW$T$3)
    2171                            .dwattr $C$DW$57, DW_AT_name("__ap")
    2172                            .dwattr $C$DW$57, DW_AT_TI_symbol_name("__ap")
    2173                            .dwattr $C$DW$57, DW_AT_data_member_location[DW_OP_plus_uconst 0x0]
    2174                            .dwattr $C$DW$57, DW_AT_accessibility(DW_ACCESS_public)
    2175                            .dwattr $C$DW$57, DW_AT_decl_file("C:/ti/ccsv8/tools/compiler/ti-cgt-arm_18.1.3.LTS/include/ma
    2176                            .dwattr $C$DW$57, DW_AT_decl_line(0x88)
    2177                            .dwattr $C$DW$57, DW_AT_decl_column(0x0c)
    2178                    
    2179                            .dwattr $C$DW$T$47, DW_AT_decl_file("C:/ti/ccsv8/tools/compiler/ti-cgt-arm_18.1.3.LTS/include/
    2180                            .dwattr $C$DW$T$47, DW_AT_decl_line(0x87)
    2181                            .dwattr $C$DW$T$47, DW_AT_decl_column(0x10)
    2182                            .dwendtag $C$DW$T$47
    2183                    
    2184                    $C$DW$T$271     .dwtag  DW_TAG_typedef
    2185                            .dwattr $C$DW$T$271, DW_AT_name("__va_list")
    2186                            .dwattr $C$DW$T$271, DW_AT_type(*$C$DW$T$47)
    2187                            .dwattr $C$DW$T$271, DW_AT_language(DW_LANG_C)
    2188                            .dwattr $C$DW$T$271, DW_AT_decl_file("C:/ti/ccsv8/tools/compiler/ti-cgt-arm_18.1.3.LTS/include
    2189                            .dwattr $C$DW$T$271, DW_AT_decl_line(0x89)
    2190                            .dwattr $C$DW$T$271, DW_AT_decl_column(0x03)
    2191                    
    2192                    
    2193                    $C$DW$T$50      .dwtag  DW_TAG_structure_type
    2194                            .dwattr $C$DW$T$50, DW_AT_name("_icall_alloc_args_t")
    2195                            .dwattr $C$DW$T$50, DW_AT_byte_size(0x0c)
    2196                    $C$DW$58        .dwtag  DW_TAG_member
    2197                            .dwattr $C$DW$58, DW_AT_type(*$C$DW$T$48)
    2198                            .dwattr $C$DW$58, DW_AT_name("hdr")
TI ARM Assembler PC v18.1.3 Wed Nov 28 13:22:08 2018

Tools Copyright (c) 1996-2017 Texas Instruments Incorporated
C:\Users\Adrian\AppData\Local\Temp\{9AD3DFEE-EA71-445C-92FF-0A88F830FC75} PAGE   41

    2199                            .dwattr $C$DW$58, DW_AT_TI_symbol_name("hdr")
    2200                            .dwattr $C$DW$58, DW_AT_data_member_location[DW_OP_plus_uconst 0x0]
    2201                            .dwattr $C$DW$58, DW_AT_accessibility(DW_ACCESS_public)
    2202                            .dwattr $C$DW$58, DW_AT_decl_file("C:/ti/simplelink_cc13x0_sdk_2_30_00_20/source/ti/ti154stack
    2203                            .dwattr $C$DW$58, DW_AT_decl_line(0x1e3)
    2204                            .dwattr $C$DW$58, DW_AT_decl_column(0x15)
    2205                    
    2206                    $C$DW$59        .dwtag  DW_TAG_member
    2207                            .dwattr $C$DW$59, DW_AT_type(*$C$DW$T$49)
    2208                            .dwattr $C$DW$59, DW_AT_name("size")
    2209                            .dwattr $C$DW$59, DW_AT_TI_symbol_name("size")
    2210                            .dwattr $C$DW$59, DW_AT_data_member_location[DW_OP_plus_uconst 0x4]
    2211                            .dwattr $C$DW$59, DW_AT_accessibility(DW_ACCESS_public)
    2212                            .dwattr $C$DW$59, DW_AT_decl_file("C:/ti/simplelink_cc13x0_sdk_2_30_00_20/source/ti/ti154stack
    2213                            .dwattr $C$DW$59, DW_AT_decl_line(0x1e5)
    2214                            .dwattr $C$DW$59, DW_AT_decl_column(0x0a)
    2215                    
    2216                    $C$DW$60        .dwtag  DW_TAG_member
    2217                            .dwattr $C$DW$60, DW_AT_type(*$C$DW$T$3)
    2218                            .dwattr $C$DW$60, DW_AT_name("ptr")
    2219                            .dwattr $C$DW$60, DW_AT_TI_symbol_name("ptr")
    2220                            .dwattr $C$DW$60, DW_AT_data_member_location[DW_OP_plus_uconst 0x8]
    2221                            .dwattr $C$DW$60, DW_AT_accessibility(DW_ACCESS_public)
    2222                            .dwattr $C$DW$60, DW_AT_decl_file("C:/ti/simplelink_cc13x0_sdk_2_30_00_20/source/ti/ti154stack
    2223                            .dwattr $C$DW$60, DW_AT_decl_line(0x1e7)
    2224                            .dwattr $C$DW$60, DW_AT_decl_column(0x0a)
    2225                    
    2226                            .dwattr $C$DW$T$50, DW_AT_decl_file("C:/ti/simplelink_cc13x0_sdk_2_30_00_20/source/ti/ti154sta
    2227                            .dwattr $C$DW$T$50, DW_AT_decl_line(0x1e0)
    2228                            .dwattr $C$DW$T$50, DW_AT_decl_column(0x10)
    2229                            .dwendtag $C$DW$T$50
    2230                    
    2231                    $C$DW$T$272     .dwtag  DW_TAG_typedef
    2232                            .dwattr $C$DW$T$272, DW_AT_name("ICall_AllocArgs")
    2233                            .dwattr $C$DW$T$272, DW_AT_type(*$C$DW$T$50)
    2234                            .dwattr $C$DW$T$272, DW_AT_language(DW_LANG_C)
    2235                            .dwattr $C$DW$T$272, DW_AT_decl_file("C:/ti/simplelink_cc13x0_sdk_2_30_00_20/source/ti/ti154st
    2236                            .dwattr $C$DW$T$272, DW_AT_decl_line(0x1e8)
    2237                            .dwattr $C$DW$T$272, DW_AT_decl_column(0x03)
    2238                    
    2239                    
    2240                    $C$DW$T$53      .dwtag  DW_TAG_structure_type
    2241                            .dwattr $C$DW$T$53, DW_AT_name("_icall_create_task_args_t")
    2242                            .dwattr $C$DW$T$53, DW_AT_byte_size(0x10)
    2243                    $C$DW$61        .dwtag  DW_TAG_member
    2244                            .dwattr $C$DW$61, DW_AT_type(*$C$DW$T$48)
    2245                            .dwattr $C$DW$61, DW_AT_name("hdr")
    2246                            .dwattr $C$DW$61, DW_AT_TI_symbol_name("hdr")
    2247                            .dwattr $C$DW$61, DW_AT_data_member_location[DW_OP_plus_uconst 0x0]
    2248                            .dwattr $C$DW$61, DW_AT_accessibility(DW_ACCESS_public)
    2249                            .dwattr $C$DW$61, DW_AT_decl_file("C:/ti/simplelink_cc13x0_sdk_2_30_00_20/source/ti/ti154stack
    2250                            .dwattr $C$DW$61, DW_AT_decl_line(0x2bc)
    2251                            .dwattr $C$DW$61, DW_AT_decl_column(0x15)
    2252                    
    2253                    $C$DW$62        .dwtag  DW_TAG_member
TI ARM Assembler PC v18.1.3 Wed Nov 28 13:22:08 2018

Tools Copyright (c) 1996-2017 Texas Instruments Incorporated
C:\Users\Adrian\AppData\Local\Temp\{9AD3DFEE-EA71-445C-92FF-0A88F830FC75} PAGE   42

    2254                            .dwattr $C$DW$62, DW_AT_type(*$C$DW$T$52)
    2255                            .dwattr $C$DW$62, DW_AT_name("entryfn")
    2256                            .dwattr $C$DW$62, DW_AT_TI_symbol_name("entryfn")
    2257                            .dwattr $C$DW$62, DW_AT_data_member_location[DW_OP_plus_uconst 0x4]
    2258                            .dwattr $C$DW$62, DW_AT_accessibility(DW_ACCESS_public)
    2259                            .dwattr $C$DW$62, DW_AT_decl_file("C:/ti/simplelink_cc13x0_sdk_2_30_00_20/source/ti/ti154stack
    2260                            .dwattr $C$DW$62, DW_AT_decl_line(0x2be)
    2261                            .dwattr $C$DW$62, DW_AT_decl_column(0x0a)
    2262                    
    2263                    $C$DW$63        .dwtag  DW_TAG_member
    2264                            .dwattr $C$DW$63, DW_AT_type(*$C$DW$T$38)
    2265                            .dwattr $C$DW$63, DW_AT_name("priority")
    2266                            .dwattr $C$DW$63, DW_AT_TI_symbol_name("priority")
    2267                            .dwattr $C$DW$63, DW_AT_data_member_location[DW_OP_plus_uconst 0x8]
    2268                            .dwattr $C$DW$63, DW_AT_accessibility(DW_ACCESS_public)
    2269                            .dwattr $C$DW$63, DW_AT_decl_file("C:/ti/simplelink_cc13x0_sdk_2_30_00_20/source/ti/ti154stack
    2270                            .dwattr $C$DW$63, DW_AT_decl_line(0x2c0)
    2271                            .dwattr $C$DW$63, DW_AT_decl_column(0x11)
    2272                    
    2273                    $C$DW$64        .dwtag  DW_TAG_member
    2274                            .dwattr $C$DW$64, DW_AT_type(*$C$DW$T$42)
    2275                            .dwattr $C$DW$64, DW_AT_name("stacksize")
    2276                            .dwattr $C$DW$64, DW_AT_TI_symbol_name("stacksize")
    2277                            .dwattr $C$DW$64, DW_AT_data_member_location[DW_OP_plus_uconst 0xa]
    2278                            .dwattr $C$DW$64, DW_AT_accessibility(DW_ACCESS_public)
    2279                            .dwattr $C$DW$64, DW_AT_decl_file("C:/ti/simplelink_cc13x0_sdk_2_30_00_20/source/ti/ti154stack
    2280                            .dwattr $C$DW$64, DW_AT_decl_line(0x2c2)
    2281                            .dwattr $C$DW$64, DW_AT_decl_column(0x12)
    2282                    
    2283                    $C$DW$65        .dwtag  DW_TAG_member
    2284                            .dwattr $C$DW$65, DW_AT_type(*$C$DW$T$49)
    2285                            .dwattr $C$DW$65, DW_AT_name("arg")
    2286                            .dwattr $C$DW$65, DW_AT_TI_symbol_name("arg")
    2287                            .dwattr $C$DW$65, DW_AT_data_member_location[DW_OP_plus_uconst 0xc]
    2288                            .dwattr $C$DW$65, DW_AT_accessibility(DW_ACCESS_public)
    2289                            .dwattr $C$DW$65, DW_AT_decl_file("C:/ti/simplelink_cc13x0_sdk_2_30_00_20/source/ti/ti154stack
    2290                            .dwattr $C$DW$65, DW_AT_decl_line(0x2c4)
    2291                            .dwattr $C$DW$65, DW_AT_decl_column(0x0a)
    2292                    
    2293                            .dwattr $C$DW$T$53, DW_AT_decl_file("C:/ti/simplelink_cc13x0_sdk_2_30_00_20/source/ti/ti154sta
    2294                            .dwattr $C$DW$T$53, DW_AT_decl_line(0x2b9)
    2295                            .dwattr $C$DW$T$53, DW_AT_decl_column(0x10)
    2296                            .dwendtag $C$DW$T$53
    2297                    
    2298                    $C$DW$T$274     .dwtag  DW_TAG_typedef
    2299                            .dwattr $C$DW$T$274, DW_AT_name("ICall_CreateTaskArgs")
    2300                            .dwattr $C$DW$T$274, DW_AT_type(*$C$DW$T$53)
    2301                            .dwattr $C$DW$T$274, DW_AT_language(DW_LANG_C)
    2302                            .dwattr $C$DW$T$274, DW_AT_decl_file("C:/ti/simplelink_cc13x0_sdk_2_30_00_20/source/ti/ti154st
    2303                            .dwattr $C$DW$T$274, DW_AT_decl_line(0x2c5)
    2304                            .dwattr $C$DW$T$274, DW_AT_decl_column(0x03)
    2305                    
    2306                    
    2307                    $C$DW$T$63      .dwtag  DW_TAG_structure_type
    2308                            .dwattr $C$DW$T$63, DW_AT_name("_icall_enroll_service_args_t")
TI ARM Assembler PC v18.1.3 Wed Nov 28 13:22:08 2018

Tools Copyright (c) 1996-2017 Texas Instruments Incorporated
C:\Users\Adrian\AppData\Local\Temp\{9AD3DFEE-EA71-445C-92FF-0A88F830FC75} PAGE   43

    2309                            .dwattr $C$DW$T$63, DW_AT_byte_size(0x14)
    2310                    $C$DW$66        .dwtag  DW_TAG_member
    2311                            .dwattr $C$DW$66, DW_AT_type(*$C$DW$T$48)
    2312                            .dwattr $C$DW$66, DW_AT_name("hdr")
    2313                            .dwattr $C$DW$66, DW_AT_TI_symbol_name("hdr")
    2314                            .dwattr $C$DW$66, DW_AT_data_member_location[DW_OP_plus_uconst 0x0]
    2315                            .dwattr $C$DW$66, DW_AT_accessibility(DW_ACCESS_public)
    2316                            .dwattr $C$DW$66, DW_AT_decl_file("C:/ti/simplelink_cc13x0_sdk_2_30_00_20/source/ti/ti154stack
    2317                            .dwattr $C$DW$66, DW_AT_decl_line(0x3a9)
    2318                            .dwattr $C$DW$66, DW_AT_decl_column(0x15)
    2319                    
    2320                    $C$DW$67        .dwtag  DW_TAG_member
    2321                            .dwattr $C$DW$67, DW_AT_type(*$C$DW$T$43)
    2322                            .dwattr $C$DW$67, DW_AT_name("service")
    2323                            .dwattr $C$DW$67, DW_AT_TI_symbol_name("service")
    2324                            .dwattr $C$DW$67, DW_AT_data_member_location[DW_OP_plus_uconst 0x4]
    2325                            .dwattr $C$DW$67, DW_AT_accessibility(DW_ACCESS_public)
    2326                            .dwattr $C$DW$67, DW_AT_decl_file("C:/ti/simplelink_cc13x0_sdk_2_30_00_20/source/ti/ti154stack
    2327                            .dwattr $C$DW$67, DW_AT_decl_line(0x3ab)
    2328                            .dwattr $C$DW$67, DW_AT_decl_column(0x15)
    2329                    
    2330                    $C$DW$68        .dwtag  DW_TAG_member
    2331                            .dwattr $C$DW$68, DW_AT_type(*$C$DW$T$61)
    2332                            .dwattr $C$DW$68, DW_AT_name("fn")
    2333                            .dwattr $C$DW$68, DW_AT_TI_symbol_name("fn")
    2334                            .dwattr $C$DW$68, DW_AT_data_member_location[DW_OP_plus_uconst 0x8]
    2335                            .dwattr $C$DW$68, DW_AT_accessibility(DW_ACCESS_public)
    2336                            .dwattr $C$DW$68, DW_AT_decl_file("C:/ti/simplelink_cc13x0_sdk_2_30_00_20/source/ti/ti154stack
    2337                            .dwattr $C$DW$68, DW_AT_decl_line(0x3ad)
    2338                            .dwattr $C$DW$68, DW_AT_decl_column(0x15)
    2339                    
    2340                    $C$DW$69        .dwtag  DW_TAG_member
    2341                            .dwattr $C$DW$69, DW_AT_type(*$C$DW$T$39)
    2342                            .dwattr $C$DW$69, DW_AT_name("entity")
    2343                            .dwattr $C$DW$69, DW_AT_TI_symbol_name("entity")
    2344                            .dwattr $C$DW$69, DW_AT_data_member_location[DW_OP_plus_uconst 0xc]
    2345                            .dwattr $C$DW$69, DW_AT_accessibility(DW_ACCESS_public)
    2346                            .dwattr $C$DW$69, DW_AT_decl_file("C:/ti/simplelink_cc13x0_sdk_2_30_00_20/source/ti/ti154stack
    2347                            .dwattr $C$DW$69, DW_AT_decl_line(0x3af)
    2348                            .dwattr $C$DW$69, DW_AT_decl_column(0x12)
    2349                    
    2350                    $C$DW$70        .dwtag  DW_TAG_member
    2351                            .dwattr $C$DW$70, DW_AT_type(*$C$DW$T$62)
    2352                            .dwattr $C$DW$70, DW_AT_name("msgSyncHdl")
    2353                            .dwattr $C$DW$70, DW_AT_TI_symbol_name("msgSyncHdl")
    2354                            .dwattr $C$DW$70, DW_AT_data_member_location[DW_OP_plus_uconst 0x10]
    2355                            .dwattr $C$DW$70, DW_AT_accessibility(DW_ACCESS_public)
    2356                            .dwattr $C$DW$70, DW_AT_decl_file("C:/ti/simplelink_cc13x0_sdk_2_30_00_20/source/ti/ti154stack
    2357                            .dwattr $C$DW$70, DW_AT_decl_line(0x3b2)
    2358                            .dwattr $C$DW$70, DW_AT_decl_column(0x14)
    2359                    
    2360                            .dwattr $C$DW$T$63, DW_AT_decl_file("C:/ti/simplelink_cc13x0_sdk_2_30_00_20/source/ti/ti154sta
    2361                            .dwattr $C$DW$T$63, DW_AT_decl_line(0x3a6)
    2362                            .dwattr $C$DW$T$63, DW_AT_decl_column(0x10)
    2363                            .dwendtag $C$DW$T$63
TI ARM Assembler PC v18.1.3 Wed Nov 28 13:22:08 2018

Tools Copyright (c) 1996-2017 Texas Instruments Incorporated
C:\Users\Adrian\AppData\Local\Temp\{9AD3DFEE-EA71-445C-92FF-0A88F830FC75} PAGE   44

    2364                    
    2365                    $C$DW$T$275     .dwtag  DW_TAG_typedef
    2366                            .dwattr $C$DW$T$275, DW_AT_name("ICall_EnrollServiceArgs")
    2367                            .dwattr $C$DW$T$275, DW_AT_type(*$C$DW$T$63)
    2368                            .dwattr $C$DW$T$275, DW_AT_language(DW_LANG_C)
    2369                            .dwattr $C$DW$T$275, DW_AT_decl_file("C:/ti/simplelink_cc13x0_sdk_2_30_00_20/source/ti/ti154st
    2370                            .dwattr $C$DW$T$275, DW_AT_decl_line(0x3b3)
    2371                            .dwattr $C$DW$T$275, DW_AT_decl_column(0x03)
    2372                    
    2373                    
    2374                    $C$DW$T$64      .dwtag  DW_TAG_structure_type
    2375                            .dwattr $C$DW$T$64, DW_AT_name("_icall_entity2service_args_t")
    2376                            .dwattr $C$DW$T$64, DW_AT_byte_size(0x08)
    2377                    $C$DW$71        .dwtag  DW_TAG_member
    2378                            .dwattr $C$DW$71, DW_AT_type(*$C$DW$T$48)
    2379                            .dwattr $C$DW$71, DW_AT_name("hdr")
    2380                            .dwattr $C$DW$71, DW_AT_TI_symbol_name("hdr")
    2381                            .dwattr $C$DW$71, DW_AT_data_member_location[DW_OP_plus_uconst 0x0]
    2382                            .dwattr $C$DW$71, DW_AT_accessibility(DW_ACCESS_public)
    2383                            .dwattr $C$DW$71, DW_AT_decl_file("C:/ti/simplelink_cc13x0_sdk_2_30_00_20/source/ti/ti154stack
    2384                            .dwattr $C$DW$71, DW_AT_decl_line(0x23e)
    2385                            .dwattr $C$DW$71, DW_AT_decl_column(0x15)
    2386                    
    2387                    $C$DW$72        .dwtag  DW_TAG_member
    2388                            .dwattr $C$DW$72, DW_AT_type(*$C$DW$T$39)
    2389                            .dwattr $C$DW$72, DW_AT_name("entityId")
    2390                            .dwattr $C$DW$72, DW_AT_TI_symbol_name("entityId")
    2391                            .dwattr $C$DW$72, DW_AT_data_member_location[DW_OP_plus_uconst 0x4]
    2392                            .dwattr $C$DW$72, DW_AT_accessibility(DW_ACCESS_public)
    2393                            .dwattr $C$DW$72, DW_AT_decl_file("C:/ti/simplelink_cc13x0_sdk_2_30_00_20/source/ti/ti154stack
    2394                            .dwattr $C$DW$72, DW_AT_decl_line(0x240)
    2395                            .dwattr $C$DW$72, DW_AT_decl_column(0x12)
    2396                    
    2397                    $C$DW$73        .dwtag  DW_TAG_member
    2398                            .dwattr $C$DW$73, DW_AT_type(*$C$DW$T$43)
    2399                            .dwattr $C$DW$73, DW_AT_name("servId")
    2400                            .dwattr $C$DW$73, DW_AT_TI_symbol_name("servId")
    2401                            .dwattr $C$DW$73, DW_AT_data_member_location[DW_OP_plus_uconst 0x6]
    2402                            .dwattr $C$DW$73, DW_AT_accessibility(DW_ACCESS_public)
    2403                            .dwattr $C$DW$73, DW_AT_decl_file("C:/ti/simplelink_cc13x0_sdk_2_30_00_20/source/ti/ti154stack
    2404                            .dwattr $C$DW$73, DW_AT_decl_line(0x242)
    2405                            .dwattr $C$DW$73, DW_AT_decl_column(0x15)
    2406                    
    2407                            .dwattr $C$DW$T$64, DW_AT_decl_file("C:/ti/simplelink_cc13x0_sdk_2_30_00_20/source/ti/ti154sta
    2408                            .dwattr $C$DW$T$64, DW_AT_decl_line(0x23b)
    2409                            .dwattr $C$DW$T$64, DW_AT_decl_column(0x10)
    2410                            .dwendtag $C$DW$T$64
    2411                    
    2412                    $C$DW$T$276     .dwtag  DW_TAG_typedef
    2413                            .dwattr $C$DW$T$276, DW_AT_name("ICall_EntityId2ServiceIdArgs")
    2414                            .dwattr $C$DW$T$276, DW_AT_type(*$C$DW$T$64)
    2415                            .dwattr $C$DW$T$276, DW_AT_language(DW_LANG_C)
    2416                            .dwattr $C$DW$T$276, DW_AT_decl_file("C:/ti/simplelink_cc13x0_sdk_2_30_00_20/source/ti/ti154st
    2417                            .dwattr $C$DW$T$276, DW_AT_decl_line(0x243)
    2418                            .dwattr $C$DW$T$276, DW_AT_decl_column(0x03)
TI ARM Assembler PC v18.1.3 Wed Nov 28 13:22:08 2018

Tools Copyright (c) 1996-2017 Texas Instruments Incorporated
C:\Users\Adrian\AppData\Local\Temp\{9AD3DFEE-EA71-445C-92FF-0A88F830FC75} PAGE   45

    2419                    
    2420                    
    2421                    $C$DW$T$65      .dwtag  DW_TAG_structure_type
    2422                            .dwattr $C$DW$T$65, DW_AT_name("_icall_fetch_msg_args_t")
    2423                            .dwattr $C$DW$T$65, DW_AT_byte_size(0x0c)
    2424                    $C$DW$74        .dwtag  DW_TAG_member
    2425                            .dwattr $C$DW$74, DW_AT_type(*$C$DW$T$48)
    2426                            .dwattr $C$DW$74, DW_AT_name("hdr")
    2427                            .dwattr $C$DW$74, DW_AT_TI_symbol_name("hdr")
    2428                            .dwattr $C$DW$74, DW_AT_data_member_location[DW_OP_plus_uconst 0x0]
    2429                            .dwattr $C$DW$74, DW_AT_accessibility(DW_ACCESS_public)
    2430                            .dwattr $C$DW$74, DW_AT_decl_file("C:/ti/simplelink_cc13x0_sdk_2_30_00_20/source/ti/ti154stack
    2431                            .dwattr $C$DW$74, DW_AT_decl_line(0x20c)
    2432                            .dwattr $C$DW$74, DW_AT_decl_column(0x15)
    2433                    
    2434                    $C$DW$75        .dwtag  DW_TAG_member
    2435                            .dwattr $C$DW$75, DW_AT_type(*$C$DW$T$45)
    2436                            .dwattr $C$DW$75, DW_AT_name("src")
    2437                            .dwattr $C$DW$75, DW_AT_TI_symbol_name("src")
    2438                            .dwattr $C$DW$75, DW_AT_data_member_location[DW_OP_plus_uconst 0x4]
    2439                            .dwattr $C$DW$75, DW_AT_accessibility(DW_ACCESS_public)
    2440                            .dwattr $C$DW$75, DW_AT_decl_file("C:/ti/simplelink_cc13x0_sdk_2_30_00_20/source/ti/ti154stack
    2441                            .dwattr $C$DW$75, DW_AT_decl_line(0x214)
    2442                            .dwattr $C$DW$75, DW_AT_decl_column(0x05)
    2443                    
    2444                    $C$DW$76        .dwtag  DW_TAG_member
    2445                            .dwattr $C$DW$76, DW_AT_type(*$C$DW$T$39)
    2446                            .dwattr $C$DW$76, DW_AT_name("dest")
    2447                            .dwattr $C$DW$76, DW_AT_TI_symbol_name("dest")
    2448                            .dwattr $C$DW$76, DW_AT_data_member_location[DW_OP_plus_uconst 0x6]
    2449                            .dwattr $C$DW$76, DW_AT_accessibility(DW_ACCESS_public)
    2450                            .dwattr $C$DW$76, DW_AT_decl_file("C:/ti/simplelink_cc13x0_sdk_2_30_00_20/source/ti/ti154stack
    2451                            .dwattr $C$DW$76, DW_AT_decl_line(0x216)
    2452                            .dwattr $C$DW$76, DW_AT_decl_column(0x12)
    2453                    
    2454                    $C$DW$77        .dwtag  DW_TAG_member
    2455                            .dwattr $C$DW$77, DW_AT_type(*$C$DW$T$3)
    2456                            .dwattr $C$DW$77, DW_AT_name("msg")
    2457                            .dwattr $C$DW$77, DW_AT_TI_symbol_name("msg")
    2458                            .dwattr $C$DW$77, DW_AT_data_member_location[DW_OP_plus_uconst 0x8]
    2459                            .dwattr $C$DW$77, DW_AT_accessibility(DW_ACCESS_public)
    2460                            .dwattr $C$DW$77, DW_AT_decl_file("C:/ti/simplelink_cc13x0_sdk_2_30_00_20/source/ti/ti154stack
    2461                            .dwattr $C$DW$77, DW_AT_decl_line(0x218)
    2462                            .dwattr $C$DW$77, DW_AT_decl_column(0x09)
    2463                    
    2464                            .dwattr $C$DW$T$65, DW_AT_decl_file("C:/ti/simplelink_cc13x0_sdk_2_30_00_20/source/ti/ti154sta
    2465                            .dwattr $C$DW$T$65, DW_AT_decl_line(0x209)
    2466                            .dwattr $C$DW$T$65, DW_AT_decl_column(0x10)
    2467                            .dwendtag $C$DW$T$65
    2468                    
    2469                    $C$DW$T$277     .dwtag  DW_TAG_typedef
    2470                            .dwattr $C$DW$T$277, DW_AT_name("ICall_FetchMsgArgs")
    2471                            .dwattr $C$DW$T$277, DW_AT_type(*$C$DW$T$65)
    2472                            .dwattr $C$DW$T$277, DW_AT_language(DW_LANG_C)
    2473                            .dwattr $C$DW$T$277, DW_AT_decl_file("C:/ti/simplelink_cc13x0_sdk_2_30_00_20/source/ti/ti154st
TI ARM Assembler PC v18.1.3 Wed Nov 28 13:22:08 2018

Tools Copyright (c) 1996-2017 Texas Instruments Incorporated
C:\Users\Adrian\AppData\Local\Temp\{9AD3DFEE-EA71-445C-92FF-0A88F830FC75} PAGE   46

    2474                            .dwattr $C$DW$T$277, DW_AT_decl_line(0x219)
    2475                            .dwattr $C$DW$T$277, DW_AT_decl_column(0x03)
    2476                    
    2477                    
    2478                    $C$DW$T$66      .dwtag  DW_TAG_structure_type
    2479                            .dwattr $C$DW$T$66, DW_AT_name("_icall_free_args_t")
    2480                            .dwattr $C$DW$T$66, DW_AT_byte_size(0x08)
    2481                    $C$DW$78        .dwtag  DW_TAG_member
    2482                            .dwattr $C$DW$78, DW_AT_type(*$C$DW$T$48)
    2483                            .dwattr $C$DW$78, DW_AT_name("hdr")
    2484                            .dwattr $C$DW$78, DW_AT_TI_symbol_name("hdr")
    2485                            .dwattr $C$DW$78, DW_AT_data_member_location[DW_OP_plus_uconst 0x0]
    2486                            .dwattr $C$DW$78, DW_AT_accessibility(DW_ACCESS_public)
    2487                            .dwattr $C$DW$78, DW_AT_decl_file("C:/ti/simplelink_cc13x0_sdk_2_30_00_20/source/ti/ti154stack
    2488                            .dwattr $C$DW$78, DW_AT_decl_line(0x1ee)
    2489                            .dwattr $C$DW$78, DW_AT_decl_column(0x15)
    2490                    
    2491                    $C$DW$79        .dwtag  DW_TAG_member
    2492                            .dwattr $C$DW$79, DW_AT_type(*$C$DW$T$3)
    2493                            .dwattr $C$DW$79, DW_AT_name("ptr")
    2494                            .dwattr $C$DW$79, DW_AT_TI_symbol_name("ptr")
    2495                            .dwattr $C$DW$79, DW_AT_data_member_location[DW_OP_plus_uconst 0x4]
    2496                            .dwattr $C$DW$79, DW_AT_accessibility(DW_ACCESS_public)
    2497                            .dwattr $C$DW$79, DW_AT_decl_file("C:/ti/simplelink_cc13x0_sdk_2_30_00_20/source/ti/ti154stack
    2498                            .dwattr $C$DW$79, DW_AT_decl_line(0x1f0)
    2499                            .dwattr $C$DW$79, DW_AT_decl_column(0x0a)
    2500                    
    2501                            .dwattr $C$DW$T$66, DW_AT_decl_file("C:/ti/simplelink_cc13x0_sdk_2_30_00_20/source/ti/ti154sta
    2502                            .dwattr $C$DW$T$66, DW_AT_decl_line(0x1eb)
    2503                            .dwattr $C$DW$T$66, DW_AT_decl_column(0x10)
    2504                            .dwendtag $C$DW$T$66
    2505                    
    2506                    $C$DW$T$278     .dwtag  DW_TAG_typedef
    2507                            .dwattr $C$DW$T$278, DW_AT_name("ICall_FreeArgs")
    2508                            .dwattr $C$DW$T$278, DW_AT_type(*$C$DW$T$66)
    2509                            .dwattr $C$DW$T$278, DW_AT_language(DW_LANG_C)
    2510                            .dwattr $C$DW$T$278, DW_AT_decl_file("C:/ti/simplelink_cc13x0_sdk_2_30_00_20/source/ti/ti154st
    2511                            .dwattr $C$DW$T$278, DW_AT_decl_line(0x1f1)
    2512                            .dwattr $C$DW$T$278, DW_AT_decl_column(0x03)
    2513                    
    2514                    
    2515                    $C$DW$T$68      .dwtag  DW_TAG_structure_type
    2516                            .dwattr $C$DW$T$68, DW_AT_name("_icall_func_args_hdr_t")
    2517                            .dwattr $C$DW$T$68, DW_AT_byte_size(0x04)
    2518                    $C$DW$80        .dwtag  DW_TAG_member
    2519                            .dwattr $C$DW$80, DW_AT_type(*$C$DW$T$43)
    2520                            .dwattr $C$DW$80, DW_AT_name("service")
    2521                            .dwattr $C$DW$80, DW_AT_TI_symbol_name("service")
    2522                            .dwattr $C$DW$80, DW_AT_data_member_location[DW_OP_plus_uconst 0x0]
    2523                            .dwattr $C$DW$80, DW_AT_accessibility(DW_ACCESS_public)
    2524                            .dwattr $C$DW$80, DW_AT_decl_file("C:/ti/simplelink_cc13x0_sdk_2_30_00_20/source/ti/ti154stack
    2525                            .dwattr $C$DW$80, DW_AT_decl_line(0x1ce)
    2526                            .dwattr $C$DW$80, DW_AT_decl_column(0x15)
    2527                    
    2528                    $C$DW$81        .dwtag  DW_TAG_member
TI ARM Assembler PC v18.1.3 Wed Nov 28 13:22:08 2018

Tools Copyright (c) 1996-2017 Texas Instruments Incorporated
C:\Users\Adrian\AppData\Local\Temp\{9AD3DFEE-EA71-445C-92FF-0A88F830FC75} PAGE   47

    2529                            .dwattr $C$DW$81, DW_AT_type(*$C$DW$T$67)
    2530                            .dwattr $C$DW$81, DW_AT_name("func")
    2531                            .dwattr $C$DW$81, DW_AT_TI_symbol_name("func")
    2532                            .dwattr $C$DW$81, DW_AT_data_member_location[DW_OP_plus_uconst 0x2]
    2533                            .dwattr $C$DW$81, DW_AT_accessibility(DW_ACCESS_public)
    2534                            .dwattr $C$DW$81, DW_AT_decl_file("C:/ti/simplelink_cc13x0_sdk_2_30_00_20/source/ti/ti154stack
    2535                            .dwattr $C$DW$81, DW_AT_decl_line(0x1d0)
    2536                            .dwattr $C$DW$81, DW_AT_decl_column(0x10)
    2537                    
    2538                            .dwattr $C$DW$T$68, DW_AT_decl_file("C:/ti/simplelink_cc13x0_sdk_2_30_00_20/source/ti/ti154sta
    2539                            .dwattr $C$DW$T$68, DW_AT_decl_line(0x1cb)
    2540                            .dwattr $C$DW$T$68, DW_AT_decl_column(0x10)
    2541                            .dwendtag $C$DW$T$68
    2542                    
    2543                    $C$DW$T$48      .dwtag  DW_TAG_typedef
    2544                            .dwattr $C$DW$T$48, DW_AT_name("ICall_FuncArgsHdr")
    2545                            .dwattr $C$DW$T$48, DW_AT_type(*$C$DW$T$68)
    2546                            .dwattr $C$DW$T$48, DW_AT_language(DW_LANG_C)
    2547                            .dwattr $C$DW$T$48, DW_AT_decl_file("C:/ti/simplelink_cc13x0_sdk_2_30_00_20/source/ti/ti154sta
    2548                            .dwattr $C$DW$T$48, DW_AT_decl_line(0x1d1)
    2549                            .dwattr $C$DW$T$48, DW_AT_decl_column(0x03)
    2550                    
    2551                    $C$DW$T$58      .dwtag  DW_TAG_pointer_type
    2552                            .dwattr $C$DW$T$58, DW_AT_type(*$C$DW$T$48)
    2553                            .dwattr $C$DW$T$58, DW_AT_address_class(0x20)
    2554                    
    2555                    
    2556                    $C$DW$T$69      .dwtag  DW_TAG_structure_type
    2557                            .dwattr $C$DW$T$69, DW_AT_name("_icall_get_entity_id_args_t")
    2558                            .dwattr $C$DW$T$69, DW_AT_byte_size(0x06)
    2559                    $C$DW$82        .dwtag  DW_TAG_member
    2560                            .dwattr $C$DW$82, DW_AT_type(*$C$DW$T$48)
    2561                            .dwattr $C$DW$82, DW_AT_name("hdr")
    2562                            .dwattr $C$DW$82, DW_AT_TI_symbol_name("hdr")
    2563                            .dwattr $C$DW$82, DW_AT_data_member_location[DW_OP_plus_uconst 0x0]
    2564                            .dwattr $C$DW$82, DW_AT_accessibility(DW_ACCESS_public)
    2565                            .dwattr $C$DW$82, DW_AT_decl_file("C:/ti/simplelink_cc13x0_sdk_2_30_00_20/source/ti/ti154stack
    2566                            .dwattr $C$DW$82, DW_AT_decl_line(0x362)
    2567                            .dwattr $C$DW$82, DW_AT_decl_column(0x15)
    2568                    
    2569                    $C$DW$83        .dwtag  DW_TAG_member
    2570                            .dwattr $C$DW$83, DW_AT_type(*$C$DW$T$39)
    2571                            .dwattr $C$DW$83, DW_AT_name("entity")
    2572                            .dwattr $C$DW$83, DW_AT_TI_symbol_name("entity")
    2573                            .dwattr $C$DW$83, DW_AT_data_member_location[DW_OP_plus_uconst 0x4]
    2574                            .dwattr $C$DW$83, DW_AT_accessibility(DW_ACCESS_public)
    2575                            .dwattr $C$DW$83, DW_AT_decl_file("C:/ti/simplelink_cc13x0_sdk_2_30_00_20/source/ti/ti154stack
    2576                            .dwattr $C$DW$83, DW_AT_decl_line(0x364)
    2577                            .dwattr $C$DW$83, DW_AT_decl_column(0x12)
    2578                    
    2579                            .dwattr $C$DW$T$69, DW_AT_decl_file("C:/ti/simplelink_cc13x0_sdk_2_30_00_20/source/ti/ti154sta
    2580                            .dwattr $C$DW$T$69, DW_AT_decl_line(0x35f)
    2581                            .dwattr $C$DW$T$69, DW_AT_decl_column(0x10)
    2582                            .dwendtag $C$DW$T$69
    2583                    
TI ARM Assembler PC v18.1.3 Wed Nov 28 13:22:08 2018

Tools Copyright (c) 1996-2017 Texas Instruments Incorporated
C:\Users\Adrian\AppData\Local\Temp\{9AD3DFEE-EA71-445C-92FF-0A88F830FC75} PAGE   48

    2584                    $C$DW$T$281     .dwtag  DW_TAG_typedef
    2585                            .dwattr $C$DW$T$281, DW_AT_name("ICall_GetEntityIdArgs")
    2586                            .dwattr $C$DW$T$281, DW_AT_type(*$C$DW$T$69)
    2587                            .dwattr $C$DW$T$281, DW_AT_language(DW_LANG_C)
    2588                            .dwattr $C$DW$T$281, DW_AT_decl_file("C:/ti/simplelink_cc13x0_sdk_2_30_00_20/source/ti/ti154st
    2589                            .dwattr $C$DW$T$281, DW_AT_decl_line(0x365)
    2590                            .dwattr $C$DW$T$281, DW_AT_decl_column(0x03)
    2591                    
    2592                    
    2593                    $C$DW$T$70      .dwtag  DW_TAG_structure_type
    2594                            .dwattr $C$DW$T$70, DW_AT_name("_icall_get_local_msg_entity_id_args_t")
    2595                            .dwattr $C$DW$T$70, DW_AT_byte_size(0x08)
    2596                    $C$DW$84        .dwtag  DW_TAG_member
    2597                            .dwattr $C$DW$84, DW_AT_type(*$C$DW$T$48)
    2598                            .dwattr $C$DW$84, DW_AT_name("hdr")
    2599                            .dwattr $C$DW$84, DW_AT_TI_symbol_name("hdr")
    2600                            .dwattr $C$DW$84, DW_AT_data_member_location[DW_OP_plus_uconst 0x0]
    2601                            .dwattr $C$DW$84, DW_AT_accessibility(DW_ACCESS_public)
    2602                            .dwattr $C$DW$84, DW_AT_decl_file("C:/ti/simplelink_cc13x0_sdk_2_30_00_20/source/ti/ti154stack
    2603                            .dwattr $C$DW$84, DW_AT_decl_line(0x3d1)
    2604                            .dwattr $C$DW$84, DW_AT_decl_column(0x15)
    2605                    
    2606                    $C$DW$85        .dwtag  DW_TAG_member
    2607                            .dwattr $C$DW$85, DW_AT_type(*$C$DW$T$43)
    2608                            .dwattr $C$DW$85, DW_AT_name("service")
    2609                            .dwattr $C$DW$85, DW_AT_TI_symbol_name("service")
    2610                            .dwattr $C$DW$85, DW_AT_data_member_location[DW_OP_plus_uconst 0x4]
    2611                            .dwattr $C$DW$85, DW_AT_accessibility(DW_ACCESS_public)
    2612                            .dwattr $C$DW$85, DW_AT_decl_file("C:/ti/simplelink_cc13x0_sdk_2_30_00_20/source/ti/ti154stack
    2613                            .dwattr $C$DW$85, DW_AT_decl_line(0x3d3)
    2614                            .dwattr $C$DW$85, DW_AT_decl_column(0x15)
    2615                    
    2616                    $C$DW$86        .dwtag  DW_TAG_member
    2617                            .dwattr $C$DW$86, DW_AT_type(*$C$DW$T$39)
    2618                            .dwattr $C$DW$86, DW_AT_name("entity")
    2619                            .dwattr $C$DW$86, DW_AT_TI_symbol_name("entity")
    2620                            .dwattr $C$DW$86, DW_AT_data_member_location[DW_OP_plus_uconst 0x6]
    2621                            .dwattr $C$DW$86, DW_AT_accessibility(DW_ACCESS_public)
    2622                            .dwattr $C$DW$86, DW_AT_decl_file("C:/ti/simplelink_cc13x0_sdk_2_30_00_20/source/ti/ti154stack
    2623                            .dwattr $C$DW$86, DW_AT_decl_line(0x3d5)
    2624                            .dwattr $C$DW$86, DW_AT_decl_column(0x12)
    2625                    
    2626                    $C$DW$87        .dwtag  DW_TAG_member
    2627                            .dwattr $C$DW$87, DW_AT_type(*$C$DW$T$38)
    2628                            .dwattr $C$DW$87, DW_AT_name("localId")
    2629                            .dwattr $C$DW$87, DW_AT_TI_symbol_name("localId")
    2630                            .dwattr $C$DW$87, DW_AT_data_member_location[DW_OP_plus_uconst 0x7]
    2631                            .dwattr $C$DW$87, DW_AT_accessibility(DW_ACCESS_public)
    2632                            .dwattr $C$DW$87, DW_AT_decl_file("C:/ti/simplelink_cc13x0_sdk_2_30_00_20/source/ti/ti154stack
    2633                            .dwattr $C$DW$87, DW_AT_decl_line(0x3d7)
    2634                            .dwattr $C$DW$87, DW_AT_decl_column(0x11)
    2635                    
    2636                            .dwattr $C$DW$T$70, DW_AT_decl_file("C:/ti/simplelink_cc13x0_sdk_2_30_00_20/source/ti/ti154sta
    2637                            .dwattr $C$DW$T$70, DW_AT_decl_line(0x3ce)
    2638                            .dwattr $C$DW$T$70, DW_AT_decl_column(0x10)
TI ARM Assembler PC v18.1.3 Wed Nov 28 13:22:08 2018

Tools Copyright (c) 1996-2017 Texas Instruments Incorporated
C:\Users\Adrian\AppData\Local\Temp\{9AD3DFEE-EA71-445C-92FF-0A88F830FC75} PAGE   49

    2639                            .dwendtag $C$DW$T$70
    2640                    
    2641                    $C$DW$T$282     .dwtag  DW_TAG_typedef
    2642                            .dwattr $C$DW$T$282, DW_AT_name("ICall_GetLocalMsgEntityIdArgs")
    2643                            .dwattr $C$DW$T$282, DW_AT_type(*$C$DW$T$70)
    2644                            .dwattr $C$DW$T$282, DW_AT_language(DW_LANG_C)
    2645                            .dwattr $C$DW$T$282, DW_AT_decl_file("C:/ti/simplelink_cc13x0_sdk_2_30_00_20/source/ti/ti154st
    2646                            .dwattr $C$DW$T$282, DW_AT_decl_line(0x3d8)
    2647                            .dwattr $C$DW$T$282, DW_AT_decl_column(0x03)
    2648                    
    2649                    
    2650                    $C$DW$T$72      .dwtag  DW_TAG_structure_type
    2651                            .dwattr $C$DW$T$72, DW_AT_name("_icall_getbool_args_t")
    2652                            .dwattr $C$DW$T$72, DW_AT_byte_size(0x06)
    2653                    $C$DW$88        .dwtag  DW_TAG_member
    2654                            .dwattr $C$DW$88, DW_AT_type(*$C$DW$T$48)
    2655                            .dwattr $C$DW$88, DW_AT_name("hdr")
    2656                            .dwattr $C$DW$88, DW_AT_TI_symbol_name("hdr")
    2657                            .dwattr $C$DW$88, DW_AT_data_member_location[DW_OP_plus_uconst 0x0]
    2658                            .dwattr $C$DW$88, DW_AT_accessibility(DW_ACCESS_public)
    2659                            .dwattr $C$DW$88, DW_AT_decl_file("C:/ti/simplelink_cc13x0_sdk_2_30_00_20/source/ti/ti154stack
    2660                            .dwattr $C$DW$88, DW_AT_decl_line(0x274)
    2661                            .dwattr $C$DW$88, DW_AT_decl_column(0x15)
    2662                    
    2663                    $C$DW$89        .dwtag  DW_TAG_member
    2664                            .dwattr $C$DW$89, DW_AT_type(*$C$DW$T$71)
    2665                            .dwattr $C$DW$89, DW_AT_name("value")
    2666                            .dwattr $C$DW$89, DW_AT_TI_symbol_name("value")
    2667                            .dwattr $C$DW$89, DW_AT_data_member_location[DW_OP_plus_uconst 0x4]
    2668                            .dwattr $C$DW$89, DW_AT_accessibility(DW_ACCESS_public)
    2669                            .dwattr $C$DW$89, DW_AT_decl_file("C:/ti/simplelink_cc13x0_sdk_2_30_00_20/source/ti/ti154stack
    2670                            .dwattr $C$DW$89, DW_AT_decl_line(0x276)
    2671                            .dwattr $C$DW$89, DW_AT_decl_column(0x08)
    2672                    
    2673                            .dwattr $C$DW$T$72, DW_AT_decl_file("C:/ti/simplelink_cc13x0_sdk_2_30_00_20/source/ti/ti154sta
    2674                            .dwattr $C$DW$T$72, DW_AT_decl_line(0x271)
    2675                            .dwattr $C$DW$T$72, DW_AT_decl_column(0x10)
    2676                            .dwendtag $C$DW$T$72
    2677                    
    2678                    $C$DW$T$283     .dwtag  DW_TAG_typedef
    2679                            .dwattr $C$DW$T$283, DW_AT_name("ICall_GetBoolArgs")
    2680                            .dwattr $C$DW$T$283, DW_AT_type(*$C$DW$T$72)
    2681                            .dwattr $C$DW$T$283, DW_AT_language(DW_LANG_C)
    2682                            .dwattr $C$DW$T$283, DW_AT_decl_file("C:/ti/simplelink_cc13x0_sdk_2_30_00_20/source/ti/ti154st
    2683                            .dwattr $C$DW$T$283, DW_AT_decl_line(0x277)
    2684                            .dwattr $C$DW$T$283, DW_AT_decl_column(0x03)
    2685                    
    2686                    
    2687                    $C$DW$T$73      .dwtag  DW_TAG_structure_type
    2688                            .dwattr $C$DW$T$73, DW_AT_name("_icall_getuint32_args_t")
    2689                            .dwattr $C$DW$T$73, DW_AT_byte_size(0x08)
    2690                    $C$DW$90        .dwtag  DW_TAG_member
    2691                            .dwattr $C$DW$90, DW_AT_type(*$C$DW$T$48)
    2692                            .dwattr $C$DW$90, DW_AT_name("hdr")
    2693                            .dwattr $C$DW$90, DW_AT_TI_symbol_name("hdr")
TI ARM Assembler PC v18.1.3 Wed Nov 28 13:22:08 2018

Tools Copyright (c) 1996-2017 Texas Instruments Incorporated
C:\Users\Adrian\AppData\Local\Temp\{9AD3DFEE-EA71-445C-92FF-0A88F830FC75} PAGE   50

    2694                            .dwattr $C$DW$90, DW_AT_data_member_location[DW_OP_plus_uconst 0x0]
    2695                            .dwattr $C$DW$90, DW_AT_accessibility(DW_ACCESS_public)
    2696                            .dwattr $C$DW$90, DW_AT_decl_file("C:/ti/simplelink_cc13x0_sdk_2_30_00_20/source/ti/ti154stack
    2697                            .dwattr $C$DW$90, DW_AT_decl_line(0x269)
    2698                            .dwattr $C$DW$90, DW_AT_decl_column(0x15)
    2699                    
    2700                    $C$DW$91        .dwtag  DW_TAG_member
    2701                            .dwattr $C$DW$91, DW_AT_type(*$C$DW$T$27)
    2702                            .dwattr $C$DW$91, DW_AT_name("value")
    2703                            .dwattr $C$DW$91, DW_AT_TI_symbol_name("value")
    2704                            .dwattr $C$DW$91, DW_AT_data_member_location[DW_OP_plus_uconst 0x4]
    2705                            .dwattr $C$DW$91, DW_AT_accessibility(DW_ACCESS_public)
    2706                            .dwattr $C$DW$91, DW_AT_decl_file("C:/ti/simplelink_cc13x0_sdk_2_30_00_20/source/ti/ti154stack
    2707                            .dwattr $C$DW$91, DW_AT_decl_line(0x26b)
    2708                            .dwattr $C$DW$91, DW_AT_decl_column(0x12)
    2709                    
    2710                            .dwattr $C$DW$T$73, DW_AT_decl_file("C:/ti/simplelink_cc13x0_sdk_2_30_00_20/source/ti/ti154sta
    2711                            .dwattr $C$DW$T$73, DW_AT_decl_line(0x266)
    2712                            .dwattr $C$DW$T$73, DW_AT_decl_column(0x10)
    2713                            .dwendtag $C$DW$T$73
    2714                    
    2715                    $C$DW$T$284     .dwtag  DW_TAG_typedef
    2716                            .dwattr $C$DW$T$284, DW_AT_name("ICall_GetUint32Args")
    2717                            .dwattr $C$DW$T$284, DW_AT_type(*$C$DW$T$73)
    2718                            .dwattr $C$DW$T$284, DW_AT_language(DW_LANG_C)
    2719                            .dwattr $C$DW$T$284, DW_AT_decl_file("C:/ti/simplelink_cc13x0_sdk_2_30_00_20/source/ti/ti154st
    2720                            .dwattr $C$DW$T$284, DW_AT_decl_line(0x26c)
    2721                            .dwattr $C$DW$T$284, DW_AT_decl_column(0x03)
    2722                    
    2723                    
    2724                    $C$DW$T$76      .dwtag  DW_TAG_structure_type
    2725                            .dwattr $C$DW$T$76, DW_AT_name("_icall_intnum_args_t")
    2726                            .dwattr $C$DW$T$76, DW_AT_byte_size(0x08)
    2727                    $C$DW$92        .dwtag  DW_TAG_member
    2728                            .dwattr $C$DW$92, DW_AT_type(*$C$DW$T$48)
    2729                            .dwattr $C$DW$92, DW_AT_name("hdr")
    2730                            .dwattr $C$DW$92, DW_AT_TI_symbol_name("hdr")
    2731                            .dwattr $C$DW$92, DW_AT_data_member_location[DW_OP_plus_uconst 0x0]
    2732                            .dwattr $C$DW$92, DW_AT_accessibility(DW_ACCESS_public)
    2733                            .dwattr $C$DW$92, DW_AT_decl_file("C:/ti/simplelink_cc13x0_sdk_2_30_00_20/source/ti/ti154stack
    2734                            .dwattr $C$DW$92, DW_AT_decl_line(0x249)
    2735                            .dwattr $C$DW$92, DW_AT_decl_column(0x15)
    2736                    
    2737                    $C$DW$93        .dwtag  DW_TAG_member
    2738                            .dwattr $C$DW$93, DW_AT_type(*$C$DW$T$75)
    2739                            .dwattr $C$DW$93, DW_AT_name("intnum")
    2740                            .dwattr $C$DW$93, DW_AT_TI_symbol_name("intnum")
    2741                            .dwattr $C$DW$93, DW_AT_data_member_location[DW_OP_plus_uconst 0x4]
    2742                            .dwattr $C$DW$93, DW_AT_accessibility(DW_ACCESS_public)
    2743                            .dwattr $C$DW$93, DW_AT_decl_file("C:/ti/simplelink_cc13x0_sdk_2_30_00_20/source/ti/ti154stack
    2744                            .dwattr $C$DW$93, DW_AT_decl_line(0x24b)
    2745                            .dwattr $C$DW$93, DW_AT_decl_column(0x11)
    2746                    
    2747                            .dwattr $C$DW$T$76, DW_AT_decl_file("C:/ti/simplelink_cc13x0_sdk_2_30_00_20/source/ti/ti154sta
    2748                            .dwattr $C$DW$T$76, DW_AT_decl_line(0x246)
TI ARM Assembler PC v18.1.3 Wed Nov 28 13:22:08 2018

Tools Copyright (c) 1996-2017 Texas Instruments Incorporated
C:\Users\Adrian\AppData\Local\Temp\{9AD3DFEE-EA71-445C-92FF-0A88F830FC75} PAGE   51

    2749                            .dwattr $C$DW$T$76, DW_AT_decl_column(0x10)
    2750                            .dwendtag $C$DW$T$76
    2751                    
    2752                    $C$DW$T$285     .dwtag  DW_TAG_typedef
    2753                            .dwattr $C$DW$T$285, DW_AT_name("ICall_IntNumArgs")
    2754                            .dwattr $C$DW$T$285, DW_AT_type(*$C$DW$T$76)
    2755                            .dwattr $C$DW$T$285, DW_AT_language(DW_LANG_C)
    2756                            .dwattr $C$DW$T$285, DW_AT_decl_file("C:/ti/simplelink_cc13x0_sdk_2_30_00_20/source/ti/ti154st
    2757                            .dwattr $C$DW$T$285, DW_AT_decl_line(0x24c)
    2758                            .dwattr $C$DW$T$285, DW_AT_decl_column(0x03)
    2759                    
    2760                    
    2761                    $C$DW$T$79      .dwtag  DW_TAG_structure_type
    2762                            .dwattr $C$DW$T$79, DW_AT_name("_icall_msg_hdr_t")
    2763                            .dwattr $C$DW$T$79, DW_AT_byte_size(0x0c)
    2764                    $C$DW$94        .dwtag  DW_TAG_member
    2765                            .dwattr $C$DW$94, DW_AT_type(*$C$DW$T$3)
    2766                            .dwattr $C$DW$94, DW_AT_name("next")
    2767                            .dwattr $C$DW$94, DW_AT_TI_symbol_name("next")
    2768                            .dwattr $C$DW$94, DW_AT_data_member_location[DW_OP_plus_uconst 0x0]
    2769                            .dwattr $C$DW$94, DW_AT_accessibility(DW_ACCESS_public)
    2770                            .dwattr $C$DW$94, DW_AT_decl_file("C:/ti/simplelink_cc13x0_sdk_2_30_00_20/source/ti/ti154stack
    2771                            .dwattr $C$DW$94, DW_AT_decl_line(0x317)
    2772                            .dwattr $C$DW$94, DW_AT_decl_column(0x0c)
    2773                    
    2774                    $C$DW$95        .dwtag  DW_TAG_member
    2775                            .dwattr $C$DW$95, DW_AT_type(*$C$DW$T$77)
    2776                            .dwattr $C$DW$95, DW_AT_name("srcentity")
    2777                            .dwattr $C$DW$95, DW_AT_TI_symbol_name("srcentity")
    2778                            .dwattr $C$DW$95, DW_AT_data_member_location[DW_OP_plus_uconst 0x4]
    2779                            .dwattr $C$DW$95, DW_AT_accessibility(DW_ACCESS_public)
    2780                            .dwattr $C$DW$95, DW_AT_decl_file("C:/ti/simplelink_cc13x0_sdk_2_30_00_20/source/ti/ti154stack
    2781                            .dwattr $C$DW$95, DW_AT_decl_line(0x318)
    2782                            .dwattr $C$DW$95, DW_AT_decl_column(0x0c)
    2783                    
    2784                    $C$DW$96        .dwtag  DW_TAG_member
    2785                            .dwattr $C$DW$96, DW_AT_type(*$C$DW$T$77)
    2786                            .dwattr $C$DW$96, DW_AT_name("dstentity")
    2787                            .dwattr $C$DW$96, DW_AT_TI_symbol_name("dstentity")
    2788                            .dwattr $C$DW$96, DW_AT_data_member_location[DW_OP_plus_uconst 0x5]
    2789                            .dwattr $C$DW$96, DW_AT_accessibility(DW_ACCESS_public)
    2790                            .dwattr $C$DW$96, DW_AT_decl_file("C:/ti/simplelink_cc13x0_sdk_2_30_00_20/source/ti/ti154stack
    2791                            .dwattr $C$DW$96, DW_AT_decl_line(0x319)
    2792                            .dwattr $C$DW$96, DW_AT_decl_column(0x0c)
    2793                    
    2794                    $C$DW$97        .dwtag  DW_TAG_member
    2795                            .dwattr $C$DW$97, DW_AT_type(*$C$DW$T$77)
    2796                            .dwattr $C$DW$97, DW_AT_name("format")
    2797                            .dwattr $C$DW$97, DW_AT_TI_symbol_name("format")
    2798                            .dwattr $C$DW$97, DW_AT_data_member_location[DW_OP_plus_uconst 0x6]
    2799                            .dwattr $C$DW$97, DW_AT_accessibility(DW_ACCESS_public)
    2800                            .dwattr $C$DW$97, DW_AT_decl_file("C:/ti/simplelink_cc13x0_sdk_2_30_00_20/source/ti/ti154stack
    2801                            .dwattr $C$DW$97, DW_AT_decl_line(0x31a)
    2802                            .dwattr $C$DW$97, DW_AT_decl_column(0x0c)
    2803                    
TI ARM Assembler PC v18.1.3 Wed Nov 28 13:22:08 2018

Tools Copyright (c) 1996-2017 Texas Instruments Incorporated
C:\Users\Adrian\AppData\Local\Temp\{9AD3DFEE-EA71-445C-92FF-0A88F830FC75} PAGE   52

    2804                    $C$DW$98        .dwtag  DW_TAG_member
    2805                            .dwattr $C$DW$98, DW_AT_type(*$C$DW$T$78)
    2806                            .dwattr $C$DW$98, DW_AT_name("len")
    2807                            .dwattr $C$DW$98, DW_AT_TI_symbol_name("len")
    2808                            .dwattr $C$DW$98, DW_AT_data_member_location[DW_OP_plus_uconst 0x8]
    2809                            .dwattr $C$DW$98, DW_AT_accessibility(DW_ACCESS_public)
    2810                            .dwattr $C$DW$98, DW_AT_decl_file("C:/ti/simplelink_cc13x0_sdk_2_30_00_20/source/ti/ti154stack
    2811                            .dwattr $C$DW$98, DW_AT_decl_line(0x31b)
    2812                            .dwattr $C$DW$98, DW_AT_decl_column(0x0c)
    2813                    
    2814                    $C$DW$99        .dwtag  DW_TAG_member
    2815                            .dwattr $C$DW$99, DW_AT_type(*$C$DW$T$77)
    2816                            .dwattr $C$DW$99, DW_AT_name("dest_id")
    2817                            .dwattr $C$DW$99, DW_AT_TI_symbol_name("dest_id")
    2818                            .dwattr $C$DW$99, DW_AT_data_member_location[DW_OP_plus_uconst 0xa]
    2819                            .dwattr $C$DW$99, DW_AT_accessibility(DW_ACCESS_public)
    2820                            .dwattr $C$DW$99, DW_AT_decl_file("C:/ti/simplelink_cc13x0_sdk_2_30_00_20/source/ti/ti154stack
    2821                            .dwattr $C$DW$99, DW_AT_decl_line(0x31c)
    2822                            .dwattr $C$DW$99, DW_AT_decl_column(0x0c)
    2823                    
    2824                            .dwattr $C$DW$T$79, DW_AT_decl_file("C:/ti/simplelink_cc13x0_sdk_2_30_00_20/source/ti/ti154sta
    2825                            .dwattr $C$DW$T$79, DW_AT_decl_line(0x315)
    2826                            .dwattr $C$DW$T$79, DW_AT_decl_column(0x10)
    2827                            .dwendtag $C$DW$T$79
    2828                    
    2829                    $C$DW$T$31      .dwtag  DW_TAG_typedef
    2830                            .dwattr $C$DW$T$31, DW_AT_name("ICall_MsgHdr")
    2831                            .dwattr $C$DW$T$31, DW_AT_type(*$C$DW$T$79)
    2832                            .dwattr $C$DW$T$31, DW_AT_language(DW_LANG_C)
    2833                            .dwattr $C$DW$T$31, DW_AT_decl_file("C:/ti/simplelink_cc13x0_sdk_2_30_00_20/source/ti/ti154sta
    2834                            .dwattr $C$DW$T$31, DW_AT_decl_line(0x31d)
    2835                            .dwattr $C$DW$T$31, DW_AT_decl_column(0x03)
    2836                    
    2837                    $C$DW$T$286     .dwtag  DW_TAG_typedef
    2838                            .dwattr $C$DW$T$286, DW_AT_name("osal_msg_hdr_t")
    2839                            .dwattr $C$DW$T$286, DW_AT_type(*$C$DW$T$31)
    2840                            .dwattr $C$DW$T$286, DW_AT_language(DW_LANG_C)
    2841                            .dwattr $C$DW$T$286, DW_AT_decl_file("..\Application\MAC\OSAL\osal.h")
    2842                            .dwattr $C$DW$T$286, DW_AT_decl_line(0x68)
    2843                            .dwattr $C$DW$T$286, DW_AT_decl_column(0x16)
    2844                    
    2845                    
    2846                    $C$DW$T$83      .dwtag  DW_TAG_structure_type
    2847                            .dwattr $C$DW$T$83, DW_AT_name("_icall_pwr_bitmap_args_t")
    2848                            .dwattr $C$DW$T$83, DW_AT_byte_size(0x08)
    2849                    $C$DW$100       .dwtag  DW_TAG_member
    2850                            .dwattr $C$DW$100, DW_AT_type(*$C$DW$T$48)
    2851                            .dwattr $C$DW$100, DW_AT_name("hdr")
    2852                            .dwattr $C$DW$100, DW_AT_TI_symbol_name("hdr")
    2853                            .dwattr $C$DW$100, DW_AT_data_member_location[DW_OP_plus_uconst 0x0]
    2854                            .dwattr $C$DW$100, DW_AT_accessibility(DW_ACCESS_public)
    2855                            .dwattr $C$DW$100, DW_AT_decl_file("C:/ti/simplelink_cc13x0_sdk_2_30_00_20/source/ti/ti154stac
    2856                            .dwattr $C$DW$100, DW_AT_decl_line(0x290)
    2857                            .dwattr $C$DW$100, DW_AT_decl_column(0x15)
    2858                    
TI ARM Assembler PC v18.1.3 Wed Nov 28 13:22:08 2018

Tools Copyright (c) 1996-2017 Texas Instruments Incorporated
C:\Users\Adrian\AppData\Local\Temp\{9AD3DFEE-EA71-445C-92FF-0A88F830FC75} PAGE   53

    2859                    $C$DW$101       .dwtag  DW_TAG_member
    2860                            .dwattr $C$DW$101, DW_AT_type(*$C$DW$T$82)
    2861                            .dwattr $C$DW$101, DW_AT_name("bitmap")
    2862                            .dwattr $C$DW$101, DW_AT_TI_symbol_name("bitmap")
    2863                            .dwattr $C$DW$101, DW_AT_data_member_location[DW_OP_plus_uconst 0x4]
    2864                            .dwattr $C$DW$101, DW_AT_accessibility(DW_ACCESS_public)
    2865                            .dwattr $C$DW$101, DW_AT_decl_file("C:/ti/simplelink_cc13x0_sdk_2_30_00_20/source/ti/ti154stac
    2866                            .dwattr $C$DW$101, DW_AT_decl_line(0x292)
    2867                            .dwattr $C$DW$101, DW_AT_decl_column(0x15)
    2868                    
    2869                            .dwattr $C$DW$T$83, DW_AT_decl_file("C:/ti/simplelink_cc13x0_sdk_2_30_00_20/source/ti/ti154sta
    2870                            .dwattr $C$DW$T$83, DW_AT_decl_line(0x28d)
    2871                            .dwattr $C$DW$T$83, DW_AT_decl_column(0x10)
    2872                            .dwendtag $C$DW$T$83
    2873                    
    2874                    $C$DW$T$287     .dwtag  DW_TAG_typedef
    2875                            .dwattr $C$DW$T$287, DW_AT_name("ICall_PwrBitmapArgs")
    2876                            .dwattr $C$DW$T$287, DW_AT_type(*$C$DW$T$83)
    2877                            .dwattr $C$DW$T$287, DW_AT_language(DW_LANG_C)
    2878                            .dwattr $C$DW$T$287, DW_AT_decl_file("C:/ti/simplelink_cc13x0_sdk_2_30_00_20/source/ti/ti154st
    2879                            .dwattr $C$DW$T$287, DW_AT_decl_line(0x293)
    2880                            .dwattr $C$DW$T$287, DW_AT_decl_column(0x03)
    2881                    
    2882                    
    2883                    $C$DW$T$86      .dwtag  DW_TAG_structure_type
    2884                            .dwattr $C$DW$T$86, DW_AT_name("_icall_pwr_get_transition_state_args_t")
    2885                            .dwattr $C$DW$T$86, DW_AT_byte_size(0x08)
    2886                    $C$DW$102       .dwtag  DW_TAG_member
    2887                            .dwattr $C$DW$102, DW_AT_type(*$C$DW$T$48)
    2888                            .dwattr $C$DW$102, DW_AT_name("hdr")
    2889                            .dwattr $C$DW$102, DW_AT_TI_symbol_name("hdr")
    2890                            .dwattr $C$DW$102, DW_AT_data_member_location[DW_OP_plus_uconst 0x0]
    2891                            .dwattr $C$DW$102, DW_AT_accessibility(DW_ACCESS_public)
    2892                            .dwattr $C$DW$102, DW_AT_decl_file("C:/ti/simplelink_cc13x0_sdk_2_30_00_20/source/ti/ti154stac
    2893                            .dwattr $C$DW$102, DW_AT_decl_line(0x29b)
    2894                            .dwattr $C$DW$102, DW_AT_decl_column(0x15)
    2895                    
    2896                    $C$DW$103       .dwtag  DW_TAG_member
    2897                            .dwattr $C$DW$103, DW_AT_type(*$C$DW$T$85)
    2898                            .dwattr $C$DW$103, DW_AT_name("state")
    2899                            .dwattr $C$DW$103, DW_AT_TI_symbol_name("state")
    2900                            .dwattr $C$DW$103, DW_AT_data_member_location[DW_OP_plus_uconst 0x4]
    2901                            .dwattr $C$DW$103, DW_AT_accessibility(DW_ACCESS_public)
    2902                            .dwattr $C$DW$103, DW_AT_decl_file("C:/ti/simplelink_cc13x0_sdk_2_30_00_20/source/ti/ti154stac
    2903                            .dwattr $C$DW$103, DW_AT_decl_line(0x29d)
    2904                            .dwattr $C$DW$103, DW_AT_decl_column(0x10)
    2905                    
    2906                            .dwattr $C$DW$T$86, DW_AT_decl_file("C:/ti/simplelink_cc13x0_sdk_2_30_00_20/source/ti/ti154sta
    2907                            .dwattr $C$DW$T$86, DW_AT_decl_line(0x298)
    2908                            .dwattr $C$DW$T$86, DW_AT_decl_column(0x10)
    2909                            .dwendtag $C$DW$T$86
    2910                    
    2911                    $C$DW$T$288     .dwtag  DW_TAG_typedef
    2912                            .dwattr $C$DW$T$288, DW_AT_name("ICall_PwrGetTransitionStateArgs")
    2913                            .dwattr $C$DW$T$288, DW_AT_type(*$C$DW$T$86)
TI ARM Assembler PC v18.1.3 Wed Nov 28 13:22:08 2018

Tools Copyright (c) 1996-2017 Texas Instruments Incorporated
C:\Users\Adrian\AppData\Local\Temp\{9AD3DFEE-EA71-445C-92FF-0A88F830FC75} PAGE   54

    2914                            .dwattr $C$DW$T$288, DW_AT_language(DW_LANG_C)
    2915                            .dwattr $C$DW$T$288, DW_AT_decl_file("C:/ti/simplelink_cc13x0_sdk_2_30_00_20/source/ti/ti154st
    2916                            .dwattr $C$DW$T$288, DW_AT_decl_line(0x29e)
    2917                            .dwattr $C$DW$T$288, DW_AT_decl_column(0x03)
    2918                    
    2919                    
    2920                    $C$DW$T$87      .dwtag  DW_TAG_structure_type
    2921                            .dwattr $C$DW$T$87, DW_AT_name("_icall_pwr_get_xosc_startup_time_args_t")
    2922                            .dwattr $C$DW$T$87, DW_AT_byte_size(0x0c)
    2923                    $C$DW$104       .dwtag  DW_TAG_member
    2924                            .dwattr $C$DW$104, DW_AT_type(*$C$DW$T$48)
    2925                            .dwattr $C$DW$104, DW_AT_name("hdr")
    2926                            .dwattr $C$DW$104, DW_AT_TI_symbol_name("hdr")
    2927                            .dwattr $C$DW$104, DW_AT_data_member_location[DW_OP_plus_uconst 0x0]
    2928                            .dwattr $C$DW$104, DW_AT_accessibility(DW_ACCESS_public)
    2929                            .dwattr $C$DW$104, DW_AT_decl_file("C:/ti/simplelink_cc13x0_sdk_2_30_00_20/source/ti/ti154stac
    2930                            .dwattr $C$DW$104, DW_AT_decl_line(0x2a6)
    2931                            .dwattr $C$DW$104, DW_AT_decl_column(0x15)
    2932                    
    2933                    $C$DW$105       .dwtag  DW_TAG_member
    2934                            .dwattr $C$DW$105, DW_AT_type(*$C$DW$T$27)
    2935                            .dwattr $C$DW$105, DW_AT_name("timeUntilWakeupInMs")
    2936                            .dwattr $C$DW$105, DW_AT_TI_symbol_name("timeUntilWakeupInMs")
    2937                            .dwattr $C$DW$105, DW_AT_data_member_location[DW_OP_plus_uconst 0x4]
    2938                            .dwattr $C$DW$105, DW_AT_accessibility(DW_ACCESS_public)
    2939                            .dwattr $C$DW$105, DW_AT_decl_file("C:/ti/simplelink_cc13x0_sdk_2_30_00_20/source/ti/ti154stac
    2940                            .dwattr $C$DW$105, DW_AT_decl_line(0x2a8)
    2941                            .dwattr $C$DW$105, DW_AT_decl_column(0x12)
    2942                    
    2943                    $C$DW$106       .dwtag  DW_TAG_member
    2944                            .dwattr $C$DW$106, DW_AT_type(*$C$DW$T$27)
    2945                            .dwattr $C$DW$106, DW_AT_name("value")
    2946                            .dwattr $C$DW$106, DW_AT_TI_symbol_name("value")
    2947                            .dwattr $C$DW$106, DW_AT_data_member_location[DW_OP_plus_uconst 0x8]
    2948                            .dwattr $C$DW$106, DW_AT_accessibility(DW_ACCESS_public)
    2949                            .dwattr $C$DW$106, DW_AT_decl_file("C:/ti/simplelink_cc13x0_sdk_2_30_00_20/source/ti/ti154stac
    2950                            .dwattr $C$DW$106, DW_AT_decl_line(0x2aa)
    2951                            .dwattr $C$DW$106, DW_AT_decl_column(0x12)
    2952                    
    2953                            .dwattr $C$DW$T$87, DW_AT_decl_file("C:/ti/simplelink_cc13x0_sdk_2_30_00_20/source/ti/ti154sta
    2954                            .dwattr $C$DW$T$87, DW_AT_decl_line(0x2a3)
    2955                            .dwattr $C$DW$T$87, DW_AT_decl_column(0x10)
    2956                            .dwendtag $C$DW$T$87
    2957                    
    2958                    $C$DW$T$289     .dwtag  DW_TAG_typedef
    2959                            .dwattr $C$DW$T$289, DW_AT_name("ICall_PwrGetXOSCStartupTimeArgs")
    2960                            .dwattr $C$DW$T$289, DW_AT_type(*$C$DW$T$87)
    2961                            .dwattr $C$DW$T$289, DW_AT_language(DW_LANG_C)
    2962                            .dwattr $C$DW$T$289, DW_AT_decl_file("C:/ti/simplelink_cc13x0_sdk_2_30_00_20/source/ti/ti154st
    2963                            .dwattr $C$DW$T$289, DW_AT_decl_line(0x2ab)
    2964                            .dwattr $C$DW$T$289, DW_AT_decl_column(0x03)
    2965                    
    2966                    
    2967                    $C$DW$T$93      .dwtag  DW_TAG_structure_type
    2968                            .dwattr $C$DW$T$93, DW_AT_name("_icall_pwr_notify_data_t")
TI ARM Assembler PC v18.1.3 Wed Nov 28 13:22:08 2018

Tools Copyright (c) 1996-2017 Texas Instruments Incorporated
C:\Users\Adrian\AppData\Local\Temp\{9AD3DFEE-EA71-445C-92FF-0A88F830FC75} PAGE   55

    2969                            .dwattr $C$DW$T$93, DW_AT_byte_size(0x04)
    2970                    $C$DW$107       .dwtag  DW_TAG_member
    2971                            .dwattr $C$DW$107, DW_AT_type(*$C$DW$T$92)
    2972                            .dwattr $C$DW$107, DW_AT_name("_private")
    2973                            .dwattr $C$DW$107, DW_AT_TI_symbol_name("_private")
    2974                            .dwattr $C$DW$107, DW_AT_data_member_location[DW_OP_plus_uconst 0x0]
    2975                            .dwattr $C$DW$107, DW_AT_accessibility(DW_ACCESS_public)
    2976                            .dwattr $C$DW$107, DW_AT_decl_file("C:/ti/simplelink_cc13x0_sdk_2_30_00_20/source/ti/ti154stac
    2977                            .dwattr $C$DW$107, DW_AT_decl_line(0x33f)
    2978                            .dwattr $C$DW$107, DW_AT_decl_column(0x15)
    2979                    
    2980                            .dwattr $C$DW$T$93, DW_AT_decl_file("C:/ti/simplelink_cc13x0_sdk_2_30_00_20/source/ti/ti154sta
    2981                            .dwattr $C$DW$T$93, DW_AT_decl_line(0x339)
    2982                            .dwattr $C$DW$T$93, DW_AT_decl_column(0x10)
    2983                            .dwendtag $C$DW$T$93
    2984                    
    2985                    $C$DW$T$94      .dwtag  DW_TAG_typedef
    2986                            .dwattr $C$DW$T$94, DW_AT_name("ICall_PwrNotifyData")
    2987                            .dwattr $C$DW$T$94, DW_AT_type(*$C$DW$T$93)
    2988                            .dwattr $C$DW$T$94, DW_AT_language(DW_LANG_C)
    2989                            .dwattr $C$DW$T$94, DW_AT_decl_file("C:/ti/simplelink_cc13x0_sdk_2_30_00_20/source/ti/ti154sta
    2990                            .dwattr $C$DW$T$94, DW_AT_decl_line(0x340)
    2991                            .dwattr $C$DW$T$94, DW_AT_decl_column(0x03)
    2992                    
    2993                    $C$DW$T$95      .dwtag  DW_TAG_pointer_type
    2994                            .dwattr $C$DW$T$95, DW_AT_type(*$C$DW$T$94)
    2995                            .dwattr $C$DW$T$95, DW_AT_address_class(0x20)
    2996                    
    2997                    $C$DW$T$89      .dwtag  DW_TAG_pointer_type
    2998                            .dwattr $C$DW$T$89, DW_AT_type(*$C$DW$T$93)
    2999                            .dwattr $C$DW$T$89, DW_AT_address_class(0x20)
    3000                    
    3001                    
    3002                    $C$DW$T$96      .dwtag  DW_TAG_structure_type
    3003                            .dwattr $C$DW$T$96, DW_AT_name("_icall_pwr_register_notify_args_t")
    3004                            .dwattr $C$DW$T$96, DW_AT_byte_size(0x0c)
    3005                    $C$DW$108       .dwtag  DW_TAG_member
    3006                            .dwattr $C$DW$108, DW_AT_type(*$C$DW$T$48)
    3007                            .dwattr $C$DW$108, DW_AT_name("hdr")
    3008                            .dwattr $C$DW$108, DW_AT_TI_symbol_name("hdr")
    3009                            .dwattr $C$DW$108, DW_AT_data_member_location[DW_OP_plus_uconst 0x0]
    3010                            .dwattr $C$DW$108, DW_AT_accessibility(DW_ACCESS_public)
    3011                            .dwattr $C$DW$108, DW_AT_decl_file("C:/ti/simplelink_cc13x0_sdk_2_30_00_20/source/ti/ti154stac
    3012                            .dwattr $C$DW$108, DW_AT_decl_line(0x346)
    3013                            .dwattr $C$DW$108, DW_AT_decl_column(0x15)
    3014                    
    3015                    $C$DW$109       .dwtag  DW_TAG_member
    3016                            .dwattr $C$DW$109, DW_AT_type(*$C$DW$T$92)
    3017                            .dwattr $C$DW$109, DW_AT_name("fn")
    3018                            .dwattr $C$DW$109, DW_AT_TI_symbol_name("fn")
    3019                            .dwattr $C$DW$109, DW_AT_data_member_location[DW_OP_plus_uconst 0x4]
    3020                            .dwattr $C$DW$109, DW_AT_accessibility(DW_ACCESS_public)
    3021                            .dwattr $C$DW$109, DW_AT_decl_file("C:/ti/simplelink_cc13x0_sdk_2_30_00_20/source/ti/ti154stac
    3022                            .dwattr $C$DW$109, DW_AT_decl_line(0x348)
    3023                            .dwattr $C$DW$109, DW_AT_decl_column(0x15)
TI ARM Assembler PC v18.1.3 Wed Nov 28 13:22:08 2018

Tools Copyright (c) 1996-2017 Texas Instruments Incorporated
C:\Users\Adrian\AppData\Local\Temp\{9AD3DFEE-EA71-445C-92FF-0A88F830FC75} PAGE   56

    3024                    
    3025                    $C$DW$110       .dwtag  DW_TAG_member
    3026                            .dwattr $C$DW$110, DW_AT_type(*$C$DW$T$95)
    3027                            .dwattr $C$DW$110, DW_AT_name("obj")
    3028                            .dwattr $C$DW$110, DW_AT_TI_symbol_name("obj")
    3029                            .dwattr $C$DW$110, DW_AT_data_member_location[DW_OP_plus_uconst 0x8]
    3030                            .dwattr $C$DW$110, DW_AT_accessibility(DW_ACCESS_public)
    3031                            .dwattr $C$DW$110, DW_AT_decl_file("C:/ti/simplelink_cc13x0_sdk_2_30_00_20/source/ti/ti154stac
    3032                            .dwattr $C$DW$110, DW_AT_decl_line(0x34a)
    3033                            .dwattr $C$DW$110, DW_AT_decl_column(0x18)
    3034                    
    3035                            .dwattr $C$DW$T$96, DW_AT_decl_file("C:/ti/simplelink_cc13x0_sdk_2_30_00_20/source/ti/ti154sta
    3036                            .dwattr $C$DW$T$96, DW_AT_decl_line(0x343)
    3037                            .dwattr $C$DW$T$96, DW_AT_decl_column(0x10)
    3038                            .dwendtag $C$DW$T$96
    3039                    
    3040                    $C$DW$T$290     .dwtag  DW_TAG_typedef
    3041                            .dwattr $C$DW$T$290, DW_AT_name("ICall_PwrRegisterNotifyArgs")
    3042                            .dwattr $C$DW$T$290, DW_AT_type(*$C$DW$T$96)
    3043                            .dwattr $C$DW$T$290, DW_AT_language(DW_LANG_C)
    3044                            .dwattr $C$DW$T$290, DW_AT_decl_file("C:/ti/simplelink_cc13x0_sdk_2_30_00_20/source/ti/ti154st
    3045                            .dwattr $C$DW$T$290, DW_AT_decl_line(0x34b)
    3046                            .dwattr $C$DW$T$290, DW_AT_decl_column(0x03)
    3047                    
    3048                    
    3049                    $C$DW$T$97      .dwtag  DW_TAG_structure_type
    3050                            .dwattr $C$DW$T$97, DW_AT_name("_icall_pwr_upd_activity_counter_args_t")
    3051                            .dwattr $C$DW$T$97, DW_AT_byte_size(0x06)
    3052                    $C$DW$111       .dwtag  DW_TAG_member
    3053                            .dwattr $C$DW$111, DW_AT_type(*$C$DW$T$48)
    3054                            .dwattr $C$DW$111, DW_AT_name("hdr")
    3055                            .dwattr $C$DW$111, DW_AT_TI_symbol_name("hdr")
    3056                            .dwattr $C$DW$111, DW_AT_data_member_location[DW_OP_plus_uconst 0x0]
    3057                            .dwattr $C$DW$111, DW_AT_accessibility(DW_ACCESS_public)
    3058                            .dwattr $C$DW$111, DW_AT_decl_file("C:/ti/simplelink_cc13x0_sdk_2_30_00_20/source/ti/ti154stac
    3059                            .dwattr $C$DW$111, DW_AT_decl_line(0x27d)
    3060                            .dwattr $C$DW$111, DW_AT_decl_column(0x15)
    3061                    
    3062                    $C$DW$112       .dwtag  DW_TAG_member
    3063                            .dwattr $C$DW$112, DW_AT_type(*$C$DW$T$71)
    3064                            .dwattr $C$DW$112, DW_AT_name("incFlag")
    3065                            .dwattr $C$DW$112, DW_AT_TI_symbol_name("incFlag")
