******************************************************************************
                  TI ARM Linker PC v18.1.3                     
******************************************************************************
>> Linked Wed Nov 28 13:22:14 2018

OUTPUT FILE NAME:   <collector_cc1350lp.out>
ENTRY POINT SYMBOL: "ResetISR"  address: 000155dd


MEMORY CONFIGURATION

         name            origin    length      used     unused   attr    fill
----------------------  --------  ---------  --------  --------  ----  --------
  FLASH                 00000000   0001e000  00019cb8  00004348  R  X
  FLASH_NV              0001e000   00001000  00001000  00000000  RW X
  FLASH_LAST            0001f000   00001000  00000b34  000004cc  R  X
  SRAM                  20000000   00005000  000035ec  00001a14  RW X


SEGMENT ALLOCATION MAP

run origin  load origin   length   init length attrs members
----------  ----------- ---------- ----------- ----- -------
00000000    00000000    00000c90   00000c90    r--
  00000000    00000000    0000003c   0000003c    r-- .resetVecs
  0000003c    0000003c    00000c54   00000c54    r-- .const
00001000    00001000    00019038   00019038    r-x
  00001000    00001000    0000003c   0000003c    r-- .const:ti_sysbios_knl_Task_Object__PARAMS__C
  0000103c    0000103c    00000034   00000034    r-- .const:ti_sysbios_knl_Mailbox_Object__PARAMS__C
  00001070    00001070    00000030   00000030    r-- .const:ti_sysbios_family_arm_m3_Hwi_Object__PARAMS__C
  000010a0    000010a0    0000002c   0000002c    r-- .const:ti_sysbios_hal_Hwi_Object__PARAMS__C
  000010cc    000010cc    00000028   00000028    r-- .const:ti_sysbios_heaps_HeapMem_Module__FXNS__C
  000010f4    000010f4    00000028   00000028    r-- .const:ti_sysbios_knl_Swi_Object__PARAMS__C
  0000111c    0000111c    00000024   00000024    r-- .const:ti_sysbios_gates_GateHwi_Module__FXNS__C
  00001140    00001140    00000024   00000024    r-- .const:ti_sysbios_gates_GateMutex_Module__FXNS__C
  00001164    00001164    00000024   00000024    r-- .const:ti_sysbios_heaps_HeapMem_Object__PARAMS__C
  00001188    00001188    00000024   00000024    r-- .const:ti_sysbios_knl_Clock_Object__PARAMS__C
  000011ac    000011ac    00000024   00000024    r-- .const:ti_sysbios_knl_Semaphore_Object__PARAMS__C
  000011d0    000011d0    00000020   00000020    r-- .const:ti_sysbios_family_arm_m3_Hwi_Object__DESC__C
  000011f0    000011f0    00000020   00000020    r-- .const:ti_sysbios_gates_GateHwi_Object__DESC__C
  00001210    00001210    00000020   00000020    r-- .const:ti_sysbios_gates_GateMutex_Object__DESC__C
  00001230    00001230    00000020   00000020    r-- .const:ti_sysbios_hal_Hwi_Object__DESC__C
  00001250    00001250    00000020   00000020    r-- .const:ti_sysbios_heaps_HeapMem_Object__DESC__C
  00001270    00001270    00000020   00000020    r-- .const:ti_sysbios_knl_Clock_Object__DESC__C
  00001290    00001290    00000020   00000020    r-- .const:ti_sysbios_knl_Mailbox_Object__DESC__C
  000012b0    000012b0    00000020   00000020    r-- .const:ti_sysbios_knl_Queue_Object__DESC__C
  000012d0    000012d0    00000020   00000020    r-- .const:ti_sysbios_knl_Semaphore_Object__DESC__C
  000012f0    000012f0    00000020   00000020    r-- .const:ti_sysbios_knl_Swi_Object__DESC__C
  00001310    00001310    00000020   00000020    r-- .const:ti_sysbios_knl_Task_Object__DESC__C
  00001330    00001330    00000018   00000018    r-- .const:ti_sysbios_gates_GateHwi_Object__PARAMS__C
  00001348    00001348    00000018   00000018    r-- .const:ti_sysbios_gates_GateMutex_Object__PARAMS__C
  00001360    00001360    00000018   00000018    r-- .const:ti_sysbios_knl_Queue_Object__PARAMS__C
  00001378    00001378    00000008   00000008    r-- .const:ti_sysbios_knl_Idle_funcList__C
  00001384    00001384    00000004   00000004    r-- .const:ti_sysbios_family_arm_cc26xx_Timer_startupNeeded__C
  00001388    00001388    00000004   00000004    r-- .const:ti_sysbios_family_arm_m3_Hwi_E_alreadyDefined__C
  0000138c    0000138c    00000004   00000004    r-- .const:ti_sysbios_family_arm_m3_Hwi_E_hwiLimitExceeded__C
  00001390    00001390    00000004   00000004    r-- .const:ti_sysbios_family_arm_m3_Hwi_NUM_INTERRUPTS__C
  00001394    00001394    00000004   00000004    r-- .const:ti_sysbios_family_arm_m3_Hwi_Object__count__C
  00001398    00001398    00000004   00000004    r-- .const:ti_sysbios_family_arm_m3_Hwi_Object__table__C
  0000139c    0000139c    00000004   00000004    r-- .const:ti_sysbios_family_arm_m3_Hwi_ccr__C
  000013a0    000013a0    00000004   00000004    r-- .const:ti_sysbios_family_arm_m3_Hwi_excHandlerFunc__C
  000013a4    000013a4    00000004   00000004    r-- .const:ti_sysbios_family_arm_m3_Hwi_nullIsrFunc__C
  000013a8    000013a8    00000004   00000004    r-- .const:ti_sysbios_family_arm_m3_Hwi_numSparseInterrupts__C
  000013ac    000013ac    00000004   00000004    r-- .const:ti_sysbios_family_arm_m3_Hwi_priGroup__C
  000013b0    000013b0    00000004   00000004    r-- .const:ti_sysbios_family_arm_m3_TaskSupport_stackAlignment__C
  000013b4    000013b4    00000004   00000004    r-- .const:ti_sysbios_heaps_HeapMem_E_memory__C
  000013b8    000013b8    00000004   00000004    r-- .const:ti_sysbios_heaps_HeapMem_Module__gateObj__C
  000013bc    000013bc    00000004   00000004    r-- .const:ti_sysbios_heaps_HeapMem_Object__count__C
  000013c0    000013c0    00000004   00000004    r-- .const:ti_sysbios_heaps_HeapMem_Object__table__C
  000013c4    000013c4    00000004   00000004    r-- .const:ti_sysbios_heaps_HeapMem_reqAlign__C
  000013c8    000013c8    00000004   00000004    r-- .const:ti_sysbios_knl_Clock_serviceMargin__C
  000013cc    000013cc    00000004   00000004    r-- .const:ti_sysbios_knl_Mailbox_Object__count__C
  000013d0    000013d0    00000004   00000004    r-- .const:ti_sysbios_knl_Mailbox_Object__table__C
  000013d4    000013d4    00000004   00000004    r-- .const:ti_sysbios_knl_Mailbox_maxTypeAlign__C
  000013d8    000013d8    00000004   00000004    r-- .const:ti_sysbios_knl_Queue_Object__count__C
  000013dc    000013dc    00000004   00000004    r-- .const:ti_sysbios_knl_Queue_Object__table__C
  000013e0    000013e0    00000004   00000004    r-- .const:ti_sysbios_knl_Swi_Object__count__C
  000013e4    000013e4    00000004   00000004    r-- .const:ti_sysbios_knl_Swi_Object__table__C
  000013e8    000013e8    00000004   00000004    r-- .const:ti_sysbios_knl_Swi_numPriorities__C
  000013ec    000013ec    00000004   00000004    r-- .const:ti_sysbios_knl_Task_Object__count__C
  000013f0    000013f0    00000004   00000004    r-- .const:ti_sysbios_knl_Task_Object__table__C
  000013f4    000013f4    00000004   00000004    r-- .const:ti_sysbios_knl_Task_allBlockedFunc__C
  000013f8    000013f8    00000004   00000004    r-- .const:ti_sysbios_knl_Task_defaultStackHeap__C
  000013fc    000013fc    00000004   00000004    r-- .const:ti_sysbios_knl_Task_defaultStackSize__C
  00001400    00001400    00000004   00000004    r-- .const:ti_sysbios_knl_Task_numConstructedTasks__C
  00001406    00001406    00000002   00000002    r-- .const:ti_sysbios_family_arm_cc26xx_Timer_Module__id__C
  00001408    00001408    00000002   00000002    r-- .const:ti_sysbios_family_arm_cc26xx_TimestampProvider_useClockTimer__C
  0000140a    0000140a    00000002   00000002    r-- .const:ti_sysbios_family_arm_m3_Hwi_Module__id__C
  0000140c    0000140c    00000002   00000002    r-- .const:ti_sysbios_gates_GateHwi_Module__id__C
  0000140e    0000140e    00000002   00000002    r-- .const:ti_sysbios_gates_GateMutex_Module__id__C
  00001410    00001410    00000002   00000002    r-- .const:ti_sysbios_heaps_HeapMem_Module__id__C
  00001412    00001412    00000002   00000002    r-- .const:ti_sysbios_knl_Task_initStackFlag__C
  00001414    00001414    00000001   00000001    r-- .const:ti_sysbios_knl_Clock_tickMode__C
  00001418    00001418    00000008   00000008    r-- .const:xdc_runtime_Startup_firstFxns__C
  00001420    00001420    00000008   00000008    r-- .const:xdc_runtime_Startup_lastFxns__C
  00001428    00001428    00000004   00000004    r-- .const:xdc_runtime_Assert_E_assertFailed__C
  0000142c    0000142c    00000004   00000004    r-- .const:xdc_runtime_Error_E_memory__C
  00001430    00001430    00000004   00000004    r-- .const:xdc_runtime_Error_policyFxn__C
  00001434    00001434    00000004   00000004    r-- .const:xdc_runtime_IGateProvider_Interface__BASE__C
  00001438    00001438    00000004   00000004    r-- .const:xdc_runtime_IHeap_Interface__BASE__C
  0000143c    0000143c    00000004   00000004    r-- .const:xdc_runtime_IModule_Interface__BASE__C
  00001440    00001440    00000004   00000004    r-- .const:xdc_runtime_Main_Module__diagsEnabled__C
  00001444    00001444    00000004   00000004    r-- .const:xdc_runtime_Main_Module__diagsIncluded__C
  00001448    00001448    00000004   00000004    r-- .const:xdc_runtime_Main_Module__diagsMask__C
  0000144c    0000144c    00000004   00000004    r-- .const:xdc_runtime_Memory_defaultHeapInstance__C
  00001450    00001450    00000004   00000004    r-- .const:xdc_runtime_Startup_execImpl__C
  00001454    00001454    00000004   00000004    r-- .const:xdc_runtime_Startup_maxPasses__C
  00001458    00001458    00000004   00000004    r-- .const:xdc_runtime_Startup_sfxnRts__C
  0000145c    0000145c    00000004   00000004    r-- .const:xdc_runtime_Startup_sfxnTab__C
  00001460    00001460    00000004   00000004    r-- .const:xdc_runtime_Startup_startModsFxn__C
  00001464    00001464    00000004   00000004    r-- .const:xdc_runtime_SysCallback_abortFxn__C
  00001468    00001468    00000004   00000004    r-- .const:xdc_runtime_SysCallback_exitFxn__C
  0000146c    0000146c    00000004   00000004    r-- .const:xdc_runtime_System_abortFxn__C
  00001470    00001470    00000004   00000004    r-- .const:xdc_runtime_System_exitFxn__C
  00001474    00001474    00000004   00000004    r-- .const:xdc_runtime_System_maxAtexitHandlers__C
  00001478    00001478    00000004   00000004    r-- .const:xdc_runtime_Text_charTab__C
  0000147c    0000147c    00000004   00000004    r-- .const:xdc_runtime_Text_nameEmpty__C
  00001480    00001480    00000004   00000004    r-- .const:xdc_runtime_Text_nameStatic__C
  00001484    00001484    00000004   00000004    r-- .const:xdc_runtime_Text_nameUnknown__C
  00001488    00001488    00000002   00000002    r-- .const:xdc_runtime_Main_Module__id__C
  0000148a    0000148a    00000002   00000002    r-- .const:xdc_runtime_Memory_Module__id__C
  0000148c    0000148c    00000002   00000002    r-- .const:xdc_runtime_Text_charCnt__C
  0000148e    0000148e    00000002   00000002    r-- .const:xdc_runtime_Text_isLoaded__C
  00001490    00001490    00000001   00000001    r-- .const:xdc_runtime_Error_policy__C
  00001494    00001494    00000004   00000004    r-- .const:ti_sysbios_rom_ROM_AONRTCChannelEnable
  00001498    00001498    00000004   00000004    r-- .const:ti_sysbios_rom_ROM_AONRTCCompareValueSet
  0000149c    0000149c    00000004   00000004    r-- .const:ti_sysbios_rom_ROM_AONRTCCurrentCompareValueGet
  000014a0    000014a0    00000004   00000004    r-- .const:ti_sysbios_rom_ROM_AONRTCEventClear
  000014a4    000014a4    00000004   00000004    r-- .const:ti_sysbios_rom_ROM_ti_sysbios_family_arm_cc26xx_Timer_getCount64__E
  000014a8    000014a8    00000004   00000004    r-- .const:ti_sysbios_rom_ROM_ti_sysbios_family_arm_cc26xx_Timer_getCurrentTick__E
  000014ac    000014ac    00000004   00000004    r-- .const:ti_sysbios_rom_ROM_ti_sysbios_family_arm_cc26xx_Timer_getMaxTicks__E
  000014b0    000014b0    00000004   00000004    r-- .const:ti_sysbios_rom_ROM_ti_sysbios_family_arm_cc26xx_Timer_initDevice__I
  000014b4    000014b4    00000004   00000004    r-- .const:ti_sysbios_rom_ROM_ti_sysbios_family_arm_cc26xx_Timer_setNextTick__E
  000014b8    000014b8    00000004   00000004    r-- .const:ti_sysbios_rom_ROM_ti_sysbios_family_arm_cc26xx_Timer_setThreshold__I
  000014bc    000014bc    00000004   00000004    r-- .const:ti_sysbios_rom_ROM_ti_sysbios_family_arm_cc26xx_Timer_start__E
  000014c0    000014c0    00000004   00000004    r-- .const:ti_sysbios_rom_ROM_ti_sysbios_family_arm_cc26xx_TimestampProvider_get32__E
  000014c4    000014c4    00000004   00000004    r-- .const:ti_sysbios_rom_ROM_xdc_runtime_Startup_getState__I
  000014c8    000014c8    00000004   00000004    r-- .const:ti_sysbios_rom_ROM_xdc_runtime_System_SupportProxy_abort__E
  000014cc    000014cc    00000004   00000004    r-- .const:ti_sysbios_rom_ROM_xdc_runtime_System_SupportProxy_exit__E
  000014d0    000014d0    00000004   00000004    r-- .const:ti_sysbios_gates_GateMutex_Instance_State_sem__O
  000014d4    000014d4    00000004   00000004    r-- .const:ti_sysbios_knl_Clock_Module_State_clockQ__O
  000014d8    000014d8    00000004   00000004    r-- .const:ti_sysbios_knl_Mailbox_Instance_State_dataQue__O
  000014dc    000014dc    00000004   00000004    r-- .const:ti_sysbios_knl_Mailbox_Instance_State_dataSem__O
  000014e0    000014e0    00000004   00000004    r-- .const:ti_sysbios_knl_Mailbox_Instance_State_freeQue__O
  000014e4    000014e4    00000004   00000004    r-- .const:ti_sysbios_knl_Mailbox_Instance_State_freeSem__O
  000014e8    000014e8    00000004   00000004    r-- .const:ti_sysbios_knl_Semaphore_Instance_State_pendQ__O
  000014ec    000014ec    00000004   00000004    r-- .const:ti_sysbios_knl_Task_Module_State_inactiveQ__O
  000014f0    000014f0    00017aa0   00017aa0    r-x .text
  00018f90    00018f90    00000bd4   00000bd4    r-- config_const
  00019b68    00019b68    000004d0   000004d0    r-- .cinit
0001e000    0001e000    00001adc   00001adc    r-x
  0001e000    0001e000    00001000   00001000    r-- .TI.bound:NV_FLASH
  0001f000    0001f000    00000adc   00000adc    r-x flash_last_text
0001ffa8    0001ffa8    00000058   00000058    r--
  0001ffa8    0001ffa8    00000058   00000058    r-- .ccfg
20000100    20000100    00003028   00000000    rw-
  20000100    20000100    00000044   00000000    rw- .data:ti_sysbios_knl_Task_Module__state__V
  20000144    20000144    00000034   00000000    rw- .data:ti_sysbios_family_arm_m3_Hwi_Module__state__V
  20000178    20000178    0000002c   00000000    rw- .data:ti_sysbios_knl_Clock_Module__state__V
  200001a4    200001a4    00000024   00000000    rw- .data:ti_sysbios_BIOS_Module__state__V
  200001c8    200001c8    0000001c   00000000    rw- .data:ti_sysbios_knl_Swi_Module__state__V
  200001e4    200001e4    00000008   00000000    rw- .data:ti_sysbios_family_arm_cc26xx_Timer_Module__state__V
  200001ec    200001ec    00000004   00000000    rw- .data:ti_sysbios_family_arm_cc26xx_TimestampProvider_Module__state__V
  200001f0    200001f0    00000008   00000000    rw- .data:xdc_runtime_Startup_Module__state__V
  200001f8    200001f8    00000008   00000000    rw- .data:xdc_runtime_System_Module__state__V
  20000200    20000200    00000004   00000000    rw- .data:xdc_runtime_Memory_Module__state__V
  20000208    20000208    00001ed6   00000000    rw- .data
  200020e0    200020e0    00001048   00000000    rw- .bss
20004b00    20004b00    00000500   00000000    rw-
  20004b00    20004b00    00000500   00000000    rw- .stack


SECTION ALLOCATION MAP

 output                                  attributes/
section   page    origin      length       input sections
--------  ----  ----------  ----------   ----------------
.const     0    0000003c    00000c54     
                  0000003c    0000045c     hmac_global.obj (.const:$O12$$)
                  00000498    000001c0     fh_global.obj (.const:$O9$$)
                  00000658    000000fa     fh_global.obj (.const:FH_stateMatrix)
                  00000752    00000002     cllc.obj (.const:keyUsageList$34)
                  00000754    000000cc     icall.obj (.const:$O2$$)
                  00000820    000000b4     cllc.obj (.const:$O25$$)
                  000008d4    0000006e     hmac_global.obj (.const:macIdleSt)
                  00000942    0000006e     hmac_global.obj (.const:macScanningSt)
                  000009b0    00000050     CC13X0_LAUNCHXL.obj (.const:$O4$$)
                  00000a00    0000004c     drivers_cc13x0.aem3 : PowerCC26XX.oem3 (.const:resourceDB)
                  00000a4c    00000048     app_pem3.oem3 (.const:.string)
                  00000a94    00000044     drivers_cc13x0.aem3 : UARTCC26XX.oem3 (.const:$O1$$)
                  00000ad8    00000028                         : UARTCC26XX.oem3 (.const:UARTCC26XX_fxnTable)
                  00000b00    00000028     CC13X0_LAUNCHXL.obj (.const:uartCC26XXHWAttrs)
                  00000b28    00000024     drivers_cc13x0.aem3 : UART.oem3 (.const:UART_defaultParams)
                  00000b4c    00000024     app_pem3.oem3 (.const:xdc_runtime_Startup_sfxnTab__A)
                  00000b70    00000020     cllc.obj (.const:keyDeviceList$34)
                  00000b90    0000001c     rf_multiMode_cc13x0.aem3 : RFCC26XX_multiMode.oem3 (.const:RF_defaultParams)
                  00000bac    00000018     CC13X0_LAUNCHXL.obj (.const:PowerCC26XX_config)
                  00000bc4    00000018     driverlib.lib : rfc.obj (.const:rfc_defaultIrqAddr$107)
                  00000bdc    00000013     macstack.obj (.const:.string:msacbackSizeTable)
                  00000bef    00000001     app_pem3.oem3 (.const:xdc_runtime_Text_charTab__A)
                  00000bf0    00000012     app_pem3.oem3 (.const:xdc_runtime_Startup_sfxnRts__A)
                  00000c02    00000002     app_pem3.oem3 (.const:xdc_runtime_Text_registryModsLastId__C)
                  00000c04    00000010     CC13X0_LAUNCHXL.obj (.const:cryptoCC26XXHWAttrs)
                  00000c14    0000000c     CC13X0_LAUNCHXL.obj (.const:UART_config)
                  00000c20    0000000c     app_pem3.oem3 (.const:xdc_runtime_Startup_firstFxns__A)
                  00000c2c    0000000a     CC13X0_LAUNCHXL.obj (.const)
                  00000c36    00000002     app_pem3.oem3 (.const:xdc_runtime_Text_unnamedModsLastId__C)
                  00000c38    00000008     maclib_secure.a : mac_rx.obj (.const:$O35$$)
                  00000c40    00000008     main.obj (.const:.string:dummyExtAddr$38)
                  00000c48    00000008     CC13X0_LAUNCHXL.obj (.const:CryptoCC26XX_config)
                  00000c50    00000008     CC13X0_LAUNCHXL.obj (.const:PINCC26XX_hwAttrs)
                  00000c58    00000008     app_pem3.oem3 (.const:ti_sysbios_knl_Idle_funcList__A)
                  00000c60    00000004     icall_cc2650.obj (.const:events$1$1)
                  00000c64    00000004     osaltasks.obj (.const:tasksArr)
                  00000c68    00000004     app_pem3.oem3 (.const:ti_sysbios_family_arm_cc26xx_Timer_funcHookCH1__C)
                  00000c6c    00000004     app_pem3.oem3 (.const:ti_sysbios_family_arm_cc26xx_Timer_funcHookCH2__C)
                  00000c70    00000004     app_pem3.oem3 (.const:ti_sysbios_family_arm_m3_Hwi_swiDisable__C)
                  00000c74    00000004     app_pem3.oem3 (.const:ti_sysbios_family_arm_m3_Hwi_swiRestoreHwi__C)
                  00000c78    00000004     app_pem3.oem3 (.const:ti_sysbios_knl_Clock_tickPeriod__C)
                  00000c7c    00000004     app_pem3.oem3 (.const:ti_sysbios_knl_Clock_triggerClock__C)
                  00000c80    00000004     app_pem3.oem3 (.const:xdc_runtime_SysCallback_putchFxn__C)
                  00000c84    00000004     app_pem3.oem3 (.const:xdc_runtime_SysCallback_readyFxn__C)
                  00000c88    00000004     app_pem3.oem3 (.const:xdc_runtime_System_extendFxn__C)
                  00000c8c    00000004     app_pem3.oem3 (.const:xdc_runtime_Text_visitRopeFxn__C)

.text      0    000014f0    00017aa0     
                  000014f0    00000994     maclib_secure.a : mac.obj (.text:macRxCbSubG$76)
                  00001e84    000007e4     main.obj (.text:taskFxn)
                  00002668    00000650     maclib_secure.a : mac_rx.obj (.text:rxPayloadIsr$81)
                  00002cb8    000004d0     icall_startup.obj (.text:startup_entry)
                  00003188    00000494     driverlib.lib : setup.obj (.text:TrimAfterColdResetWakeupFromShutDown$46)
                  0000361c    0000045c     maclib_secure.a : fh_ie.obj (.text:FHIE_parsePie)
                  00003a78    00000394                     : macwrapper.obj (.text:macWrapperAddDevice)
                  00003e0c    0000038c                     : mac_mgmt.obj (.text:macBuildHeader)
                  00004198    00000388     rf_multiMode_cc13x0.aem3 : RFCC26XX_multiMode.oem3 (.text:RF_fsmActiveState)
                  00004520    00000388     maclib_secure.a : mac_radio.obj (.text:macRadioInitSubG)
                  000048a8    00000378                     : mac_mgmt.obj (.text:MAC_MlmeResetReq)
                  00004c20    00000366     api_mac.obj (.text:processIncomingICallMsg$32)
                  00004f86    00000002     maclib_secure.a : fh_data.obj (.text:FHDATA_startEDFETimer)
                  00004f88    0000030c     drivers_cc13x0.aem3 : PowerCC26XX_calibrateRCOSC.oem3 (.text:PowerCC26XX_auxISR)
                  00005294    0000030c     rom_sysbios.aem3 : rom_sysbios.obj (.text:xdc_runtime_System_doPrint__I)
                  000055a0    000002e4     maclib_secure.a : mac_radio_tx.obj (.text:macRadioTxGoSubG$80)
                  00005884    000002d4                     : mac_pwr.obj (.text:macPwrVote)
                  00005b58    000002c4                     : fh_api.obj (.text:FHAPI_getTxParams_old)
                  00005e1c    000002c0                     : fh_ie.obj (.text:FHIE_gen)
                  000060dc    000002b8                     : fh_ie.obj (.text:FHIE_genPieContent)
                  00006394    000002b8     osal.obj (.text:osal_start_system)
                  0000664c    00000280     maclib_secure.a : mac_data.obj (.text:MAC_McpsDataReq)
                  000068cc    0000027c     rf_multiMode_cc13x0.aem3 : RFCC26XX_multiMode.oem3 (.text:RF_scheduleCmd)
                  00006b48    00000278     maclib_secure.a : fh_api.obj (.text:FHAPI_start)
                  00006dc0    00000260                     : mac_security_pib.obj (.text:MAC_MlmeSetSecurityReq)
                  00007020    00000260     collector.obj (.text:processSensorData$35)
                  00007280    00000254     maclib_secure.a : fh_api.obj (.text:FHAPI_completeRxCb)
                  000074d4    0000023c     driverlib.lib : sys_ctrl.obj (.text:NOROM_SysCtrlSetRechargeBeforePowerDown)
                  00007710    00000224     drivers_cc13x0.aem3 : PowerCC26XX.oem3 (.text:Power_sleep)
                  00007934    00000222     maclib_secure.a : mac_security.obj (.text:macIncomingFrameSecurityMaterialRetrieval)
                  00007b56    00000002                     : fh_util.obj (.text:FHUTIL_noAction)
                  00007b58    00000214                     : mac_mgmt.obj (.text:macBuildCommonReq)
                  00007d6c    00000208     drivers_cc13x0.aem3 : CryptoCC26XX.oem3 (.text:cryptoTransactionExecute)
                  00007f74    000001f4     maclib_secure.a : fh_api.obj (.text:FHAPI_sendData)
                  00008168    000001e4     rf_multiMode_cc13x0.aem3 : RFCC26XX_multiMode.oem3 (.text:RF_open)
                  0000834c    000001d8     maclib_secure.a : mac_coord.obj (.text:macBuildBeacon)
                  00008524    000001d4     macstack.obj (.text:macStackEventLoop)
                  000086f8    000001cc     maclib_secure.a : fh_ie.obj (.text:FHIE_extractPie)
                  000088c4    000001c8                     : mac_scan.obj (.text:macApiScanReq)
                  00008a8c    000001c0                     : mac_security_pib.obj (.text:MAC_MlmeGetSecurityReq)
                  00008c4c    000001b8     drivers_cc13x0.aem3 : PINCC26XX.oem3 (.text:PIN_init)
                  00008e04    000001ac     maclib_secure.a : fh_ie.obj (.text:FHIE_parseCommonInformation)
                  00008fb0    000001ac                     : mac_data.obj (.text:macApiDataReq)
                  0000915c    0000019c                     : fh_pib.obj (.text:FHPIB_set)
                  000092f8    00000198                     : fh_nt.obj (.text:FHNT_getEntry)
                  00009490    00000198                     : macwrapper.obj (.text:macWrapperAddKeyInitFCtr)
                  00009628    00000194                     : mac_tx.obj (.text:macTxFrame)
                  000097bc    00000190     drivers_cc13x0.aem3 : PowerCC26XX_calibrateRCOSC.oem3 (.text:PowerCC26XX_doCalibrate)
                  0000994c    00000188     maclib_secure.a : mac_pib.obj (.text:MAC_MlmeSetReq)
                  00009ad4    00000184                     : mac_ie_build.obj (.text:macBuildPayloadIes)
                  00009c58    0000017c                     : mac_beacon_device.obj (.text:macRxBeaconCritical)
                  00009dd4    0000017c                     : mac_data.obj (.text:macTxCompleteCallback)
                  00009f50    00000178     driverlib.lib : crypto.obj (.text:NOROM_CRYPTOCcmInvAuthDecrypt)
                  0000a0c8    00000170                   : crypto.obj (.text:NOROM_CRYPTOCcmAuthEncrypt)
                  0000a238    00000164     maclib_secure.a : mac_mgmt.obj (.text:macTxCsmaDelay)
                  0000a39c    0000015c                     : fh_api.obj (.text:FHAPI_completeTxCb)
                  0000a4f8    0000015c     drivers_cc13x0.aem3 : UARTCC26XX.oem3 (.text:UARTCC26XX_open)
                  0000a654    00000158     maclib_secure.a : mac_radio_tx.obj (.text:macRadioCsmaTxCbSubG$80)
                  0000a7ac    00000148     drivers_cc13x0.aem3 : UARTCC26XX.oem3 (.text:UARTCC26XX_hwiIntFxn)
                  0000a8f4    00000148     maclib_secure.a : mac_mgmt.obj (.text:macApiDisassociateReq)
                  0000aa3c    00000144     rf_multiMode_cc13x0.aem3 : RFCC26XX_multiMode.oem3 (.text:RF_radioOpDoneCb)
                  0000ab80    00000144     maclib_secure.a : mac_beacon_coord.obj (.text:macTxBeaconCompleteCallback)
                  0000acc4    00000140     nvocop.obj (.text:compactPage$29)
                  0000ae04    00000140     maclib_secure.a : mac_coord.obj (.text:macApiAssociateRsp)
                  0000af44    00000138     rf_multiMode_cc13x0.aem3 : RFCC26XX_multiMode.oem3 (.text:RF_ratSetupChannel)
                  0000b07c    00000134     drivers_cc13x0.aem3 : UARTCC26XX.oem3 (.text:UARTCC26XX_read)
                  0000b1b0    00000134     maclib_secure.a : mac_beacon_device.obj (.text:macAutoPoll)
                  0000b2e4    00000130                     : mac.obj (.text:macSendReceiveCmdSubG)
                  0000b414    00000128                     : fh_nt.obj (.text:FHNT_purgeTimerIsrCb)
                  0000b53c    00000128     rf_multiMode_cc13x0.aem3 : RFCC26XX_multiMode.oem3 (.text:RF_abortCmd)
                  0000b664    00000128                              : RFCC26XX_multiMode.oem3 (.text:RF_fsmSetupState)
                  0000b78c    00000128     collector.obj (.text:generateTrackingRequests$35)
                  0000b8b4    00000124     maclib_secure.a : mac_mgmt.obj (.text:macApiWSAsyncReq)
                  0000b9d8    00000120                     : mac_data.obj (.text:macAllocTxBuffer)
                  0000baf8    00000120                     : mac_beacon_device.obj (.text:macApiSyncReq)
                  0000bc18    00000120                     : mac_beacon_coord.obj (.text:macBeaconStartContinue)
                  0000bd38    00000114     drivers_cc13x0.aem3 : PowerCC26XX.oem3 (.text:Power_init)
                  0000be4c    00000110     rf_multiMode_cc13x0.aem3 : RFCC26XX_multiMode.oem3 (.text:RF_close)
                  0000bf5c    00000110     collector.obj (.text:dataCnfCB$35)
                  0000c06c    00000110     maclib_secure.a : mac.obj (.text:macSetupRATChanCompare)
                  0000c17c    00000108     rf_multiMode_cc13x0.aem3 : RFCC26XX_multiMode.oem3 (.text:RF_dispatchNextCmd)
                  0000c284    00000108                              : RFCC26XX_multiMode.oem3 (.text:RF_fsmChangePhyState)
                  0000c38c    00000104     drivers_cc13x0.aem3 : UARTCC26XX.oem3 (.text:UARTCC26XX_write)
                  0000c490    00000100     maclib_secure.a : fh_nt.obj (.text:FHNT_getRemoveEntryFromTemp)
                  0000c590    00000100                     : mac.obj (.text:macRatCb_B)
                  0000c690    000000fc     collector.obj (.text:dataIndCB$35)
                  0000c78c    000000f8     maclib_secure.a : fh_ie.obj (.text:FHIE_genCommonInformation)
                  0000c884    000000f8     app_pem3.oem3 (.text:xdc_runtime_System_printfExtend__I)
                  0000c97c    000000f4     rf_multiMode_cc13x0.aem3 : RFCC26XX_multiMode.oem3 (.text:RF_getInfo)
                  0000ca70    000000f4     maclib_secure.a : mac_radio_tx.obj (.text:macRadioTxPrepCsmaUnslottedSubG)
                  0000cb64    000000f4                     : mac_mgmt.obj (.text:macSetDefaultsByPhyID)
                  0000cc58    000000f0     csf.obj (.text:Csf_deviceUpdate)
                  0000cd48    000000f0     maclib_secure.a : fh_mgr.obj (.text:FHMGR_bcTimerIsrCb)
                  0000ce38    000000f0     driverlib.lib : rfc.obj (.text:NOROM_RFCOverrideUpdate)
                  0000cf28    000000f0                   : setup.obj (.text:NOROM_SetupTrimDevice)
                  0000d018    000000f0     rf_multiMode_cc13x0.aem3 : RFCC26XX_multiMode.oem3 (.text:RF_pendCmd)
                  0000d108    000000f0     maclib_secure.a : mac_radio_tx.obj (.text:macRadioTxPrepCsmaSlottedSubG)
                  0000d1f8    000000ec                     : mac_scan.obj (.text:macScanNextChan)
                  0000d2e4    000000e8                     : fh_ie.obj (.text:FHIE_parseHie)
                  0000d3cc    000000e4                     : fh_api.obj (.text:FHAPI_getTxParams)
                  0000d4b0    000000e4                     : fh_nt.obj (.text:FHNT_addTempEUI)
                  0000d594    000000e4     dpl_cc13x0.aem3 : PowerCC26XX_tirtos.oem3 (.text:PowerCC26XX_standbyPolicy)
                  0000d678    000000e4     maclib_secure.a : mac_coord.obj (.text:macIndirectSend)
                  0000d75c    000000e4                     : mac_radio_tx.obj (.text:macRadioTxAck$80)
                  0000d840    000000e0     collector.obj (.text:Collector_sendConfigRequest)
                  0000d920    000000e0     rf_multiMode_cc13x0.aem3 : RFCC26XX_multiMode.oem3 (.text:RF_fsmPowerUpState)
                  0000da00    000000e0                              : RFCC26XX_multiMode.oem3 (.text:RF_requestAccess)
                  0000dae0    000000e0     maclib_secure.a : mac_beacon.obj (.text:macBeaconSetSched)
                  0000dbc0    000000dc     drivers_cc13x0.aem3 : PINCC26XX.oem3 (.text:PINCC26XX_setIoCfg)
                  0000dc9c    000000d8     maclib_secure.a : mac_mgmt.obj (.text:macCommStatusInd)
                  0000dd74    000000d8                     : mac_data.obj (.text:macDataTxSend)
                  0000de4c    000000d4     drivers_cc13x0.aem3 : CryptoCC26XX.oem3 (.text:CryptoCC26XX_open)
                  0000df20    000000d4     driverlib.lib : rfc.obj (.text:NOROM_RFCRfTrimRead)
                  0000dff4    000000d4     maclib_secure.a : mac_radio_tx.obj (.text:macRadioLbtTxCb)
                  0000e0c8    000000d4                     : mac.obj (.text:macRatCb_A)
                  0000e19c    000000d0     macstack.obj (.text:MAC_CbackEvent)
                  0000e26c    000000d0     maclib_secure.a : mac_scan.obj (.text:macScanRxBeacon)
                  0000e33c    000000d0                     : mac_main.obj (.text:macSendDataMsg)
                  0000e40c    000000cc     driverlib.lib : crypto.obj (.text:NOROM_CRYPTOAesCbc)
                  0000e4d8    000000cc     nvocop.obj (.text:NVOCOP_writeItem)
                  0000e5a4    000000cc     rf_multiMode_cc13x0.aem3 : RFCC26XX_multiMode.oem3 (.text:RF_swiHw)
                  0000e670    000000cc     maclib_secure.a : mac_coord.obj (.text:macIndirectExpire)
                  0000e73c    000000cc                     : mac_security.obj (.text:macOutgoingFrameKeyDescRetrieval)
                  0000e808    000000c8                     : mac_ie_build.obj (.text:macBuildHeaderIes)
                  0000e8d0    000000c8                     : mac_security.obj (.text:macCcmStarTransform)
                  0000e998    000000c8                     : mac_data.obj (.text:macDataTxEnqueue)
                  0000ea60    000000c4                     : fh_data.obj (.text:FHDATA_procASYNCReq)
                  0000eb24    000000c4     rf_multiMode_cc13x0.aem3 : RFCC26XX_multiMode.oem3 (.text:RF_hwiCpe0Active)
                  0000ebe8    000000c4     maclib_secure.a : mac.obj (.text:macSendFsCmd)
                  0000ecac    000000c0                     : mac_coord.obj (.text:macStartBegin)
                  0000ed6c    000000be                     : fh_ie.obj (.text:FHIE_getLen)
                  0000ee2a    00000002     rf_multiMode_cc13x0.aem3 : RFCC26XX_multiMode.oem3 (.text:RF_defaultCallback)
                  0000ee2c    000000bc     maclib_secure.a : fh_nt.obj (.text:FHNT_AddDeviceCB)
                  0000eee8    000000bc                     : mac_scan.obj (.text:MAC_MlmeScanReq)
                  0000efa4    000000bc     drivers_cc13x0.aem3 : PowerCC26XX.oem3 (.text:Power_releaseDependency)
                  0000f060    000000bc     maclib_secure.a : mac_tx.obj (.text:macTxFrameIsr)
                  0000f11c    000000b8                     : fh_ie.obj (.text:FHIE_getPieContentLen)
                  0000f1d4    000000b8     collector.obj (.text:cllcStartedCB$35)
                  0000f28c    000000b8     maclib_secure.a : mac_mgmt.obj (.text:macBuildBeaconNotifyInd)
                  0000f344    000000b8                     : mac_coord.obj (.text:macCoordReset)
                  0000f3fc    000000b8                     : mac_rx.obj (.text:rxPostRxUpdates$81)
                  0000f4b4    000000b4     drivers_cc13x0.aem3 : PowerCC26XX.oem3 (.text:Power_setDependency)
                  0000f568    000000b4     rf_multiMode_cc13x0.aem3 : RFCC26XX_multiMode.oem3 (.text:RF_control)
                  0000f61c    000000b4     maclib_secure.a : mac_beacon_coord.obj (.text:macApiBeaconStartReq)
                  0000f6d0    000000b0                     : mac_tx.obj (.text:macTxChannelBusyCallback)
                  0000f780    000000ac     rf_multiMode_cc13x0.aem3 : RFCC26XX_multiMode.oem3 (.text:RF_schChkCmdInsert)
                  0000f82c    000000ac     maclib_secure.a : mac_coord.obj (.text:macStartSetParams)
                  0000f8d8    000000ac     api_mac.obj (.text:processBeaconNotifyInd$32)
                  0000f984    000000aa     maclib_secure.a : fh_ie.obj (.text:FHIE_genExcludedChannelRanges)
                  0000fa2e    00000002     rtsv7M3_T_le_eabi.lib : _lock.c.obj (.text:_nop)
                  0000fa30    000000a8     maclib_secure.a : mac_beacon_device.obj (.text:macBeaconSyncLoss)
                  0000fad8    000000a6     rom_sysbios.aem3 : rom_sysbios.obj (.text:xdc_runtime_Text_putSite__E)
                  0000fb7e    00000002     drivers_cc13x0.aem3 : PowerCC26XX.oem3 (.text:emptyClockFunc)
                  0000fb80    000000a4     driverlib.lib : crypto.obj (.text:NOROM_CRYPTOAesEcb)
                  0000fc24    000000a4     drivers_cc13x0.aem3 : UARTCC26XX.oem3 (.text:UARTCC26XX_initHw)
                  0000fcc8    000000a4     osal.obj (.text:osal_set_event)
                  0000fd6c    000000a4     drivers_cc13x0.aem3 : PowerCC26XX.oem3 (.text:switchXOSCHFclockFunc)
                  0000fe10    000000a0     csf.obj (.text:Csf_getDevice)
                  0000feb0    000000a0     maclib_secure.a : fh_ie.obj (.text:FHIE_getChannelPlan)
                  0000ff50    000000a0     rf_multiMode_cc13x0.aem3 : RFCC26XX_multiMode.oem3 (.text:RF_ratRestartChannels)
                  0000fff0    000000a0     cllc.obj (.text:assocIndCb$34)
                  00010090    000000a0     auto_init.aem3 : auto_init.oem3 (.text)
                  00010130    000000a0     nvocop.obj (.text:findItemOffset$29)
                  000101d0    000000a0     maclib_secure.a : mac_tx.obj (.text:txCsmaPrep$85)
                  00010270    000000a0     nvocop.obj (.text:writeItem$29)
                  00010310    0000009c     maclib_secure.a : fh_api.obj (.text:FHAPI_reset)
                  000103ac    0000009c     drivers_cc13x0.aem3 : UARTCC26XX.oem3 (.text:UARTCC26XX_writeCancel)
                  00010448    0000009c     csf.obj (.text:findBlackListIndex$36)
                  000104e4    0000009c     maclib_secure.a : mac_radio_tx.obj (.text:macRadioTxPrepLbt)
                  00010580    0000009c     rtsv7M3_T_le_eabi.lib : memcpy_t2.asm.obj (.text)
                  0001061c    00000098     maclib_secure.a : fh_data.obj (.text:FHDATA_getPktFromQueue)
                  000106b4    00000098                     : fh_mgr.obj (.text:FHMGR_updateRadioBCChannel)
                  0001074c    00000098     nvocop.obj (.text:NVOCOP_deleteItem)
                  000107e4    00000098     drivers_cc13x0.aem3 : PINCC26XX.oem3 (.text:PIN_open)
                  0001087c    00000098     rf_multiMode_cc13x0.aem3 : RFCC26XX_multiMode.oem3 (.text:RF_calculateDispatchTime)
                  00010914    00000098     drivers_cc13x0.aem3 : UARTCC26XX.oem3 (.text:UARTCC26XX_initIO)
                  000109ac    00000098                         : UARTCC26XX.oem3 (.text:UARTCC26XX_swiIntFxn)
                  00010a44    00000098     maclib_secure.a : mac_coord.obj (.text:macBuildRealign)
                  00010adc    00000098                     : mac_data.obj (.text:macDataTxComplete)
                  00010b74    00000098                     : mac_coord.obj (.text:macIndirectMark)
                  00010c0c    00000098                     : mac_mgmt.obj (.text:macRxBeacon)
                  00010ca4    00000098     rom_sysbios.aem3 : rom_sysbios.obj (.text:ti_sysbios_knl_Clock_workFuncDynamic__E)
                  00010d3c    00000098                      : rom_sysbios.obj (.text:xdc_runtime_Text_putMod__E)
                  00010dd4    00000096     rtsv7M3_T_le_eabi.lib : ull_div_t2.asm.obj (.text)
                  00010e6a    00000002     maclib_secure.a : mac_pwr.obj (.text:macApiPwrOnReq)
                  00010e6c    00000094     cllc.obj (.text:Cllc_init)
                  00010f00    00000094     csf.obj (.text:Csf_updateFrameCounter)
                  00010f94    00000094     maclib_secure.a : fh_nt.obj (.text:FHNT_getNTIndexFromTempIndex)
                  00011028    00000094     driverlib.lib : crypto.obj (.text:NOROM_CRYPTOAesLoadKey)
                  000110bc    00000094     board_led.obj (.text:board_led_blinkTimeoutCB$7)
                  00011150    00000094     maclib_secure.a : mac_main.obj (.text:macCbackForEvent)
                  000111e4    00000094                     : mac_hl_patch.obj (.text:macCcmDecrypt)
                  00011278    00000094                     : mac_security.obj (.text:macCcmStarInverseTransform)
                  0001130c    00000094     collector.obj (.text:sendMsg$35)
                  000113a0    00000090     rf_multiMode_cc13x0.aem3 : RFCC26XX_multiMode.oem3 (.text:RF_discardPendCmd)
                  00011430    00000090     cllc.obj (.text:disassocIndCb$34)
                  000114c0    00000090     rom_sysbios.aem3 : rom_sysbios.obj (.text:ti_sysbios_family_arm_cc26xx_Timer_start__E)
                  00011550    0000008c     cllc.obj (.text:Cllc_securityInit)
                  000115dc    0000008c     api_mac.obj (.text:copyDataInd$32)
                  00011668    0000008c     maclib_secure.a : mac_hl_patch.obj (.text:macCcmEncrypt)
                  000116f4    0000008a     drivers_cc13x0.aem3 : CryptoCC26XX.oem3 (.text:CryptoCC26XX_allocateKey)
                  0001177e    0000008a     maclib_secure.a : fh_ie.obj (.text:FHIE_extractHie)
                  00011808    00000088     driverlib.lib : osc.obj (.text:NOROM_OSCHF_GetStartupTime)
                  00011890    00000088     maclib_secure.a : mac_coord.obj (.text:macApiPurgeReq)
                  00011918    00000088                     : mac_mcu.obj (.text:macMcuBitReverse)
                  000119a0    00000088     osal.obj (.text:osal_msg_receive)
                  00011a28    00000084     rf_multiMode_cc13x0.aem3 : RFCC26XX_multiMode.oem3 (.text:RF_issueRadioFreeCb)
                  00011aac    00000084     drivers_cc13x0.aem3 : UARTCC26XX.oem3 (.text:UARTCC26XX_close)
                  00011b30    00000080     rf_multiMode_cc13x0.aem3 : RFCC26XX_multiMode.oem3 (.text:RF_hwiHw)
                  00011bb0    00000080     maclib_secure.a : mac_coord.obj (.text:macRxDataReq)
                  00011c30    00000080                     : mac_timer.obj (.text:macTimerCancel)
                  00011cb0    00000080     mac_user_config.obj (.text:rf_patch_rfe_genfsk$37)
                  00011d30    00000080     maclib_secure.a : mac_tx.obj (.text:txComplete)
                  00011db0    0000007c     board_led.obj (.text:Board_Led_control)
                  00011e2c    0000007c     csf.obj (.text:Csf_getDeviceItem)
                  00011ea8    0000007c     driverlib.lib : crypto.obj (.text:NOROM_CRYPTOCcmInvAuthDecryptResultGet)
                  00011f24    0000007c     rf_multiMode_cc13x0.aem3 : RFCC26XX_multiMode.oem3 (.text:RF_ratFreeChannel)
                  00011fa0    0000007c     cllc.obj (.text:beaconNotifyIndCb$34)
                  0001201c    0000007c     csf.obj (.text:findDeviceListIndex$36)
                  00012098    0000007c     maclib_secure.a : mac_coord.obj (.text:macApiStartReq)
                  00012114    0000007c                     : mac_radio.obj (.text:macRadioUpdateChannelRx)
                  00012190    0000007c                     : mac_radio.obj (.text:macRadioUpdateTxPower)
                  0001220c    0000007c                     : mac_scan.obj (.text:macScanStartTimer)
                  00012288    0000007a     rtsv7M3_T_le_eabi.lib : memset_t2.asm.obj (.text)
                  00012302    00000002     maclib_secure.a : mac.obj (.text:macClientSwitchCb)
                  00012304    00000078                     : mac_beacon.obj (.text:macBeaconCheckTxTime)
                  0001237c    00000078                     : mac_radio_tx.obj (.text:macRadioTxAckCb$80)
                  000123f4    00000078                     : mac_radio.obj (.text:macRadioUpdateChannel)
                  0001246c    00000078                     : mac_beacon_device.obj (.text:macTrackTimeoutCallback)
                  000124e4    00000078     main.obj (.text:main)
                  0001255c    00000078     osal_pwrmgr.obj (.text:osal_pwrmgr_task_state)
                  000125d4    00000078     cllc.obj (.text:sendStartReq$34)
                  0001264c    00000078     drivers_cc13x0.aem3 : UARTCC26XX.oem3 (.text:writeTxFifoFlush)
                  000126c4    00000076     maclib_secure.a : mac_security.obj (.text:macKeyDescriptorLookup)
                  0001273a    00000002                     : mac_mcu.obj (.text:macMcuInit)
                  0001273c    00000074                     : fh_util.obj (.text:FHUTIL_getCurBfio)
                  000127b0    00000074     icall_cc2650.obj (.text:ICallPlatform_pwrUpdActivityCounter)
                  00012824    00000074     rf_multiMode_cc13x0.aem3 : RFCC26XX_multiMode.oem3 (.text:RF_yield)
                  00012898    00000074     maclib_secure.a : mac_mcu.obj (.text:macMcuOverflowSetCompare)
                  0001290c    00000074                     : mac_mcu.obj (.text:macMcuOverflowSetPeriod)
                  00012980    00000074     cllc.obj (.text:scanCnfCb$34)
                  000129f4    00000070     maclib_secure.a : fh_api.obj (.text:FHAPI_startBS)
                  00012a64    00000070                     : fh_dh1cf.obj (.text:FHDH1CF_getBCChannelNum)
                  00012ad4    00000070                     : mac_beacon.obj (.text:macBeaconSetupCap)
                  00012b44    00000070                     : mac_tx.obj (.text:macTxAckReceivedCallback)
                  00012bb4    00000070     cllc.obj (.text:orphanIndCb$34)
                  00012c24    00000070     nvocop.obj (.text:writeWord$29)
                  00012c94    0000006e     rtsv7M3_T_le_eabi.lib : ll_div_t2.asm.obj (.text)
                  00012d02    00000002     maclib_secure.a : mac_mgmt.obj (.text:macNoAction)
                  00012d04    0000006d     rom_sysbios.aem3 : rom_sysbios.obj (.text:xdc_runtime_System_formatNum__I)
                  00012d71    00000001     --HOLE-- [fill = 0]
                  00012d72    00000002     maclib_secure.a : mac_symbol_timer.obj (.text:macSymbolTimerICallPwrNotify$84)
                  00012d74    0000006c     cllc.obj (.text:Cllc_restoreNetwork)
                  00012de0    0000006c     maclib_secure.a : fh_nt.obj (.text:FHNT_putEntry)
                  00012e4c    0000006c     drivers_cc13x0.aem3 : PowerCC26XX_calibrateRCOSC.oem3 (.text:PowerCC26XX_initiateCalibration)
                  00012eb8    0000006c     rf_multiMode_cc13x0.aem3 : RFCC26XX_multiMode.oem3 (.text:RF_initRadioSetup)
                  00012f24    0000006c                              : RFCC26XX_multiMode.oem3 (.text:RF_ratDisableChannel)
                  00012f90    0000006c     nvocop.obj (.text:findItemInCache$29)
                  00012ffc    0000006c     maclib_secure.a : mac_mgmt.obj (.text:macDisassocComplete)
                  00013068    0000006c                     : mac_main.obj (.text:macExecute)
                  000130d4    0000006c                     : mac_main.obj (.text:macSendMsg)
                  00013140    0000006c     cllc.obj (.text:maintainAssocTable$34)
                  000131ac    0000006c     collector.obj (.text:processIdendifyLedRequest$35)
                  00013218    00000068     maclib_secure.a : fh_data.obj (.text:FHDATA_purgePktFromQueue)
                  00013280    00000068     driverlib.lib : sys_ctrl.obj (.text:NOROM_SysCtrlAdjustRechargeAfterPowerDown)
                  000132e8    00000068                   : sys_ctrl.obj (.text:NOROM_SysCtrl_DCDC_VoltageConditionalControl)
                  00013350    00000068     drivers_cc13x0.aem3 : UARTCC26XX.oem3 (.text:UARTCC26XX_readCancel)
                  000133b8    00000068     mac_user_config.obj (.text:applyGenfskPatch$37)
                  00013420    00000068     rtsv7M3_T_le_eabi.lib : copy_decompress_lzss.c.obj (.text:decompress:lzss:__TI_decompress_lzss)
                  00013488    00000068     drivers_cc13x0.aem3 : PowerCC26XX.oem3 (.text:lfClockReadyCallback)
                  000134f0    00000068     maclib_secure.a : mac_radio_tx.obj (.text:macRadioSendImmAckSubG$80)
                  00013558    00000068                     : mac_rx_onoff.obj (.text:macRxOn)
                  000135c0    00000068     cllc.obj (.text:sendScanReq$34)
                  00013628    00000068     maclib_secure.a : mac_tx.obj (.text:txGo$85)
                  00013690    00000064     driverlib.lib : osc.obj (.text:NOROM_OSCHF_AttemptToSwitchToXosc)
                  000136f4    00000064                   : setup_rom.obj (.text:NOROM_SetupGetTrimForAnabypassValue1)
                  00013758    00000064     rf_multiMode_cc13x0.aem3 : RFCC26XX_multiMode.oem3 (.text:RF_checkForPreemption)
                  000137bc    00000064     drivers_cc13x0.aem3 : PowerCC26XX.oem3 (.text:configureXOSCHF)
                  00013820    00000064     csf.obj (.text:getTheFirstDevice$36)
                  00013884    00000064     maclib_secure.a : mac_coord.obj (.text:macApiOrphanRsp)
                  000138e8    00000064                     : mac_mgmt.obj (.text:macRxDisassoc)
                  0001394c    00000064                     : mac_symbol_timer.obj (.text:macSymbolTimerInit)
                  000139b0    00000064     osal.obj (.text:osal_msg_enqueue_push$19)
                  00013a14    00000062     maclib_secure.a : mac_mgmt.obj (.text:macBuildWSAsyncMsg)
                  00013a76    00000002     rtsv7M3_T_le_eabi.lib : div0.asm.obj (.text)
                  00013a78    00000060     maclib_secure.a : fh_ie.obj (.text:FHIE_getCcaSfdTime)
                  00013ad8    00000060     driverlib.lib : osc.obj (.text:NOROM_OSCClockSourceSet)
                  00013b38    00000060     drivers_cc13x0.aem3 : PowerCC26XX.oem3 (.text:PowerCC26XX_calibrate)
                  00013b98    00000060     rf_multiMode_cc13x0.aem3 : RFCC26XX_multiMode.oem3 (.text:RF_dispatchNextEvent)
                  00013bf8    00000060                              : RFCC26XX_multiMode.oem3 (.text:RF_getCurrentTime)
                  00013c58    00000060     drivers_cc13x0.aem3 : UARTCC26XX.oem3 (.text:UARTCC26XX_control)
                  00013cb8    00000060     csf.obj (.text:findUnusedDeviceListIndex$36)
                  00013d18    00000060     maclib_secure.a : mac_coord.obj (.text:macIndirectTxFrame)
                  00013d78    00000060                     : mac_radio_tx.obj (.text:macRadioTxBackoffBoundary)
                  00013dd8    00000060                     : mac_rx.obj (.text:macRxHaltCleanup)
                  00013e38    00000060                     : mac_scan.obj (.text:macScanComplete)
                  00013e98    00000060     osal.obj (.text:osal_msg_send)
                  00013ef8    00000060     collector.obj (.text:processDataRetry$35)
                  00013f58    0000005f     rom_sysbios.aem3 : rom_sysbios.obj (.text:xdc_runtime_Text_putLab__E)
                  00013fb7    00000001     --HOLE-- [fill = 0]
                  00013fb8    0000005e     maclib_secure.a : fh_mgr.obj (.text:FHMGR_updateRadioUCChannel)
                  00014016    00000002     rom_sysbios.aem3 : rom_sysbios.obj (.text:ti_sysbios_BIOS_linkedWithIncorrectBootLibrary__E)
                  00014018    0000005c     cllc.obj (.text:Cllc_addSecDevice)
                  00014074    0000005c     drivers_cc13x0.aem3 : PowerCC26XX_calibrateRCOSC.oem3 (.text:PowerCC26XX_RCOSC_clockFunc)
                  000140d0    0000005c     rf_multiMode_cc13x0.aem3 : RFCC26XX_multiMode.oem3 (.text:RF_syncCb)
                  0001412c    0000005c     maclib_secure.a : mac_radio.obj (.text:macRadioWakeupCb)
                  00014188    0000005c                     : mac_beacon_device.obj (.text:macTrackPeriodCallback)
                  000141e4    0000005c     collector.obj (.text:sendBroadcastMsg$35)
                  00014240    0000005c     app_pem3.oem3 (.text:xdc_runtime_Startup_getState__I)
                  0001429c    00000058     maclib_secure.a : fh_data.obj (.text:FHDATA_requeuePkt)
                  000142f4    00000058                     : fh_nt.obj (.text:FHNT_DelDeviceCB)
                  0001434c    00000058                     : fh_util.obj (.text:FHUTIL_getBitCounts)
                  000143a4    00000058                     : mac_mgmt.obj (.text:MAC_ResumeReq)
                  000143fc    00000058     drivers_cc13x0.aem3 : PINCC26XX.oem3 (.text:PIN_remove)
                  00014454    00000058     rf_multiMode_cc13x0.aem3 : RFCC26XX_multiMode.oem3 (.text:RF_TxPowerTable_findValue)
                  000144ac    00000058                              : RFCC26XX_multiMode.oem3 (.text:RF_cmdDispatchTime)
                  00014504    00000058                              : RFCC26XX_multiMode.oem3 (.text:RF_hwiCpe0PowerFsm)
                  0001455c    00000058     maclib_secure.a : mac_beacon_coord.obj (.text:macBeaconPeriodCallback)
                  000145b4    00000058                     : mac_rx_onoff.obj (.text:macRxOffRequest)
                  0001460c    00000058                     : mac_timer.obj (.text:macTimerAddTimer)
                  00014664    00000058                     : mac_timer.obj (.text:macTimerUpdateSymbolTimer)
                  000146bc    00000056                     : mac_data.obj (.text:macFrameDurationSubG)
                  00014712    00000054     drivers_cc13x0.aem3 : CryptoCC26XX.oem3 (.text:CryptoCC26XX_close)
                  00014766    00000002     app_pem3.oem3 (.text:ti_sysbios_BIOS_nullFunc__I)
                  00014768    00000054     maclib_secure.a : fh_sm.obj (.text:FHSM_event)
                  000147bc    00000054     uart_printf.obj (.text:UartPrintf_flush)
                  00014810    00000054     maclib_secure.a : mac_beacon_coord.obj (.text:macBeaconTxCallback)
                  00014864    00000054                     : mac_beacon_device.obj (.text:macSyncTimeoutCallback)
                  000148b8    00000054                     : mac_beacon_device.obj (.text:macTrackStartCallback)
                  0001490c    00000054                     : mac_ie_parse.obj (.text:macUpdatePayloadIEPtr)
                  00014960    00000054     api_mac.obj (.text:processScanCnf$32)
                  000149b4    00000054     collector.obj (.text:sendTrackingRequest$35)
                  00014a08    00000052     maclib_secure.a : fh_ie.obj (.text:FHIE_genExcludedChannelMask)
                  00014a5a    00000052                     : fh_ie.obj (.text:FHIE_getSubPie)
                  00014aac    00000050     dpl_cc13x0.aem3 : ClockP_tirtos.oem3 (.text:ClockP_construct)
                  00014afc    00000050     maclib_secure.a : fh_mgr.obj (.text:FHMGR_macStartFHTimer)
                  00014b4c    00000050                     : fh_mgr.obj (.text:FHMGR_ucTimerIsrCb)
                  00014b9c    00000050                     : fh_nt.obj (.text:FHNT_getEUI)
                  00014bec    00000050     driverlib.lib : crypto.obj (.text:NOROM_CRYPTOCcmAuthEncryptResultGet)
                  00014c3c    00000050     rf_multiMode_cc13x0.aem3 : RFCC26XX_multiMode.oem3 (.text:RF_applyRfCorePatch)
                  00014c8c    00000050                              : RFCC26XX_multiMode.oem3 (.text:RF_fsmXOSCState)
                  00014cdc    00000050                              : RFCC26XX_multiMode.oem3 (.text:RF_wakeupNotification)
                  00014d2c    00000050     maclib_secure.a : mac_beacon_coord.obj (.text:macBeaconPrepareCallback)
                  00014d7c    00000050                     : mac_radio.obj (.text:macRadioSetChannel)
                  00014dcc    00000050                     : mac_symbol_timer.obj (.text:macSymbolTimerSetRollover)
                  00014e1c    00000050     drivers_cc13x0.aem3 : UARTCC26XX.oem3 (.text:startTxFifoEmptyClk)
                  00014e6c    0000004e     maclib_secure.a : fh_dh1cf.obj (.text:FHDH1CF_mapChIdxChannel)
                  00014eba    00000002     rom_sysbios.aem3 : rom_sysbios.obj (.text:ti_sysbios_knl_Clock_triggerFunc__I)
                  00014ebc    0000004c     maclib_secure.a : fh_pib.obj (.text:FHPIB_get)
                  00014f08    0000004c     rf_multiMode_cc13x0.aem3 : RFCC26XX_multiMode.oem3 (.text:RF_setTxPower)
                  00014f54    0000004c     rtsv7M3_T_le_eabi.lib : cpy_tbl.c.obj (.text:copy_in)
                  00014fa0    0000004c     maclib_secure.a : mac.obj (.text:macFsCb$76)
                  00014fec    0000004c                     : mac_radio.obj (.text:macGetRadioTxPowerReg)
                  00015038    0000004c                     : mac_coord.obj (.text:macIndirectRequeueFrame)
                  00015084    0000004c                     : mac_rx.obj (.text:macRxNokIsr)
                  000150d0    0000004c                     : mac_symbol_timer.obj (.text:macSymbolTimerEventHandler$84)
                  0001511c    0000004c                     : mac_tx.obj (.text:macTxAckNotReceivedCallback)
                  00015168    0000004a     macstack.obj (.text:icall_slimMsgParser)
                  000151b2    00000002     app_pem3.oem3 (.text:ti_sysbios_rom_cortexm_cc13xx_CC13xx_badRomRevision__E)
                  000151b4    00000048     board_lcd.obj (.text:Board_Lcd_writeStringValue)
                  000151fc    00000048     csf.obj (.text:Csf_getNumDeviceListEntries)
                  00015244    00000048     drivers_cc13x0.aem3 : PINCC26XX.oem3 (.text:PIN_setOutputEnable)
                  0001528c    00000048     util_timer.obj (.text:Timer_construct)
                  000152d4    00000048     util.obj (.text:Util_itoa)
                  0001531c    00000048     csf.obj (.text:getNumBlackListEntries$36)
                  00015364    00000048     maclib_secure.a : mac_beacon_device.obj (.text:macBeaconStartFrameResponseTimer)
                  000153ac    00000048                     : mac_coord.obj (.text:macRxAssociateReq)
                  000153f4    00000048                     : mac.obj (.text:macSetupFsCmd)
                  0001543c    00000048     drivers_cc13x0.aem3 : UARTCC26XX.oem3 (.text:writeFinishedDoCallback)
                  00015484    00000046     maclib_secure.a : fh_dh1cf.obj (.text:FHDH1CF_getCh)
                  000154ca    00000046                     : fh_ie.obj (.text:FHIE_getCommonInformationLen)
                  00015510    00000044                     : fh_api.obj (.text:FHAPI_getRemDT)
                  00015554    00000044                     : mac_pib.obj (.text:MAC_MlmeGetReq)
                  00015598    00000044     drivers_cc13x0.aem3 : RingBuf.oem3 (.text:RingBuf_put)
                  000155dc    00000044     boot.aem3 : boot.oem3 (.text)
                  00015620    00000044     nvocop.obj (.text:erasePage$29)
                  00015664    00000044     maclib_secure.a : mac.obj (.text:macSetupReceiveCmd)
                  000156a8    00000044                     : mac.obj (.text:macStopCmd)
                  000156ec    00000044                     : mac_main.obj (.text:mac_msg_deallocate)
                  00015730    00000044     rom_sysbios.aem3 : rom_sysbios.obj (.text:xdc_runtime_Text_xprintf__I)
                  00015774    00000042     api_mac.obj (.text:copyMacPanDescToApiMacPanDesc$32)
                  000157b6    00000002     rom_sysbios.aem3 : rom_sysbios.obj (.text:xdc_runtime_SysCallback_defaultAbort)
                  000157b8    00000040     maclib_secure.a : fh_dh1cf.obj (.text:FHDH1CF_hashword)
                  000157f8    00000040                     : fh_nt.obj (.text:FHNT_delTempIndex)
                  00015838    00000040                     : fh_util.obj (.text:FHUTIL_getCurUfsi)
                  00015878    00000040     hal_trng_wrapper.obj (.text:HalTRNG_GetTRNG)
                  000158b8    00000040     osal.obj (.text:ICall_setTimer$19)
                  000158f8    00000040     maclib_secure.a : mac_symbol_timer.obj (.text:ICall_setTimer$84)
                  00015938    00000040                     : mac_tx.obj (.text:ICall_setTimer$85)
                  00015978    00000040     driverlib.lib : chipinfo.obj (.text:NOROM_ChipInfo_GetHwRevision)
                  000159b8    00000040     nvocop.obj (.text:NVOCOP_initNV)
                  000159f8    00000040     drivers_cc13x0.aem3 : PINCC26XX.oem3 (.text:PIN_swi)
                  00015a38    00000040                         : UART.oem3 (.text:UART_init)
                  00015a78    00000040                         : UART.oem3 (.text:UART_open)
                  00015ab8    00000040     rtsv7M3_T_le_eabi.lib : u_divt2.asm.obj (.text)
                  00015af8    00000040     rom_sysbios.aem3 : rom_sysbios.obj (.text:ti_sysbios_family_arm_cc26xx_Timer_setThreshold__I)
                  00015b38    0000003e     dpl_cc13x0.aem3 : HwiP_tirtos.oem3 (.text:HwiP_construct)
                  00015b76    0000003e     drivers_cc13x0.aem3 : RingBuf.oem3 (.text:RingBuf_get)
                  00015bb4    0000003c     maclib_secure.a : fh_mgr.obj (.text:FHMGR_updateHopping)
                  00015bf0    0000003c     icall_cc2650.obj (.text:ICallPlatform_pwrConfigACAction)
                  00015c2c    0000003c     api_mac.obj (.text:ICall_sendServiceMsg$32)
                  00015c68    0000003c     osal.obj (.text:ICall_setTimerMSecs$19)
                  00015ca4    0000003c     driverlib.lib : osc.obj (.text:NOROM_OSC_HPOSCRelativeFrequencyOffsetGet)
                  00015ce0    0000003c                   : rfc.obj (.text:NOROM_RFCSynthPowerDown)
                  00015d1c    0000003c     nvocop.obj (.text:NVOCOP_compactNV)
                  00015d58    0000003c     drivers_cc13x0.aem3 : PowerCC26XX.oem3 (.text:PowerCC26XX_isStableXOSC_HF)
                  00015d94    0000003c     rf_multiMode_cc13x0.aem3 : RFCC26XX_multiMode.oem3 (.text:RF_cmdGet)
                  00015dd0    0000003c     dpl_cc13x0.aem3 : SwiP_tirtos.oem3 (.text:SwiP_construct)
                  00015e0c    0000003c     collector.obj (.text:cllcDeviceJoiningCB$35)
                  00015e48    0000003c     drivers_cc13x0.aem3 : PowerCC26XX.oem3 (.text:disableLfClkQualifiersEnableClkLoss)
                  00015e84    0000003c     maclib_secure.a : mac_beacon.obj (.text:macBeaconRequeue)
                  00015ec0    0000003c                     : mac_hl_patch.obj (.text:macCheckPhyRate)
                  00015efc    0000003c                     : mac_rx_onoff.obj (.text:macRxDisable)
                  00015f38    0000003c                     : mac_coord.obj (.text:macStartContinue)
                  00015f74    0000003c                     : mac_symbol_timer.obj (.text:macSymbolTimerRealignSubG)
                  00015fb0    0000003c                     : mac_symbol_timer.obj (.text:macSymbolTimerSetTrigger)
                  00015fec    0000003c     osal.obj (.text:osal_msg_extract)
                  00016028    0000003c     rom_sysbios.aem3 : rom_sysbios.obj (.text:ti_sysbios_family_arm_m3_Hwi_construct2__E)
                  00016064    0000003a     maclib_secure.a : fh_dh1cf.obj (.text:FHDH1CF_getChannelNum)
                  0001609e    00000002     rom_sysbios.aem3 : rom_sysbios.obj (.text:xdc_runtime_SysCallback_defaultExit)
                  000160a0    00000038     collector.obj (.text:Collector_sendToggleLedRequest)
                  000160d8    00000038     maclib_secure.a : fh_api.obj (.text:FHAPI_stopAsync)
                  00016110    00000038     hal_trng_wrapper.obj (.text:HalTRNG_InitTRNG)
                  00016148    00000038     macstack.obj (.text:ICall_enrollService$26)
                  00016180    00000038     nvocop.obj (.text:NVOCOP_readItem)
                  000161b8    00000038     drivers_cc13x0.aem3 : PINCC26XX.oem3 (.text:PIN_setOutputValue)
                  000161f0    00000038     rf_multiMode_cc13x0.aem3 : RFCC26XX_multiMode.oem3 (.text:RF_checkCmdFsError)
                  00016228    00000038                              : RFCC26XX_multiMode.oem3 (.text:RF_ieeeRequestFgCommand)
                  00016260    00000038     board_key.obj (.text:board_key_keyFxn$5)
                  00016298    00000038     collector.obj (.text:findDevice$35)
                  000162d0    00000038     maclib_secure.a : mac.obj (.text:macSetUserConfig)
                  00016308    00000038                     : mac_symbol_timer.obj (.text:macSymbolTimerCount)
                  00016340    00000038     osal.obj (.text:osal_msg_dequeue)
                  00016378    00000038     drivers_cc13x0.aem3 : UARTCC26XX.oem3 (.text:readData)
                  000163b0    00000038     rom_sysbios.aem3 : rom_sysbios.obj (.text:ti_sysbios_family_arm_cc26xx_Timer_getCurrentTick__E)
                  000163e8    00000038     drivers_cc13x0.aem3 : UARTCC26XX.oem3 (.text:writeData)
                  00016420    00000036     maclib_secure.a : fh_ie.obj (.text:FHIE_getPie)
                  00016456    00000002     --HOLE-- [fill = 0]
                  00016458    00000034     osal.obj (.text:ICall_send$19)
                  0001648c    00000034     maclib_secure.a : fh_mgr.obj (.text:ICall_setTimer$56)
                  000164c0    00000034     driverlib.lib : ddi.obj (.text:NOROM_DDI32RegWrite)
                  000164f4    00000034                   : osc.obj (.text:NOROM_OSCHF_SwitchToRcOscTurnOffXosc)
                  00016528    00000034     drivers_cc13x0.aem3 : PINCC26XX.oem3 (.text:PIN_setConfig)
                  0001655c    00000034                         : PowerCC26XX.oem3 (.text:Power_releaseConstraint)
                  00016590    00000034     rf_multiMode_cc13x0.aem3 : RFCC26XX_multiMode.oem3 (.text:RF_powerConstraintRelease)
                  000165c4    00000034                              : RFCC26XX_multiMode.oem3 (.text:RF_runDirectImmediateCmd)
                  000165f8    00000034     nvocop.obj (.text:disableCache$29)
                  0001662c    00000034     maclib_secure.a : mac_beacon_device.obj (.text:macBeaconStopTrack)
                  00016660    00000034                     : mac_data.obj (.text:macDataRxInd)
                  00016694    00000034                     : mac_beacon_coord.obj (.text:macStartBeaconPrepareCallback)
                  000166c8    00000034                     : mac_beacon_device.obj (.text:macStartBroadcastPendTimer)
                  000166fc    00000034                     : mac_timer.obj (.text:macTimerRecalcUnaligned)
                  00016730    00000034                     : mac_tx.obj (.text:macTxDecrypt)
                  00016764    00000034                     : mac_tx.obj (.text:macTxUpdateIE)
                  00016798    00000034     drivers_cc13x0.aem3 : PowerCC26XX.oem3 (.text:notify)
                  000167cc    00000034     osal.obj (.text:osal_msg_enqueue)
                  00016800    00000034     csf.obj (.text:saveNumDeviceListEntries$36)
                  00016834    00000034     rom_sysbios.aem3 : rom_sysbios.obj (.text:ti_sysbios_family_arm_cc26xx_Timer_initDevice__I)
                  00016868    00000034                      : rom_sysbios.obj (.text:ti_sysbios_knl_Swi_setPri__E)
                  0001689c    00000032     maclib_secure.a : fh_ie.obj (.text:FHIE_getHie)
                  000168ce    00000032     icall_cc2650.obj (.text:ICallPlatform_pwrNotify$1)
                  00016900    00000032     maclib_secure.a : mac_scan.obj (.text:macScanCnfInit)
                  00016932    00000032     rom_sysbios.aem3 : rom_sysbios.obj (.text:ti_sysbios_family_arm_cc26xx_Timer_setNextTick__E)
                  00016964    00000030     csf.obj (.text:Csf_setConfigClock)
                  00016994    00000030     csf.obj (.text:Csf_setTrackingClock)
                  000169c4    00000030     maclib_secure.a : fh_api.obj (.text:FHAPI_SFDRxCb)
                  000169f4    00000030                     : fh_sm.obj (.text:FSM_transaction_debug)
                  00016a24    00000030     hal_flash_wrapper.obj (.text:HalFlashRead)
                  00016a54    00000030     icall_cc2650.obj (.text:ICallPlatform_pwrRegisterNotify)
                  00016a84    00000030     driverlib.lib : crypto.obj (.text:NOROM_CRYPTOAesEcbStatus)
                  00016ab4    00000030                   : crypto.obj (.text:NOROM_CRYPTOCcmAuthEncryptStatus)
                  00016ae4    00000030                   : crypto.obj (.text:NOROM_CRYPTOCcmInvAuthDecryptStatus)
                  00016b14    00000030                   : chipinfo.obj (.text:NOROM_ChipInfo_GetChipType)
                  00016b44    00000030                   : setup_rom.obj (.text:NOROM_SetupSetAonRtcSubSecInc)
                  00016b74    00000030     drivers_cc13x0.aem3 : PowerCC26XX.oem3 (.text:Power_setConstraint)
                  00016ba4    00000030     rf_multiMode_cc13x0.aem3 : RFCC26XX_multiMode.oem3 (.text:RF_queueEnd)
                  00016bd4    00000030     collector.obj (.text:cllcStateChangedCB$35)
                  00016c04    00000030     collector.obj (.text:getMsduHandle$35)
                  00016c34    00000030     maclib_secure.a : mac_mgmt.obj (.text:macBcTimerHandler)
                  00016c64    00000030                     : mac_pib.obj (.text:macMRFSKGetPhyDesc)
                  00016c94    00000030                     : mac_coord.obj (.text:macRxOrphan)
                  00016cc4    00000030                     : mac_symbol_timer.obj (.text:macSymbolTimerICallTimerCback$84)
                  00016cf4    00000030                     : mac_timer.obj (.text:macTimerSetRollover)
                  00016d24    00000030     osal.obj (.text:osal_alien2proxy)
                  00016d54    00000030     drivers_cc13x0.aem3 : UARTCC26XX.oem3 (.text:readData2RingBuf)
                  00016d84    00000030     app_pem3.oem3 (.text:ti_sysbios_BIOS_atExitFunc__I)
                  00016db4    00000030     app_pem3.oem3 (.text:ti_sysbios_BIOS_startFunc__I)
                  00016de4    0000002e     csf.obj (.text:Csf_getDeviceShort)
                  00016e12    0000002e     icall_cc2650.obj (.text:ICallPlatform_pwrDispenseImpl$1)
                  00016e40    0000002e     icall_cc2650.obj (.text:ICallPlatform_pwrRequireImpl$1)
                  00016e6e    0000002e     drivers_cc13x0.aem3 : CryptoCC26XX.oem3 (.text:cryptoTransactionPend)
                  00016e9c    0000002c     CC13X0_LAUNCHXL.obj (.text:CC1350_LAUNCHXL_rfDriverCallback$3)
                  00016ec8    0000002c     maclib_secure.a : fh_ie.obj (.text:FHIE_getExcludedChannelControl)
                  00016ef4    0000002c     driverlib.lib : osc.obj (.text:NOROM_OSCClockSourceGet)
                  00016f20    0000002c                   : rfc.obj (.text:NOROM_RFCCpePatchReset)
                  00016f4c    0000002c     drivers_cc13x0.aem3 : PINCC26XX.oem3 (.text:PINCC26XX_setMux)
                  00016f78    0000002c     rf_multiMode_cc13x0.aem3 : RFCC26XX_multiMode.oem3 (.text:RF_calculateDeltaTimeUs)
                  00016fa4    0000002c                              : RFCC26XX_multiMode.oem3 (.text:RF_executeDirectImmediateCmd)
                  00016fd0    0000002c     dpl_cc13x0.aem3 : SemaphoreP_tirtos.oem3 (.text:SemaphoreP_constructBinary)
                  00016ffc    0000002c     uart_printf.obj (.text:UartPrintf_putch)
                  00017028    0000002c     collector.obj (.text:findDeviceStatusBit$35)
                  00017054    0000002c     nvocop.obj (.text:findOffset$29)
                  00017080    0000002c     maclib_secure.a : mac_beacon.obj (.text:macBeaconInit)
                  000170ac    0000002c                     : mac_pib.obj (.text:macPibReset)
                  000170d8    0000002c                     : mac_radio.obj (.text:macRadioSetPanCoordinator)
                  00017104    0000002c     osal.obj (.text:osal_msec_timer_cback$19)
                  00017130    0000002c     saddr.obj (.text:sAddrCmp)
                  0001715c    0000002c     rom_sysbios.aem3 : rom_sysbios.obj (.text:ti_sysbios_knl_Clock_getTicksUntilInterrupt__E)
                  00017188    0000002b                      : rom_sysbios.obj (.text:xdc_runtime_Text_printVisFxn__I)
                  000171b3    00000001     --HOLE-- [fill = 0]
                  000171b4    0000002a                      : rom_sysbios.obj (.text:ti_sysbios_knl_Clock_getTimeout__E)
                  000171de    0000002a                      : rom_sysbios.obj (.text:xdc_runtime_System_putchar__I)
                  00017208    00000028     drivers_cc13x0.aem3 : CryptoCC26XX.oem3 (.text:CryptoCC26XX_releaseKey)
                  00017230    00000028     maclib_secure.a : fh_mgr.obj (.text:FHMGR_macCancelFHTimer)
                  00017258    00000028     csf.obj (.text:ICall_malloc$36)
                  00017280    00000028     maclib_secure.a : mac_security_pib.obj (.text:MAC_MlmeGetPointerSecurityReq)
                  000172a8    00000028     driverlib.lib : aon_batmon.obj (.text:NOROM_AONBatMonTemperatureGetDegC)
                  000172d0    00000028                   : rfc.obj (.text:NOROM_RFCDoorbellSendTo)
                  000172f8    00000028     drivers_cc13x0.aem3 : PowerCC26XX.oem3 (.text:Power_registerNotify)
                  00017320    00000028     rf_multiMode_cc13x0.aem3 : RFCC26XX_multiMode.oem3 (.text:RF_getTxPower)
                  00017348    00000028     driverlib.lib : adi.obj (.text:SafeHapiVoid)
                  00017370    00000028     board_led.obj (.text:board_led_anyBlinking$7)
                  00017398    00000028     nvocop.obj (.text:findItem$29)
                  000173c0    00000028     maclib_secure.a : mac_mgmt.obj (.text:macApiPending)
                  000173e8    00000028                     : mac_beacon.obj (.text:macBeaconCheckSched)
                  00017410    00000028                     : mac_beacon_coord.obj (.text:macBeaconSetPrepareTime)
                  00017438    00000028                     : mac_mgmt.obj (.text:macCoordAddrCmp)
                  00017460    00000028                     : mac_mgmt.obj (.text:macGetCoordAddress)
                  00017488    00000028                     : mac_radio.obj (.text:macRadioStopScan)
                  000174b0    00000028                     : mac_rx_onoff.obj (.text:macRxHardDisable)
                  000174d8    00000028                     : mac_coord.obj (.text:macStartComplete)
                  00017500    00000028                     : mac_tx.obj (.text:macTxRequestCsmaRtcDelay)
                  00017528    00000028     osal_memory_icall.obj (.text:osal_mem_alloc)
                  00017550    00000028     osal_timers.obj (.text:osal_next_timeout)
                  00017578    00000028     collector.obj (.text:processConfigRetry$35)
                  000175a0    00000026     maclib_secure.a : fh_util.obj (.text:FHUTIL_getMaxChannels)
                  000175c6    00000026                     : fh_util.obj (.text:FHUTIL_getTxUfsi)
                  000175ec    00000026                     : mac_radio.obj (.text:radioComputeED$79)
                  00017612    00000026     rom_sysbios.aem3 : rom_sysbios.obj (.text:xdc_runtime_System_vprintf__E)
                  00017638    00000024     drivers_cc13x0.aem3 : CryptoCC26XX.oem3 (.text:CryptoCC26XX_hwiIntFxn)
                  0001765c    00000024     maclib_secure.a : fh_api.obj (.text:FHAPI_getTxChHoppingFunc)
                  00017680    00000024                     : fh_pib.obj (.text:FHPIB_getLen)
                  000176a4    00000024     osal_pwrmgr.obj (.text:ICall_pwrUpdActivityCounter$23)
                  000176c8    00000024     drivers_cc13x0.aem3 : List.oem3 (.text:List_remove)
                  000176ec    00000024     rf_multiMode_cc13x0.aem3 : RFCC26XX_multiMode.oem3 (.text:RF_cmdAlloc)
                  00017710    00000024                              : RFCC26XX_multiMode.oem3 (.text:RF_invokeGlobalCallback)
                  00017734    00000024     maclib_secure.a : mac_beacon.obj (.text:macBeaconReset)
                  00017758    00000024                     : mac_radio.obj (.text:macGetRadioState)
                  0001777c    00000024                     : mac_radio_tx.obj (.text:macRadioTxRequestTxAck)
                  000177a0    00000024                     : mac_rx_onoff.obj (.text:macRxSoftDisable)
                  000177c4    00000024                     : mac_timer.obj (.text:macTimerAligned)
                  000177e8    00000024     rtsv7M3_T_le_eabi.lib : memcmp.c.obj (.text:memcmp)
                  0001780c    00000024     osal.obj (.text:osal_msg_allocate)
                  00017830    00000024     cllc.obj (.text:startCnfCb$34)
                  00017854    00000024     app_pem3.oem3 (.text:ti_sysbios_BIOS_registerRTSLock__I)
                  00017878    00000024     app_pem3.oem3 (.text:ti_sysbios_BIOS_removeRTSLock__I)
                  0001789c    00000024     rom_sysbios.aem3 : rom_sysbios.obj (.text:ti_sysbios_family_arm_cc26xx_Timer_getMaxTicks__E)
                  000178c0    00000022     drivers_cc13x0.aem3 : List.oem3 (.text:List_get)
                  000178e2    00000022                         : List.oem3 (.text:List_insert)
                  00017904    00000022                         : List.oem3 (.text:List_put)
                  00017926    00000022                         : List.oem3 (.text:List_putHead)
                  00017948    00000022     collector.obj (.text:pollIndCB$35)
                  0001796a    00000002     --HOLE-- [fill = 0]
                  0001796c    00000020     drivers_cc13x0.aem3 : CryptoCC26XX.oem3 (.text:CryptoCC26XX_init)
                  0001798c    00000020     maclib_secure.a : fh_data.obj (.text:FHDATA_updateCCA)
                  000179ac    00000020                     : fh_util.obj (.text:FHUTIL_updateUcNumChannels)
                  000179cc    00000020     hal_flash_wrapper.obj (.text:HalFlashGetAddress)
                  000179ec    00000020     osal_memory_icall.obj (.text:ICall_free$22)
                  00017a0c    00000020     api_mac.obj (.text:ICall_free$32)
                  00017a2c    00000020     osal.obj (.text:ICall_getTicks$19)
                  00017a4c    00000020     maclib_secure.a : fh_data.obj (.text:ICall_getTicks$55)
                  00017a6c    00000020                     : fh_mgr.obj (.text:ICall_getTicks$56)
                  00017a8c    00000020                     : fh_util.obj (.text:ICall_getTicks$59)
                  00017aac    00000020                     : fh_api.obj (.text:ICall_getTicks$86)
                  00017acc    00000020                     : fh_nt.obj (.text:ICall_getTicks$89)
                  00017aec    00000020     osal.obj (.text:ICall_signal$19)
                  00017b0c    00000020     maclib_secure.a : mac_symbol_timer.obj (.text:ICall_signal$84)
                  00017b2c    00000020                     : mac_pib.obj (.text:MAC_GetPHYParamReq)
                  00017b4c    00000020     driverlib.lib : rfc.obj (.text:NOROM_RFCAdi3VcoLdoVoltageMode)
                  00017b6c    00000020     dpl_cc13x0.aem3 : PowerCC26XX_tirtos.oem3 (.text:PowerCC26XX_schedulerDisable)
                  00017b8c    00000020                     : PowerCC26XX_tirtos.oem3 (.text:PowerCC26XX_schedulerRestore)
                  00017bac    00000020     drivers_cc13x0.aem3 : PowerCC26XX.oem3 (.text:Power_unregisterNotify)
                  00017bcc    00000020     rf_multiMode_cc13x0.aem3 : RFCC26XX_multiMode.oem3 (.text:RF_clkPowerUp)
                  00017bec    00000020                              : RFCC26XX_multiMode.oem3 (.text:RF_hwiCpe0ChangePhy)
                  00017c0c    00000020                              : RFCC26XX_multiMode.oem3 (.text:RF_ratIsRunning)
                  00017c2c    00000020     maclib_secure.a : mac_beacon_coord.obj (.text:macBeaconCoordReset)
                  00017c4c    00000020                     : mac_data.obj (.text:macDataRxMemAlloc)
                  00017c6c    00000020                     : mac_data.obj (.text:macDataSend)
                  00017c8c    00000020                     : mac_radio.obj (.text:macRadioSwInit)
                  00017cac    00000020                     : mac_coord.obj (.text:macRxBeaconReq)
                  00017ccc    00000020                     : mac_rx_onoff.obj (.text:macRxOff)
                  00017cec    00000020                     : mac_rx_onoff.obj (.text:macRxSoftEnable)
                  00017d0c    00000020     osal.obj (.text:osal_memcmp)
                  00017d2c    00000020     osal.obj (.text:osal_msg_push)
                  00017d4c    00000020     app_pem3.oem3 (.text:ti_sysbios_BIOS_rtsLock__I)
                  00017d6c    00000020     rom_sysbios.aem3 : rom_sysbios.obj (.text:ti_sysbios_family_arm_cc26xx_Timer_dynamicStub__E)
                  00017d8c    00000020                      : rom_sysbios.obj (.text:ti_sysbios_knl_Clock_stop__E)
                  00017dac    00000020                      : rom_sysbios.obj (.text:xdc_runtime_Registry_findById__E)
                  00017dcc    0000001e     drivers_cc13x0.aem3 : PINCC26XX.oem3 (.text:PIN_close)
                  00017dea    0000001e                         : PowerCC26XX.oem3 (.text:Power_getTransitionLatency)
                  00017e08    0000001e     rf_multiMode_cc13x0.aem3 : RFCC26XX_multiMode.oem3 (.text:RF_preemptClient)
                  00017e26    0000001e     maclib_secure.a : mac_hl_patch.obj (.text:macPibIndex)
                  00017e44    0000001e                     : mac_scan.obj (.text:macScanFailedInProgress)
                  00017e62    0000001e                     : mac_timer.obj (.text:macTimerRemoveTimer)
                  00017e80    0000001c     cllc.obj (.text:Cllc_securityFill)
                  00017e9c    0000001c     maclib_secure.a : fh_api.obj (.text:FHAPI_setStateCb)
                  00017eb8    0000001c                     : fh_pib.obj (.text:FHPIB_getIndex)
                  00017ed4    0000001c     osal.obj (.text:ICall_abort$19)
                  00017ef0    0000001c     osaltasks.obj (.text:ICall_abort$27)
                  00017f0c    0000001c     driverlib.lib : chipinfo.obj (.text:NOROM_ChipInfo_GetChipFamily)
                  00017f28    0000001c                   : flash.obj (.text:NOROM_FlashProgram)
                  00017f44    0000001c                   : flash.obj (.text:NOROM_FlashSectorErase)
                  00017f60    0000001c     drivers_cc13x0.aem3 : PINCC26XX.oem3 (.text:PINCC26XX_setIoCfgMux)
                  00017f7c    0000001c                         : PINCC26XX.oem3 (.text:PIN_hwi)
                  00017f98    0000001c     rf_multiMode_cc13x0.aem3 : RFCC26XX_multiMode.oem3 (.text:RF_clkInactivity)
                  00017fb4    0000001c                              : RFCC26XX_multiMode.oem3 (.text:RF_getRssi)
                  00017fd0    0000001c                              : RFCC26XX_multiMode.oem3 (.text:RF_powerConstraintSet)
                  00017fec    0000001c     cllc.obj (.text:dataIndCb$34)
                  00018008    0000001c     nvocop.obj (.text:enableCache$29)
                  00018024    0000001c     cllc.obj (.text:findDevice$34)
                  00018040    0000001c     maclib_secure.a : mac_mgmt.obj (.text:macConflictSyncLossInd)
                  0001805c    0000001c                     : mac_mcu.obj (.text:macMcuTimerCapture)
                  00018078    0000001c                     : mac_radio.obj (.text:macRadioSetRE)
                  00018094    0000001c                     : mac_rx.obj (.text:macRxAckTxDoneCallback)
                  000180b0    0000001c                     : mac.obj (.text:macSetCurrChan$76)
                  000180cc    0000001c                     : mac_symbol_timer.obj (.text:macSymbolTimerSetTriggerRollover)
                  000180e8    0000001c                     : mac_timer.obj (.text:macTimer)
                  00018104    0000001c     osal.obj (.text:osal_proxy2alien$19)
                  00018120    0000001c     csf.obj (.text:processBroadcastTimeoutCallback$36)
                  0001813c    0000001c     csf.obj (.text:processConfigTimeoutCallback$36)
                  00018158    0000001c     csf.obj (.text:processJoinTimeoutCallback$36)
                  00018174    0000001c     csf.obj (.text:processTackingTimeoutCallback$36)
                  00018190    0000001c     maclib_secure.a : mac_rx.obj (.text:rxDone$81)
                  000181ac    0000001c     saddr.obj (.text:sAddrExtCmp)
                  000181c8    0000001c     rom_sysbios.aem3 : rom_sysbios.obj (.text:ti_sysbios_knl_Swi_construct2__E)
                  000181e4    0000001a     api_mac.obj (.text:copyApiMacAddrToMacAddr)
                  000181fe    0000001a     maclib_secure.a : mac_hl_patch.obj (.text:macCheckPhyMode)
                  00018218    0000001a                     : mac_low_level.obj (.text:macLowLevelDiags)
                  00018232    0000001a     rom_sysbios.aem3 : rom_sysbios_config.obj (.text:xdc_runtime_System_printf__E)
                  0001824c    00000018     api_mac.obj (.text:ApiMac_mlmeSetReqBool)
                  00018264    00000018     api_mac.obj (.text:ApiMac_mlmeSetReqUint16)
                  0001827c    00000018     api_mac.obj (.text:ApiMac_mlmeSetReqUint8)
                  00018294    00000018     maclib_secure.a : fh_api.obj (.text:FHAPI_getBitCount)
                  000182ac    00000018     hal_aes.obj (.text:HalAesInit)
                  000182c4    00000018     icall_cc2650.obj (.text:ICallPlatform_pwrDispense)
                  000182dc    00000018     icall_cc2650.obj (.text:ICallPlatform_pwrRequire)
                  000182f4    00000018     driverlib.lib : aon_rtc.obj (.text:NOROM_AONRTCCurrentCompareValueGet)
                  0001830c    00000018                   : chipinfo.obj (.text:NOROM_ChipInfo_GetPackageType)
                  00018324    00000018                   : osc.obj (.text:NOROM_OSCHF_TurnOnXosc)
                  0001833c    00000018                   : rfc.obj (.text:NOROM_RFCCpeIntGetAndClear)
                  00018354    00000018     drivers_cc13x0.aem3 : PowerCC26XX.oem3 (.text:Power_idleFunc)
                  0001836c    00000018     rf_multiMode_cc13x0.aem3 : RFCC26XX_multiMode.oem3 (.text:RF_cancelCmd)
                  00018384    00000018                              : RFCC26XX_multiMode.oem3 (.text:RF_swiFsm)
                  0001839c    00000018     drivers_cc13x0.aem3 : UARTCC26XX.oem3 (.text:UARTCC26XX_init)
                  000183b4    00000018                         : UART.oem3 (.text:UART_Params_init)
                  000183cc    00000018     rtsv7M3_T_le_eabi.lib : args_main.c.obj (.text:_args_main)
                  000183e4    00000018     board_key.obj (.text:board_key_changeHandler$5)
                  000183fc    00000018     collector.obj (.text:commStatusIndCB$35)
                  00018414    00000018     api_mac.obj (.text:copyMacAddrToApiMacAddr$32)
                  0001842c    00000018     drivers_cc13x0.aem3 : CryptoCC26XX.oem3 (.text:cryptoTransactionPoll)
                  00018444    00000018     maclib_secure.a : mac_mgmt.obj (.text:macGetMyAddrMode)
                  0001845c    00000018                     : mac_radio.obj (.text:macRadioSetIEEEAddr)
                  00018474    00000018                     : mac_radio.obj (.text:macRadioSetShortAddr)
                  0001848c    00000018                     : mac_rx_onoff.obj (.text:macRxOnRequest)
                  000184a4    00000018                     : mac_main.obj (.text:macStateIdleOrPolling)
                  000184bc    00000018                     : mac_symbol_timer.obj (.text:macSymbolTimerRestore)
                  000184d4    00000018                     : mac_timer.obj (.text:macTimerInit)
                  000184ec    00000018                     : mac_tx.obj (.text:macTxAbortIsr)
                  00018504    00000018                     : macwrapper.obj (.text:macWrapper8ByteUnused)
                  0001851c    00000018     osal.obj (.text:osal_memcpy)
                  00018534    00000018     csf.obj (.text:processKeyChangeCallback$36)
                  0001854c    00000018     rtsv7M3_T_le_eabi.lib : ll_mul_t2.asm.obj (.text)
                  00018564    00000018     app_pem3.oem3 (.text:ti_sysbios_BIOS_rtsUnlock__I)
                  0001857c    00000018     rom_sysbios.aem3 : rom_sysbios.obj (.text:ti_sysbios_knl_Swi_or__E)
                  00018594    00000018     app_pem3.oem3 (.text:ti_sysbios_rom_cortexm_cc13xx_CC13xx_checkRevision__E)
                  000185ac    00000018     cllc.obj (.text:updateState$34)
                  000185c4    00000016     rf_multiMode_cc13x0.aem3 : RFCC26XX_multiMode.oem3 (.text:RF_restartClockTimeout)
                  000185da    00000016     util.obj (.text:Util_clearEvent)
                  000185f0    00000016     util.obj (.text:Util_setEvent)
                  00018606    00000016     app_pem3.oem3 (.text:ti_sysbios_BIOS_exitFunc__I)
                  0001861c    00000014     api_mac.obj (.text:ApiMac_mcpsDataReq)
                  00018630    00000014     maclib_secure.a : fh_pib.obj (.text:FHPIB_reset)
                  00018644    00000014     drivers_cc13x0.aem3 : List.oem3 (.text:List_clearList)
                  00018658    00000014     macstack.obj (.text:MAC_CbackQueryRetransmit)
                  0001866c    00000014     driverlib.lib : aon_rtc.obj (.text:NOROM_AONRTCCurrent64BitValueGet)
                  00018680    00000014     drivers_cc13x0.aem3 : PINCC26XX.oem3 (.text:PINCC26XX_getInputValue)
                  00018694    00000014     rf_multiMode_cc13x0.aem3 : RFCC26XX_multiMode.oem3 (.text:RF_Params_init)
                  000186a8    00000014                              : RFCC26XX_multiMode.oem3 (.text:RF_RatConfigCompare_init)
                  000186bc    00000014                              : RFCC26XX_multiMode.oem3 (.text:RF_dbellSyncOnAck)
                  000186d0    00000014                              : RFCC26XX_multiMode.oem3 (.text:RF_flushCmd)
                  000186e4    00000014                              : RFCC26XX_multiMode.oem3 (.text:RF_ratCompare)
                  000186f8    00000014                              : RFCC26XX_multiMode.oem3 (.text:RF_ratGetChannel)
                  0001870c    00000014                              : RFCC26XX_multiMode.oem3 (.text:RF_schResolveConflict)
                  00018720    00000014                              : RFCC26XX_multiMode.oem3 (.text:RF_triggDispatcher)
                  00018734    00000014     drivers_cc13x0.aem3 : PowerCC26XX.oem3 (.text:configureRFCoreClocks)
                  00018748    00000014     maclib_secure.a : mac_data.obj (.text:macDataTxTimeAvailable)
                  0001875c    00000014                     : mac_main.obj (.text:macMainReserve)
                  00018770    00000014                     : mac_mcu.obj (.text:macMcuOverflowCapture)
                  00018784    00000014                     : mac_radio.obj (.text:macRadioSetPanID)
                  00018798    00000014                     : mac_coord.obj (.text:macRxPanConflict)
                  000187ac    00000014                     : mac_main.obj (.text:macStateScanning)
                  000187c0    00000014                     : mac_mgmt.obj (.text:macWSAsyncCnf)
                  000187d4    00000014                     : mac_rx.obj (.text:rxDiscardFrame$81)
                  000187e8    00000014     saddr.obj (.text:sAddrCpy)
                  000187fc    00000014     nvocop.obj (.text:setActivePage$29)
                  00018810    00000014     rtsv7M3_T_le_eabi.lib : strlen.c.obj (.text:strlen)
                  00018824    00000014     cllc.obj (.text:switchState$34)
                  00018838    00000014     app_pem3.oem3 (.text:ti_sysbios_knl_Clock_doTick__I)
                  0001884c    00000013     board_lcd.obj (.text:Board_Lcd_writeString)
                  0001885f    00000001     --HOLE-- [fill = 0]
                  00018860    00000012     maclib_secure.a : fh_nt.obj (.text:FHNT_assessTime)
                  00018872    00000012                     : fh_util.obj (.text:FHUTIL_getElapsedTime)
                  00018884    00000012     rf_multiMode_cc13x0.aem3 : RFCC26XX_multiMode.oem3 (.text:RF_getCmdOp)
                  00018896    00000012     drivers_cc13x0.aem3 : RingBuf.oem3 (.text:RingBuf_construct)
                  000188a8    00000012     dpl_cc13x0.aem3 : SemaphoreP_tirtos.oem3 (.text:SemaphoreP_pend)
                  000188ba    00000012     maclib_secure.a : mac_radio.obj (.text:macRadioSetTxPower)
                  000188cc    00000012                     : mac_security_pib.obj (.text:macSecurityPibIndex)
                  000188de    00000012     osal.obj (.text:osal_msg_deallocate)
                  000188f0    00000012     app_pem3.oem3 (.text:xdc_runtime_Startup_exec__I)
                  00018902    00000002     --HOLE-- [fill = 0]
                  00018904    00000010     api_mac.obj (.text:ApiMac_mlmeGetReqUint16)
                  00018914    00000010     api_mac.obj (.text:ApiMac_mlmeSetReqArray)
                  00018924    00000010     api_mac.obj (.text:ApiMac_mlmeSetSecurityReqStruct)
                  00018934    00000010     dpl_cc13x0.aem3 : ClockP_tirtos.oem3 (.text:ClockP_isActive)
                  00018944    00000010     hal_appasrt.obj (.text:HAL_APPASRT_callAssrtHanlder)
                  00018954    00000010     dpl_cc13x0.aem3 : HwiP_tirtos.oem3 (.text:HwiP_Params_init)
                  00018964    00000010     icall_cc2650.obj (.text:ICallPlatform_pwrGetXOSCStartupTime)
                  00018974    00000010     main.obj (.text:Main_assertHandler)
                  00018984    00000010     driverlib.lib : rfc.obj (.text:NOROM_RFCHwIntGetAndClear)
                  00018994    00000010                   : rfc.obj (.text:NOROM_RFCRfTrimSet)
                  000189a4    00000010     drivers_cc13x0.aem3 : PINCC26XX.oem3 (.text:PINCC26XX_getPinCount)
                  000189b4    00000010     rf_multiMode_cc13x0.aem3 : RFCC26XX_multiMode.oem3 (.text:RF_dbellSubmitCmdAsync)
                  000189c4    00000010                              : RFCC26XX_multiMode.oem3 (.text:RF_isClientOwner)
                  000189d4    00000010     dpl_cc13x0.aem3 : SwiP_tirtos.oem3 (.text:SwiP_Params_init)
                  000189e4    00000010     util_timer.obj (.text:Timer_isActive)
                  000189f4    00000010     maclib_secure.a : mac_data.obj (.text:macCheckSched)
                  00018a04    00000010                     : mac.obj (.text:macRadioPowerCtrlFEM)
                  00018a14    00000010                     : mac_rx_onoff.obj (.text:macRxEnable)
                  00018a24    00000010                     : mac_main.obj (.text:macSetEvent16)
                  00018a34    00000010                     : mac_main.obj (.text:macSetEvent)
                  00018a44    00000010     nvocop.obj (.text:setXferPage$29)
                  00018a54    00000010     rom_sysbios.aem3 : rom_sysbios.obj (.text:ti_sysbios_family_arm_m3_Hwi_post__E)
                  00018a64    00000010     maclib_secure.a : mac_tx.obj (.text:txLbtPrep$85)
                  00018a74    00000010     drivers_cc13x0.aem3 : UARTCC26XX.oem3 (.text:uartPostNotify)
                  00018a84    00000010     rom_sysbios.aem3 : rom_sysbios.obj (.text:xdc_runtime_SysCallback_putch__E)
                  00018a94    00000010                      : rom_sysbios.obj (.text:xdc_runtime_SysCallback_ready__E)
                  00018aa4    00000010                      : rom_sysbios.obj (.text:xdc_runtime_System_vsnprintf__E)
                  00018ab4    0000000e     maclib_secure.a : fh_mgr.obj (.text:FHMGR_macGetElapsedFHTime)
                  00018ac2    0000000e     icall_cc2650.obj (.text:ICallPlatform_pwrGetTransitionState)
                  00018ad0    0000000e     icall_cc2650.obj (.text:ICallPlatform_pwrIsStableXOSCHF)
                  00018ade    0000000e     driverlib.lib : vims.obj (.text:NOROM_VIMSModeGet)
                  00018aec    0000000e     util.obj (.text:Util_buildUint32)
                  00018afa    0000000e     rtsv7M3_T_le_eabi.lib : copy_decompress_none.c.obj (.text:decompress:none:__TI_decompress_none)
                  00018b08    0000000e     rom_sysbios.aem3 : rom_sysbios.obj (.text:ti_sysbios_family_arm_cc26xx_TimestampProvider_get32__E)
                  00018b16    0000000c     driverlib.lib : cpu.obj (.text:NOROM_CPUcpsid)
                  00018b22    0000000c                   : cpu.obj (.text:NOROM_CPUcpsie)
                  00018b2e    0000000c                   : osc.obj (.text:NOROM_OSC_HPOSCRelativeFrequencyOffsetToRFCoreFormatConvert)
                  00018b3a    0000000c     drivers_cc13x0.aem3 : PINCC26XX.oem3 (.text:PIN_registerIntCb)
                  00018b46    00000002     --HOLE-- [fill = 0]
                  00018b48    0000000c                         : PowerCC26XX.oem3 (.text:Power_getConstraintMask)
                  00018b54    0000000c                         : PowerCC26XX.oem3 (.text:Power_getDependencyCount)
                  00018b60    0000000c                         : PowerCC26XX.oem3 (.text:Power_getTransitionState)
                  00018b6c    0000000c     rf_multiMode_cc13x0.aem3 : RFCC26XX_multiMode.oem3 (.text:RF_powerConstraintGet)
                  00018b78    0000000c     rtsv7M3_T_le_eabi.lib : _lock.c.obj (.text:_register_lock)
                  00018b84    0000000c                           : _lock.c.obj (.text:_register_unlock)
                  00018b90    0000000c     board_led.obj (.text:board_led_convertLedValue$7)
                  00018b9c    0000000c     rtsv7M3_T_le_eabi.lib : copy_zero_init.c.obj (.text:decompress:ZI:__TI_zero_init)
                  00018ba8    0000000c     maclib_secure.a : mac_data.obj (.text:macDataRxMemFree)
                  00018bb4    0000000c                     : mac_mgmt.obj (.text:macIsCsmOperational)
                  00018bc0    0000000c                     : mac_radio_tx.obj (.text:macRadioTxCancelAckTimeout)
                  00018bcc    0000000c                     : mac_radio_tx.obj (.text:macRadioTxCancelTxAck)
                  00018bd8    0000000c     osal.obj (.text:osal_self)
                  00018be4    0000000c     rom_sysbios.aem3 : rom_sysbios.obj (.text:ti_sysbios_BIOS_getThreadType__E)
                  00018bf0    0000000c                      : rom_sysbios_config.obj (.text:ti_sysbios_hal_Hwi_Params__init__S)
                  00018bfc    0000000c                      : rom_sysbios.obj (.text:ti_sysbios_knl_Swi_getTrigger__E)
                  00018c08    0000000c     app_pem3.oem3 (.text:xdc_runtime_Startup_reset__I)
                  00018c14    0000000c     rom_sysbios.aem3 : rom_sysbios.obj (.text:xdc_runtime_Startup_rtsDone__E)
                  00018c20    0000000a     dpl_cc13x0.aem3 : ClockP_tirtos.oem3 (.text:ClockP_Params_init)
                  00018c2a    0000000a     hal_flash_wrapper.obj (.text:HalFlashWrite)
                  00018c34    0000000a     icall_cc2650.obj (.text:ICallPlatform_pwrSwitchXOSCHF)
                  00018c3e    0000000a     maclib_secure.a : mac_coord.obj (.text:MAC_MlmeAssociateRsp)
                  00018c48    0000000a                     : mac_coord.obj (.text:MAC_MlmeOrphanRsp)
                  00018c52    0000000a     drivers_cc13x0.aem3 : UART.oem3 (.text:UART_write)
                  00018c5c    0000000a     util.obj (.text:Util_copyExtAddr)
                  00018c66    0000000a     board_led.obj (.text:board_led_convertLedType$7)
                  00018c70    0000000a     maclib_secure.a : mac_mcu.obj (.text:macMcuRandomByte)
                  00018c7a    0000000a                     : mac_data.obj (.text:macSetSched)
                  00018c84    00000008     drivers_cc13x0.aem3 : CryptoCC26XX.oem3 (.text:CryptoCC26XX_Params_init)
                  00018c8c    00000008     maclib_secure.a : mac_coord.obj (.text:MAC_MlmeStartReq)
                  00018c94    00000008                     : mac_mgmt.obj (.text:MAC_MlmeSyncReq)
                  00018c9c    00000008     rf_multiMode_cc13x0.aem3 : RFCC26XX_multiMode.oem3 (.text:RF_RatConfigOutput_init)
                  00018ca4    00000008                              : RFCC26XX_multiMode.oem3 (.text:RF_ScheduleCmdParams_init)
                  00018cac    00000008     util_timer.obj (.text:Timer_setTimeout)
                  00018cb4    00000008     util.obj (.text:Util_breakUint32)
                  00018cbc    00000008     util.obj (.text:Util_buildUint16)
                  00018cc4    00000008     drivers_cc13x0.aem3 : CryptoCC26XX.oem3 (.text:cryptoPostNotify)
                  00018ccc    00000008     maclib_secure.a : mac_symbol_timer.obj (.text:macCsmaTimerExpiry)
                  00018cd4    00000008     csf.obj (.text:processidentifyTimeoutCallback$36)
                  00018cdc    00000008     drivers_cc13x0.aem3 : UARTCC26XX.oem3 (.text:readSemCallback)
                  00018ce4    00000008                         : UARTCC26XX.oem3 (.text:writeSemCallback)
                  00018cec    00000008     app_pem3.oem3 (.text:xdc_runtime_Text_visitRope__I)
                  00018cf4    00000006     drivers_cc13x0.aem3 : CryptoCC26XX.oem3 (.text:CryptoCC26XX_transact)
                  00018cfa    00000006                         : CryptoCC26XX.oem3 (.text:CryptoCC26XX_transactCallback)
                  00018d00    00000006                         : CryptoCC26XX.oem3 (.text:CryptoCC26XX_transactPolling)
                  00018d06    00000006     maclib_secure.a : fh_data.obj (.text:FHDATA_asyncMinTxOffTimerCb)
                  00018d0c    00000006                     : fh_data.obj (.text:FHDATA_procEDFEReq)
                  00018d12    00000006                     : fh_data.obj (.text:FHDATA_startEDFEReq)
                  00018d18    00000006                     : fh_mgr.obj (.text:FHMGR_BCTimerEventUpd)
                  00018d1e    00000006                     : fh_mgr.obj (.text:FHMGR_pendBcChUpdate)
                  00018d24    00000006                     : fh_mgr.obj (.text:FHMGR_pendUcChUpdate)
                  00018d2a    00000006     main.obj (.text:Main_excHandler)
                  00018d30    00000006     driverlib.lib : cpu.obj (.text:NOROM_CPUdelay)
                  00018d36    00000006     rf_multiMode_cc13x0.aem3 : RFCC26XX_multiMode.oem3 (.text:RF_clkReqAccess)
                  00018d3c    00000006                              : RFCC26XX_multiMode.oem3 (.text:RF_runDirectCmd)
                  00018d42    00000006                              : RFCC26XX_multiMode.oem3 (.text:RF_runImmediateCmd)
                  00018d48    00000006     drivers_cc13x0.aem3 : UARTCC26XX.oem3 (.text:UARTCC26XX_readPolling)
                  00018d4e    00000006                         : UARTCC26XX.oem3 (.text:UARTCC26XX_writePolling)
                  00018d54    00000006     util.obj (.text:Util_hiUint16)
                  00018d5a    00000006     main.obj (.text:halAssertHandler)
                  00018d60    00000006     maclib_secure.a : mac_mgmt.obj (.text:macApiBadState)
                  00018d66    00000006                     : mac_beacon_coord.obj (.text:macBeaconBattLifeCallback)
                  00018d6c    00000006                     : mac_beacon_device.obj (.text:macBroadcastPendCallback)
                  00018d72    00000006     main.obj (.text:macHalAssertHandler)
                  00018d78    00000006     maclib_secure.a : mac_mgmt.obj (.text:macSecCpy)
                  00018d7e    00000006     saddr.obj (.text:sAddrExtCpy)
                  00018d84    00000006     rom_sysbios.aem3 : rom_sysbios.obj (.text:ti_sysbios_family_arm_m3_Hwi_setFunc__E)
                  00018d8a    00000004     dpl_cc13x0.aem3 : PowerCC26XX_tirtos.oem3 (.text:CPUwfi)
                  00018d8e    00000004                     : ClockP_tirtos.oem3 (.text:ClockP_destruct)
                  00018d92    00000004                     : ClockP_tirtos.oem3 (.text:ClockP_getCpuFreq)
                  00018d96    00000004                     : ClockP_tirtos.oem3 (.text:ClockP_getTimeout)
                  00018d9a    00000004                     : ClockP_tirtos.oem3 (.text:ClockP_setTimeout)
                  00018d9e    00000004                     : ClockP_tirtos.oem3 (.text:ClockP_start)
                  00018da2    00000004                     : ClockP_tirtos.oem3 (.text:ClockP_stop)
                  00018da6    00000004     drivers_cc13x0.aem3 : CryptoCC26XX.oem3 (.text:CryptoCC26XX_Transac_init)
                  00018daa    00000004     maclib_secure.a : fh_util.obj (.text:FHUTIL_assert)
                  00018dae    00000004                     : fh_util.obj (.text:FHUTIL_elapsedTime)
                  00018db2    00000004     dpl_cc13x0.aem3 : HwiP_tirtos.oem3 (.text:HwiP_destruct)
                  00018db6    00000004                     : HwiP_tirtos.oem3 (.text:HwiP_disable)
                  00018dba    00000004                     : HwiP_tirtos.oem3 (.text:HwiP_enableInterrupt)
                  00018dbe    00000004                     : HwiP_tirtos.oem3 (.text:HwiP_post)
                  00018dc2    00000004                     : HwiP_tirtos.oem3 (.text:HwiP_setFunc)
                  00018dc6    00000004                     : HwiP_tirtos.oem3 (.text:HwiP_setPriority)
                  00018dca    00000004     drivers_cc13x0.aem3 : PowerCC26XX.oem3 (.text:PowerCC26XX_switchXOSC_HF)
                  00018dce    00000004     dpl_cc13x0.aem3 : SemaphoreP_tirtos.oem3 (.text:SemaphoreP_destruct)
                  00018dd2    00000004                     : SemaphoreP_tirtos.oem3 (.text:SemaphoreP_post)
                  00018dd6    00000004                     : SwiP_tirtos.oem3 (.text:SwiP_destruct)
                  00018dda    00000004                     : SwiP_tirtos.oem3 (.text:SwiP_disable)
                  00018dde    00000004                     : SwiP_tirtos.oem3 (.text:SwiP_getTrigger)
                  00018de2    00000004                     : SwiP_tirtos.oem3 (.text:SwiP_or)
                  00018de6    00000004                     : SwiP_tirtos.oem3 (.text:SwiP_setPriority)
                  00018dea    00000004     util_timer.obj (.text:Timer_start)
                  00018dee    00000004     util_timer.obj (.text:Timer_stop)
                  00018df2    00000004     util.obj (.text:Util_loUint16)
                  00018df6    00000004     maclib_secure.a : mac_radio.obj (.text:macRadioComputeLQI)
                  00018dfa    00000004                     : mac.obj (.text:macRxCb$76)
                  00018dfe    00000004     drivers_cc13x0.aem3 : PowerCC26XX.oem3 (.text:nopResourceHandler)
                  00018e02    00000004     osal.obj (.text:osal_memset)
                  00018e06    00000004     osal.obj (.text:osal_strlen)
                  00018e0a    00000004     mac_user_config.obj (.text:rf_patch_cpe_genfsk$37)
                  00018e0e    00000004     rom_sysbios.aem3 : rom_sysbios.obj (.text:ti_sysbios_family_arm_cc26xx_Timer_getCount64__E)
                  00018e12    00000004                      : rom_sysbios.obj (.text:ti_sysbios_knl_Clock_isActive__E)
                  00018e16    00000004                      : rom_sysbios.obj (.text:xdc_runtime_SysCallback_defaultReady)
                  00018e1a    00000004                      : rom_sysbios.obj (.text:xdc_runtime_System_printf_va__F)
                  00018e1e    00000002     --HOLE-- [fill = 0]
                  00018e20    00000008     (.tramp.ti_sysbios_knl_Swi_destruct.1)
                  00018e28    00000008     (.tramp.ti_sysbios_knl_Semaphore_destruct.1)
                  00018e30    00000008     (.tramp.ti_sysbios_family_arm_m3_Hwi_setPriority__E.1)
                  00018e38    00000008     (.tramp.ti_sysbios_family_arm_m3_Hwi_enableInterrupt__E.1)
                  00018e40    00000008     (.tramp.ti_sysbios_family_arm_m3_Hwi_destruct.1)
                  00018e48    00000008     (.tramp.ti_sysbios_BIOS_getCpuFreq__E.1)
                  00018e50    00000008     (.tramp.ti_sysbios_knl_Clock_destruct.1)
                  00018e58    00000008     (.tramp.xdc_runtime_Core_assignParams__I.1)
                  00018e60    00000008     (.tramp.ti_sysbios_family_arm_m3_Hwi_disableFxn__E.1)
                  00018e68    00000008     (.tramp.xdc_runtime_Startup_startMods__I.1)
                  00018e70    00000008     (.tramp.ti_sysbios_knl_Semaphore_pend__E.1)
                  00018e78    00000008     (.tramp.ti_sysbios_knl_Clock_logTick__E.1)
                  00018e80    00000008     (.tramp.ti_sysbios_knl_Swi_post__E.1)
                  00018e88    00000008     (.tramp.ti_sysbios_BIOS_RtsGateProxy_leave__E.1)
                  00018e90    00000008     (.tramp.ti_sysbios_knl_Swi_construct.1)
                  00018e98    00000008     (.tramp.ti_sysbios_knl_Semaphore_post__E.1)
                  00018ea0    00000008     (.tramp.ti_sysbios_BIOS_RtsGateProxy_enter__E.1)
                  00018ea8    00000008     (.tramp.ti_sysbios_knl_Task_restore__E.1)
                  00018eb0    00000008     (.tramp.ti_sysbios_knl_Clock_getTicks__E.1)
                  00018eb8    00000008     (.tramp.ti_sysbios_knl_Semaphore_construct.1)
                  00018ec0    00000008     (.tramp.ti_sysbios_knl_Semaphore_Params__init__S.1)
                  00018ec8    00000008     (.tramp.ti_sysbios_knl_Task_startup__E.1)
                  00018ed0    00000008     (.tramp.ti_sysbios_knl_Swi_startup__E.1)
                  00018ed8    00000008     (.tramp.ti_sysbios_hal_Hwi_startup__E.1)
                  00018ee0    00000008     (.tramp.ti_sysbios_family_arm_cc26xx_Timer_startup__E.1)
                  00018ee8    00000008     (.tramp.xdc_runtime_System_atexit__E.1)
                  00018ef0    00000008     (.tramp.ti_sysbios_BIOS_setThreadType__E.1)
                  00018ef8    00000008     (.tramp.ti_sysbios_knl_Task_disable__E.1)
                  00018f00    00000008     (.tramp.ti_sysbios_knl_Swi_disable__E.1)
                  00018f08    00000008     (.tramp.ti_sysbios_knl_Queue_Object__get__S.1)
                  00018f10    00000008     (.tramp.ti_sysbios_family_arm_m3_Hwi_construct.1)
                  00018f18    00000008     (.tramp.ti_sysbios_knl_Swi_Params__init__S.1)
                  00018f20    00000008     (.tramp.ti_sysbios_family_arm_m3_Hwi_Params__init__S.1)
                  00018f28    00000008     (.tramp.xdc_runtime_System_exit__E.1)
                  00018f30    00000008     (.tramp.ti_sysbios_knl_Clock_construct.1)
                  00018f38    00000008     (.tramp.ti_sysbios_knl_Clock_Params__init__S.1)
                  00018f40    00000008     (.tramp.ti_sysbios_BIOS_start__E.1)
                  00018f48    00000008     (.tramp.ti_sysbios_knl_Task_construct.1)
                  00018f50    00000008     (.tramp.ti_sysbios_knl_Task_Params__init__S.1)
                  00018f58    00000008     (.tramp.ti_sysbios_knl_Clock_scheduleNextTick__E.1)
                  00018f60    00000008     (.tramp.ti_sysbios_knl_Clock_walkQueueDynamic__E.1)
                  00018f68    00000008     (.tramp.ti_sysbios_knl_Clock_TimerProxy_getCurrentTick__E.1)
                  00018f70    00000008     (.tramp.ti_sysbios_knl_Clock_start__E.1)
                  00018f78    00000008     (.tramp.ti_sysbios_knl_Clock_setTimeout__E.1)
                  00018f80    00000008     (.tramp.ti_sysbios_knl_Swi_restore__E.1)
                  00018f88    00000008     (.tramp.ti_sysbios_family_arm_m3_Hwi_restoreFxn__E.1)

config_const 
*          0    00018f90    00000bd4     
                  00018f90    00000a8c     mac_user_config.obj (.const:$O28$$)
                  00019a1c    0000006c     mac_user_config.obj (.const:macRfDriverTable)
                  00019a88    00000055     mac_user_config.obj (.const:txPowerTable_subg_CC1310)
                  00019add    00000050     mac_user_config.obj (.const:txPowerTable_subg_CC1350)
                  00019b2d    00000001     mac_user_config.obj (.const)
                  00019b2e    00000002     --HOLE-- [fill = 0]
                  00019b30    00000028     mac_user_config.obj (.const:macCryptoDriverTable)
                  00019b58    0000000c     mac_user_config.obj (.const:macTxPwrTbl)

flash_last_text 
*          0    0001f000    00000adc     
                  0001f000    00000106     icall.obj (.text:ICall_primWaitMatch$0)
                  0001f106    00000002     --HOLE-- [fill = 0]
                  0001f108    00000008     (.tramp.ti_sysbios_knl_Task_self__E.1)
                  0001f110    00000008     (.tramp.ti_sysbios_knl_Clock_getTicks__E.2)
                  0001f118    00000008     (.tramp.ti_sysbios_knl_Semaphore_pend__E.2)
                  0001f120    00000008     (.tramp.ti_sysbios_knl_Semaphore_post__E.2)
                  0001f128    00000098     icall.obj (.text:ICall_primSetTimer$0)
                  0001f1c0    00000008     (.tramp.ti_sysbios_knl_Clock_Params__init__S.2)
                  0001f1c8    00000008     (.tramp.ti_sysbios_knl_Clock_create.1)
                  0001f1d0    00000008     (.tramp.ti_sysbios_knl_Clock_setTimeout__E.2)
                  0001f1d8    00000008     (.tramp.ti_sysbios_knl_Clock_start__E.2)
                  0001f1e0    00000094     icall.obj (.text:icall_directAPI)
                  0001f274    0000007c     icall.obj (.text:ICall_heapMalloc)
                  0001f2f0    00000074     icall.obj (.text:ICall_primSend$0)
                  0001f364    0000006c     icall.obj (.text:ICall_createRemoteTasks)
                  0001f3d0    00000008     (.tramp.ti_sysbios_knl_Task_disable__E.2)
                  0001f3d8    00000008     (.tramp.ti_sysbios_knl_Task_Params__init__S.2)
                  0001f3e0    00000008     (.tramp.ti_sysbios_knl_Task_create.1)
                  0001f3e8    00000008     (.tramp.ti_sysbios_knl_Task_restore__E.2)
                  0001f3f0    00000060     icall.obj (.text:ICall_primEnroll$0)
                  0001f450    0000005c     icall.obj (.text:ICall_primRegisterApp$0)
                  0001f4ac    0000005c     icall.obj (.text:ICall_primThreadServes$0)
                  0001f508    00000054     icall.obj (.text:ICall_primFetchMsg$0)
                  0001f55c    00000052     icall.obj (.text:ICall_primWait$0)
                  0001f5ae    00000002     --HOLE-- [fill = 0]
                  0001f5b0    0000004c     icall.obj (.text:ICall_primGetEntityId$0)
                  0001f5fc    00000048     icall.obj (.text:ICall_newTask$0)
                  0001f644    00000008     (.tramp.ti_sysbios_knl_Semaphore_create.1)
                  0001f64c    00000042     icall.obj (.text:ICall_primCreateTask$0)
                  0001f68e    00000002     --HOLE-- [fill = 0]
                  0001f690    00000038     icall.obj (.text:ICall_primGetMaxMSecs$0)
                  0001f6c8    00000038     icall.obj (.text:ICall_primRegisterISR$0)
                  0001f700    00000008     (.tramp.ti_sysbios_hal_Hwi_create.1)
                  0001f708    00000038     icall.obj (.text:ICall_primRegisterISR_Ext$0)
                  0001f740    00000038     icall.obj (.text:ICall_waitMatch$0)
                  0001f778    00000034     icall.obj (.text:ICall_primEntityId2ServiceId$0)
                  0001f7ac    00000034     icall.obj (.text:ICall_searchServiceEntity)
                  0001f7e0    00000030     icall.obj (.text:ICall_dispatch$0)
                  0001f810    00000030     icall.obj (.text:ICall_msecs2Ticks$0)
                  0001f840    00000030     icall.obj (.text:ICall_searchTask$0)
                  0001f870    0000002c     icall.obj (.text:ICall_heapFree)
                  0001f89c    0000002c     icall.obj (.text:ICall_msgEnqueue$0)
                  0001f8c8    0000002c     icall.obj (.text:ICall_primAllocMsg$0)
                  0001f8f4    0000002c     icall.obj (.text:ICall_primFetchServiceMsg$0)
                  0001f920    00000020     icall.obj (.text:ICall_freeMsg$0)
                  0001f940    00000020     icall.obj (.text:ICall_primService$0)
                  0001f960    0000001e     icall.obj (.text:ICall_primSendServiceMsg$0)
                  0001f97e    0000001a     icall.obj (.text:ICall_enterCSImpl)
                  0001f998    00000008     (.tramp.ti_sysbios_family_arm_m3_Hwi_disableFxn__E.2)
                  0001f9a0    0000001a     icall.obj (.text:ICall_primSetTimerMSecs$0)
                  0001f9ba    00000018     icall.obj (.text:ICall_primMalloc$0)
                  0001f9d2    00000016     icall.obj (.text:ICall_leaveCSImpl)
                  0001f9e8    00000008     (.tramp.ti_sysbios_family_arm_m3_Hwi_restoreFxn__E.2)
                  0001f9f0    00000016     icall.obj (.text:ICall_primStopTimer$0)
                  0001fa06    00000002     --HOLE-- [fill = 0]
                  0001fa08    00000010     icall.obj (.text:ICall_primGetTickPeriod$0)
                  0001fa18    00000010     icall.obj (.text:ICall_taskEntry$0)
                  0001fa28    0000000e     icall.obj (.text:ICall_primDisableMInt$0)
                  0001fa36    0000000e     icall.obj (.text:ICall_primEnableMInt$0)
                  0001fa44    00000008     (.tramp.ti_sysbios_family_arm_m3_Hwi_enableFxn__E.1)
                  0001fa4c    00000008     (.tramp.ti_sysbios_knl_Task_enable__E.1)
                  0001fa54    0000000e     icall.obj (.text:ICall_primFreeMsg$0)
                  0001fa62    0000000e     icall.obj (.text:ICall_primGetTicks$0)
                  0001fa70    0000000c     icall.obj (.text:ICall_clockFunc$0)
                  0001fa7c    0000000c     icall.obj (.text:ICall_primDisableInt$0)
                  0001fa88    00000008     (.tramp.ti_sysbios_hal_Hwi_disableInterrupt__E.1)
                  0001fa90    0000000c     icall.obj (.text:ICall_primEnableInt$0)
                  0001fa9c    00000008     (.tramp.ti_sysbios_hal_Hwi_enableInterrupt__E.1)
                  0001faa4    0000000c     icall.obj (.text:ICall_primFree$0)
                  0001fab0    0000000c     icall.obj (.text:ICall_primSignal$0)
                  0001fabc    0000000c     icall.obj (.text:matchLiteCS$0)
                  0001fac8    0000000a     icall.obj (.text:ICall_primAbort$0)
                  0001fad2    0000000a     icall.obj (.text:ICall_primE2S$0)

.cinit     0    00019b68    000004d0     
                  00019b68    00000395     (.cinit..data.load) [load image, compression = lzss]
                  00019efd    00000028     (.cinit..data:ti_sysbios_family_arm_m3_Hwi_Module__state__V.load) [load image, compression = lzss]
                  00019f25    00000021     (.cinit..data:ti_sysbios_knl_Task_Module__state__V.load) [load image, compression = lzss]
                  00019f46    0000001f     (.cinit..data:ti_sysbios_BIOS_Module__state__V.load) [load image, compression = lzss]
                  00019f65    0000001e     (.cinit..data:ti_sysbios_knl_Clock_Module__state__V.load) [load image, compression = lzss]
                  00019f83    00000010     (.cinit..data:ti_sysbios_knl_Swi_Module__state__V.load) [load image, compression = lzss]
                  00019f93    00000001     --HOLE-- [fill = 0]
                  00019f94    0000000c     (__TI_handler_table)
                  00019fa0    0000000b     (.cinit..data:ti_sysbios_family_arm_cc26xx_Timer_Module__state__V.load) [load image, compression = lzss]
                  00019fab    00000005     --HOLE-- [fill = 0]
                  00019fb0    00000008     (.cinit..bss.load) [load image, compression = zero_init]
                  00019fb8    00000008     (.cinit..data:xdc_runtime_Memory_Module__state__V.load) [load image, compression = lzss]
                  00019fc0    00000007     (.cinit..data:ti_sysbios_family_arm_cc26xx_TimestampProvider_Module__state__V.load) [load image, compression = lzss]
                  00019fc7    00000007     (.cinit..data:xdc_runtime_Startup_Module__state__V.load) [load image, compression = lzss]
                  00019fce    00000007     (.cinit..data:xdc_runtime_System_Module__state__V.load) [load image, compression = lzss]
                  00019fd5    00000003     --HOLE-- [fill = 0]
                  00019fd8    00000060     (__TI_cinit_table)

.init_array 
*          0    00000000    00000000     UNINITIALIZED

.const:ti_sysbios_knl_Task_Object__PARAMS__C 
*          0    00001000    0000003c     
                  00001000    0000003c     app_pem3.oem3 (.const:ti_sysbios_knl_Task_Object__PARAMS__C)

.const:ti_sysbios_knl_Mailbox_Object__PARAMS__C 
*          0    0000103c    00000034     
                  0000103c    00000034     app_pem3.oem3 (.const:ti_sysbios_knl_Mailbox_Object__PARAMS__C)

.const:ti_sysbios_family_arm_m3_Hwi_Object__PARAMS__C 
*          0    00001070    00000030     
                  00001070    00000030     app_pem3.oem3 (.const:ti_sysbios_family_arm_m3_Hwi_Object__PARAMS__C)

.const:ti_sysbios_hal_Hwi_Object__PARAMS__C 
*          0    000010a0    0000002c     
                  000010a0    0000002c     app_pem3.oem3 (.const:ti_sysbios_hal_Hwi_Object__PARAMS__C)

.const:ti_sysbios_heaps_HeapMem_Module__FXNS__C 
*          0    000010cc    00000028     
                  000010cc    00000028     app_pem3.oem3 (.const:ti_sysbios_heaps_HeapMem_Module__FXNS__C)

.const:ti_sysbios_knl_Swi_Object__PARAMS__C 
*          0    000010f4    00000028     
                  000010f4    00000028     app_pem3.oem3 (.const:ti_sysbios_knl_Swi_Object__PARAMS__C)

.const:ti_sysbios_gates_GateHwi_Module__FXNS__C 
*          0    0000111c    00000024     
                  0000111c    00000024     app_pem3.oem3 (.const:ti_sysbios_gates_GateHwi_Module__FXNS__C)

.const:ti_sysbios_gates_GateMutex_Module__FXNS__C 
*          0    00001140    00000024     
                  00001140    00000024     app_pem3.oem3 (.const:ti_sysbios_gates_GateMutex_Module__FXNS__C)

.const:ti_sysbios_heaps_HeapMem_Object__PARAMS__C 
*          0    00001164    00000024     
                  00001164    00000024     app_pem3.oem3 (.const:ti_sysbios_heaps_HeapMem_Object__PARAMS__C)

.const:ti_sysbios_knl_Clock_Object__PARAMS__C 
*          0    00001188    00000024     
                  00001188    00000024     app_pem3.oem3 (.const:ti_sysbios_knl_Clock_Object__PARAMS__C)

.const:ti_sysbios_knl_Semaphore_Object__PARAMS__C 
*          0    000011ac    00000024     
                  000011ac    00000024     app_pem3.oem3 (.const:ti_sysbios_knl_Semaphore_Object__PARAMS__C)

.const:ti_sysbios_family_arm_m3_Hwi_Object__DESC__C 
*          0    000011d0    00000020     
                  000011d0    00000020     app_pem3.oem3 (.const:ti_sysbios_family_arm_m3_Hwi_Object__DESC__C)

.const:ti_sysbios_gates_GateHwi_Object__DESC__C 
*          0    000011f0    00000020     
                  000011f0    00000020     app_pem3.oem3 (.const:ti_sysbios_gates_GateHwi_Object__DESC__C)

.const:ti_sysbios_gates_GateMutex_Object__DESC__C 
*          0    00001210    00000020     
                  00001210    00000020     app_pem3.oem3 (.const:ti_sysbios_gates_GateMutex_Object__DESC__C)

.const:ti_sysbios_hal_Hwi_Object__DESC__C 
*          0    00001230    00000020     
                  00001230    00000020     app_pem3.oem3 (.const:ti_sysbios_hal_Hwi_Object__DESC__C)

.const:ti_sysbios_heaps_HeapMem_Object__DESC__C 
*          0    00001250    00000020     
                  00001250    00000020     app_pem3.oem3 (.const:ti_sysbios_heaps_HeapMem_Object__DESC__C)

.const:ti_sysbios_knl_Clock_Object__DESC__C 
*          0    00001270    00000020     
                  00001270    00000020     app_pem3.oem3 (.const:ti_sysbios_knl_Clock_Object__DESC__C)

.const:ti_sysbios_knl_Mailbox_Object__DESC__C 
*          0    00001290    00000020     
                  00001290    00000020     app_pem3.oem3 (.const:ti_sysbios_knl_Mailbox_Object__DESC__C)

.const:ti_sysbios_knl_Queue_Object__DESC__C 
*          0    000012b0    00000020     
                  000012b0    00000020     app_pem3.oem3 (.const:ti_sysbios_knl_Queue_Object__DESC__C)

.const:ti_sysbios_knl_Semaphore_Object__DESC__C 
*          0    000012d0    00000020     
                  000012d0    00000020     app_pem3.oem3 (.const:ti_sysbios_knl_Semaphore_Object__DESC__C)

.const:ti_sysbios_knl_Swi_Object__DESC__C 
*          0    000012f0    00000020     
                  000012f0    00000020     app_pem3.oem3 (.const:ti_sysbios_knl_Swi_Object__DESC__C)

.const:ti_sysbios_knl_Task_Object__DESC__C 
*          0    00001310    00000020     
                  00001310    00000020     app_pem3.oem3 (.const:ti_sysbios_knl_Task_Object__DESC__C)

.const:ti_sysbios_gates_GateHwi_Object__PARAMS__C 
*          0    00001330    00000018     
                  00001330    00000018     app_pem3.oem3 (.const:ti_sysbios_gates_GateHwi_Object__PARAMS__C)

.const:ti_sysbios_gates_GateMutex_Object__PARAMS__C 
*          0    00001348    00000018     
                  00001348    00000018     app_pem3.oem3 (.const:ti_sysbios_gates_GateMutex_Object__PARAMS__C)

.const:ti_sysbios_knl_Queue_Object__PARAMS__C 
*          0    00001360    00000018     
                  00001360    00000018     app_pem3.oem3 (.const:ti_sysbios_knl_Queue_Object__PARAMS__C)

.const:ti_sysbios_knl_Idle_funcList__C 
*          0    00001378    00000008     
                  00001378    00000008     app_pem3.oem3 (.const:ti_sysbios_knl_Idle_funcList__C)

.const:ti_sysbios_family_arm_cc26xx_Timer_startupNeeded__C 
*          0    00001384    00000004     
                  00001384    00000004     app_pem3.oem3 (.const:ti_sysbios_family_arm_cc26xx_Timer_startupNeeded__C)

.const:ti_sysbios_family_arm_m3_Hwi_E_alreadyDefined__C 
*          0    00001388    00000004     
                  00001388    00000004     app_pem3.oem3 (.const:ti_sysbios_family_arm_m3_Hwi_E_alreadyDefined__C)

.const:ti_sysbios_family_arm_m3_Hwi_E_hwiLimitExceeded__C 
*          0    0000138c    00000004     
                  0000138c    00000004     app_pem3.oem3 (.const:ti_sysbios_family_arm_m3_Hwi_E_hwiLimitExceeded__C)

.const:ti_sysbios_family_arm_m3_Hwi_NUM_INTERRUPTS__C 
*          0    00001390    00000004     
                  00001390    00000004     app_pem3.oem3 (.const:ti_sysbios_family_arm_m3_Hwi_NUM_INTERRUPTS__C)

.const:ti_sysbios_family_arm_m3_Hwi_Object__count__C 
*          0    00001394    00000004     
                  00001394    00000004     app_pem3.oem3 (.const:ti_sysbios_family_arm_m3_Hwi_Object__count__C)

.const:ti_sysbios_family_arm_m3_Hwi_Object__table__C 
*          0    00001398    00000004     
                  00001398    00000004     app_pem3.oem3 (.const:ti_sysbios_family_arm_m3_Hwi_Object__table__C)

.const:ti_sysbios_family_arm_m3_Hwi_ccr__C 
*          0    0000139c    00000004     
                  0000139c    00000004     app_pem3.oem3 (.const:ti_sysbios_family_arm_m3_Hwi_ccr__C)

.const:ti_sysbios_family_arm_m3_Hwi_excHandlerFunc__C 
*          0    000013a0    00000004     
                  000013a0    00000004     app_pem3.oem3 (.const:ti_sysbios_family_arm_m3_Hwi_excHandlerFunc__C)

.const:ti_sysbios_family_arm_m3_Hwi_nullIsrFunc__C 
*          0    000013a4    00000004     
                  000013a4    00000004     app_pem3.oem3 (.const:ti_sysbios_family_arm_m3_Hwi_nullIsrFunc__C)

.const:ti_sysbios_family_arm_m3_Hwi_numSparseInterrupts__C 
*          0    000013a8    00000004     
                  000013a8    00000004     app_pem3.oem3 (.const:ti_sysbios_family_arm_m3_Hwi_numSparseInterrupts__C)

.const:ti_sysbios_family_arm_m3_Hwi_priGroup__C 
*          0    000013ac    00000004     
                  000013ac    00000004     app_pem3.oem3 (.const:ti_sysbios_family_arm_m3_Hwi_priGroup__C)

.const:ti_sysbios_family_arm_m3_TaskSupport_stackAlignment__C 
*          0    000013b0    00000004     
                  000013b0    00000004     app_pem3.oem3 (.const:ti_sysbios_family_arm_m3_TaskSupport_stackAlignment__C)

.const:ti_sysbios_heaps_HeapMem_E_memory__C 
*          0    000013b4    00000004     
                  000013b4    00000004     app_pem3.oem3 (.const:ti_sysbios_heaps_HeapMem_E_memory__C)

.const:ti_sysbios_heaps_HeapMem_Module__gateObj__C 
*          0    000013b8    00000004     
                  000013b8    00000004     app_pem3.oem3 (.const:ti_sysbios_heaps_HeapMem_Module__gateObj__C)

.const:ti_sysbios_heaps_HeapMem_Object__count__C 
*          0    000013bc    00000004     
                  000013bc    00000004     app_pem3.oem3 (.const:ti_sysbios_heaps_HeapMem_Object__count__C)

.const:ti_sysbios_heaps_HeapMem_Object__table__C 
*          0    000013c0    00000004     
                  000013c0    00000004     app_pem3.oem3 (.const:ti_sysbios_heaps_HeapMem_Object__table__C)

.const:ti_sysbios_heaps_HeapMem_reqAlign__C 
*          0    000013c4    00000004     
                  000013c4    00000004     app_pem3.oem3 (.const:ti_sysbios_heaps_HeapMem_reqAlign__C)

.const:ti_sysbios_knl_Clock_serviceMargin__C 
*          0    000013c8    00000004     
                  000013c8    00000004     app_pem3.oem3 (.const:ti_sysbios_knl_Clock_serviceMargin__C)

.const:ti_sysbios_knl_Mailbox_Object__count__C 
*          0    000013cc    00000004     
                  000013cc    00000004     app_pem3.oem3 (.const:ti_sysbios_knl_Mailbox_Object__count__C)

.const:ti_sysbios_knl_Mailbox_Object__table__C 
*          0    000013d0    00000004     
                  000013d0    00000004     app_pem3.oem3 (.const:ti_sysbios_knl_Mailbox_Object__table__C)

.const:ti_sysbios_knl_Mailbox_maxTypeAlign__C 
*          0    000013d4    00000004     
                  000013d4    00000004     app_pem3.oem3 (.const:ti_sysbios_knl_Mailbox_maxTypeAlign__C)

.const:ti_sysbios_knl_Queue_Object__count__C 
*          0    000013d8    00000004     
                  000013d8    00000004     app_pem3.oem3 (.const:ti_sysbios_knl_Queue_Object__count__C)

.const:ti_sysbios_knl_Queue_Object__table__C 
*          0    000013dc    00000004     
                  000013dc    00000004     app_pem3.oem3 (.const:ti_sysbios_knl_Queue_Object__table__C)

.const:ti_sysbios_knl_Swi_Object__count__C 
*          0    000013e0    00000004     
                  000013e0    00000004     app_pem3.oem3 (.const:ti_sysbios_knl_Swi_Object__count__C)

.const:ti_sysbios_knl_Swi_Object__table__C 
*          0    000013e4    00000004     
                  000013e4    00000004     app_pem3.oem3 (.const:ti_sysbios_knl_Swi_Object__table__C)

.const:ti_sysbios_knl_Swi_numPriorities__C 
*          0    000013e8    00000004     
                  000013e8    00000004     app_pem3.oem3 (.const:ti_sysbios_knl_Swi_numPriorities__C)

.const:ti_sysbios_knl_Task_Object__count__C 
*          0    000013ec    00000004     
                  000013ec    00000004     app_pem3.oem3 (.const:ti_sysbios_knl_Task_Object__count__C)

.const:ti_sysbios_knl_Task_Object__table__C 
*          0    000013f0    00000004     
                  000013f0    00000004     app_pem3.oem3 (.const:ti_sysbios_knl_Task_Object__table__C)

.const:ti_sysbios_knl_Task_allBlockedFunc__C 
*          0    000013f4    00000004     
                  000013f4    00000004     app_pem3.oem3 (.const:ti_sysbios_knl_Task_allBlockedFunc__C)

.const:ti_sysbios_knl_Task_defaultStackHeap__C 
*          0    000013f8    00000004     
                  000013f8    00000004     app_pem3.oem3 (.const:ti_sysbios_knl_Task_defaultStackHeap__C)

.const:ti_sysbios_knl_Task_defaultStackSize__C 
*          0    000013fc    00000004     
                  000013fc    00000004     app_pem3.oem3 (.const:ti_sysbios_knl_Task_defaultStackSize__C)

.const:ti_sysbios_knl_Task_numConstructedTasks__C 
*          0    00001400    00000004     
                  00001400    00000004     app_pem3.oem3 (.const:ti_sysbios_knl_Task_numConstructedTasks__C)

.const:ti_sysbios_family_arm_cc26xx_Timer_Module__id__C 
*          0    00001406    00000002     
                  00001406    00000002     app_pem3.oem3 (.const:ti_sysbios_family_arm_cc26xx_Timer_Module__id__C)

.const:ti_sysbios_family_arm_cc26xx_TimestampProvider_useClockTimer__C 
*          0    00001408    00000002     
                  00001408    00000002     app_pem3.oem3 (.const:ti_sysbios_family_arm_cc26xx_TimestampProvider_useClockTimer__C)

.const:ti_sysbios_family_arm_m3_Hwi_Module__id__C 
*          0    0000140a    00000002     
                  0000140a    00000002     app_pem3.oem3 (.const:ti_sysbios_family_arm_m3_Hwi_Module__id__C)

.const:ti_sysbios_gates_GateHwi_Module__id__C 
*          0    0000140c    00000002     
                  0000140c    00000002     app_pem3.oem3 (.const:ti_sysbios_gates_GateHwi_Module__id__C)

.const:ti_sysbios_gates_GateMutex_Module__id__C 
*          0    0000140e    00000002     
                  0000140e    00000002     app_pem3.oem3 (.const:ti_sysbios_gates_GateMutex_Module__id__C)

.const:ti_sysbios_heaps_HeapMem_Module__id__C 
*          0    00001410    00000002     
                  00001410    00000002     app_pem3.oem3 (.const:ti_sysbios_heaps_HeapMem_Module__id__C)

.const:ti_sysbios_knl_Task_initStackFlag__C 
*          0    00001412    00000002     
                  00001412    00000002     app_pem3.oem3 (.const:ti_sysbios_knl_Task_initStackFlag__C)

.const:ti_sysbios_knl_Clock_tickMode__C 
*          0    00001414    00000001     
                  00001414    00000001     app_pem3.oem3 (.const:ti_sysbios_knl_Clock_tickMode__C)

.const:xdc_runtime_Startup_firstFxns__C 
*          0    00001418    00000008     
                  00001418    00000008     app_pem3.oem3 (.const:xdc_runtime_Startup_firstFxns__C)

.const:xdc_runtime_Startup_lastFxns__C 
*          0    00001420    00000008     
                  00001420    00000008     app_pem3.oem3 (.const:xdc_runtime_Startup_lastFxns__C)

.const:xdc_runtime_Assert_E_assertFailed__C 
*          0    00001428    00000004     
                  00001428    00000004     app_pem3.oem3 (.const:xdc_runtime_Assert_E_assertFailed__C)

.const:xdc_runtime_Error_E_memory__C 
*          0    0000142c    00000004     
                  0000142c    00000004     app_pem3.oem3 (.const:xdc_runtime_Error_E_memory__C)

.const:xdc_runtime_Error_policyFxn__C 
*          0    00001430    00000004     
                  00001430    00000004     app_pem3.oem3 (.const:xdc_runtime_Error_policyFxn__C)

.const:xdc_runtime_IGateProvider_Interface__BASE__C 
*          0    00001434    00000004     
                  00001434    00000004     app_pem3.oem3 (.const:xdc_runtime_IGateProvider_Interface__BASE__C)

.const:xdc_runtime_IHeap_Interface__BASE__C 
*          0    00001438    00000004     
                  00001438    00000004     app_pem3.oem3 (.const:xdc_runtime_IHeap_Interface__BASE__C)

.const:xdc_runtime_IModule_Interface__BASE__C 
*          0    0000143c    00000004     
                  0000143c    00000004     app_pem3.oem3 (.const:xdc_runtime_IModule_Interface__BASE__C)

.const:xdc_runtime_Main_Module__diagsEnabled__C 
*          0    00001440    00000004     
                  00001440    00000004     app_pem3.oem3 (.const:xdc_runtime_Main_Module__diagsEnabled__C)

.const:xdc_runtime_Main_Module__diagsIncluded__C 
*          0    00001444    00000004     
                  00001444    00000004     app_pem3.oem3 (.const:xdc_runtime_Main_Module__diagsIncluded__C)

.const:xdc_runtime_Main_Module__diagsMask__C 
*          0    00001448    00000004     
                  00001448    00000004     app_pem3.oem3 (.const:xdc_runtime_Main_Module__diagsMask__C)

.const:xdc_runtime_Memory_defaultHeapInstance__C 
*          0    0000144c    00000004     
                  0000144c    00000004     app_pem3.oem3 (.const:xdc_runtime_Memory_defaultHeapInstance__C)

.const:xdc_runtime_Startup_execImpl__C 
*          0    00001450    00000004     
                  00001450    00000004     app_pem3.oem3 (.const:xdc_runtime_Startup_execImpl__C)

.const:xdc_runtime_Startup_maxPasses__C 
*          0    00001454    00000004     
                  00001454    00000004     app_pem3.oem3 (.const:xdc_runtime_Startup_maxPasses__C)

.const:xdc_runtime_Startup_sfxnRts__C 
*          0    00001458    00000004     
                  00001458    00000004     app_pem3.oem3 (.const:xdc_runtime_Startup_sfxnRts__C)

.const:xdc_runtime_Startup_sfxnTab__C 
*          0    0000145c    00000004     
                  0000145c    00000004     app_pem3.oem3 (.const:xdc_runtime_Startup_sfxnTab__C)

.const:xdc_runtime_Startup_startModsFxn__C 
*          0    00001460    00000004     
                  00001460    00000004     app_pem3.oem3 (.const:xdc_runtime_Startup_startModsFxn__C)

.const:xdc_runtime_SysCallback_abortFxn__C 
*          0    00001464    00000004     
                  00001464    00000004     app_pem3.oem3 (.const:xdc_runtime_SysCallback_abortFxn__C)

.const:xdc_runtime_SysCallback_exitFxn__C 
*          0    00001468    00000004     
                  00001468    00000004     app_pem3.oem3 (.const:xdc_runtime_SysCallback_exitFxn__C)

.const:xdc_runtime_System_abortFxn__C 
*          0    0000146c    00000004     
                  0000146c    00000004     app_pem3.oem3 (.const:xdc_runtime_System_abortFxn__C)

.const:xdc_runtime_System_exitFxn__C 
*          0    00001470    00000004     
                  00001470    00000004     app_pem3.oem3 (.const:xdc_runtime_System_exitFxn__C)

.const:xdc_runtime_System_maxAtexitHandlers__C 
*          0    00001474    00000004     
                  00001474    00000004     app_pem3.oem3 (.const:xdc_runtime_System_maxAtexitHandlers__C)

.const:xdc_runtime_Text_charTab__C 
*          0    00001478    00000004     
                  00001478    00000004     app_pem3.oem3 (.const:xdc_runtime_Text_charTab__C)

.const:xdc_runtime_Text_nameEmpty__C 
*          0    0000147c    00000004     
                  0000147c    00000004     app_pem3.oem3 (.const:xdc_runtime_Text_nameEmpty__C)

.const:xdc_runtime_Text_nameStatic__C 
*          0    00001480    00000004     
                  00001480    00000004     app_pem3.oem3 (.const:xdc_runtime_Text_nameStatic__C)

.const:xdc_runtime_Text_nameUnknown__C 
*          0    00001484    00000004     
                  00001484    00000004     app_pem3.oem3 (.const:xdc_runtime_Text_nameUnknown__C)

.const:xdc_runtime_Main_Module__id__C 
*          0    00001488    00000002     
                  00001488    00000002     app_pem3.oem3 (.const:xdc_runtime_Main_Module__id__C)

.const:xdc_runtime_Memory_Module__id__C 
*          0    0000148a    00000002     
                  0000148a    00000002     app_pem3.oem3 (.const:xdc_runtime_Memory_Module__id__C)

.const:xdc_runtime_Text_charCnt__C 
*          0    0000148c    00000002     
                  0000148c    00000002     app_pem3.oem3 (.const:xdc_runtime_Text_charCnt__C)

.const:xdc_runtime_Text_isLoaded__C 
*          0    0000148e    00000002     
                  0000148e    00000002     app_pem3.oem3 (.const:xdc_runtime_Text_isLoaded__C)

.const:xdc_runtime_Error_policy__C 
*          0    00001490    00000001     
                  00001490    00000001     app_pem3.oem3 (.const:xdc_runtime_Error_policy__C)

.const:ti_sysbios_rom_ROM_AONRTCChannelEnable 
*          0    00001494    00000004     
                  00001494    00000004     app_pem3.oem3 (.const:ti_sysbios_rom_ROM_AONRTCChannelEnable)

.const:ti_sysbios_rom_ROM_AONRTCCompareValueSet 
*          0    00001498    00000004     
                  00001498    00000004     app_pem3.oem3 (.const:ti_sysbios_rom_ROM_AONRTCCompareValueSet)

.const:ti_sysbios_rom_ROM_AONRTCCurrentCompareValueGet 
*          0    0000149c    00000004     
                  0000149c    00000004     app_pem3.oem3 (.const:ti_sysbios_rom_ROM_AONRTCCurrentCompareValueGet)

.const:ti_sysbios_rom_ROM_AONRTCEventClear 
*          0    000014a0    00000004     
                  000014a0    00000004     app_pem3.oem3 (.const:ti_sysbios_rom_ROM_AONRTCEventClear)

.const:ti_sysbios_rom_ROM_ti_sysbios_family_arm_cc26xx_Timer_getCount64__E 
*          0    000014a4    00000004     
                  000014a4    00000004     app_pem3.oem3 (.const:ti_sysbios_rom_ROM_ti_sysbios_family_arm_cc26xx_Timer_getCount64__E)

.const:ti_sysbios_rom_ROM_ti_sysbios_family_arm_cc26xx_Timer_getCurrentTick__E 
*          0    000014a8    00000004     
                  000014a8    00000004     app_pem3.oem3 (.const:ti_sysbios_rom_ROM_ti_sysbios_family_arm_cc26xx_Timer_getCurrentTick__E)

.const:ti_sysbios_rom_ROM_ti_sysbios_family_arm_cc26xx_Timer_getMaxTicks__E 
*          0    000014ac    00000004     
                  000014ac    00000004     app_pem3.oem3 (.const:ti_sysbios_rom_ROM_ti_sysbios_family_arm_cc26xx_Timer_getMaxTicks__E)

.const:ti_sysbios_rom_ROM_ti_sysbios_family_arm_cc26xx_Timer_initDevice__I 
*          0    000014b0    00000004     
                  000014b0    00000004     app_pem3.oem3 (.const:ti_sysbios_rom_ROM_ti_sysbios_family_arm_cc26xx_Timer_initDevice__I)

.const:ti_sysbios_rom_ROM_ti_sysbios_family_arm_cc26xx_Timer_setNextTick__E 
*          0    000014b4    00000004     
                  000014b4    00000004     app_pem3.oem3 (.const:ti_sysbios_rom_ROM_ti_sysbios_family_arm_cc26xx_Timer_setNextTick__E)

.const:ti_sysbios_rom_ROM_ti_sysbios_family_arm_cc26xx_Timer_setThreshold__I 
*          0    000014b8    00000004     
                  000014b8    00000004     app_pem3.oem3 (.const:ti_sysbios_rom_ROM_ti_sysbios_family_arm_cc26xx_Timer_setThreshold__I)

.const:ti_sysbios_rom_ROM_ti_sysbios_family_arm_cc26xx_Timer_start__E 
*          0    000014bc    00000004     
                  000014bc    00000004     app_pem3.oem3 (.const:ti_sysbios_rom_ROM_ti_sysbios_family_arm_cc26xx_Timer_start__E)

.const:ti_sysbios_rom_ROM_ti_sysbios_family_arm_cc26xx_TimestampProvider_get32__E 
*          0    000014c0    00000004     
                  000014c0    00000004     app_pem3.oem3 (.const:ti_sysbios_rom_ROM_ti_sysbios_family_arm_cc26xx_TimestampProvider_get32__E)

.const:ti_sysbios_rom_ROM_xdc_runtime_Startup_getState__I 
*          0    000014c4    00000004     
                  000014c4    00000004     app_pem3.oem3 (.const:ti_sysbios_rom_ROM_xdc_runtime_Startup_getState__I)

.const:ti_sysbios_rom_ROM_xdc_runtime_System_SupportProxy_abort__E 
*          0    000014c8    00000004     
                  000014c8    00000004     app_pem3.oem3 (.const:ti_sysbios_rom_ROM_xdc_runtime_System_SupportProxy_abort__E)

.const:ti_sysbios_rom_ROM_xdc_runtime_System_SupportProxy_exit__E 
*          0    000014cc    00000004     
                  000014cc    00000004     app_pem3.oem3 (.const:ti_sysbios_rom_ROM_xdc_runtime_System_SupportProxy_exit__E)

.const:ti_sysbios_gates_GateMutex_Instance_State_sem__O 
*          0    000014d0    00000004     
                  000014d0    00000004     app_pem3.oem3 (.const:ti_sysbios_gates_GateMutex_Instance_State_sem__O)

.const:ti_sysbios_knl_Clock_Module_State_clockQ__O 
*          0    000014d4    00000004     
                  000014d4    00000004     app_pem3.oem3 (.const:ti_sysbios_knl_Clock_Module_State_clockQ__O)

.const:ti_sysbios_knl_Mailbox_Instance_State_dataQue__O 
*          0    000014d8    00000004     
                  000014d8    00000004     app_pem3.oem3 (.const:ti_sysbios_knl_Mailbox_Instance_State_dataQue__O)

.const:ti_sysbios_knl_Mailbox_Instance_State_dataSem__O 
*          0    000014dc    00000004     
                  000014dc    00000004     app_pem3.oem3 (.const:ti_sysbios_knl_Mailbox_Instance_State_dataSem__O)

.const:ti_sysbios_knl_Mailbox_Instance_State_freeQue__O 
*          0    000014e0    00000004     
                  000014e0    00000004     app_pem3.oem3 (.const:ti_sysbios_knl_Mailbox_Instance_State_freeQue__O)

.const:ti_sysbios_knl_Mailbox_Instance_State_freeSem__O 
*          0    000014e4    00000004     
                  000014e4    00000004     app_pem3.oem3 (.const:ti_sysbios_knl_Mailbox_Instance_State_freeSem__O)

.const:ti_sysbios_knl_Semaphore_Instance_State_pendQ__O 
*          0    000014e8    00000004     
                  000014e8    00000004     app_pem3.oem3 (.const:ti_sysbios_knl_Semaphore_Instance_State_pendQ__O)

.const:ti_sysbios_knl_Task_Module_State_inactiveQ__O 
*          0    000014ec    00000004     
                  000014ec    00000004     app_pem3.oem3 (.const:ti_sysbios_knl_Task_Module_State_inactiveQ__O)

.ccfg      0    0001ffa8    00000058     
                  0001ffa8    00000058     ccfg.obj (.ccfg:retain)

.data:ti_sysbios_knl_Task_Module__state__V 
*          0    20000100    00000044     UNINITIALIZED
                  20000100    00000044     app_pem3.oem3 (.data:ti_sysbios_knl_Task_Module__state__V)

.data:ti_sysbios_family_arm_m3_Hwi_Module__state__V 
*          0    20000144    00000034     UNINITIALIZED
                  20000144    00000034     app_pem3.oem3 (.data:ti_sysbios_family_arm_m3_Hwi_Module__state__V)

.data:ti_sysbios_knl_Clock_Module__state__V 
*          0    20000178    0000002c     UNINITIALIZED
                  20000178    0000002c     app_pem3.oem3 (.data:ti_sysbios_knl_Clock_Module__state__V)

.data:ti_sysbios_BIOS_Module__state__V 
*          0    200001a4    00000024     UNINITIALIZED
                  200001a4    00000024     app_pem3.oem3 (.data:ti_sysbios_BIOS_Module__state__V)

.data:ti_sysbios_knl_Swi_Module__state__V 
*          0    200001c8    0000001c     UNINITIALIZED
                  200001c8    0000001c     app_pem3.oem3 (.data:ti_sysbios_knl_Swi_Module__state__V)

.data:ti_sysbios_family_arm_cc26xx_Timer_Module__state__V 
*          0    200001e4    00000008     UNINITIALIZED
                  200001e4    00000008     app_pem3.oem3 (.data:ti_sysbios_family_arm_cc26xx_Timer_Module__state__V)

.data:ti_sysbios_family_arm_cc26xx_TimestampProvider_Module__state__V 
*          0    200001ec    00000004     UNINITIALIZED
                  200001ec    00000004     app_pem3.oem3 (.data:ti_sysbios_family_arm_cc26xx_TimestampProvider_Module__state__V)

.data:xdc_runtime_Startup_Module__state__V 
*          0    200001f0    00000008     UNINITIALIZED
                  200001f0    00000008     app_pem3.oem3 (.data:xdc_runtime_Startup_Module__state__V)

.data:xdc_runtime_System_Module__state__V 
*          0    200001f8    00000008     UNINITIALIZED
                  200001f8    00000008     app_pem3.oem3 (.data:xdc_runtime_System_Module__state__V)

.data:xdc_runtime_Memory_Module__state__V 
*          0    20000200    00000004     UNINITIALIZED
                  20000200    00000004     app_pem3.oem3 (.data:xdc_runtime_Memory_Module__state__V)

.data      0    20000208    00001ed6     UNINITIALIZED
                  20000208    00000610     hmac_global.obj (.data:$O11$$)
                  20000818    000004c4     main.obj (.data:$O29$$)
                  20000cdc    00000408     uart_printf.obj (.data:$O30$$)
                  200010e4    000002f8     cllc.obj (.data:$O24$$)
                  200013dc    00000288     fh_global.obj (.data:$O8$$)
                  20001664    0000012c     csf.obj (.data:$O27$$)
                  20001790    00000114     drivers_cc13x0.aem3 : PINCC26XX.oem3 (.data:$O1$$)
                  200018a4    00000114                         : PowerCC26XX.oem3 (.data:PowerCC26XX_module)
                  200019b8    000000d8     mac_settings.obj (.data:$O14$$)
                  20001a90    0000009c     collector.obj (.data:$O26$$)
                  20001b2c    00000088     icall.obj (.data:$O1$$)
                  20001bb4    00000064     mac_user_config.obj (.data:pOverrides_fsk_CC1350$37)
                  20001c18    00000060     maclib_secure.a : mac.obj (.data:$O31$$)
                  20001c78    0000004c     app_pem3.oem3 (.data:ti_sysbios_knl_Task_Object__table__V)
                  20001cc4    00000048     board_key.obj (.data:$O6$$)
                  20001d0c    00000004     lmac_global.obj (.data:$O13$$)
                  20001d10    00000048     app_pem3.oem3 (.data:ti_sysbios_family_arm_cc26xx_Timer_Object__table__V)
                  20001d58    00000044     board_led.obj (.data:$O7$$)
                  20001d9c    00000038     app_pem3.oem3 (.data:ti_sysbios_gates_GateMutex_Object__table__V)
                  20001dd4    00000034     maclib_secure.a : mac_radio.obj (.data:$O32$$)
                  20001e08    00000030     osal.obj (.data:$O15$$)
                  20001e38    00000030     maclib_secure.a : mac_radio_tx.obj (.data:$O33$$)
                  20001e68    00000030     app_pem3.oem3 (.data:ti_sysbios_knl_Swi_Module_State_0_readyQ__A)
                  20001e98    00000030     app_pem3.oem3 (.data:ti_sysbios_knl_Swi_Object__table__V)
                  20001ec8    00000030     app_pem3.oem3 (.data:ti_sysbios_knl_Task_Module_State_0_readyQ__A)
                  20001ef8    00000024     maclib_secure.a : mac_tx.obj (.data:$O37$$)
                  20001f1c    00000020     drivers_cc13x0.aem3 : CryptoCC26XX.oem3 (.data:$O1$$)
                  20001f3c    00000020     app_pem3.oem3 (.data:ti_sysbios_knl_Clock_Object__table__V)
                  20001f5c    00000020     app_pem3.oem3 (.data:xdc_runtime_Error_IgnoreBlock)
                  20001f7c    0000001c     board_gpio.obj (.data:$O5$$)
                  20001f98    00000018     maclib_secure.a : mac_symbol_timer.obj (.data:$O36$$)
                  20001fb0    00000018     app_pem3.oem3 (.data:ti_sysbios_family_arm_m3_Hwi_Object__table__V)
                  20001fc8    00000018     app_pem3.oem3 (.data:ti_sysbios_heaps_HeapMem_Object__table__V)
                  20001fe0    00000014     api_mac.obj (.data:$O23$$)
                  20001ff4    00000010     mac_cfg.obj (.data:macCfg)
                  20002004    00000010     mac_user_config.obj (.data:rfPatchTable)
                  20002014    0000000d     maclib_secure.a : mac.obj (.data)
                  20002021    00000002     lmac_global.obj (.data)
                  20002023    00000001     drivers_cc13x0.aem3 : UART.oem3 (.data)
                  20002024    0000000c     macstack.obj (.data:$O19$$)
                  20002030    0000000c     CC13X0_LAUNCHXL.obj (.data:RFCC26XX_hwAttrs)
                  2000203c    00000008     osal_clock.obj (.data:$O16$$)
                  20002044    00000008     nvocop.obj (.data:$O21$$)
                  2000204c    00000008     icall_cc2650.obj (.data:$O3$$)
                  20002054    00000008     rtsv7M3_T_le_eabi.lib : _lock.c.obj (.data:$O38$$)
                  2000205c    00000008     mac_user_config.obj (.data:pOverridesTable)
                  20002064    00000008     app_pem3.oem3 (.data:ti_sysbios_family_arm_m3_Hwi_Module__root__V)
                  2000206c    00000008     app_pem3.oem3 (.data:ti_sysbios_gates_GateHwi_Module__root__V)
                  20002074    00000008     app_pem3.oem3 (.data:ti_sysbios_gates_GateMutex_Module__root__V)
                  2000207c    00000008     app_pem3.oem3 (.data:ti_sysbios_hal_Hwi_Module__root__V)
                  20002084    00000008     app_pem3.oem3 (.data:ti_sysbios_heaps_HeapMem_Module__root__V)
                  2000208c    00000008     app_pem3.oem3 (.data:ti_sysbios_knl_Clock_Module__root__V)
                  20002094    00000008     app_pem3.oem3 (.data:ti_sysbios_knl_Mailbox_Module__root__V)
                  2000209c    00000008     app_pem3.oem3 (.data:ti_sysbios_knl_Queue_Module__root__V)
                  200020a4    00000008     app_pem3.oem3 (.data:ti_sysbios_knl_Semaphore_Module__root__V)
                  200020ac    00000008     app_pem3.oem3 (.data:ti_sysbios_knl_Swi_Module__root__V)
                  200020b4    00000008     app_pem3.oem3 (.data:ti_sysbios_knl_Task_Module__root__V)
                  200020bc    00000008     app_pem3.oem3 (.data:xdc_runtime_Registry_Module__state__V)
                  200020c4    00000004     osal_pwrmgr.obj (.data:$O17$$)
                  200020c8    00000004     hal_appasrt.obj (.data)
                  200020cc    00000004     rtsv7M3_T_le_eabi.lib : stkdepth_vars.c.obj (.data)
                  200020d0    00000004     app_pem3.oem3 (.data:ti_sysbios_family_arm_m3_Hwi_Module_State_0_excContext__A)
                  200020d4    00000004     app_pem3.oem3 (.data:ti_sysbios_family_arm_m3_Hwi_Module_State_0_excStack__A)
                  200020d8    00000004     app_pem3.oem3 (.data:ti_sysbios_knl_Task_Module_State_0_idleTask__A)
                  200020dc    00000002     app_pem3.oem3 (.data:ti_sysbios_family_arm_m3_Hwi_Module_State_0_excActive__A)

.bss       0    200020e0    00001048     UNINITIALIZED
                  200020e0    000006b8     (.common:ti_sysbios_heaps_HeapMem_Instance_State_0_buf__A)
                  20002798    00000380     rf_multiMode_cc13x0.aem3 : RFCC26XX_multiMode.oem3 (.bss:$O1$$)
                  20002b18    00000200     app_pem3.oem3 (.bss:taskStackSection)
                  20002d18    00000128     (.common:uartCC26XXObjects)
                  20002e40    000000c8     maclib_secure.a : mac_radio.obj (.bss:RF_object$79)
                  20002f08    000000c8     (.common:ti_sysbios_family_arm_m3_Hwi_dispatchTable)
                  20002fd0    00000080     (.common:cryptoCC26XXObjects)
                  20003050    00000028                     : mac_rx.obj (.bss:$O34$$)
                  20003078    00000028     board_lcd.obj (.bss:lcdBuf$6)
                  200030a0    00000020     (.common:uartCC26XXRingBuffer)
                  200030c0    00000014     rf_multiMode_cc13x0.aem3 : RFCC26XX_multiMode.oem3 (.bss:RF_ratSyncCmd)
                  200030d4    00000014     driverlib.lib : osc.obj (.bss:oscHfGlobals$53)
                  200030e8    00000010     maclib_secure.a : mac_radio.obj (.bss:rfPropTableLocal$79)
                  200030f8    00000008     dpl_cc13x0.aem3 : PowerCC26XX_tirtos.oem3 (.bss:$O1$$)
                  20003100    00000008     osal_timers.obj (.bss:$O18$$)
                  20003108    00000008     driverlib.lib : sys_ctrl.obj (.bss:powerQualGlobals$48)
                  20003110    00000004     hal_trng_wrapper.obj (.bss)
                  20003114    00000004     (.common:ClockP_tickPeriod)
                  20003118    00000004     (.common:macTasksEvents)
                  2000311c    00000002     drivers_cc13x0.aem3 : UARTCC26XX.oem3 (.bss)
                  2000311e    00000001                         : CryptoCC26XX.oem3 (.bss)
                  2000311f    00000001     maclib_secure.a : mac_tx.obj (.bss)
                  20003120    00000001     rf_multiMode_cc13x0.aem3 : RFCC26XX_multiMode.oem3 (.bss)
                  20003121    00000001     (.common:driverlib_release_0_52354)
                  20003122    00000001     (.common:macPwr)
                  20003123    00000001     (.common:macRxActive)
                  20003124    00000001     (.common:macRxEnableFlags)
                  20003125    00000001     (.common:macRxOutgoingAckFlag)
                  20003126    00000001     (.common:macSymbolTimerImpending)
                  20003127    00000001     (.common:macTxActive)

.vtable    0    20003128    00000000     UNINITIALIZED

.vtable_ram 
*          0    20003128    00000000     UNINITIALIZED

vtable_ram 
*          0    20003128    00000000     UNINITIALIZED

.sysmem    0    20003128    00000000     UNINITIALIZED

.nonretenvar 
*          0    20003128    00000000     UNINITIALIZED

.stack     0    20004b00    00000500     UNINITIALIZED
                  20004b00    00000500     --HOLE--

.bootVecs 
*          0    00000000    00000008     DSECT
                  00000000    00000008     boot.aem3 : boot.oem3 (.bootVecs)

.resetVecs 
*          0    00000000    0000003c     
                  00000000    0000003c     app_pem3.oem3 (.resetVecs)

.vecs      0    20000000    000000c8     NOLOAD SECTION
                  20000000    000000c8     app_pem3.oem3 (.vecs)

xdc.meta   0    00000000    000000f6     COPY SECTION
                  00000000    000000f6     app_pem3.oem3 (xdc.meta)

xdc.noload 
*          0    00000000    00000000     COPY SECTION

.TI.bound:NV_FLASH 
*          0    0001e000    00001000     
                  0001e000    00001000     nvocop.obj (.TI.bound:NV_FLASH)

MODULE SUMMARY

       Module                            code    ro data   rw data
       ------                            ----    -------   -------
    .\obj\
       nvocop.obj                        1664    4096      8      
       main.obj                          2174    8         1220   
       mac_user_config.obj               236     3026      124    
       icall.obj                         2612    204       136    
       collector.obj                     2774    0         156    
       hmac_global.obj                   0       1336      1552   
       cllc.obj                          1640    214       760    
       csf.obj                           1670    0         300    
       osal.obj                          1910    0         48     
       api_mac.obj                       1614    0         20     
       fh_global.obj                     0       698       648    
       icall_startup.obj                 1232    0         0      
       uart_printf.obj                   128     0         1032   
       macstack.obj                      826     19        12     
       icall_cc2650.obj                  468     4         8      
       board_led.obj                     334     0         68     
       CC13X0_LAUNCHXL.obj               44      198       12     
       mac_settings.obj                  0       0         216    
       util.obj                          166     0         0      
       osal_pwrmgr.obj                   156     0         4      
       board_key.obj                     80      0         72     
       board_lcd.obj                     91      0         40     
       hal_trng_wrapper.obj              120     0         4      
       util_timer.obj                    104     0         0      
       saddr.obj                         98      0         0      
       hal_flash_wrapper.obj             90      0         0      
       ccfg.obj                          0       88        0      
       osal_memory_icall.obj             72      0         0      
       osal_timers.obj                   40      0         8      
       osaltasks.obj                     28      4         0      
       board_gpio.obj                    0       0         28     
       hal_aes.obj                       24      0         0      
       hal_appasrt.obj                   16      0         4      
       mac_cfg.obj                       0       0         16     
       osal_clock.obj                    0       0         8      
       lmac_global.obj                   0       0         6      
    +--+---------------------------------+-------+---------+---------+
       Total:                            20411   9895      6510   
                                                                  
    C:\Users\Adrian\workspace_v8\collector_cc1350lp\collector_cc1350lp\configPkg\package\cfg\
       app_pem3.oem3                     672     1503      3462   
    +--+---------------------------------+-------+---------+---------+
       Total:                            672     1503      3462   
                                                                  
    C:\Users\Adrian\workspace_v8\collector_cc1350lp\collector_cc1350lp\obj\
       lto_collector_cc1350lp.obj        0       0         467    
    +--+---------------------------------+-------+---------+---------+
       Total:                            0       0         467    
                                                                  
    C:/ti/simplelink_cc13x0_sdk_2_30_00_20/kernel/tirtos/packages/ti/dpl/lib/dpl_cc13x0.aem3
       PowerCC26XX_tirtos.oem3           296     0         8      
       ClockP_tirtos.oem3                130     0         4      
       HwiP_tirtos.oem3                  102     0         0      
       SwiP_tirtos.oem3                  96      0         0      
       SemaphoreP_tirtos.oem3            70      0         0      
    +--+---------------------------------+-------+---------+---------+
       Total:                            694     0         12     
                                                                  
    C:/ti/simplelink_cc13x0_sdk_2_30_00_20/source/ti/devices/cc13x0/driverlib/bin/ccs/driverlib.lib
       crypto.obj                        1608    0         0      
       setup.obj                         1412    0         0      
       sys_ctrl.obj                      780     0         8      
       rfc.obj                           684     24        0      
       osc.obj                           524     0         20     
       chipinfo.obj                      164     0         0      
       setup_rom.obj                     148     0         0      
       flash.obj                         56      0         0      
       ddi.obj                           52      0         0      
       aon_rtc.obj                       44      0         0      
       adi.obj                           40      0         0      
       aon_batmon.obj                    40      0         0      
       cpu.obj                           30      0         0      
       vims.obj                          14      0         0      
    +--+---------------------------------+-------+---------+---------+
       Total:                            5596    24        28     
                                                                  
    C:/ti/simplelink_cc13x0_sdk_2_30_00_20/source/ti/drivers/lib/drivers_cc13x0.aem3
       UARTCC26XX.oem3                   2700    108       2      
       PowerCC26XX.oem3                  2120    76        276    
       PINCC26XX.oem3                    1322    0         276    
       PowerCC26XX_calibrateRCOSC.oem3   1380    0         0      
       CryptoCC26XX.oem3                 1170    0         33     
       UART.oem3                         162     36        1      
       List.oem3                         192     0         0      
       RingBuf.oem3                      148     0         0      
    +--+---------------------------------+-------+---------+---------+
       Total:                            9194    220       588    
                                                                  
    C:/ti/simplelink_cc13x0_sdk_2_30_00_20/source/ti/drivers/rf/lib/rf_multiMode_cc13x0.aem3
       RFCC26XX_multiMode.oem3           8934    28        917    
    +--+---------------------------------+-------+---------+---------+
       Total:                            8934    28        917    
                                                                  
    C:/ti/simplelink_cc13x0_sdk_2_30_00_20/source/ti/ti154stack/library/tirtos/bin/maclib_secure.a
       fh_ie.obj                         5204    0         0      
       mac_mgmt.obj                      4768    0         0      
       mac.obj                           4082    0         109    
       fh_api.obj                        3572    0         0      
       mac_coord.obj                     3036    0         0      
       mac_radio_tx.obj                  2544    0         48     
       mac_data.obj                      2564    0         0      
       mac_radio.obj                     1828    0         268    
       mac_rx.obj                        2048    8         40     
       fh_nt.obj                         1914    0         0      
       mac_beacon_device.obj             1706    0         0      
       mac_tx.obj                        1596    0         37     
       mac_scan.obj                      1388    0         0      
       macwrapper.obj                    1348    0         0      
       mac_security.obj                  1216    0         0      
       mac_beacon_coord.obj              1174    0         0      
       mac_security_pib.obj              1114    0         0      
       fh_mgr.obj                        862     0         0      
       mac_main.obj                      736     0         0      
       mac_pwr.obj                       726     0         0      
       mac_symbol_timer.obj              638     0         24     
       mac_beacon.obj                    636     0         0      
       fh_data.obj                       624     0         0      
       mac_ie_build.obj                  588     0         0      
       mac_pib.obj                       584     0         0      
       fh_pib.obj                        572     0         0      
       mac_timer.obj                     522     0         0      
       fh_util.obj                       436     0         0      
       mac_rx_onoff.obj                  432     0         0      
       mac_mcu.obj                       428     0         0      
       mac_hl_patch.obj                  404     0         0      
       fh_dh1cf.obj                      382     0         0      
       fh_sm.obj                         132     0         0      
       mac_ie_parse.obj                  84      0         0      
       mac_low_level.obj                 26      0         0      
    +--+---------------------------------+-------+---------+---------+
       Total:                            49914   8         526    
                                                                  
    C:\Users\Adrian\workspace_v8\collector_cc1350lp\Tools\src\sysbios\rom_sysbios.aem3
       rom_sysbios.obj                   2537    0         0      
       rom_sysbios_config.obj            38      0         0      
    +--+---------------------------------+-------+---------+---------+
       Total:                            2575    0         0      
                                                                  
    C:\ti\ccsv8\tools\compiler\ti-cgt-arm_18.1.3.LTS\lib\rtsv7M3_T_le_eabi.lib
       memcpy_t2.asm.obj                 156     0         0      
       ull_div_t2.asm.obj                150     0         0      
       memset_t2.asm.obj                 122     0         0      
       ll_div_t2.asm.obj                 110     0         0      
       copy_decompress_lzss.c.obj        104     0         0      
       cpy_tbl.c.obj                     76      0         0      
       u_divt2.asm.obj                   64      0         0      
       memcmp.c.obj                      36      0         0      
       _lock.c.obj                       26      0         8      
       args_main.c.obj                   24      0         0      
       ll_mul_t2.asm.obj                 24      0         0      
       strlen.c.obj                      20      0         0      
       copy_decompress_none.c.obj        14      0         0      
       copy_zero_init.c.obj              12      0         0      
       stkdepth_vars.c.obj               0       0         4      
       div0.asm.obj                      2       0         0      
    +--+---------------------------------+-------+---------+---------+
       Total:                            940     0         12     
                                                                  
    C:\ti\simplelink_cc13x0_sdk_2_30_00_20\kernel\tirtos\packages\ti\targets\arm\rtsarm\lib\auto_init.aem3
       auto_init.oem3                    160     0         0      
    +--+---------------------------------+-------+---------+---------+
       Total:                            160     0         0      
                                                                  
    C:\ti\simplelink_cc13x0_sdk_2_30_00_20\kernel\tirtos\packages\ti\targets\arm\rtsarm\lib\boot.aem3
       boot.oem3                         68      0         0      
    +--+---------------------------------+-------+---------+---------+
       Total:                            68      0         0      
                                                                  
       Stack:                            0       0         1280   
       Linker Generated:                 528     1223      0      
    +--+---------------------------------+-------+---------+---------+
       Grand Total:                      99686   12901     13802  


LINKER GENERATED COPY TABLES

__TI_cinit_table @ 00019fd8 records: 12, size/record: 8, table size: 96
	.data: load addr=00019b68, load size=00000395 bytes, run addr=20000208, run size=00001ed6 bytes, compression=lzss
	.data:ti_sysbios_family_arm_m3_Hwi_Module__state__V: load addr=00019efd, load size=00000028 bytes, run addr=20000144, run size=00000034 bytes, compression=lzss
	.data:ti_sysbios_knl_Task_Module__state__V: load addr=00019f25, load size=00000021 bytes, run addr=20000100, run size=00000044 bytes, compression=lzss
	.data:ti_sysbios_BIOS_Module__state__V: load addr=00019f46, load size=0000001f bytes, run addr=200001a4, run size=00000024 bytes, compression=lzss
	.data:ti_sysbios_knl_Clock_Module__state__V: load addr=00019f65, load size=0000001e bytes, run addr=20000178, run size=0000002c bytes, compression=lzss
	.data:ti_sysbios_knl_Swi_Module__state__V: load addr=00019f83, load size=00000010 bytes, run addr=200001c8, run size=0000001c bytes, compression=lzss
	.data:ti_sysbios_family_arm_cc26xx_Timer_Module__state__V: load addr=00019fa0, load size=0000000b bytes, run addr=200001e4, run size=00000008 bytes, compression=lzss
	.bss: load addr=00019fb0, load size=00000008 bytes, run addr=200020e0, run size=00001048 bytes, compression=zero_init
	.data:xdc_runtime_Memory_Module__state__V: load addr=00019fb8, load size=00000008 bytes, run addr=20000200, run size=00000004 bytes, compression=lzss
	.data:ti_sysbios_family_arm_cc26xx_TimestampProvider_Module__state__V: load addr=00019fc0, load size=00000007 bytes, run addr=200001ec, run size=00000004 bytes, compression=lzss
	.data:xdc_runtime_Startup_Module__state__V: load addr=00019fc7, load size=00000007 bytes, run addr=200001f0, run size=00000008 bytes, compression=lzss
	.data:xdc_runtime_System_Module__state__V: load addr=00019fce, load size=00000007 bytes, run addr=200001f8, run size=00000008 bytes, compression=lzss


LINKER GENERATED HANDLER TABLE

__TI_handler_table @ 00019f94 records: 3, size/record: 4, table size: 12
	index: 0, handler: __TI_decompress_lzss
	index: 1, handler: __TI_decompress_none
	index: 2, handler: __TI_zero_init


FAR CALL TRAMPOLINES

callee name               trampoline name
   callee addr  tramp addr   call addr  call info
--------------  -----------  ---------  ----------------
ti_sysbios_knl_Task_self__E  $Tramp$TT$L$PI$$ti_sysbios_knl_Task_self__E
   1001c1e1     0001f108     0001f00a   icall.obj (.text:ICall_primWaitMatch$0)
                             0001f3f4   icall.obj (.text:ICall_primEnroll$0)
                             0001f454   icall.obj (.text:ICall_primRegisterApp$0)
                             0001f4c0   icall.obj (.text:ICall_primThreadServes$0)
                             0001f50c   icall.obj (.text:ICall_primFetchMsg$0)
                             0001f560   icall.obj (.text:ICall_primWait$0)
                             0001f5b4   icall.obj (.text:ICall_primGetEntityId$0)
ti_sysbios_knl_Clock_getTicks__E  $Tramp$TT$L$PI$$ti_sysbios_knl_Clock_getTicks__E
   1001b6d5     0001f110     0001f054   icall.obj (.text:ICall_primWaitMatch$0)
                             0001f0c2   icall.obj (.text:ICall_primWaitMatch$0)
                             0001fa66   icall.obj (.text:ICall_primGetTicks$0)
ti_sysbios_knl_Semaphore_pend__E  $Tramp$TT$L$PI$$ti_sysbios_knl_Semaphore_pend__E
   1001a001     0001f118     0001f06c   icall.obj (.text:ICall_primWaitMatch$0)
                             0001f5a0   icall.obj (.text:ICall_primWait$0)
ti_sysbios_knl_Semaphore_post__E  $Tramp$TT$L$PI$$ti_sysbios_knl_Semaphore_post__E
   1001ac41     0001f120     0001f0f6   icall.obj (.text:ICall_primWaitMatch$0)
                             0001f34e   icall.obj (.text:ICall_primSend$0)
                             0001fab4   icall.obj (.text:ICall_primSignal$0)
ti_sysbios_knl_Clock_Params__init__S  $Tramp$TT$L$PI$$ti_sysbios_knl_Clock_Params__init__S
   1001c181     0001f1c0     0001f14a   icall.obj (.text:ICall_primSetTimer$0)
ti_sysbios_knl_Clock_create  $Tramp$TT$L$PI$$ti_sysbios_knl_Clock_create
   1001b3e9     0001f1c8     0001f15e   icall.obj (.text:ICall_primSetTimer$0)
ti_sysbios_knl_Clock_setTimeout__E  $Tramp$TT$L$PI$$ti_sysbios_knl_Clock_setTimeout__E
   1001c2bd     0001f1d0     0001f1a8   icall.obj (.text:ICall_primSetTimer$0)
ti_sysbios_knl_Clock_start__E  $Tramp$TT$L$PI$$ti_sysbios_knl_Clock_start__E
   1001bfdf     0001f1d8     0001f1ae   icall.obj (.text:ICall_primSetTimer$0)
ti_sysbios_knl_Task_disable__E  $Tramp$TT$L$PI$$ti_sysbios_knl_Task_disable__E
   1001c0f1     0001f3d0     0001f36a   icall.obj (.text:ICall_createRemoteTasks)
                             0001f980   icall.obj (.text:ICall_enterCSImpl)
                             0001fa2a   icall.obj (.text:ICall_primDisableMInt$0)
ti_sysbios_knl_Task_Params__init__S  $Tramp$TT$L$PI$$ti_sysbios_knl_Task_Params__init__S
   1001c1d5     0001f3d8     0001f378   icall.obj (.text:ICall_createRemoteTasks)
                             0001f660   icall.obj (.text:ICall_primCreateTask$0)
ti_sysbios_knl_Task_create  $Tramp$TT$L$PI$$ti_sysbios_knl_Task_create
   1001ae19     0001f3e0     0001f396   icall.obj (.text:ICall_createRemoteTasks)
                             0001f676   icall.obj (.text:ICall_primCreateTask$0)
ti_sysbios_knl_Task_restore__E  $Tramp$TT$L$PI$$ti_sysbios_knl_Task_restore__E
   1001ba45     0001f3e8     0001f3bc   icall.obj (.text:ICall_createRemoteTasks)
                             0001f9e2   icall.obj (.text:ICall_leaveCSImpl)
ti_sysbios_knl_Semaphore_create  $Tramp$TT$L$PI$$ti_sysbios_knl_Semaphore_create
   1001b5a9     0001f644     0001f61c   icall.obj (.text:ICall_newTask$0)
ti_sysbios_hal_Hwi_create  $Tramp$TT$L$PI$$ti_sysbios_hal_Hwi_create
   1001ab79     0001f700     0001f6e8   icall.obj (.text:ICall_primRegisterISR$0)
                             0001f728   icall.obj (.text:ICall_primRegisterISR_Ext$0)
ti_sysbios_family_arm_m3_Hwi_disableFxn__E  $Tramp$TT$L$PI$$ti_sysbios_family_arm_m3_Hwi_disableFxn__E
   1001c145     0001f998     0001f98a   icall.obj (.text:ICall_enterCSImpl)
                             0001fa2e   icall.obj (.text:ICall_primDisableMInt$0)
ti_sysbios_family_arm_m3_Hwi_restoreFxn__E  $Tramp$TT$L$PI$$ti_sysbios_family_arm_m3_Hwi_restoreFxn__E
   1001c215     0001f9e8     0001f9da   icall.obj (.text:ICall_leaveCSImpl)
ti_sysbios_family_arm_m3_Hwi_enableFxn__E  $Tramp$TT$L$PI$$ti_sysbios_family_arm_m3_Hwi_enableFxn__E
   1001c151     0001fa44     0001fa38   icall.obj (.text:ICall_primEnableMInt$0)
ti_sysbios_knl_Task_enable__E  $Tramp$TT$L$PI$$ti_sysbios_knl_Task_enable__E
   1001c23f     0001fa4c     0001fa3c   icall.obj (.text:ICall_primEnableMInt$0)
ti_sysbios_hal_Hwi_disableInterrupt__E  $Tramp$TT$L$PI$$ti_sysbios_hal_Hwi_disableInterrupt__E
   1001c27d     0001fa88     0001fa80   icall.obj (.text:ICall_primDisableInt$0)
ti_sysbios_hal_Hwi_enableInterrupt__E  $Tramp$TT$L$PI$$ti_sysbios_hal_Hwi_enableInterrupt__E
   1001c281     0001fa9c     0001fa94   icall.obj (.text:ICall_primEnableInt$0)
ti_sysbios_knl_Swi_destruct  $Tramp$TT$L$PI$$ti_sysbios_knl_Swi_destruct
   1001c2e5     00018e20     00018dd6   dpl_cc13x0.aem3 : SwiP_tirtos.oem3 (.text:SwiP_destruct)
ti_sysbios_knl_Semaphore_destruct  $Tramp$TT$L$PI$$ti_sysbios_knl_Semaphore_destruct
   1001c2dd     00018e28     00018dce   dpl_cc13x0.aem3 : SemaphoreP_tirtos.oem3 (.text:SemaphoreP_destruct)
ti_sysbios_family_arm_m3_Hwi_setPriority__E  $Tramp$TT$L$PI$$ti_sysbios_family_arm_m3_Hwi_setPriority__E
   1001be81     00018e30     00018dc6   dpl_cc13x0.aem3 : HwiP_tirtos.oem3 (.text:HwiP_setPriority)
ti_sysbios_family_arm_m3_Hwi_enableInterrupt__E  $Tramp$TT$L$PI$$ti_sysbios_family_arm_m3_Hwi_enableInterrupt__E
   1001b295     00018e38     00018dba   dpl_cc13x0.aem3 : HwiP_tirtos.oem3 (.text:HwiP_enableInterrupt)
ti_sysbios_family_arm_m3_Hwi_destruct  $Tramp$TT$L$PI$$ti_sysbios_family_arm_m3_Hwi_destruct
   1001c25d     00018e40     00018db2   dpl_cc13x0.aem3 : HwiP_tirtos.oem3 (.text:HwiP_destruct)
ti_sysbios_BIOS_getCpuFreq__E  $Tramp$TT$L$PI$$ti_sysbios_BIOS_getCpuFreq__E
   1001bff5     00018e48     00018d92   dpl_cc13x0.aem3 : ClockP_tirtos.oem3 (.text:ClockP_getCpuFreq)
ti_sysbios_knl_Clock_destruct  $Tramp$TT$L$PI$$ti_sysbios_knl_Clock_destruct
   1001c2b5     00018e50     00018d8e   dpl_cc13x0.aem3 : ClockP_tirtos.oem3 (.text:ClockP_destruct)
xdc_runtime_Core_assignParams__I  $Tramp$TT$L$PI$$xdc_runtime_Core_assignParams__I
   1001c5ed     00018e58     00018bf4   rom_sysbios.aem3 : rom_sysbios_config.obj (.text:ti_sysbios_hal_Hwi_Params__init__S)
ti_sysbios_family_arm_m3_Hwi_disableFxn__E  $Tramp$TT$L$PI$$ti_sysbios_family_arm_m3_Hwi_disableFxn__E
   1001c145     00018e60     0001897a   main.obj (.text:Main_assertHandler)
                             00018db6   dpl_cc13x0.aem3 : HwiP_tirtos.oem3 (.text:HwiP_disable)
xdc_runtime_Startup_startMods__I  $Tramp$TT$L$PI$$xdc_runtime_Startup_startMods__I
   1001c309     00018e68     000188fa   app_pem3.oem3 (.text:xdc_runtime_Startup_exec__I)
ti_sysbios_knl_Semaphore_pend__E  $Tramp$TT$L$PI$$ti_sysbios_knl_Semaphore_pend__E
   1001a001     00018e70     000188aa   dpl_cc13x0.aem3 : SemaphoreP_tirtos.oem3 (.text:SemaphoreP_pend)
ti_sysbios_knl_Clock_logTick__E  $Tramp$TT$L$PI$$ti_sysbios_knl_Clock_logTick__E
   1001be63     00018e78     0001883a   app_pem3.oem3 (.text:ti_sysbios_knl_Clock_doTick__I)
ti_sysbios_knl_Swi_post__E  $Tramp$TT$L$PI$$ti_sysbios_knl_Swi_post__E
   1001b31d     00018e80     00018590   rom_sysbios.aem3 : rom_sysbios.obj (.text:ti_sysbios_knl_Swi_or__E)
                             00018842   app_pem3.oem3 (.text:ti_sysbios_knl_Clock_doTick__I)
ti_sysbios_BIOS_RtsGateProxy_leave__E  $Tramp$TT$L$PI$$ti_sysbios_BIOS_RtsGateProxy_leave__E
   1001c249     00018e88     00018572   app_pem3.oem3 (.text:ti_sysbios_BIOS_rtsUnlock__I)
ti_sysbios_knl_Swi_construct  $Tramp$TT$L$PI$$ti_sysbios_knl_Swi_construct
   1001b085     00018e90     000181ce   rom_sysbios.aem3 : rom_sysbios.obj (.text:ti_sysbios_knl_Swi_construct2__E)
ti_sysbios_knl_Semaphore_post__E  $Tramp$TT$L$PI$$ti_sysbios_knl_Semaphore_post__E
   1001ac41     00018e98     0001812e   csf.obj (.text:processBroadcastTimeoutCallback$36)
                             0001814a   csf.obj (.text:processConfigTimeoutCallback$36)
                             00018166   csf.obj (.text:processJoinTimeoutCallback$36)
                             00018182   csf.obj (.text:processTackingTimeoutCallback$36)
                             00018544   csf.obj (.text:processKeyChangeCallback$36)
                             00018dd2   dpl_cc13x0.aem3 : SemaphoreP_tirtos.oem3 (.text:SemaphoreP_post)
ti_sysbios_BIOS_RtsGateProxy_enter__E  $Tramp$TT$L$PI$$ti_sysbios_BIOS_RtsGateProxy_enter__E
   1001c245     00018ea0     00017d52   app_pem3.oem3 (.text:ti_sysbios_BIOS_rtsLock__I)
ti_sysbios_knl_Task_restore__E  $Tramp$TT$L$PI$$ti_sysbios_knl_Task_restore__E
   1001ba45     00018ea8     00017b9e   dpl_cc13x0.aem3 : PowerCC26XX_tirtos.oem3 (.text:PowerCC26XX_schedulerRestore)
ti_sysbios_knl_Clock_getTicks__E  $Tramp$TT$L$PI$$ti_sysbios_knl_Clock_getTicks__E
   1001b6d5     00018eb0     000171c8   rom_sysbios.aem3 : rom_sysbios.obj (.text:ti_sysbios_knl_Clock_getTimeout__E)
ti_sysbios_knl_Semaphore_construct  $Tramp$TT$L$PI$$ti_sysbios_knl_Semaphore_construct
   1001b705     00018eb8     00016ff2   dpl_cc13x0.aem3 : SemaphoreP_tirtos.oem3 (.text:SemaphoreP_constructBinary)
ti_sysbios_knl_Semaphore_Params__init__S  $Tramp$TT$L$PI$$ti_sysbios_knl_Semaphore_Params__init__S
   1001c1bd     00018ec0     00016fe2   dpl_cc13x0.aem3 : SemaphoreP_tirtos.oem3 (.text:SemaphoreP_constructBinary)
ti_sysbios_knl_Task_startup__E  $Tramp$TT$L$PI$$ti_sysbios_knl_Task_startup__E
   1001c305     00018ec8     00016dd8   app_pem3.oem3 (.text:ti_sysbios_BIOS_startFunc__I)
ti_sysbios_knl_Swi_startup__E  $Tramp$TT$L$PI$$ti_sysbios_knl_Swi_startup__E
   1001c239     00018ed0     00016dd4   app_pem3.oem3 (.text:ti_sysbios_BIOS_startFunc__I)
ti_sysbios_hal_Hwi_startup__E  $Tramp$TT$L$PI$$ti_sysbios_hal_Hwi_startup__E
   1001c289     00018ed8     00016dd0   app_pem3.oem3 (.text:ti_sysbios_BIOS_startFunc__I)
ti_sysbios_family_arm_cc26xx_Timer_startup__E  $Tramp$TT$L$PI$$ti_sysbios_family_arm_cc26xx_Timer_startup__E
   1001b791     00018ee0     00016dcc   app_pem3.oem3 (.text:ti_sysbios_BIOS_startFunc__I)
xdc_runtime_System_atexit__E  $Tramp$TT$L$PI$$xdc_runtime_System_atexit__E
   1001c67d     00018ee8     00016dc4   app_pem3.oem3 (.text:ti_sysbios_BIOS_startFunc__I)
ti_sysbios_BIOS_setThreadType__E  $Tramp$TT$L$PI$$ti_sysbios_BIOS_setThreadType__E
   1001c041     00018ef0     00016d90   app_pem3.oem3 (.text:ti_sysbios_BIOS_atExitFunc__I)
                             00018610   app_pem3.oem3 (.text:ti_sysbios_BIOS_exitFunc__I)
ti_sysbios_knl_Task_disable__E  $Tramp$TT$L$PI$$ti_sysbios_knl_Task_disable__E
   1001c0f1     00018ef8     00016d8a   app_pem3.oem3 (.text:ti_sysbios_BIOS_atExitFunc__I)
                             00017b6e   dpl_cc13x0.aem3 : PowerCC26XX_tirtos.oem3 (.text:PowerCC26XX_schedulerDisable)
ti_sysbios_knl_Swi_disable__E  $Tramp$TT$L$PI$$ti_sysbios_knl_Swi_disable__E
   1001c0d1     00018f00     00016d86   app_pem3.oem3 (.text:ti_sysbios_BIOS_atExitFunc__I)
                             00018dda   dpl_cc13x0.aem3 : SwiP_tirtos.oem3 (.text:SwiP_disable)
ti_sysbios_knl_Queue_Object__get__S  $Tramp$TT$L$PI$$ti_sysbios_knl_Queue_Object__get__S
   1001bd65     00018f08     0001688a   rom_sysbios.aem3 : rom_sysbios.obj (.text:ti_sysbios_knl_Swi_setPri__E)
ti_sysbios_family_arm_m3_Hwi_construct  $Tramp$TT$L$PI$$ti_sysbios_family_arm_m3_Hwi_construct
   1001af29     00018f10     00016042   rom_sysbios.aem3 : rom_sysbios.obj (.text:ti_sysbios_family_arm_m3_Hwi_construct2__E)
ti_sysbios_knl_Swi_Params__init__S  $Tramp$TT$L$PI$$ti_sysbios_knl_Swi_Params__init__S
   1001c1c9     00018f18     00015dea   dpl_cc13x0.aem3 : SwiP_tirtos.oem3 (.text:SwiP_construct)
ti_sysbios_family_arm_m3_Hwi_Params__init__S  $Tramp$TT$L$PI$$ti_sysbios_family_arm_m3_Hwi_Params__init__S
   1001c139     00018f20     00015b54   dpl_cc13x0.aem3 : HwiP_tirtos.oem3 (.text:HwiP_construct)
xdc_runtime_System_exit__E  $Tramp$TT$L$PI$$xdc_runtime_System_exit__E
   1001c7cd     00018f28     00015608   boot.aem3 : boot.oem3 (.text)
                             00018616   app_pem3.oem3 (.text:ti_sysbios_BIOS_exitFunc__I)
ti_sysbios_knl_Clock_construct  $Tramp$TT$L$PI$$ti_sysbios_knl_Clock_construct
   1001b575     00018f30     00014ae2   dpl_cc13x0.aem3 : ClockP_tirtos.oem3 (.text:ClockP_construct)
                             000152c6   util_timer.obj (.text:Timer_construct)
ti_sysbios_knl_Clock_Params__init__S  $Tramp$TT$L$PI$$ti_sysbios_knl_Clock_Params__init__S
   1001c181     00018f38     00014ac8   dpl_cc13x0.aem3 : ClockP_tirtos.oem3 (.text:ClockP_construct)
                             000152a0   util_timer.obj (.text:Timer_construct)
ti_sysbios_BIOS_start__E  $Tramp$TT$L$PI$$ti_sysbios_BIOS_start__E
   1001c051     00018f40     00012540   main.obj (.text:main)
ti_sysbios_knl_Task_construct  $Tramp$TT$L$PI$$ti_sysbios_knl_Task_construct
   1001b125     00018f48     0001253c   main.obj (.text:main)
ti_sysbios_knl_Task_Params__init__S  $Tramp$TT$L$PI$$ti_sysbios_knl_Task_Params__init__S
   1001c1d5     00018f50     00012520   main.obj (.text:main)
ti_sysbios_knl_Clock_scheduleNextTick__E  $Tramp$TT$L$PI$$ti_sysbios_knl_Clock_scheduleNextTick__E
   1001beb9     00018f58     00010d22   rom_sysbios.aem3 : rom_sysbios.obj (.text:ti_sysbios_knl_Clock_workFuncDynamic__E)
ti_sysbios_knl_Clock_walkQueueDynamic__E  $Tramp$TT$L$PI$$ti_sysbios_knl_Clock_walkQueueDynamic__E
   1001a809     00018f60     00010cea   rom_sysbios.aem3 : rom_sysbios.obj (.text:ti_sysbios_knl_Clock_workFuncDynamic__E)
                             00010d06                    : rom_sysbios.obj (.text:ti_sysbios_knl_Clock_workFuncDynamic__E)
ti_sysbios_knl_Clock_TimerProxy_getCurrentTick__E  $Tramp$TT$L$PI$$ti_sysbios_knl_Clock_TimerProxy_getCurrentTick__E
   1001c091     00018f68     00010cb8   rom_sysbios.aem3 : rom_sysbios.obj (.text:ti_sysbios_knl_Clock_workFuncDynamic__E)
                             0001716e                    : rom_sysbios.obj (.text:ti_sysbios_knl_Clock_getTicksUntilInterrupt__E)
ti_sysbios_knl_Clock_start__E  $Tramp$TT$L$PI$$ti_sysbios_knl_Clock_start__E
   1001bfdf     00018f70     0000d5ec   dpl_cc13x0.aem3 : PowerCC26XX_tirtos.oem3 (.text:PowerCC26XX_standbyPolicy)
                             00017d9e   rom_sysbios.aem3 : rom_sysbios.obj (.text:ti_sysbios_knl_Clock_stop__E)
                             00018d9e   dpl_cc13x0.aem3 : ClockP_tirtos.oem3 (.text:ClockP_start)
                             00018dea   util_timer.obj (.text:Timer_start)
ti_sysbios_knl_Clock_setTimeout__E  $Tramp$TT$L$PI$$ti_sysbios_knl_Clock_setTimeout__E
   1001c2bd     00018f78     0000d5e6   dpl_cc13x0.aem3 : PowerCC26XX_tirtos.oem3 (.text:PowerCC26XX_standbyPolicy)
                             00018cb0   util_timer.obj (.text:Timer_setTimeout)
                             00018d9a   dpl_cc13x0.aem3 : ClockP_tirtos.oem3 (.text:ClockP_setTimeout)
ti_sysbios_knl_Swi_restore__E  $Tramp$TT$L$PI$$ti_sysbios_knl_Swi_restore__E
   1001b5dd     00018f80     000078d4   drivers_cc13x0.aem3 : PowerCC26XX.oem3 (.text:Power_sleep)
                             0000d04c   rf_multiMode_cc13x0.aem3 : RFCC26XX_multiMode.oem3 (.text:RF_pendCmd)
                             0000d080                            : RFCC26XX_multiMode.oem3 (.text:RF_pendCmd)
                             0000d0d8                            : RFCC26XX_multiMode.oem3 (.text:RF_pendCmd)
                             0000d0ec                            : RFCC26XX_multiMode.oem3 (.text:RF_pendCmd)
ti_sysbios_family_arm_m3_Hwi_restoreFxn__E  $Tramp$TT$L$PI$$ti_sysbios_family_arm_m3_Hwi_restoreFxn__E
   1001c215     00018f88     00004406   rf_multiMode_cc13x0.aem3 : RFCC26XX_multiMode.oem3 (.text:RF_fsmActiveState)
                             00004462                            : RFCC26XX_multiMode.oem3 (.text:RF_fsmActiveState)
                             000044c8                            : RFCC26XX_multiMode.oem3 (.text:RF_fsmActiveState)
                             000044e2                            : RFCC26XX_multiMode.oem3 (.text:RF_fsmActiveState)
                             00006b32                            : RFCC26XX_multiMode.oem3 (.text:RF_scheduleCmd)
                             00007e02   drivers_cc13x0.aem3 : CryptoCC26XX.oem3 (.text:cryptoTransactionExecute)
                             00007e4c                       : CryptoCC26XX.oem3 (.text:cryptoTransactionExecute)
                             00007eb0                       : CryptoCC26XX.oem3 (.text:cryptoTransactionExecute)
                             00007f18                       : CryptoCC26XX.oem3 (.text:cryptoTransactionExecute)
                             000081aa   rf_multiMode_cc13x0.aem3 : RFCC26XX_multiMode.oem3 (.text:RF_open)
                             00008286                            : RFCC26XX_multiMode.oem3 (.text:RF_open)
                             0000a50e   drivers_cc13x0.aem3 : UARTCC26XX.oem3 (.text:UARTCC26XX_open)
                             0000a51a                       : UARTCC26XX.oem3 (.text:UARTCC26XX_open)
                             0000a59a                       : UARTCC26XX.oem3 (.text:UARTCC26XX_open)
                             0000aafa   rf_multiMode_cc13x0.aem3 : RFCC26XX_multiMode.oem3 (.text:RF_radioOpDoneCb)
                             0000b064                            : RFCC26XX_multiMode.oem3 (.text:RF_ratSetupChannel)
                             0000b0bc   drivers_cc13x0.aem3 : UARTCC26XX.oem3 (.text:UARTCC26XX_read)
                             0000b0fc                       : UARTCC26XX.oem3 (.text:UARTCC26XX_read)
                             0000b118                       : UARTCC26XX.oem3 (.text:UARTCC26XX_read)
                             0000b166                       : UARTCC26XX.oem3 (.text:UARTCC26XX_read)
                             0000b190                       : UARTCC26XX.oem3 (.text:UARTCC26XX_read)
                             0000b1a0                       : UARTCC26XX.oem3 (.text:UARTCC26XX_read)
                             0000b64c   rf_multiMode_cc13x0.aem3 : RFCC26XX_multiMode.oem3 (.text:RF_abortCmd)
                             0000bed4                            : RFCC26XX_multiMode.oem3 (.text:RF_close)
                             0000bf36                            : RFCC26XX_multiMode.oem3 (.text:RF_close)
                             0000c3c8   drivers_cc13x0.aem3 : UARTCC26XX.oem3 (.text:UARTCC26XX_write)
                             0000c3e4                       : UARTCC26XX.oem3 (.text:UARTCC26XX_write)
                             0000c480                       : UARTCC26XX.oem3 (.text:UARTCC26XX_write)
                             0000ca62   rf_multiMode_cc13x0.aem3 : RFCC26XX_multiMode.oem3 (.text:RF_getInfo)
                             0000da92                            : RFCC26XX_multiMode.oem3 (.text:RF_requestAccess)
                             0000dab8                            : RFCC26XX_multiMode.oem3 (.text:RF_requestAccess)
                             0000dc70   drivers_cc13x0.aem3 : PINCC26XX.oem3 (.text:PINCC26XX_setIoCfg)
                             0000de98                       : CryptoCC26XX.oem3 (.text:CryptoCC26XX_open)
                             0000dea6                       : CryptoCC26XX.oem3 (.text:CryptoCC26XX_open)
                             0000e5ec   rf_multiMode_cc13x0.aem3 : RFCC26XX_multiMode.oem3 (.text:RF_swiHw)
                             0000f046   drivers_cc13x0.aem3 : PowerCC26XX.oem3 (.text:Power_releaseDependency)
                             0000f550                       : PowerCC26XX.oem3 (.text:Power_setDependency)
                             0000f60c   rf_multiMode_cc13x0.aem3 : RFCC26XX_multiMode.oem3 (.text:RF_control)
                             0000fdf2   drivers_cc13x0.aem3 : PowerCC26XX.oem3 (.text:switchXOSCHFclockFunc)
                             000103d0                       : UARTCC26XX.oem3 (.text:UARTCC26XX_writeCancel)
                             000103e6                       : UARTCC26XX.oem3 (.text:UARTCC26XX_writeCancel)
                             0001042c                       : UARTCC26XX.oem3 (.text:UARTCC26XX_writeCancel)
                             000109de                       : UARTCC26XX.oem3 (.text:UARTCC26XX_swiIntFxn)
                             00010a0e                       : UARTCC26XX.oem3 (.text:UARTCC26XX_swiIntFxn)
                             0001112e   board_led.obj (.text:board_led_blinkTimeoutCB$7)
                             00011a88   rf_multiMode_cc13x0.aem3 : RFCC26XX_multiMode.oem3 (.text:RF_issueRadioFreeCb)
                             00011aa0                            : RFCC26XX_multiMode.oem3 (.text:RF_issueRadioFreeCb)
                             00011df4   board_led.obj (.text:Board_Led_control)
                             00011f92   rf_multiMode_cc13x0.aem3 : RFCC26XX_multiMode.oem3 (.text:RF_ratFreeChannel)
                             00012858                            : RFCC26XX_multiMode.oem3 (.text:RF_yield)
                             0001288c                            : RFCC26XX_multiMode.oem3 (.text:RF_yield)
                             00012e72   drivers_cc13x0.aem3 : PowerCC26XX_calibrateRCOSC.oem3 (.text:PowerCC26XX_initiateCalibration)
                             00012f80   rf_multiMode_cc13x0.aem3 : RFCC26XX_multiMode.oem3 (.text:RF_ratDisableChannel)
                             00013382   drivers_cc13x0.aem3 : UARTCC26XX.oem3 (.text:UARTCC26XX_readCancel)
                             0001338c                       : UARTCC26XX.oem3 (.text:UARTCC26XX_readCancel)
                             000133a2                       : UARTCC26XX.oem3 (.text:UARTCC26XX_readCancel)
                             00013be4   rf_multiMode_cc13x0.aem3 : RFCC26XX_multiMode.oem3 (.text:RF_dispatchNextEvent)
                             00013c08                            : RFCC26XX_multiMode.oem3 (.text:RF_getCurrentTime)
                             00013c3e                            : RFCC26XX_multiMode.oem3 (.text:RF_getCurrentTime)
                             00013c9c   drivers_cc13x0.aem3 : UARTCC26XX.oem3 (.text:UARTCC26XX_control)
                             00014734                       : CryptoCC26XX.oem3 (.text:CryptoCC26XX_close)
                             0001527a                       : PINCC26XX.oem3 (.text:PIN_setOutputEnable)
                             000155aa                       : RingBuf.oem3 (.text:RingBuf_put)
                             000155d4                       : RingBuf.oem3 (.text:RingBuf_put)
                             00015a66                       : UART.oem3 (.text:UART_init)
                             00015ba2                       : RingBuf.oem3 (.text:RingBuf_get)
                             00015baa                       : RingBuf.oem3 (.text:RingBuf_get)
                             00015d80                       : PowerCC26XX.oem3 (.text:PowerCC26XX_isStableXOSC_HF)
                             00016582                       : PowerCC26XX.oem3 (.text:Power_releaseConstraint)
                             000165b6   rf_multiMode_cc13x0.aem3 : RFCC26XX_multiMode.oem3 (.text:RF_powerConstraintRelease)
                             000165ec                            : RFCC26XX_multiMode.oem3 (.text:RF_runDirectImmediateCmd)
                             00016b98   drivers_cc13x0.aem3 : PowerCC26XX.oem3 (.text:Power_setConstraint)
                             00016bcc   rf_multiMode_cc13x0.aem3 : RFCC26XX_multiMode.oem3 (.text:RF_queueEnd)
                             00017228   drivers_cc13x0.aem3 : CryptoCC26XX.oem3 (.text:CryptoCC26XX_releaseKey)
                             000176e6                       : List.oem3 (.text:List_remove)
                             000178da                       : List.oem3 (.text:List_get)
                             000178fe                       : List.oem3 (.text:List_insert)
                             00017920                       : List.oem3 (.text:List_put)
                             00017942                       : List.oem3 (.text:List_putHead)
                             00017bc0                       : PowerCC26XX.oem3 (.text:Power_unregisterNotify)
                             00017fe0   rf_multiMode_cc13x0.aem3 : RFCC26XX_multiMode.oem3 (.text:RF_powerConstraintSet)
                             000185ea   util.obj (.text:Util_clearEvent)
                             00018600   util.obj (.text:Util_setEvent)
                             00018652   drivers_cc13x0.aem3 : List.oem3 (.text:List_clearList)

[66 trampolines]
[191 trampoline calls]


GLOBAL SYMBOLS: SORTED ALPHABETICALLY BY Name 

address   name                                                                      
-------   ----                                                                      
00000c2c  ADCBuf_count                                                              
00000c2d  ADC_count                                                                 
20001fe0  ApiMac_appEntity                                                          
20001fec  ApiMac_extAddr                                                            
0001861d  ApiMac_mcpsDataReq                                                        
00018905  ApiMac_mlmeGetReqUint16                                                   
00018915  ApiMac_mlmeSetReqArray                                                    
0001824d  ApiMac_mlmeSetReqBool                                                     
00018265  ApiMac_mlmeSetReqUint16                                                   
0001827d  ApiMac_mlmeSetReqUint8                                                    
00018925  ApiMac_mlmeSetSecurityReqStruct                                           
20002024  AppTaskId                                                                 
000009cc  BoardGpioInitTable                                                        
0001884d  Board_Lcd_writeString                                                     
000151b5  Board_Lcd_writeStringValue                                                
00011db1  Board_Led_control                                                         
00014019  Cllc_addSecDevice                                                         
20001184  Cllc_associatedDevList                                                    
200010e6  Cllc_events                                                               
00010e6d  Cllc_init                                                                 
00000825  Cllc_keySource                                                            
00012d75  Cllc_restoreNetwork                                                       
00017e81  Cllc_securityFill                                                         
00011551  Cllc_securityInit                                                         
20001128  Cllc_statistics                                                           
00018c21  ClockP_Params_init                                                        
00014aad  ClockP_construct                                                          
00018d8f  ClockP_destruct                                                           
00018d93  ClockP_getCpuFreq                                                         
1001b6d5  ClockP_getSystemTicks                                                     
00018d97  ClockP_getTimeout                                                         
00018935  ClockP_isActive                                                           
00018d9b  ClockP_setTimeout                                                         
00018d9f  ClockP_start                                                              
00018da3  ClockP_stop                                                               
20003114  ClockP_tickPeriod                                                         
20001a94  Collector_events                                                          
20001ae4  Collector_macCallbacks                                                    
0000d841  Collector_sendConfigRequest                                               
000160a1  Collector_sendToggleLedRequest                                            
20001aa8  Collector_statistics                                                      
00018c85  CryptoCC26XX_Params_init                                                  
00018da7  CryptoCC26XX_Transac_init                                                 
000116f5  CryptoCC26XX_allocateKey                                                  
00014713  CryptoCC26XX_close                                                        
00000c48  CryptoCC26XX_config                                                       
00017639  CryptoCC26XX_hwiIntFxn                                                    
0001796d  CryptoCC26XX_init                                                         
0000de4d  CryptoCC26XX_open                                                         
00017209  CryptoCC26XX_releaseKey                                                   
00018cf5  CryptoCC26XX_transact                                                     
00018cfb  CryptoCC26XX_transactCallback                                             
00018d01  CryptoCC26XX_transactPolling                                              
20000244  Crypto_handle                                                             
0000cc59  Csf_deviceUpdate                                                          
20001668  Csf_events                                                                
0000fe11  Csf_getDevice                                                             
00011e2d  Csf_getDeviceItem                                                         
00016de5  Csf_getDeviceShort                                                        
000151fd  Csf_getNumDeviceListEntries                                               
20001666  Csf_keys                                                                  
00016965  Csf_setConfigClock                                                        
00016995  Csf_setTrackingClock                                                      
00010f01  Csf_updateFrameCounter                                                    
00000c2e  Display_count                                                             
000169c5  FHAPI_SFDRxCb                                                             
00007281  FHAPI_completeRxCb                                                        
0000a39d  FHAPI_completeTxCb                                                        
00018295  FHAPI_getBitCount                                                         
00015511  FHAPI_getRemDT                                                            
0001765d  FHAPI_getTxChHoppingFunc                                                  
0000d3cd  FHAPI_getTxParams                                                         
00005b59  FHAPI_getTxParams_old                                                     
00010311  FHAPI_reset                                                               
00007f75  FHAPI_sendData                                                            
00017e9d  FHAPI_setStateCb                                                          
00006b49  FHAPI_start                                                               
000129f5  FHAPI_startBS                                                             
000160d9  FHAPI_stopAsync                                                           
00018d07  FHDATA_asyncMinTxOffTimerCb                                               
0001061d  FHDATA_getPktFromQueue                                                    
0000ea61  FHDATA_procASYNCReq                                                       
00018d0d  FHDATA_procEDFEReq                                                        
00013219  FHDATA_purgePktFromQueue                                                  
0001429d  FHDATA_requeuePkt                                                         
00018d13  FHDATA_startEDFEReq                                                       
00004f87  FHDATA_startEDFETimer                                                     
0001798d  FHDATA_updateCCA                                                          
00012a65  FHDH1CF_getBCChannelNum                                                   
00015485  FHDH1CF_getCh                                                             
00016065  FHDH1CF_getChannelNum                                                     
000157b9  FHDH1CF_hashword                                                          
00014e6d  FHDH1CF_mapChIdxChannel                                                   
2000143c  FHFSM_Dbg                                                                 
20001480  FHIE_channelPlan                                                          
0001177f  FHIE_extractHie                                                           
000086f9  FHIE_extractPie                                                           
00005e1d  FHIE_gen                                                                  
0000c78d  FHIE_genCommonInformation                                                 
00014a09  FHIE_genExcludedChannelMask                                               
0000f985  FHIE_genExcludedChannelRanges                                             
000060dd  FHIE_genPieContent                                                        
00013a79  FHIE_getCcaSfdTime                                                        
0000feb1  FHIE_getChannelPlan                                                       
000154cb  FHIE_getCommonInformationLen                                              
00016ec9  FHIE_getExcludedChannelControl                                            
0001689d  FHIE_getHie                                                               
0000ed6d  FHIE_getLen                                                               
00016421  FHIE_getPie                                                               
0000f11d  FHIE_getPieContentLen                                                     
00014a5b  FHIE_getSubPie                                                            
00008e05  FHIE_parseCommonInformation                                               
0000d2e5  FHIE_parseHie                                                             
0000361d  FHIE_parsePie                                                             
00018d19  FHMGR_BCTimerEventUpd                                                     
0000cd49  FHMGR_bcTimerIsrCb                                                        
00017231  FHMGR_macCancelFHTimer                                                    
00018ab5  FHMGR_macGetElapsedFHTime                                                 
00014afd  FHMGR_macStartFHTimer                                                     
00018d1f  FHMGR_pendBcChUpdate                                                      
00018d25  FHMGR_pendUcChUpdate                                                      
00014b4d  FHMGR_ucTimerIsrCb                                                        
00015bb5  FHMGR_updateHopping                                                       
000106b5  FHMGR_updateRadioBCChannel                                                
00013fb9  FHMGR_updateRadioUCChannel                                                
0000ee2d  FHNT_AddDeviceCB                                                          
200013e0  FHNT_Dbg                                                                  
000142f5  FHNT_DelDeviceCB                                                          
0000d4b1  FHNT_addTempEUI                                                           
00018861  FHNT_assessTime                                                           
000157f9  FHNT_delTempIndex                                                         
00014b9d  FHNT_getEUI                                                               
000092f9  FHNT_getEntry                                                             
00010f95  FHNT_getNTIndexFromTempIndex                                              
0000c491  FHNT_getRemoveEntryFromTemp                                               
20001404  FHNT_hnd                                                                  
0000b415  FHNT_purgeTimerIsrCb                                                      
00012de1  FHNT_putEntry                                                             
200014d4  FHNT_tableOpt                                                             
200013f0  FHNT_tempTable                                                            
200015d8  FHPIB_db                                                                  
000004a0  FHPIB_defaults                                                            
00014ebd  FHPIB_get                                                                 
00017eb9  FHPIB_getIndex                                                            
00017681  FHPIB_getLen                                                              
00018631  FHPIB_reset                                                               
0000915d  FHPIB_set                                                                 
00014769  FHSM_event                                                                
00018dab  FHUTIL_assert                                                             
00018daf  FHUTIL_elapsedTime                                                        
0001434d  FHUTIL_getBitCounts                                                       
0001273d  FHUTIL_getCurBfio                                                         
00015839  FHUTIL_getCurUfsi                                                         
00018873  FHUTIL_getElapsedTime                                                     
000175a1  FHUTIL_getMaxChannels                                                     
000175c7  FHUTIL_getTxUfsi                                                          
00007b57  FHUTIL_noAction                                                           
000179ad  FHUTIL_updateUcNumChannels                                                
200013f8  FH_FSM                                                                    
0000052c  FH_PibTbl                                                                 
20001550  FH_hnd                                                                    
00000658  FH_stateMatrix                                                            
200013e8  FH_txTiming                                                               
000169f5  FSM_transaction_debug                                                     
00018945  HAL_APPASRT_callAssrtHanlder                                              
20001b4c  HEAPMGR_SIZE                                                              
000182ad  HalAesInit                                                                
000179cd  HalFlashGetAddress                                                        
00016a25  HalFlashRead                                                              
00018c2b  HalFlashWrite                                                             
00015879  HalTRNG_GetTRNG                                                           
00016111  HalTRNG_InitTRNG                                                          
00018955  HwiP_Params_init                                                          
00015b39  HwiP_construct                                                            
00018db3  HwiP_destruct                                                             
00018db7  HwiP_disable                                                              
00018dbb  HwiP_enableInterrupt                                                      
00018dbf  HwiP_post                                                                 
1001c215  HwiP_restore                                                              
00018dc3  HwiP_setFunc                                                              
00018dc7  HwiP_setPriority                                                          
00000c2f  I2C_count                                                                 
00015bf1  ICallPlatform_pwrConfigACAction                                           
000182c5  ICallPlatform_pwrDispense                                                 
00018ac3  ICallPlatform_pwrGetTransitionState                                       
00018965  ICallPlatform_pwrGetXOSCStartupTime                                       
00018ad1  ICallPlatform_pwrIsStableXOSCHF                                           
00016a55  ICallPlatform_pwrRegisterNotify                                           
000182dd  ICallPlatform_pwrRequire                                                  
00018c35  ICallPlatform_pwrSwitchXOSCHF                                             
000127b1  ICallPlatform_pwrUpdActivityCounter                                       
0001f365  ICall_createRemoteTasks                                                   
20001b50  ICall_dispatcher                                                          
0001f97f  ICall_enterCSImpl                                                         
20001b30  ICall_enterCriticalSection                                                
0001f871  ICall_heapFree                                                            
0001f275  ICall_heapMalloc                                                          
0001f9d3  ICall_leaveCSImpl                                                         
20001b34  ICall_leaveCriticalSection                                                
0001f7ad  ICall_searchServiceEntity                                                 
00018645  List_clearList                                                            
000178c1  List_get                                                                  
000178e3  List_insert                                                               
00017905  List_put                                                                  
00017927  List_putHead                                                              
000176c9  List_remove                                                               
0000e19d  MAC_CbackEvent                                                            
00018659  MAC_CbackQueryRetransmit                                                  
00017b2d  MAC_GetPHYParamReq                                                        
0000664d  MAC_McpsDataReq                                                           
00018c3f  MAC_MlmeAssociateRsp                                                      
00017281  MAC_MlmeGetPointerSecurityReq                                             
00015555  MAC_MlmeGetReq                                                            
00008a8d  MAC_MlmeGetSecurityReq                                                    
00018c49  MAC_MlmeOrphanRsp                                                         
000048a9  MAC_MlmeResetReq                                                          
0000eee9  MAC_MlmeScanReq                                                           
0000994d  MAC_MlmeSetReq                                                            
00006dc1  MAC_MlmeSetSecurityReq                                                    
00018c8d  MAC_MlmeStartReq                                                          
00018c95  MAC_MlmeSyncReq                                                           
00018c71  MAC_RandomByte                                                            
000143a5  MAC_ResumeReq                                                             
00018975  Main_assertHandler                                                        
20000818  Main_assertReason                                                         
00018d2b  Main_excHandler                                                           
200008c0  Main_user1Cfg                                                             
000172a9  NOROM_AONBatMonTemperatureGetDegC                                         
0001866d  NOROM_AONRTCCurrent64BitValueGet                                          
000182f5  NOROM_AONRTCCurrentCompareValueGet                                        
00018b17  NOROM_CPUcpsid                                                            
00018b23  NOROM_CPUcpsie                                                            
00018d31  NOROM_CPUdelay                                                            
0000e40d  NOROM_CRYPTOAesCbc                                                        
00016a85  NOROM_CRYPTOAesCbcStatus                                                  
0000fb81  NOROM_CRYPTOAesEcb                                                        
00016a85  NOROM_CRYPTOAesEcbStatus                                                  
00011029  NOROM_CRYPTOAesLoadKey                                                    
0000a0c9  NOROM_CRYPTOCcmAuthEncrypt                                                
00014bed  NOROM_CRYPTOCcmAuthEncryptResultGet                                       
00016ab5  NOROM_CRYPTOCcmAuthEncryptStatus                                          
00009f51  NOROM_CRYPTOCcmInvAuthDecrypt                                             
00011ea9  NOROM_CRYPTOCcmInvAuthDecryptResultGet                                    
00016ae5  NOROM_CRYPTOCcmInvAuthDecryptStatus                                       
00017f0d  NOROM_ChipInfo_GetChipFamily                                              
00016b15  NOROM_ChipInfo_GetChipType                                                
00015979  NOROM_ChipInfo_GetHwRevision                                              
0001830d  NOROM_ChipInfo_GetPackageType                                             
000164c1  NOROM_DDI32RegWrite                                                       
00017f29  NOROM_FlashProgram                                                        
00017f45  NOROM_FlashSectorErase                                                    
00016ef5  NOROM_OSCClockSourceGet                                                   
00013ad9  NOROM_OSCClockSourceSet                                                   
00013691  NOROM_OSCHF_AttemptToSwitchToXosc                                         
00011809  NOROM_OSCHF_GetStartupTime                                                
000164f5  NOROM_OSCHF_SwitchToRcOscTurnOffXosc                                      
00018325  NOROM_OSCHF_TurnOnXosc                                                    
00015ca5  NOROM_OSC_HPOSCRelativeFrequencyOffsetGet                                 
00018b2f  NOROM_OSC_HPOSCRelativeFrequencyOffsetToRFCoreFormatConvert               
00017b4d  NOROM_RFCAdi3VcoLdoVoltageMode                                            
0001833d  NOROM_RFCCpeIntGetAndClear                                                
00016f21  NOROM_RFCCpePatchReset                                                    
000172d1  NOROM_RFCDoorbellSendTo                                                   
00018985  NOROM_RFCHwIntGetAndClear                                                 
0000ce39  NOROM_RFCOverrideUpdate                                                   
0000df21  NOROM_RFCRfTrimRead                                                       
00018995  NOROM_RFCRfTrimSet                                                        
00015ce1  NOROM_RFCSynthPowerDown                                                   
000136f5  NOROM_SetupGetTrimForAnabypassValue1                                      
00016b45  NOROM_SetupSetAonRtcSubSecInc                                             
0000cf29  NOROM_SetupTrimDevice                                                     
00013281  NOROM_SysCtrlAdjustRechargeAfterPowerDown                                 
000074d5  NOROM_SysCtrlSetRechargeBeforePowerDown                                   
000132e9  NOROM_SysCtrl_DCDC_VoltageConditionalControl                              
00018adf  NOROM_VIMSModeGet                                                         
00015d1d  NVOCOP_compactNV                                                          
0001074d  NVOCOP_deleteItem                                                         
000159b9  NVOCOP_initNV                                                             
00016181  NVOCOP_readItem                                                           
0000e4d9  NVOCOP_writeItem                                                          
00000c30  NVS_count                                                                 
0001e000  NV_FLASH                                                                  
20002040  OSAL_timeSeconds                                                          
000189a5  PINCC26XX_getPinCount                                                     
00000c50  PINCC26XX_hwAttrs                                                         
00016f4d  PINCC26XX_setMux                                                          
00017dcd  PIN_close                                                                 
00018681  PIN_getInputValue                                                         
00008c4d  PIN_init                                                                  
000107e5  PIN_open                                                                  
00018b3b  PIN_registerIntCb                                                         
000143fd  PIN_remove                                                                
00016529  PIN_setConfig                                                             
00015245  PIN_setOutputEnable                                                       
000161b9  PIN_setOutputValue                                                        
00000c31  PWM_count                                                                 
00014075  PowerCC26XX_RCOSC_clockFunc                                               
00004f89  PowerCC26XX_auxISR                                                        
00013b39  PowerCC26XX_calibrate                                                     
00000bac  PowerCC26XX_config                                                        
000097bd  PowerCC26XX_doCalibrate                                                   
00011809  PowerCC26XX_getXoscStartupTime                                            
00012e4d  PowerCC26XX_initiateCalibration                                           
00015d59  PowerCC26XX_isStableXOSC_HF                                               
200018a4  PowerCC26XX_module                                                        
00017b6d  PowerCC26XX_schedulerDisable                                              
00017b8d  PowerCC26XX_schedulerRestore                                              
0000d595  PowerCC26XX_standbyPolicy                                                 
200030fc  PowerCC26XX_swiKey                                                        
00018dcb  PowerCC26XX_switchXOSC_HF                                                 
200030f8  PowerCC26XX_taskKey                                                       
00018b49  Power_getConstraintMask                                                   
00018b55  Power_getDependencyCount                                                  
00017deb  Power_getTransitionLatency                                                
00018b61  Power_getTransitionState                                                  
00018355  Power_idleFunc                                                            
0000bd39  Power_init                                                                
000172f9  Power_registerNotify                                                      
0001655d  Power_releaseConstraint                                                   
0000efa5  Power_releaseDependency                                                   
00016b75  Power_setConstraint                                                       
0000f4b5  Power_setDependency                                                       
00007711  Power_sleep                                                               
00017bad  Power_unregisterNotify                                                    
20002030  RFCC26XX_hwAttrs                                                          
00018695  RF_Params_init                                                            
000186a9  RF_RatConfigCompare_init                                                  
00018c9d  RF_RatConfigOutput_init                                                   
00018ca5  RF_ScheduleCmdParams_init                                                 
00014455  RF_TxPowerTable_findValue                                                 
0001836d  RF_cancelCmd                                                              
0000be4d  RF_close                                                                  
200019c8  RF_cmdFs                                                                  
200019b8  RF_cmdNop                                                                 
200019e0  RF_cmdPropCs                                                              
200019fc  RF_cmdPropCsSlotted                                                       
20001a38  RF_cmdPropRadioDivSetup                                                   
20001a60  RF_cmdPropRxAdv                                                           
20001a18  RF_cmdPropTxAdv                                                           
0000f569  RF_control                                                                
000186d1  RF_flushCmd                                                               
00018885  RF_getCmdOp                                                               
00013bf9  RF_getCurrentTime                                                         
0000c97d  RF_getInfo                                                                
00017fb5  RF_getRssi                                                                
00017321  RF_getTxPower                                                             
20001ddc  RF_handle                                                                 
00008169  RF_open                                                                   
20001dec  RF_params                                                                 
0000d019  RF_pendCmd                                                                
00018b6d  RF_powerConstraintGet                                                     
00016591  RF_powerConstraintRelease                                                 
00017fd1  RF_powerConstraintSet                                                     
000186e5  RF_ratCompare                                                             
00012f25  RF_ratDisableChannel                                                      
0000da01  RF_requestAccess                                                          
00018d3d  RF_runDirectCmd                                                           
00018d43  RF_runImmediateCmd                                                        
000068cd  RF_scheduleCmd                                                            
00014f09  RF_setTxPower                                                             
00012825  RF_yield                                                                  
000155dd  ResetISR                                                                  
00018897  RingBuf_construct                                                         
00015b77  RingBuf_get                                                               
00015599  RingBuf_put                                                               
00000c32  SD_count                                                                  
UNDEFED   SHT$$INIT_ARRAY$$Base                                                     
UNDEFED   SHT$$INIT_ARRAY$$Limit                                                    
00000c33  SPI_count                                                                 
00017349  SafeHapiVoid                                                              
00016fd1  SemaphoreP_constructBinary                                                
00018dcf  SemaphoreP_destruct                                                       
000188a9  SemaphoreP_pend                                                           
00018dd3  SemaphoreP_post                                                           
000189d5  SwiP_Params_init                                                          
00015dd1  SwiP_construct                                                            
00018dd7  SwiP_destruct                                                             
00018ddb  SwiP_disable                                                              
00018ddf  SwiP_getTrigger                                                           
00018de3  SwiP_or                                                                   
1001b5dd  SwiP_restore                                                              
00018de7  SwiP_setPriority                                                          
0001528d  Timer_construct                                                           
000189e5  Timer_isActive                                                            
00018cad  Timer_setTimeout                                                          
00018deb  Timer_start                                                               
00018def  Timer_stop                                                                
00011aad  UARTCC26XX_close                                                          
00013c59  UARTCC26XX_control                                                        
00000ad8  UARTCC26XX_fxnTable                                                       
0000a7ad  UARTCC26XX_hwiIntFxn                                                      
0001839d  UARTCC26XX_init                                                           
0000a4f9  UARTCC26XX_open                                                           
0000b07d  UARTCC26XX_read                                                           
00013351  UARTCC26XX_readCancel                                                     
00018d49  UARTCC26XX_readPolling                                                    
000109ad  UARTCC26XX_swiIntFxn                                                      
0000c38d  UARTCC26XX_write                                                          
000103ad  UARTCC26XX_writeCancel                                                    
00018d4f  UARTCC26XX_writePolling                                                   
000183b5  UART_Params_init                                                          
00000c14  UART_config                                                               
00000c34  UART_count                                                                
00000b28  UART_defaultParams                                                        
00015a39  UART_init                                                                 
00015a79  UART_open                                                                 
00018c53  UART_write                                                                
000147bd  UartPrintf_flush                                                          
00016ffd  UartPrintf_putch                                                          
00018cb5  Util_breakUint32                                                          
00018cbd  Util_buildUint16                                                          
00018aed  Util_buildUint32                                                          
000185db  Util_clearEvent                                                           
00018c5d  Util_copyExtAddr                                                          
00018d55  Util_hiUint16                                                             
000152d5  Util_itoa                                                                 
00018df3  Util_loUint16                                                             
000185f1  Util_setEvent                                                             
00000c35  Watchdog_count                                                            
00000000  __ASM__                                                                   
00000070  __ISA__                                                                   
00000082  __PLAT__                                                                  
20005000  __STACK_END                                                               
00000500  __STACK_SIZE                                                              
20005000  __STACK_TOP                                                               
000000a9  __TARG__                                                                  
00019fd8  __TI_CINIT_Base                                                           
0001a038  __TI_CINIT_Limit                                                          
00019f94  __TI_Handler_Table_Base                                                   
00019fa0  __TI_Handler_Table_Limit                                                  
00010091  __TI_auto_init                                                            
00013421  __TI_decompress_lzss                                                      
00018afb  __TI_decompress_none                                                      
ffffffff  __TI_pprof_out_hndl                                                       
ffffffff  __TI_prof_data_size                                                       
ffffffff  __TI_prof_data_start                                                      
00019b68  __TI_static_base__                                                        
00018b9d  __TI_zero_init                                                            
000000ce  __TRDR__                                                                  
00013a77  __aeabi_idiv0                                                             
00013a77  __aeabi_ldiv0                                                             
00012c95  __aeabi_ldivmod                                                           
0001854d  __aeabi_lmul                                                              
00012289  __aeabi_memclr                                                            
00012289  __aeabi_memclr4                                                           
00012289  __aeabi_memclr8                                                           
00010581  __aeabi_memcpy                                                            
00010581  __aeabi_memcpy4                                                           
00010581  __aeabi_memcpy8                                                           
0001228b  __aeabi_memset                                                            
0001228b  __aeabi_memset4                                                           
0001228b  __aeabi_memset8                                                           
00015ab9  __aeabi_uidiv                                                             
00015ab9  __aeabi_uidivmod                                                          
00010dd5  __aeabi_uldivmod                                                          
ffffffff  __binit__                                                                 
ffffffff  __c_args__                                                                
0001ffa8  __ccfg                                                                    
20004b00  __stack                                                                   
000183cd  _args_main                                                                
000155dd  _c_int00                                                                  
20002054  _lock                                                                     
0000fa2f  _nop                                                                      
00018b79  _register_lock                                                            
00018b85  _register_unlock                                                          
20002058  _unlock                                                                   
20002021  bInSwi                                                                    
ffffffff  binit                                                                     
000181e5  copyApiMacAddrToMacAddr                                                   
00014f55  copy_in                                                                   
00000c04  cryptoCC26XXHWAttrs                                                       
20002fd0  cryptoCC26XXObjects                                                       
2000020b  csmPhy                                                                    
20003121  driverlib_release_0_52354                                                 
2000071c  enhancedAckBuf                                                            
20000588  fhObject                                                                  
00000498  fhSupFrameTypes                                                           
20001c1e  fsCmdHandle                                                               
20000ce0  hUart                                                                     
00018d5b  halAssertHandler                                                          
20004b00  heapEnd                                                                   
20003128  heapStart                                                                 
0001f1e1  icall_directAPI                                                           
00015169  icall_slimMsgParser                                                       
20001c24  lastPostCmd                                                               
20002014  lastRatChanA                                                              
20002015  lastRatChanB                                                              
00019b2d  loDivider                                                                 
20001f08  macAckDbg                                                                 
20001e48  macAckTimer                                                               
20000374  macActionSet                                                              
200013dc  macAddrSize                                                               
0000b9d9  macAllocTxBuffer                                                          
0000ae05  macApiAssociateRsp                                                        
00018d61  macApiBadState                                                            
0000f61d  macApiBeaconStartReq                                                      
00008fb1  macApiDataReq                                                             
0000a8f5  macApiDisassociateReq                                                     
00013885  macApiOrphanRsp                                                           
000173c1  macApiPending                                                             
00011891  macApiPurgeReq                                                            
00010e6b  macApiPwrOnReq                                                            
000088c5  macApiScanReq                                                             
00012099  macApiStartReq                                                            
0000baf9  macApiSyncReq                                                             
0000b8b5  macApiWSAsyncReq                                                          
000001cc  macAssociatingSt                                                          
00000040  macAuthTagLen                                                             
0000b1b1  macAutoPoll                                                               
00016c35  macBcTimerHandler                                                         
20000354  macBeacon                                                                 
00018d67  macBeaconBattLifeCallback                                                 
000173e9  macBeaconCheckSched                                                       
00012305  macBeaconCheckTxTime                                                      
200004b8  macBeaconCoord                                                            
2000024c  macBeaconCoordAction1                                                     
00017c2d  macBeaconCoordReset                                                       
20000418  macBeaconDevice                                                           
20000268  macBeaconDeviceAction                                                     
00017081  macBeaconInit                                                             
20000334  macBeaconMargin                                                           
2000044c  macBeaconPayload                                                          
0001455d  macBeaconPeriodCallback                                                   
00014d2d  macBeaconPrepareCallback                                                  
00015e85  macBeaconRequeue                                                          
00017735  macBeaconReset                                                            
00017411  macBeaconSetPrepareTime                                                   
0000dae1  macBeaconSetSched                                                         
00012ad5  macBeaconSetupCap                                                         
0000bc19  macBeaconStartContinue                                                    
00015365  macBeaconStartFrameResponseTimer                                          
0001662d  macBeaconStopTrack                                                        
0000fa31  macBeaconSyncLoss                                                         
00014811  macBeaconTxCallback                                                       
00018d6d  macBroadcastPendCallback                                                  
0000834d  macBuildBeacon                                                            
0000f28d  macBuildBeaconNotifyInd                                                   
00007b59  macBuildCommonReq                                                         
00003e0d  macBuildHeader                                                            
0000e809  macBuildHeaderIes                                                         
00009ad5  macBuildPayloadIes                                                        
00010a45  macBuildRealign                                                           
00013a15  macBuildWSAsyncMsg                                                        
0000005d  macCbackEventTbl                                                          
00011151  macCbackForEvent                                                          
000111e5  macCcmDecrypt                                                             
00011669  macCcmEncrypt                                                             
00011279  macCcmStarInverseTransform                                                
0000e8d1  macCcmStarTransform                                                       
20001ff4  macCfg                                                                    
000181ff  macCheckPhyMode                                                           
00015ec1  macCheckPhyRate                                                           
000189f5  macCheckSched                                                             
00012303  macClientSwitchCb                                                         
00000069  macCmdBufSize                                                             
000000ac  macCmdIncludeFHIe                                                         
00000048  macCmdLen                                                                 
0000dc9d  macCommStatusInd                                                          
00018041  macConflictSyncLossInd                                                    
200003c0  macCoord                                                                  
20000254  macCoordAction1                                                           
200002fc  macCoordAction2                                                           
20000278  macCoordAction3                                                           
00017439  macCoordAddrCmp                                                           
0000f345  macCoordReset                                                             
00019b30  macCryptoDriverTable                                                      
20000248  macCryptoDrvTblPtr                                                        
20001f04  macCsmaRtcTimerId                                                         
00018ccd  macCsmaTimerExpiry                                                        
20000288  macData                                                                   
2000022c  macDataBeaconRequeue                                                      
20000224  macDataCheckSched                                                         
20000228  macDataCheckTxTime                                                        
20000214  macDataRequeueIndirect                                                    
20000218  macDataRxBeaconCritical                                                   
00016661  macDataRxInd                                                              
00017c4d  macDataRxMemAlloc                                                         
00018ba9  macDataRxMemFree                                                          
00017c6d  macDataSend                                                               
20000220  macDataSetSched                                                           
2000021c  macDataTxBeaconComplete                                                   
00010add  macDataTxComplete                                                         
20000298  macDataTxDelay                                                            
0000e999  macDataTxEnqueue                                                          
20000210  macDataTxIndirect                                                         
0000dd75  macDataTxSend                                                             
00018749  macDataTxTimeAvailable                                                    
200003ec  macDevice                                                                 
20000480  macDeviceAction1                                                          
200002a8  macDeviceAction2                                                          
00012ffd  macDisassocComplete                                                       
00013069  macExecute                                                                
000146bd  macFrameDuration                                                          
000146bd  macFrameDurationSubG                                                      
20001c64  macFrmFilter                                                              
20002018  macFsCmdActive                                                            
00017461  macGetCoordAddress                                                        
00018445  macGetMyAddrMode                                                          
00017759  macGetRadioState                                                          
00014fed  macGetRadioTxPowerReg                                                     
00018d73  macHalAssertHandler                                                       
000008d4  macIdleSt                                                                 
00007935  macIncomingFrameSecurityMaterialRetrieval                                 
0000e671  macIndirectExpire                                                         
00010b75  macIndirectMark                                                           
00015039  macIndirectRequeueFrame                                                   
0000d679  macIndirectSend                                                           
00013d19  macIndirectTxFrame                                                        
00018bb5  macIsCsmOperational                                                       
000126c5  macKeyDescriptorLookup                                                    
0000003c  macKeySourceLen                                                           
00018219  macLowLevelDiags                                                          
0001394d  macLowLevelReset                                                          
2000067c  macMRFSKGenPhyTable                                                       
00016c65  macMRFSKGetPhyDesc                                                        
00000124  macMRFSKStdPhyTable                                                       
2000025c  macMain                                                                   
0001875d  macMainReserve                                                            
00011919  macMcuBitReverse                                                          
0001273b  macMcuInit                                                                
00018771  macMcuOverflowCapture                                                     
00012899  macMcuOverflowSetCompare                                                  
0001290d  macMcuOverflowSetPeriod                                                   
00018c71  macMcuRandomByte                                                          
0001805d  macMcuTimerCapture                                                        
20000209  macMgmt                                                                   
20000398  macMgmtAction1                                                            
200002d0  macMgmtAction2                                                            
00012d03  macNoAction                                                               
0000e73d  macOutgoingFrameKeyDescRetrieval                                          
2000020a  macPanCoordinator                                                         
20001d0f  macPhyChannel                                                             
20001de0  macPhyTxPower                                                             
200005f4  macPib                                                                    
00000318  macPibDefaults                                                            
00017e27  macPibIndex                                                               
000170ad  macPibReset                                                               
000003a0  macPibTbl                                                                 
0000023a  macPollingSt                                                              
20001f9c  macPrevPeriodRatCount                                                     
20003122  macPwr                                                                    
00005885  macPwrVote                                                                
20001e40  macRadioAckFrame                                                          
00018df7  macRadioComputeLQI                                                        
0000a655  macRadioCsmaTxCb                                                          
00004521  macRadioInit                                                              
00004521  macRadioInitSubG                                                          
0000dff5  macRadioLbtTxCb                                                           
00018a05  macRadioPowerCtrlFEM                                                      
00018c71  macRadioRandomByte                                                        
00014d7d  macRadioSetChannel                                                        
0001845d  macRadioSetIEEEAddr                                                       
000170d9  macRadioSetPanCoordinator                                                 
00018785  macRadioSetPanID                                                          
00018079  macRadioSetRE                                                             
00018475  macRadioSetShortAddr                                                      
000188bb  macRadioSetTxPower                                                        
00017489  macRadioStopScan                                                          
00017c8d  macRadioSwInit                                                            
00013d79  macRadioTxBackoffBoundary                                                 
00018bc1  macRadioTxCancelAckTimeout                                                
00018bcd  macRadioTxCancelTxAck                                                     
000055a1  macRadioTxGo                                                              
0000d109  macRadioTxPrepCsmaSlottedSubG                                             
0000ca71  macRadioTxPrepCsmaUnslotted                                               
0000ca71  macRadioTxPrepCsmaUnslottedSubG                                           
000104e5  macRadioTxPrepLbt                                                         
0001777d  macRadioTxRequestTxAck                                                    
000123f5  macRadioUpdateChannel                                                     
00012115  macRadioUpdateChannelRx                                                   
00012191  macRadioUpdateTxPower                                                     
0001412d  macRadioWakeupCb                                                          
20002022  macRadioYielded                                                           
0000e0c9  macRatCb_A                                                                
0000c591  macRatCb_B                                                                
2000201c  macReqAccErrCnt                                                           
2000201a  macReqAccessCnt                                                           
20001c18  macReqAccessTimeCnt                                                       
20000318  macReset                                                                  
00019a1c  macRfDriverTable                                                          
20001c38  macRfDrvTblPtr                                                            
00018095  macRxAckTxDoneCallback                                                    
20003123  macRxActive                                                               
000153ad  macRxAssociateReq                                                         
00010c0d  macRxBeacon                                                               
00009c59  macRxBeaconCritical                                                       
00017cad  macRxBeaconReq                                                            
20002016  macRxCmdActive                                                            
2000305c  macRxDataEntryOffset                                                      
20003070  macRxDataEntryQueue                                                       
00011bb1  macRxDataReq                                                              
00015efd  macRxDisable                                                              
000138e9  macRxDisassoc                                                             
00018a15  macRxEnable                                                               
20003124  macRxEnableFlags                                                          
20003050  macRxFilter                                                               
00013dd9  macRxHaltCleanup                                                          
000174b1  macRxHardDisable                                                          
00015085  macRxNokIsr                                                               
00017ccd  macRxOff                                                                  
000145b5  macRxOffRequest                                                           
00013559  macRxOn                                                                   
0001848d  macRxOnRequest                                                            
00016c95  macRxOrphan                                                               
20003125  macRxOutgoingAckFlag                                                      
20001c58  macRxOutputSubG                                                           
00018799  macRxPanConflict                                                          
000177a1  macRxSoftDisable                                                          
00017ced  macRxSoftEnable                                                           
20000534  macScan                                                                   
200002e4  macScanAction                                                             
00016901  macScanCnfInit                                                            
00013e39  macScanComplete                                                           
00017e45  macScanFailedInProgress                                                   
0000d1f9  macScanNextChan                                                           
0000e26d  macScanRxBeacon                                                           
0001220d  macScanStartTimer                                                         
00000942  macScanningSt                                                             
00018d79  macSecCpy                                                                 
200004f4  macSecurityPib                                                            
000188cd  macSecurityPibIndex                                                       
00000174  macSecurityPibTbl                                                         
0000e33d  macSendDataMsg                                                            
0000ebe9  macSendFsCmd                                                              
000130d5  macSendMsg                                                                
00000094  macSendMsgBufSize                                                         
00000051  macSendMsgDataSize                                                        
0000b2e5  macSendReceiveCmdSubG                                                     
0000cb65  macSetDefaultsByPhyID                                                     
00018a35  macSetEvent                                                               
00018a25  macSetEvent16                                                             
00018c7b  macSetSched                                                               
000162d1  macSetUserConfig                                                          
000153f5  macSetupFsCmd                                                             
0000c06d  macSetupRATChanCompare                                                    
00015665  macSetupReceiveCmd                                                        
20001c28  macSfdDetectCback                                                         
20001f98  macSpecUsecsPerSymbol                                                     
00008525  macStackEventLoop                                                         
00016695  macStartBeaconPrepareCallback                                             
0000ecad  macStartBegin                                                             
000166c9  macStartBroadcastPendTimer                                                
000174d9  macStartComplete                                                          
00015f39  macStartContinue                                                          
0000f82d  macStartSetParams                                                         
000002a8  macStartingSt                                                             
000184a5  macStateIdleOrPolling                                                     
000187ad  macStateScanning                                                          
200002bc  macStateTbl                                                               
000156a9  macStopCmd                                                                
00016309  macSymbolTimerCount                                                       
20003126  macSymbolTimerImpending                                                   
0001394d  macSymbolTimerInit                                                        
00015f75  macSymbolTimerRealignSubG                                                 
0001394d  macSymbolTimerReset                                                       
000184bd  macSymbolTimerRestore                                                     
20001fa0  macSymbolTimerRollover                                                    
00014dcd  macSymbolTimerSetRollover                                                 
00015fb1  macSymbolTimerSetTrigger                                                  
000180cd  macSymbolTimerSetTriggerRollover                                          
20001fa4  macSymbolTimerTrigger                                                     
00014865  macSyncTimeoutCallback                                                    
20000208  macTaskId                                                                 
20003118  macTasksEvents                                                            
000180e9  macTimer                                                                  
20000240  macTimerActive                                                            
0001460d  macTimerAddTimer                                                          
000177c5  macTimerAligned                                                           
00011c31  macTimerCancel                                                            
00016309  macTimerGetTime                                                           
000184d5  macTimerInit                                                              
2000023c  macTimerNewRollover                                                       
000166fd  macTimerRecalcUnaligned                                                   
00017e63  macTimerRemoveTimer                                                       
20000238  macTimerRollover                                                          
000000e4  macTimerRolloverValue                                                     
00016cf5  macTimerSetRollover                                                       
00014665  macTimerUpdateSymbolTimer                                                 
00014189  macTrackPeriodCallback                                                    
000148b9  macTrackStartCallback                                                     
0001246d  macTrackTimeoutCallback                                                   
000184ed  macTxAbortIsr                                                             
00018095  macTxAckIsr                                                               
0001511d  macTxAckNotReceivedCallback                                               
00012b45  macTxAckReceivedCallback                                                  
20003127  macTxActive                                                               
20001efa  macTxBe                                                                   
0000ab81  macTxBeaconCompleteCallback                                               
0000f6d1  macTxChannelBusyCallback                                                  
20002017  macTxCmdActive                                                            
00009dd5  macTxCompleteCallback                                                     
20001f00  macTxCsmaBackoffDelay                                                     
0000a239  macTxCsmaDelay                                                            
00016731  macTxDecrypt                                                              
00009629  macTxFrame                                                                
00000085  macTxFrameFailed                                                          
0000f061  macTxFrameIsr                                                             
00000077  macTxFrameSuccess                                                         
00019b58  macTxPwrTbl                                                               
00017501  macTxRequestCsmaRtcDelay                                                  
20001d0c  macTxSlottedDelay                                                         
20001ef8  macTxSlottedDelayFactor                                                   
20001c30  macTxTimestamp                                                            
20001ef9  macTxType                                                                 
00016765  macTxUpdateIE                                                             
20001d0d  macUnitBackoffPeriod                                                      
0001490d  macUpdatePayloadIEPtr                                                     
20000840  macUser0Cfg                                                               
000187c1  macWSAsyncCnf                                                             
00018505  macWrapper8ByteUnused                                                     
00003a79  macWrapperAddDevice                                                       
00009491  macWrapperAddKeyInitFCtr                                                  
000156ed  mac_msg_deallocate                                                        
000124e5  main                                                                      
200020cc  main_func_sp                                                              
000177e9  memcmp                                                                    
00010581  memcpy                                                                    
00012291  memset                                                                    
00000bdc  msacbackSizeTable                                                         
20000870  myTask                                                                    
2000091c  myTaskStack                                                               
2000201e  numRfCmd                                                                  
2000201f  numRxCmd                                                                  
20002020  numRxPostCmd                                                              
00016d25  osal_alien2proxy                                                          
20001e09  osal_entity                                                               
20001e14  osal_eventloop_hook                                                       
20001e18  osal_icallMsg_hook                                                        
20001e20  osal_last_timestamp                                                       
20001e28  osal_max_msecs                                                            
00017529  osal_mem_alloc                                                            
000179ed  osal_mem_free                                                             
00017d0d  osal_memcmp                                                               
0001851d  osal_memcpy                                                               
00018e03  osal_memset                                                               
0001780d  osal_msg_allocate                                                         
000188df  osal_msg_deallocate                                                       
00016341  osal_msg_dequeue                                                          
000167cd  osal_msg_enqueue                                                          
00015fed  osal_msg_extract                                                          
00017d2d  osal_msg_push                                                             
000119a1  osal_msg_receive                                                          
00013e99  osal_msg_send                                                             
00017551  osal_next_timeout                                                         
0001255d  osal_pwrmgr_task_state                                                    
20001e10  osal_qHead                                                                
00018bd9  osal_self                                                                 
20001e1c  osal_semaphore                                                            
0000fcc9  osal_set_event                                                            
00006395  osal_start_system                                                         
00018e07  osal_strlen                                                               
20001e24  osal_tickperiod                                                           
2000202c  pMacCbackCheckPending                                                     
20002028  pMacCbackQueryRetransmit                                                  
2000020c  pMacDataTx                                                                
20001e3c  pMacEnhancedAck                                                           
20001c34  pMacRadioConfig                                                           
20001c48  pMacRfAntPwrSel                                                           
20001c44  pMacRfAntSwitchSel                                                        
2000205c  pOverridesTable                                                           
20001c3c  pRfPropTable                                                              
20001c40  pRfPropTableOld                                                           
20001828  pinHandleTable                                                            
20001794  pinLowerBound                                                             
20001790  pinUpperBound                                                             
200020c6  pwrmgr_attribute                                                          
200020c4  pwrmgr_initialized                                                        
20001c19  reqAccessAlloc                                                            
00000a00  resourceDB                                                                
20002004  rfPatchTable                                                              
20001c1c  rxCmdHandle                                                               
20001d0e  rxFhRsl                                                                   
20003051  rxPromiscuousMode                                                         
20003064  rxRadioBufferPtr                                                          
00017131  sAddrCmp                                                                  
000187e9  sAddrCpy                                                                  
000181ad  sAddrExtCmp                                                               
00018d7f  sAddrExtCpy                                                               
20001667  savedCllcState                                                            
20002048  sector_addr                                                               
00002cb9  startup_entry                                                             
00018811  strlen                                                                    
00001e85  taskFxn                                                                   
00000c64  tasksArr                                                                  
200001a4  ti_sysbios_BIOS_Module__state__V                                          
1001bc25  ti_sysbios_BIOS_RtsGateProxy_Handle__label__S                             
1001bc25  ti_sysbios_BIOS_RtsGateProxy_Handle__label__S__mangled__                  
1001bab5  ti_sysbios_BIOS_RtsGateProxy_Object__delete__S                            
1001c175  ti_sysbios_BIOS_RtsGateProxy_Params__init__S                              
1001c175  ti_sysbios_BIOS_RtsGateProxy_Params__init__S__mangled__                   
1001c245  ti_sysbios_BIOS_RtsGateProxy_enter__E                                     
1001c249  ti_sysbios_BIOS_RtsGateProxy_leave__E                                     
1001c271  ti_sysbios_BIOS_RtsGateProxy_query__E                                     
1001c271  ti_sysbios_BIOS_RtsGateProxy_query__E__mangled__                          
00016d85  ti_sysbios_BIOS_atExitFunc__I                                             
00018607  ti_sysbios_BIOS_exitFunc__I                                               
1001c031  ti_sysbios_BIOS_exit__E                                                   
1001bff5  ti_sysbios_BIOS_getCpuFreq__E                                             
00018be5  ti_sysbios_BIOS_getThreadType__E                                          
00014017  ti_sysbios_BIOS_linkedWithIncorrectBootLibrary__E                         
00014767  ti_sysbios_BIOS_nullFunc__I                                               
00017855  ti_sysbios_BIOS_registerRTSLock__I                                        
00017879  ti_sysbios_BIOS_removeRTSLock__I                                          
00017d4d  ti_sysbios_BIOS_rtsLock__I                                                
00018565  ti_sysbios_BIOS_rtsUnlock__I                                              
1001c041  ti_sysbios_BIOS_setThreadType__E                                          
00016db5  ti_sysbios_BIOS_startFunc__I                                              
1001c051  ti_sysbios_BIOS_start__E                                                  
0000cf29  ti_sysbios_family_arm_cc26xx_Boot_trimDevice                              
00001406  ti_sysbios_family_arm_cc26xx_Timer_Module__id__C                          
1001bb45  ti_sysbios_family_arm_cc26xx_Timer_Module__startupDone__S                 
200001e4  ti_sysbios_family_arm_cc26xx_Timer_Module__state__V                       
1001ba6d  ti_sysbios_family_arm_cc26xx_Timer_Module_startup__E                      
20001d10  ti_sysbios_family_arm_cc26xx_Timer_Object__table__V                       
00017d6d  ti_sysbios_family_arm_cc26xx_Timer_dynamicStub__E                         
00000c68  ti_sysbios_family_arm_cc26xx_Timer_funcHookCH1__C                         
00000c6c  ti_sysbios_family_arm_cc26xx_Timer_funcHookCH2__C                         
00018e0f  ti_sysbios_family_arm_cc26xx_Timer_getCount64__E                          
000163b1  ti_sysbios_family_arm_cc26xx_Timer_getCurrentTick__E                      
1001c24d  ti_sysbios_family_arm_cc26xx_Timer_getExpiredTicks__E                     
0001789d  ti_sysbios_family_arm_cc26xx_Timer_getMaxTicks__E                         
1001c251  ti_sysbios_family_arm_cc26xx_Timer_getPeriod__E                           
00016835  ti_sysbios_family_arm_cc26xx_Timer_initDevice__I                          
1001a465  ti_sysbios_family_arm_cc26xx_Timer_periodicStub__E                        
1001b765  ti_sysbios_family_arm_cc26xx_Timer_postInit__I                            
00016933  ti_sysbios_family_arm_cc26xx_Timer_setNextTick__E                         
1001c255  ti_sysbios_family_arm_cc26xx_Timer_setPeriod__E                           
00015af9  ti_sysbios_family_arm_cc26xx_Timer_setThreshold__I                        
000114c1  ti_sysbios_family_arm_cc26xx_Timer_start__E                               
00001384  ti_sysbios_family_arm_cc26xx_Timer_startupNeeded__C                       
1001b791  ti_sysbios_family_arm_cc26xx_Timer_startup__E                             
200001ec  ti_sysbios_family_arm_cc26xx_TimestampProvider_Module__state__V           
1001bb65  ti_sysbios_family_arm_cc26xx_TimestampProvider_Module_startup__E          
00018b09  ti_sysbios_family_arm_cc26xx_TimestampProvider_get32__E                   
1001b9cd  ti_sysbios_family_arm_cc26xx_TimestampProvider_get64__E                   
1001c12b  ti_sysbios_family_arm_cc26xx_TimestampProvider_getFreq__E                 
00001408  ti_sysbios_family_arm_cc26xx_TimestampProvider_useClockTimer__C           
00001388  ti_sysbios_family_arm_m3_Hwi_E_alreadyDefined__C                          
0000138c  ti_sysbios_family_arm_m3_Hwi_E_hwiLimitExceeded__C                        
1001aed1  ti_sysbios_family_arm_m3_Hwi_Instance_finalize__E                         
1001a3c5  ti_sysbios_family_arm_m3_Hwi_Instance_init__E                             
200020dc  ti_sysbios_family_arm_m3_Hwi_Module_State_0_excActive__A                  
200020d0  ti_sysbios_family_arm_m3_Hwi_Module_State_0_excContext__A                 
200020d4  ti_sysbios_family_arm_m3_Hwi_Module_State_0_excStack__A                   
0000140a  ti_sysbios_family_arm_m3_Hwi_Module__id__C                                
20002064  ti_sysbios_family_arm_m3_Hwi_Module__root__V                              
1001bb85  ti_sysbios_family_arm_m3_Hwi_Module__startupDone__S                       
20000144  ti_sysbios_family_arm_m3_Hwi_Module__state__V                             
1001b1c1  ti_sysbios_family_arm_m3_Hwi_Module_startup__E                            
00001390  ti_sysbios_family_arm_m3_Hwi_NUM_INTERRUPTS__C                            
000011d0  ti_sysbios_family_arm_m3_Hwi_Object__DESC__C                              
00001070  ti_sysbios_family_arm_m3_Hwi_Object__PARAMS__C                            
00001394  ti_sysbios_family_arm_m3_Hwi_Object__count__C                             
1001aab1  ti_sysbios_family_arm_m3_Hwi_Object__create__S                            
1001bba5  ti_sysbios_family_arm_m3_Hwi_Object__delete__S                            
1001be65  ti_sysbios_family_arm_m3_Hwi_Object__destruct__S                          
1001b7bd  ti_sysbios_family_arm_m3_Hwi_Object__get__S                               
00001398  ti_sysbios_family_arm_m3_Hwi_Object__table__C                             
20001fb0  ti_sysbios_family_arm_m3_Hwi_Object__table__V                             
1001c139  ti_sysbios_family_arm_m3_Hwi_Params__init__S                              
0000139c  ti_sysbios_family_arm_m3_Hwi_ccr__C                                       
1001af29  ti_sysbios_family_arm_m3_Hwi_construct                                    
00016029  ti_sysbios_family_arm_m3_Hwi_construct2__E                                
1001ab15  ti_sysbios_family_arm_m3_Hwi_create                                       
1001c259  ti_sysbios_family_arm_m3_Hwi_delete                                       
1001c25d  ti_sysbios_family_arm_m3_Hwi_destruct                                     
1001c145  ti_sysbios_family_arm_m3_Hwi_disableFxn__E                                
1001b251  ti_sysbios_family_arm_m3_Hwi_disableInterrupt__E                          
1001aa49  ti_sysbios_family_arm_m3_Hwi_dispatchC__I                                 
20002f08  ti_sysbios_family_arm_m3_Hwi_dispatchTable                                
1001c899  ti_sysbios_family_arm_m3_Hwi_dispatch__I                                  
1001c1f7  ti_sysbios_family_arm_m3_Hwi_doSwiRestore__I                              
1001c20f  ti_sysbios_family_arm_m3_Hwi_doTaskRestore__I                             
1001c151  ti_sysbios_family_arm_m3_Hwi_enableFxn__E                                 
1001b295  ti_sysbios_family_arm_m3_Hwi_enableInterrupt__E                           
1001c9fd  ti_sysbios_family_arm_m3_Hwi_excHandlerAsm__I                             
000013a0  ti_sysbios_family_arm_m3_Hwi_excHandlerFunc__C                            
1001bbc5  ti_sysbios_family_arm_m3_Hwi_excHandler__I                                
1001b461  ti_sysbios_family_arm_m3_Hwi_getStackInfo__E                              
1001a695  ti_sysbios_family_arm_m3_Hwi_initNVIC__E                                  
1001c9b5  ti_sysbios_family_arm_m3_Hwi_initStacks__E                                
000013a4  ti_sysbios_family_arm_m3_Hwi_nullIsrFunc__C                               
000013a8  ti_sysbios_family_arm_m3_Hwi_numSparseInterrupts__C                       
e000e000  ti_sysbios_family_arm_m3_Hwi_nvic                                         
1001ca3b  ti_sysbios_family_arm_m3_Hwi_pendSV__I                                    
1001c061  ti_sysbios_family_arm_m3_Hwi_plug__E                                      
1001a315  ti_sysbios_family_arm_m3_Hwi_postInit__I                                  
00018a55  ti_sysbios_family_arm_m3_Hwi_post__E                                      
000013ac  ti_sysbios_family_arm_m3_Hwi_priGroup__C                                  
20000000  ti_sysbios_family_arm_m3_Hwi_ramVectors                                   
00000000  ti_sysbios_family_arm_m3_Hwi_resetVectors                                 
1001c215  ti_sysbios_family_arm_m3_Hwi_restoreFxn__E                                
1001ca53  ti_sysbios_family_arm_m3_Hwi_return                                       
00018d85  ti_sysbios_family_arm_m3_Hwi_setFunc__E                                   
1001be81  ti_sysbios_family_arm_m3_Hwi_setPriority__E                               
1001c1ff  ti_sysbios_family_arm_m3_Hwi_startup__E                                   
00000c70  ti_sysbios_family_arm_m3_Hwi_swiDisable__C                                
00000c74  ti_sysbios_family_arm_m3_Hwi_swiRestoreHwi__C                             
1001c009  ti_sysbios_family_arm_m3_Hwi_switchFromBootStack__E                       
1001c261  ti_sysbios_family_arm_m3_TaskSupport_Module__startupDone__S               
1001c969  ti_sysbios_family_arm_m3_TaskSupport_buildTaskStack                       
1001c15d  ti_sysbios_family_arm_m3_TaskSupport_getStackAlignment__E                 
1001ca55  ti_sysbios_family_arm_m3_TaskSupport_glue                                 
000013b0  ti_sysbios_family_arm_m3_TaskSupport_stackAlignment__C                    
1001b499  ti_sysbios_family_arm_m3_TaskSupport_start__E                             
1001ca65  ti_sysbios_family_arm_m3_TaskSupport_swap__E                              
1001ca1d  ti_sysbios_family_xxx_Hwi_switchAndRunFunc                                
1001bbe5  ti_sysbios_gates_GateHwi_Handle__label__S                                 
1001b45f  ti_sysbios_gates_GateHwi_Instance_init__E                                 
0000111c  ti_sysbios_gates_GateHwi_Module__FXNS__C                                  
0000140c  ti_sysbios_gates_GateHwi_Module__id__C                                    
2000206c  ti_sysbios_gates_GateHwi_Module__root__V                                  
000011f0  ti_sysbios_gates_GateHwi_Object__DESC__C                                  
00001330  ti_sysbios_gates_GateHwi_Object__PARAMS__C                                
1001ba91  ti_sysbios_gates_GateHwi_Object__create__S                                
1001bc05  ti_sysbios_gates_GateHwi_Object__delete__S                                
1001c169  ti_sysbios_gates_GateHwi_enter__E                                         
1001c21b  ti_sysbios_gates_GateHwi_leave__E                                         
1001c265  ti_sysbios_gates_GateHwi_query__E                                         
1001bc25  ti_sysbios_gates_GateMutex_Handle__label__S                               
000014d0  ti_sysbios_gates_GateMutex_Instance_State_sem__O                          
1001c071  ti_sysbios_gates_GateMutex_Instance_finalize__E                           
1001be9d  ti_sysbios_gates_GateMutex_Instance_init__E                               
00001140  ti_sysbios_gates_GateMutex_Module__FXNS__C                                
0000140e  ti_sysbios_gates_GateMutex_Module__id__C                                  
20002074  ti_sysbios_gates_GateMutex_Module__root__V                                
00001210  ti_sysbios_gates_GateMutex_Object__DESC__C                                
00001348  ti_sysbios_gates_GateMutex_Object__PARAMS__C                              
1001b645  ti_sysbios_gates_GateMutex_Object__create__S                              
1001bab5  ti_sysbios_gates_GateMutex_Object__delete__S                              
1001bc45  ti_sysbios_gates_GateMutex_Object__destruct__S                            
20001d9c  ti_sysbios_gates_GateMutex_Object__table__V                               
1001c175  ti_sysbios_gates_GateMutex_Params__init__S                                
1001b7e9  ti_sysbios_gates_GateMutex_construct                                      
1001b675  ti_sysbios_gates_GateMutex_create                                         
1001c269  ti_sysbios_gates_GateMutex_delete                                         
1001c26d  ti_sysbios_gates_GateMutex_destruct                                       
1001b6a5  ti_sysbios_gates_GateMutex_enter__E                                       
1001bf99  ti_sysbios_gates_GateMutex_leave__E                                       
1001c271  ti_sysbios_gates_GateMutex_query__E                                       
1001c275  ti_sysbios_hal_Hwi_HwiProxy_Module__startupDone__S                        
1001bb85  ti_sysbios_hal_Hwi_HwiProxy_Module__startupDone__S__mangled__             
1001c081  ti_sysbios_hal_Hwi_HwiProxy_Object__create__S                             
1001bba5  ti_sysbios_hal_Hwi_HwiProxy_Object__delete__S                             
1001c139  ti_sysbios_hal_Hwi_HwiProxy_Params__init__S                               
1001c139  ti_sysbios_hal_Hwi_HwiProxy_Params__init__S__mangled__                    
1001be45  ti_sysbios_hal_Hwi_HwiProxy_create                                        
1001c279  ti_sysbios_hal_Hwi_HwiProxy_delete                                        
1001c27d  ti_sysbios_hal_Hwi_HwiProxy_disableInterrupt__E                           
1001b251  ti_sysbios_hal_Hwi_HwiProxy_disableInterrupt__E__mangled__                
1001c281  ti_sysbios_hal_Hwi_HwiProxy_enableInterrupt__E                            
1001b295  ti_sysbios_hal_Hwi_HwiProxy_enableInterrupt__E__mangled__                 
1001c285  ti_sysbios_hal_Hwi_HwiProxy_getStackInfo__E                               
1001b461  ti_sysbios_hal_Hwi_HwiProxy_getStackInfo__E__mangled__                    
00018a55  ti_sysbios_hal_Hwi_HwiProxy_post__E                                       
1001c289  ti_sysbios_hal_Hwi_HwiProxy_startup__E                                    
1001c1ff  ti_sysbios_hal_Hwi_HwiProxy_startup__E__mangled__                         
1001c28d  ti_sysbios_hal_Hwi_HwiProxy_switchFromBootStack__E                        
1001c009  ti_sysbios_hal_Hwi_HwiProxy_switchFromBootStack__E__mangled__             
1001c1ed  ti_sysbios_hal_Hwi_Instance_finalize__E                                   
1001b9f5  ti_sysbios_hal_Hwi_Instance_init__E                                       
2000207c  ti_sysbios_hal_Hwi_Module__root__V                                        
1001c01d  ti_sysbios_hal_Hwi_Module_startup__E                                      
00001230  ti_sysbios_hal_Hwi_Object__DESC__C                                        
000010a0  ti_sysbios_hal_Hwi_Object__PARAMS__C                                      
1001bc65  ti_sysbios_hal_Hwi_Object__delete__S                                      
00018bf1  ti_sysbios_hal_Hwi_Params__init__S                                        
1001ab79  ti_sysbios_hal_Hwi_create                                                 
1001c291  ti_sysbios_hal_Hwi_delete                                                 
1001c27d  ti_sysbios_hal_Hwi_disableInterrupt__E                                    
1001c27d  ti_sysbios_hal_Hwi_disableInterrupt__E                                    
1001c281  ti_sysbios_hal_Hwi_enableInterrupt__E                                     
1001c281  ti_sysbios_hal_Hwi_enableInterrupt__E                                     
1001c285  ti_sysbios_hal_Hwi_getStackInfo__E                                        
1001c285  ti_sysbios_hal_Hwi_getStackInfo__E                                        
1001b815  ti_sysbios_hal_Hwi_initStack                                              
00018a55  ti_sysbios_hal_Hwi_post__E                                                
1001c289  ti_sysbios_hal_Hwi_startup__E                                             
1001c289  ti_sysbios_hal_Hwi_startup__E                                             
1001c295  ti_sysbios_hal_Hwi_switchFromBootStack__E                                 
1001c295  ti_sysbios_hal_Hwi_switchFromBootStack__E                                 
000013b4  ti_sysbios_heaps_HeapMem_E_memory__C                                      
1001bc85  ti_sysbios_heaps_HeapMem_Handle__label__S                                 
200020e0  ti_sysbios_heaps_HeapMem_Instance_State_0_buf__A                          
1001b4d1  ti_sysbios_heaps_HeapMem_Instance_init__E                                 
1001bc25  ti_sysbios_heaps_HeapMem_Module_GateProxy_Handle__label__S                
1001bc25  ti_sysbios_heaps_HeapMem_Module_GateProxy_Handle__label__S__mangled__     
1001bab5  ti_sysbios_heaps_HeapMem_Module_GateProxy_Object__delete__S               
1001c175  ti_sysbios_heaps_HeapMem_Module_GateProxy_Params__init__S                 
1001c175  ti_sysbios_heaps_HeapMem_Module_GateProxy_Params__init__S__mangled__      
1001c299  ti_sysbios_heaps_HeapMem_Module_GateProxy_enter__E                        
1001c29d  ti_sysbios_heaps_HeapMem_Module_GateProxy_leave__E                        
1001c271  ti_sysbios_heaps_HeapMem_Module_GateProxy_query__E                        
1001c271  ti_sysbios_heaps_HeapMem_Module_GateProxy_query__E__mangled__             
000010cc  ti_sysbios_heaps_HeapMem_Module__FXNS__C                                  
000013b8  ti_sysbios_heaps_HeapMem_Module__gateObj__C                               
00001410  ti_sysbios_heaps_HeapMem_Module__id__C                                    
20002084  ti_sysbios_heaps_HeapMem_Module__root__V                                  
00001250  ti_sysbios_heaps_HeapMem_Object__DESC__C                                  
00001164  ti_sysbios_heaps_HeapMem_Object__PARAMS__C                                
000013bc  ti_sysbios_heaps_HeapMem_Object__count__C                                 
1001b841  ti_sysbios_heaps_HeapMem_Object__create__S                                
1001bca5  ti_sysbios_heaps_HeapMem_Object__delete__S                                
1001b86d  ti_sysbios_heaps_HeapMem_Object__get__S                                   
000013c0  ti_sysbios_heaps_HeapMem_Object__table__C                                 
20001fc8  ti_sysbios_heaps_HeapMem_Object__table__V                                 
1001a195  ti_sysbios_heaps_HeapMem_alloc__E                                         
1001a791  ti_sysbios_heaps_HeapMem_free__E                                          
1001b209  ti_sysbios_heaps_HeapMem_getStats__E                                      
1001b541  ti_sysbios_heaps_HeapMem_init__I                                          
1001c2a1  ti_sysbios_heaps_HeapMem_isBlocking__E                                    
000013c4  ti_sysbios_heaps_HeapMem_reqAlign__C                                      
1001c101  ti_sysbios_heaps_HeapMem_restore__E                                       
1001bfc9  ti_sysbios_knl_Clock_Instance_finalize__E                                 
1001b509  ti_sysbios_knl_Clock_Instance_init__E                                     
000014d4  ti_sysbios_knl_Clock_Module_State_clockQ__O                               
2000208c  ti_sysbios_knl_Clock_Module__root__V                                      
20000178  ti_sysbios_knl_Clock_Module__state__V                                     
1001bcc5  ti_sysbios_knl_Clock_Module_startup__E                                    
00001270  ti_sysbios_knl_Clock_Object__DESC__C                                      
00001188  ti_sysbios_knl_Clock_Object__PARAMS__C                                    
1001bad9  ti_sysbios_knl_Clock_Object__delete__S                                    
1001bce5  ti_sysbios_knl_Clock_Object__destruct__S                                  
20001f3c  ti_sysbios_knl_Clock_Object__table__V                                     
1001c181  ti_sysbios_knl_Clock_Params__init__S                                      
1001c2a5  ti_sysbios_knl_Clock_TimerProxy_Module__startupDone__S                    
1001bb45  ti_sysbios_knl_Clock_TimerProxy_Module__startupDone__S__mangled__         
1001c091  ti_sysbios_knl_Clock_TimerProxy_getCurrentTick__E                         
1001c2a9  ti_sysbios_knl_Clock_TimerProxy_getExpiredTicks__E                        
1001c0a1  ti_sysbios_knl_Clock_TimerProxy_getMaxTicks__E                            
1001c2ad  ti_sysbios_knl_Clock_TimerProxy_getPeriod__E                              
1001c0b1  ti_sysbios_knl_Clock_TimerProxy_setNextTick__E                            
1001b791  ti_sysbios_knl_Clock_TimerProxy_startup__E                                
1001b791  ti_sysbios_knl_Clock_TimerProxy_startup__E__mangled__                     
1001ba1d  ti_sysbios_knl_Clock_addI__E                                              
1001b575  ti_sysbios_knl_Clock_construct                                            
1001b3e9  ti_sysbios_knl_Clock_create                                               
1001c2b1  ti_sysbios_knl_Clock_delete                                               
1001c2b5  ti_sysbios_knl_Clock_destruct                                             
00018839  ti_sysbios_knl_Clock_doTick__I                                            
0001715d  ti_sysbios_knl_Clock_getTicksUntilInterrupt__E                            
1001b6d5  ti_sysbios_knl_Clock_getTicks__E                                          
000171b5  ti_sysbios_knl_Clock_getTimeout__E                                        
1001c18d  ti_sysbios_knl_Clock_getTimerHandle__E                                    
00018e13  ti_sysbios_knl_Clock_isActive__E                                          
1001be63  ti_sysbios_knl_Clock_logTick__E                                           
1001c2b9  ti_sysbios_knl_Clock_removeI__E                                           
1001beb9  ti_sysbios_knl_Clock_scheduleNextTick__E                                  
000013c8  ti_sysbios_knl_Clock_serviceMargin__C                                     
1001c2bd  ti_sysbios_knl_Clock_setTimeout__E                                        
1001a715  ti_sysbios_knl_Clock_startI__E                                            
1001bfdf  ti_sysbios_knl_Clock_start__E                                             
00017d8d  ti_sysbios_knl_Clock_stop__E                                              
00001414  ti_sysbios_knl_Clock_tickMode__C                                          
00000c78  ti_sysbios_knl_Clock_tickPeriod__C                                        
00000c7c  ti_sysbios_knl_Clock_triggerClock__C                                      
00014ebb  ti_sysbios_knl_Clock_triggerFunc__I                                       
1001a809  ti_sysbios_knl_Clock_walkQueueDynamic__E                                  
00010ca5  ti_sysbios_knl_Clock_workFuncDynamic__E                                   
1001a881  ti_sysbios_knl_Clock_workFunc__E                                          
00000c58  ti_sysbios_knl_Idle_funcList__A                                           
00001378  ti_sysbios_knl_Idle_funcList__C                                           
1001c207  ti_sysbios_knl_Idle_loop__E                                               
1001bd05  ti_sysbios_knl_Idle_run__E                                                
000014d8  ti_sysbios_knl_Mailbox_Instance_State_dataQue__O                          
000014dc  ti_sysbios_knl_Mailbox_Instance_State_dataSem__O                          
000014e0  ti_sysbios_knl_Mailbox_Instance_State_freeQue__O                          
000014e4  ti_sysbios_knl_Mailbox_Instance_State_freeSem__O                          
1001a8f9  ti_sysbios_knl_Mailbox_Instance_finalize__E                               
1001a0cd  ti_sysbios_knl_Mailbox_Instance_init__E                                   
20002094  ti_sysbios_knl_Mailbox_Module__root__V                                    
1001b2d9  ti_sysbios_knl_Mailbox_Module_startup__E                                  
00001290  ti_sysbios_knl_Mailbox_Object__DESC__C                                    
0000103c  ti_sysbios_knl_Mailbox_Object__PARAMS__C                                  
000013cc  ti_sysbios_knl_Mailbox_Object__count__C                                   
1001bd25  ti_sysbios_knl_Mailbox_Object__delete__S                                  
1001bed5  ti_sysbios_knl_Mailbox_Object__destruct__S                                
1001b899  ti_sysbios_knl_Mailbox_Object__get__S                                     
000013d0  ti_sysbios_knl_Mailbox_Object__table__C                                   
1001c199  ti_sysbios_knl_Mailbox_Params__init__S                                    
1001af81  ti_sysbios_knl_Mailbox_construct                                          
1001abdd  ti_sysbios_knl_Mailbox_create                                             
1001c2c1  ti_sysbios_knl_Mailbox_delete                                             
1001c2c5  ti_sysbios_knl_Mailbox_destruct                                           
000013d4  ti_sysbios_knl_Mailbox_maxTypeAlign__C                                    
1001a969  ti_sysbios_knl_Mailbox_pend__E                                            
1001b8c5  ti_sysbios_knl_Mailbox_postInit__I                                        
1001a58d  ti_sysbios_knl_Mailbox_post__E                                            
1001c227  ti_sysbios_knl_Queue_Instance_init__E                                     
2000209c  ti_sysbios_knl_Queue_Module__root__V                                      
000012b0  ti_sysbios_knl_Queue_Object__DESC__C                                      
00001360  ti_sysbios_knl_Queue_Object__PARAMS__C                                    
000013d8  ti_sysbios_knl_Queue_Object__count__C                                     
1001bd45  ti_sysbios_knl_Queue_Object__delete__S                                    
1001bef1  ti_sysbios_knl_Queue_Object__destruct__S                                  
1001bd65  ti_sysbios_knl_Queue_Object__get__S                                       
000013dc  ti_sysbios_knl_Queue_Object__table__C                                     
1001b8f1  ti_sysbios_knl_Queue_construct                                            
1001b91d  ti_sysbios_knl_Queue_create                                               
1001c2c9  ti_sysbios_knl_Queue_delete                                               
1001c1a5  ti_sysbios_knl_Queue_dequeue__E                                           
1001c2cd  ti_sysbios_knl_Queue_destruct                                             
1001c22d  ti_sysbios_knl_Queue_elemClear__E                                         
1001c10f  ti_sysbios_knl_Queue_empty__E                                             
1001c1b1  ti_sysbios_knl_Queue_enqueue__E                                           
1001bf0d  ti_sysbios_knl_Queue_get__E                                               
1001c2d1  ti_sysbios_knl_Queue_head__E                                              
1001c2d5  ti_sysbios_knl_Queue_next__E                                              
1001bf29  ti_sysbios_knl_Queue_put__E                                               
1001c11d  ti_sysbios_knl_Queue_remove__E                                            
000014e8  ti_sysbios_knl_Semaphore_Instance_State_pendQ__O                          
1001c0c1  ti_sysbios_knl_Semaphore_Instance_finalize__E                             
1001bafd  ti_sysbios_knl_Semaphore_Instance_init__E                                 
200020a4  ti_sysbios_knl_Semaphore_Module__root__V                                  
000012d0  ti_sysbios_knl_Semaphore_Object__DESC__C                                  
000011ac  ti_sysbios_knl_Semaphore_Object__PARAMS__C                                
1001bb21  ti_sysbios_knl_Semaphore_Object__delete__S                                
1001bd85  ti_sysbios_knl_Semaphore_Object__destruct__S                              
1001c1bd  ti_sysbios_knl_Semaphore_Params__init__S                                  
1001b705  ti_sysbios_knl_Semaphore_construct                                        
1001b5a9  ti_sysbios_knl_Semaphore_create                                           
1001c2d9  ti_sysbios_knl_Semaphore_delete                                           
1001c2dd  ti_sysbios_knl_Semaphore_destruct                                         
1001b949  ti_sysbios_knl_Semaphore_pendTimeout__I                                   
1001a001  ti_sysbios_knl_Semaphore_pend__E                                          
1001ac41  ti_sysbios_knl_Semaphore_post__E                                          
1001bf97  ti_sysbios_knl_Swi_Instance_finalize__E                                   
1001aca5  ti_sysbios_knl_Swi_Instance_init__E                                       
20001e68  ti_sysbios_knl_Swi_Module_State_0_readyQ__A                               
200020ac  ti_sysbios_knl_Swi_Module__root__V                                        
200001c8  ti_sysbios_knl_Swi_Module__state__V                                       
1001c233  ti_sysbios_knl_Swi_Module_startup__E                                      
000012f0  ti_sysbios_knl_Swi_Object__DESC__C                                        
000010f4  ti_sysbios_knl_Swi_Object__PARAMS__C                                      
000013e0  ti_sysbios_knl_Swi_Object__count__C                                       
1001bda5  ti_sysbios_knl_Swi_Object__delete__S                                      
1001bf45  ti_sysbios_knl_Swi_Object__destruct__S                                    
1001b975  ti_sysbios_knl_Swi_Object__get__S                                         
000013e4  ti_sysbios_knl_Swi_Object__table__C                                       
20001e98  ti_sysbios_knl_Swi_Object__table__V                                       
1001c1c9  ti_sysbios_knl_Swi_Params__init__S                                        
1001b085  ti_sysbios_knl_Swi_construct                                              
000181c9  ti_sysbios_knl_Swi_construct2__E                                          
1001ad05  ti_sysbios_knl_Swi_create                                                 
1001c2e1  ti_sysbios_knl_Swi_delete                                                 
1001c2e5  ti_sysbios_knl_Swi_destruct                                               
1001c0d1  ti_sysbios_knl_Swi_disable__E                                             
1001c0e1  ti_sysbios_knl_Swi_enabled__E                                             
00018bfd  ti_sysbios_knl_Swi_getTrigger__E                                          
000013e8  ti_sysbios_knl_Swi_numPriorities__C                                       
0001857d  ti_sysbios_knl_Swi_or__E                                                  
1001c2e9  ti_sysbios_knl_Swi_postInit__I                                            
1001b31d  ti_sysbios_knl_Swi_post__E                                                
1001ad61  ti_sysbios_knl_Swi_restoreHwi__E                                          
1001b5dd  ti_sysbios_knl_Swi_restore__E                                             
1001b0d5  ti_sysbios_knl_Swi_runLoop__I                                             
1001afd9  ti_sysbios_knl_Swi_run__I                                                 
1001b031  ti_sysbios_knl_Swi_schedule__I                                            
00016869  ti_sysbios_knl_Swi_setPri__E                                              
1001c239  ti_sysbios_knl_Swi_startup__E                                             
20002b18  ti_sysbios_knl_Task_Instance_State_0_stack__A                             
1001a4f9  ti_sysbios_knl_Task_Instance_finalize__E                                  
1001a259  ti_sysbios_knl_Task_Instance_init__E                                      
200020d8  ti_sysbios_knl_Task_Module_State_0_idleTask__A                            
20001ec8  ti_sysbios_knl_Task_Module_State_0_readyQ__A                              
000014ec  ti_sysbios_knl_Task_Module_State_inactiveQ__O                             
200020b4  ti_sysbios_knl_Task_Module__root__V                                       
20000100  ti_sysbios_knl_Task_Module__state__V                                      
1001adbd  ti_sysbios_knl_Task_Module_startup__E                                     
00001310  ti_sysbios_knl_Task_Object__DESC__C                                       
00001000  ti_sysbios_knl_Task_Object__PARAMS__C                                     
000013ec  ti_sysbios_knl_Task_Object__count__C                                      
1001bdc5  ti_sysbios_knl_Task_Object__delete__S                                     
1001bf61  ti_sysbios_knl_Task_Object__destruct__S                                   
1001bde5  ti_sysbios_knl_Task_Object__get__S                                        
000013f0  ti_sysbios_knl_Task_Object__table__C                                      
20001c78  ti_sysbios_knl_Task_Object__table__V                                      
1001c1d5  ti_sysbios_knl_Task_Params__init__S                                       
1001c2ed  ti_sysbios_knl_Task_SupportProxy_Module__startupDone__S                   
1001c261  ti_sysbios_knl_Task_SupportProxy_Module__startupDone__S__mangled__        
1001c2f1  ti_sysbios_knl_Task_SupportProxy_getStackAlignment__E                     
1001c15d  ti_sysbios_knl_Task_SupportProxy_getStackAlignment__E__mangled__          
1001c2f5  ti_sysbios_knl_Task_SupportProxy_start__E                                 
1001b499  ti_sysbios_knl_Task_SupportProxy_start__E__mangled__                      
1001c2f9  ti_sysbios_knl_Task_SupportProxy_swap__E                                  
1001ca65  ti_sysbios_knl_Task_SupportProxy_swap__E__mangled__                       
000013f4  ti_sysbios_knl_Task_allBlockedFunc__C                                     
1001b361  ti_sysbios_knl_Task_allBlockedFunction__I                                 
1001b611  ti_sysbios_knl_Task_blockI__E                                             
1001b125  ti_sysbios_knl_Task_construct                                             
1001ae19  ti_sysbios_knl_Task_create                                                
000013f8  ti_sysbios_knl_Task_defaultStackHeap__C                                   
000013fc  ti_sysbios_knl_Task_defaultStackSize__C                                   
1001c2fd  ti_sysbios_knl_Task_delete                                                
1001c301  ti_sysbios_knl_Task_destruct                                              
1001c0f1  ti_sysbios_knl_Task_disable__E                                            
1001c23f  ti_sysbios_knl_Task_enable__E                                             
1001be05  ti_sysbios_knl_Task_enter__I                                              
1001b425  ti_sysbios_knl_Task_exit__E                                               
00001412  ti_sysbios_knl_Task_initStackFlag__C                                      
00001400  ti_sysbios_knl_Task_numConstructedTasks__C                                
1001a611  ti_sysbios_knl_Task_postInit__I                                           
1001b735  ti_sysbios_knl_Task_processVitalTaskFlag__I                               
1001be25  ti_sysbios_knl_Task_restoreHwi__E                                         
1001ba45  ti_sysbios_knl_Task_restore__E                                            
1001b175  ti_sysbios_knl_Task_schedule__I                                           
1001c1e1  ti_sysbios_knl_Task_self__E                                               
1001bf7d  ti_sysbios_knl_Task_sleepTimeout__I                                       
1001a9d9  ti_sysbios_knl_Task_sleep__E                                              
1001ae75  ti_sysbios_knl_Task_startCore__E                                          
1001c305  ti_sysbios_knl_Task_startup__E                                            
1001ca6d  ti_sysbios_knl_Task_swapReturn                                            
1001b9a1  ti_sysbios_knl_Task_unblockI__E                                           
1001bfb1  ti_sysbios_knl_Task_unblock__E                                            
1001b3a5  ti_sysbios_knl_Task_yield__E                                              
00001494  ti_sysbios_rom_ROM_AONRTCChannelEnable                                    
00001498  ti_sysbios_rom_ROM_AONRTCCompareValueSet                                  
0000149c  ti_sysbios_rom_ROM_AONRTCCurrentCompareValueGet                           
000014a0  ti_sysbios_rom_ROM_AONRTCEventClear                                       
000014a4  ti_sysbios_rom_ROM_ti_sysbios_family_arm_cc26xx_Timer_getCount64__E       
000014a8  ti_sysbios_rom_ROM_ti_sysbios_family_arm_cc26xx_Timer_getCurrentTick__E   
000014ac  ti_sysbios_rom_ROM_ti_sysbios_family_arm_cc26xx_Timer_getMaxTicks__E      
000014b0  ti_sysbios_rom_ROM_ti_sysbios_family_arm_cc26xx_Timer_initDevice__I       
000014b4  ti_sysbios_rom_ROM_ti_sysbios_family_arm_cc26xx_Timer_setNextTick__E      
000014b8  ti_sysbios_rom_ROM_ti_sysbios_family_arm_cc26xx_Timer_setThreshold__I     
000014bc  ti_sysbios_rom_ROM_ti_sysbios_family_arm_cc26xx_Timer_start__E            
000014c0  ti_sysbios_rom_ROM_ti_sysbios_family_arm_cc26xx_TimestampProvider_get32__E
000014c4  ti_sysbios_rom_ROM_xdc_runtime_Startup_getState__I                        
000014c8  ti_sysbios_rom_ROM_xdc_runtime_System_SupportProxy_abort__E               
000014cc  ti_sysbios_rom_ROM_xdc_runtime_System_SupportProxy_exit__E                
000151b3  ti_sysbios_rom_cortexm_cc13xx_CC13xx_badRomRevision__E                    
00018595  ti_sysbios_rom_cortexm_cc13xx_CC13xx_checkRevision__E                     
1001ca97  ti_sysbios_rom_cortexm_cc13xx_CC13xx_getRevision__E                       
20000234  timerAlignedQ                                                             
20003100  timerHead                                                                 
20000230  timerUnalignedQ                                                           
20001efb  txAckReq                                                                  
20001e38  txCmdHandle                                                               
00011d31  txComplete                                                                
00019a88  txPowerTable_subg_CC1310                                                  
00019add  txPowerTable_subg_CC1350                                                  
00000b00  uartCC26XXHWAttrs                                                         
20002d18  uartCC26XXObjects                                                         
200030a0  uartCC26XXRingBuffer                                                      
2000081c  uartParams                                                                
00001428  xdc_runtime_Assert_E_assertFailed__C                                      
1001c5a5  xdc_runtime_Assert_raise__I                                               
1001c6e9  xdc_runtime_Core_assignLabel__I                                           
1001c5ed  xdc_runtime_Core_assignParams__I                                          
1001c635  xdc_runtime_Core_constructObject__I                                       
1001c401  xdc_runtime_Core_createObject__I                                          
1001c4f5  xdc_runtime_Core_deleteObject__I                                          
1001c79d  xdc_runtime_Core_destructObject__I                                        
0000142c  xdc_runtime_Error_E_memory__C                                             
20001f5c  xdc_runtime_Error_IgnoreBlock                                             
1001c7b5  xdc_runtime_Error_check__E                                                
00001430  xdc_runtime_Error_policyFxn__C                                            
1001c483  xdc_runtime_Error_policySpin__E                                           
00001490  xdc_runtime_Error_policy__C                                               
1001c765  xdc_runtime_Error_raiseX__E                                               
1001c881  xdc_runtime_Gate_enterSystem__E                                           
1001c875  xdc_runtime_Gate_leaveSystem__E                                           
00001434  xdc_runtime_IGateProvider_Interface__BASE__C                              
00001438  xdc_runtime_IHeap_Interface__BASE__C                                      
0000143c  xdc_runtime_IModule_Interface__BASE__C                                    
1001bbe5  xdc_runtime_Main_Module_GateProxy_Handle__label__S                        
1001c265  xdc_runtime_Main_Module_GateProxy_query__E                                
00001440  xdc_runtime_Main_Module__diagsEnabled__C                                  
00001444  xdc_runtime_Main_Module__diagsIncluded__C                                 
00001448  xdc_runtime_Main_Module__diagsMask__C                                     
00001488  xdc_runtime_Main_Module__id__C                                            
1001bc85  xdc_runtime_Memory_HeapProxy_Handle__label__S                             
1001bc85  xdc_runtime_Memory_HeapProxy_Handle__label__S__mangled__                  
1001bca5  xdc_runtime_Memory_HeapProxy_Object__delete__S                            
1001c885  xdc_runtime_Memory_HeapProxy_alloc__E                                     
1001c889  xdc_runtime_Memory_HeapProxy_free__E                                      
0000148a  xdc_runtime_Memory_Module__id__C                                          
20000200  xdc_runtime_Memory_Module__state__V                                       
1001c485  xdc_runtime_Memory_alloc__E                                               
1001c849  xdc_runtime_Memory_calloc__E                                              
0000144c  xdc_runtime_Memory_defaultHeapInstance__C                                 
1001c7fd  xdc_runtime_Memory_free__E                                                
1001c855  xdc_runtime_Memory_getMaxDefaultTypeAlign__E                              
1001c781  xdc_runtime_Memory_valloc__E                                              
200020bc  xdc_runtime_Registry_Module__state__V                                     
00017dad  xdc_runtime_Registry_findById__E                                          
200001f0  xdc_runtime_Startup_Module__state__V                                      
00000001  xdc_runtime_Startup__EXECFXN__C                                           
00000001  xdc_runtime_Startup__RESETFXN__C                                          
00001450  xdc_runtime_Startup_execImpl__C                                           
1001c555  xdc_runtime_Startup_exec__E                                               
000188f1  xdc_runtime_Startup_exec__I                                               
00000c20  xdc_runtime_Startup_firstFxns__A                                          
00001418  xdc_runtime_Startup_firstFxns__C                                          
00014241  xdc_runtime_Startup_getState__I                                           
00001420  xdc_runtime_Startup_lastFxns__C                                           
00001454  xdc_runtime_Startup_maxPasses__C                                          
00018c09  xdc_runtime_Startup_reset__I                                              
00018c15  xdc_runtime_Startup_rtsDone__E                                            
00000bf0  xdc_runtime_Startup_sfxnRts__A                                            
00001458  xdc_runtime_Startup_sfxnRts__C                                            
00000b4c  xdc_runtime_Startup_sfxnTab__A                                            
0000145c  xdc_runtime_Startup_sfxnTab__C                                            
00001460  xdc_runtime_Startup_startModsFxn__C                                       
1001c309  xdc_runtime_Startup_startMods__I                                          
00001464  xdc_runtime_SysCallback_abortFxn__C                                       
1001c80d  xdc_runtime_SysCallback_abort__E                                          
000157b7  xdc_runtime_SysCallback_defaultAbort                                      
0001609f  xdc_runtime_SysCallback_defaultExit                                       
00018e17  xdc_runtime_SysCallback_defaultReady                                      
00001468  xdc_runtime_SysCallback_exitFxn__C                                        
1001c81d  xdc_runtime_SysCallback_exit__E                                           
00000c80  xdc_runtime_SysCallback_putchFxn__C                                       
00018a85  xdc_runtime_SysCallback_putch__E                                          
00000c84  xdc_runtime_SysCallback_readyFxn__C                                       
00018a95  xdc_runtime_SysCallback_ready__E                                          
1001bbe5  xdc_runtime_System_Module_GateProxy_Handle__label__S                      
1001bbe5  xdc_runtime_System_Module_GateProxy_Handle__label__S__mangled__           
1001bc05  xdc_runtime_System_Module_GateProxy_Object__delete__S                     
1001c88d  xdc_runtime_System_Module_GateProxy_enter__E                              
1001c891  xdc_runtime_System_Module_GateProxy_leave__E                              
1001c265  xdc_runtime_System_Module_GateProxy_query__E                              
1001c265  xdc_runtime_System_Module_GateProxy_query__E__mangled__                   
200001f8  xdc_runtime_System_Module__state__V                                       
1001c87b  xdc_runtime_System_Module_startup__E                                      
1001c80d  xdc_runtime_System_SupportProxy_abort__E                                  
1001c81d  xdc_runtime_System_SupportProxy_exit__E                                   
00018a85  xdc_runtime_System_SupportProxy_putch__E                                  
00018a95  xdc_runtime_System_SupportProxy_ready__E                                  
0000146c  xdc_runtime_System_abortFxn__C                                            
1001c895  xdc_runtime_System_abortSpin__E                                           
1001c745  xdc_runtime_System_abort__E                                               
1001c67d  xdc_runtime_System_atexit__E                                              
00005295  xdc_runtime_System_doPrint__I                                             
00001470  xdc_runtime_System_exitFxn__C                                             
1001c897  xdc_runtime_System_exitSpin__E                                            
1001c7cd  xdc_runtime_System_exit__E                                                
00000c88  xdc_runtime_System_extendFxn__C                                           
00012d05  xdc_runtime_System_formatNum__I                                           
00001474  xdc_runtime_System_maxAtexitHandlers__C                                   
0000c885  xdc_runtime_System_printfExtend__I                                        
00018233  xdc_runtime_System_printf__E                                              
00018e1b  xdc_runtime_System_printf_va__F                                           
1001c6b5  xdc_runtime_System_processAtExit__E                                       
000171df  xdc_runtime_System_putchar__I                                             
00017613  xdc_runtime_System_vprintf__E                                             
00018aa5  xdc_runtime_System_vsnprintf__E                                           
0000148c  xdc_runtime_Text_charCnt__C                                               
00000bef  xdc_runtime_Text_charTab__A                                               
00001478  xdc_runtime_Text_charTab__C                                               
1001c719  xdc_runtime_Text_cordText__E                                              
0000148e  xdc_runtime_Text_isLoaded__C                                              
0000147c  xdc_runtime_Text_nameEmpty__C                                             
00001480  xdc_runtime_Text_nameStatic__C                                            
00001484  xdc_runtime_Text_nameUnknown__C                                           
00017189  xdc_runtime_Text_printVisFxn__I                                           
00013f59  xdc_runtime_Text_putLab__E                                                
00010d3d  xdc_runtime_Text_putMod__E                                                
0000fad9  xdc_runtime_Text_putSite__E                                               
00000c02  xdc_runtime_Text_registryModsLastId__C                                    
1001c7e5  xdc_runtime_Text_ropeText__E                                              
00000c36  xdc_runtime_Text_unnamedModsLastId__C                                     
00000c8c  xdc_runtime_Text_visitRopeFxn__C                                          
00018ced  xdc_runtime_Text_visitRope__I                                             
00015731  xdc_runtime_Text_xprintf__I                                               
1001c82d  xdc_runtime_Timestamp_SupportProxy_get32__E                               
00018b09  xdc_runtime_Timestamp_SupportProxy_get32__E__mangled__                    
1001b9cd  xdc_runtime_Timestamp_SupportProxy_get64__E                               
1001b9cd  xdc_runtime_Timestamp_SupportProxy_get64__E__mangled__                    
1001c12b  xdc_runtime_Timestamp_SupportProxy_getFreq__E                             
1001c12b  xdc_runtime_Timestamp_SupportProxy_getFreq__E__mangled__                  
1001c82d  xdc_runtime_Timestamp_get32__E                                            
1001c82d  xdc_runtime_Timestamp_get32__E                                            
1001b9cd  xdc_runtime_Timestamp_get64__E                                            
1001b9cd  xdc_runtime_Timestamp_get64__E                                            
1001c12b  xdc_runtime_Timestamp_getFreq__E                                          
1001c12b  xdc_runtime_Timestamp_getFreq__E                                          


GLOBAL SYMBOLS: SORTED BY Symbol Address 

address   name                                                                      
-------   ----                                                                      
00000000  __ASM__                                                                   
00000000  ti_sysbios_family_arm_m3_Hwi_resetVectors                                 
00000001  xdc_runtime_Startup__EXECFXN__C                                           
00000001  xdc_runtime_Startup__RESETFXN__C                                          
0000003c  macKeySourceLen                                                           
00000040  macAuthTagLen                                                             
00000048  macCmdLen                                                                 
00000051  macSendMsgDataSize                                                        
0000005d  macCbackEventTbl                                                          
00000069  macCmdBufSize                                                             
00000070  __ISA__                                                                   
00000077  macTxFrameSuccess                                                         
00000082  __PLAT__                                                                  
00000085  macTxFrameFailed                                                          
00000094  macSendMsgBufSize                                                         
000000a9  __TARG__                                                                  
000000ac  macCmdIncludeFHIe                                                         
000000ce  __TRDR__                                                                  
000000e4  macTimerRolloverValue                                                     
00000124  macMRFSKStdPhyTable                                                       
00000174  macSecurityPibTbl                                                         
000001cc  macAssociatingSt                                                          
0000023a  macPollingSt                                                              
000002a8  macStartingSt                                                             
00000318  macPibDefaults                                                            
000003a0  macPibTbl                                                                 
00000498  fhSupFrameTypes                                                           
000004a0  FHPIB_defaults                                                            
00000500  __STACK_SIZE                                                              
0000052c  FH_PibTbl                                                                 
00000658  FH_stateMatrix                                                            
00000825  Cllc_keySource                                                            
000008d4  macIdleSt                                                                 
00000942  macScanningSt                                                             
000009cc  BoardGpioInitTable                                                        
00000a00  resourceDB                                                                
00000ad8  UARTCC26XX_fxnTable                                                       
00000b00  uartCC26XXHWAttrs                                                         
00000b28  UART_defaultParams                                                        
00000b4c  xdc_runtime_Startup_sfxnTab__A                                            
00000bac  PowerCC26XX_config                                                        
00000bdc  msacbackSizeTable                                                         
00000bef  xdc_runtime_Text_charTab__A                                               
00000bf0  xdc_runtime_Startup_sfxnRts__A                                            
00000c02  xdc_runtime_Text_registryModsLastId__C                                    
00000c04  cryptoCC26XXHWAttrs                                                       
00000c14  UART_config                                                               
00000c20  xdc_runtime_Startup_firstFxns__A                                          
00000c2c  ADCBuf_count                                                              
00000c2d  ADC_count                                                                 
00000c2e  Display_count                                                             
00000c2f  I2C_count                                                                 
00000c30  NVS_count                                                                 
00000c31  PWM_count                                                                 
00000c32  SD_count                                                                  
00000c33  SPI_count                                                                 
00000c34  UART_count                                                                
00000c35  Watchdog_count                                                            
00000c36  xdc_runtime_Text_unnamedModsLastId__C                                     
00000c48  CryptoCC26XX_config                                                       
00000c50  PINCC26XX_hwAttrs                                                         
00000c58  ti_sysbios_knl_Idle_funcList__A                                           
00000c64  tasksArr                                                                  
00000c68  ti_sysbios_family_arm_cc26xx_Timer_funcHookCH1__C                         
00000c6c  ti_sysbios_family_arm_cc26xx_Timer_funcHookCH2__C                         
00000c70  ti_sysbios_family_arm_m3_Hwi_swiDisable__C                                
00000c74  ti_sysbios_family_arm_m3_Hwi_swiRestoreHwi__C                             
00000c78  ti_sysbios_knl_Clock_tickPeriod__C                                        
00000c7c  ti_sysbios_knl_Clock_triggerClock__C                                      
00000c80  xdc_runtime_SysCallback_putchFxn__C                                       
00000c84  xdc_runtime_SysCallback_readyFxn__C                                       
00000c88  xdc_runtime_System_extendFxn__C                                           
00000c8c  xdc_runtime_Text_visitRopeFxn__C                                          
00001000  ti_sysbios_knl_Task_Object__PARAMS__C                                     
0000103c  ti_sysbios_knl_Mailbox_Object__PARAMS__C                                  
00001070  ti_sysbios_family_arm_m3_Hwi_Object__PARAMS__C                            
000010a0  ti_sysbios_hal_Hwi_Object__PARAMS__C                                      
000010cc  ti_sysbios_heaps_HeapMem_Module__FXNS__C                                  
000010f4  ti_sysbios_knl_Swi_Object__PARAMS__C                                      
0000111c  ti_sysbios_gates_GateHwi_Module__FXNS__C                                  
00001140  ti_sysbios_gates_GateMutex_Module__FXNS__C                                
00001164  ti_sysbios_heaps_HeapMem_Object__PARAMS__C                                
00001188  ti_sysbios_knl_Clock_Object__PARAMS__C                                    
000011ac  ti_sysbios_knl_Semaphore_Object__PARAMS__C                                
000011d0  ti_sysbios_family_arm_m3_Hwi_Object__DESC__C                              
000011f0  ti_sysbios_gates_GateHwi_Object__DESC__C                                  
00001210  ti_sysbios_gates_GateMutex_Object__DESC__C                                
00001230  ti_sysbios_hal_Hwi_Object__DESC__C                                        
00001250  ti_sysbios_heaps_HeapMem_Object__DESC__C                                  
00001270  ti_sysbios_knl_Clock_Object__DESC__C                                      
00001290  ti_sysbios_knl_Mailbox_Object__DESC__C                                    
000012b0  ti_sysbios_knl_Queue_Object__DESC__C                                      
000012d0  ti_sysbios_knl_Semaphore_Object__DESC__C                                  
000012f0  ti_sysbios_knl_Swi_Object__DESC__C                                        
00001310  ti_sysbios_knl_Task_Object__DESC__C                                       
00001330  ti_sysbios_gates_GateHwi_Object__PARAMS__C                                
00001348  ti_sysbios_gates_GateMutex_Object__PARAMS__C                              
00001360  ti_sysbios_knl_Queue_Object__PARAMS__C                                    
00001378  ti_sysbios_knl_Idle_funcList__C                                           
00001384  ti_sysbios_family_arm_cc26xx_Timer_startupNeeded__C                       
00001388  ti_sysbios_family_arm_m3_Hwi_E_alreadyDefined__C                          
0000138c  ti_sysbios_family_arm_m3_Hwi_E_hwiLimitExceeded__C                        
00001390  ti_sysbios_family_arm_m3_Hwi_NUM_INTERRUPTS__C                            
00001394  ti_sysbios_family_arm_m3_Hwi_Object__count__C                             
00001398  ti_sysbios_family_arm_m3_Hwi_Object__table__C                             
0000139c  ti_sysbios_family_arm_m3_Hwi_ccr__C                                       
000013a0  ti_sysbios_family_arm_m3_Hwi_excHandlerFunc__C                            
000013a4  ti_sysbios_family_arm_m3_Hwi_nullIsrFunc__C                               
000013a8  ti_sysbios_family_arm_m3_Hwi_numSparseInterrupts__C                       
000013ac  ti_sysbios_family_arm_m3_Hwi_priGroup__C                                  
000013b0  ti_sysbios_family_arm_m3_TaskSupport_stackAlignment__C                    
000013b4  ti_sysbios_heaps_HeapMem_E_memory__C                                      
000013b8  ti_sysbios_heaps_HeapMem_Module__gateObj__C                               
000013bc  ti_sysbios_heaps_HeapMem_Object__count__C                                 
000013c0  ti_sysbios_heaps_HeapMem_Object__table__C                                 
000013c4  ti_sysbios_heaps_HeapMem_reqAlign__C                                      
000013c8  ti_sysbios_knl_Clock_serviceMargin__C                                     
000013cc  ti_sysbios_knl_Mailbox_Object__count__C                                   
000013d0  ti_sysbios_knl_Mailbox_Object__table__C                                   
000013d4  ti_sysbios_knl_Mailbox_maxTypeAlign__C                                    
000013d8  ti_sysbios_knl_Queue_Object__count__C                                     
000013dc  ti_sysbios_knl_Queue_Object__table__C                                     
000013e0  ti_sysbios_knl_Swi_Object__count__C                                       
000013e4  ti_sysbios_knl_Swi_Object__table__C                                       
000013e8  ti_sysbios_knl_Swi_numPriorities__C                                       
000013ec  ti_sysbios_knl_Task_Object__count__C                                      
000013f0  ti_sysbios_knl_Task_Object__table__C                                      
000013f4  ti_sysbios_knl_Task_allBlockedFunc__C                                     
000013f8  ti_sysbios_knl_Task_defaultStackHeap__C                                   
000013fc  ti_sysbios_knl_Task_defaultStackSize__C                                   
00001400  ti_sysbios_knl_Task_numConstructedTasks__C                                
00001406  ti_sysbios_family_arm_cc26xx_Timer_Module__id__C                          
00001408  ti_sysbios_family_arm_cc26xx_TimestampProvider_useClockTimer__C           
0000140a  ti_sysbios_family_arm_m3_Hwi_Module__id__C                                
0000140c  ti_sysbios_gates_GateHwi_Module__id__C                                    
0000140e  ti_sysbios_gates_GateMutex_Module__id__C                                  
00001410  ti_sysbios_heaps_HeapMem_Module__id__C                                    
00001412  ti_sysbios_knl_Task_initStackFlag__C                                      
00001414  ti_sysbios_knl_Clock_tickMode__C                                          
00001418  xdc_runtime_Startup_firstFxns__C                                          
00001420  xdc_runtime_Startup_lastFxns__C                                           
00001428  xdc_runtime_Assert_E_assertFailed__C                                      
0000142c  xdc_runtime_Error_E_memory__C                                             
00001430  xdc_runtime_Error_policyFxn__C                                            
00001434  xdc_runtime_IGateProvider_Interface__BASE__C                              
00001438  xdc_runtime_IHeap_Interface__BASE__C                                      
0000143c  xdc_runtime_IModule_Interface__BASE__C                                    
00001440  xdc_runtime_Main_Module__diagsEnabled__C                                  
00001444  xdc_runtime_Main_Module__diagsIncluded__C                                 
00001448  xdc_runtime_Main_Module__diagsMask__C                                     
0000144c  xdc_runtime_Memory_defaultHeapInstance__C                                 
00001450  xdc_runtime_Startup_execImpl__C                                           
00001454  xdc_runtime_Startup_maxPasses__C                                          
00001458  xdc_runtime_Startup_sfxnRts__C                                            
0000145c  xdc_runtime_Startup_sfxnTab__C                                            
00001460  xdc_runtime_Startup_startModsFxn__C                                       
00001464  xdc_runtime_SysCallback_abortFxn__C                                       
00001468  xdc_runtime_SysCallback_exitFxn__C                                        
0000146c  xdc_runtime_System_abortFxn__C                                            
00001470  xdc_runtime_System_exitFxn__C                                             
00001474  xdc_runtime_System_maxAtexitHandlers__C                                   
00001478  xdc_runtime_Text_charTab__C                                               
0000147c  xdc_runtime_Text_nameEmpty__C                                             
00001480  xdc_runtime_Text_nameStatic__C                                            
00001484  xdc_runtime_Text_nameUnknown__C                                           
00001488  xdc_runtime_Main_Module__id__C                                            
0000148a  xdc_runtime_Memory_Module__id__C                                          
0000148c  xdc_runtime_Text_charCnt__C                                               
0000148e  xdc_runtime_Text_isLoaded__C                                              
00001490  xdc_runtime_Error_policy__C                                               
00001494  ti_sysbios_rom_ROM_AONRTCChannelEnable                                    
00001498  ti_sysbios_rom_ROM_AONRTCCompareValueSet                                  
0000149c  ti_sysbios_rom_ROM_AONRTCCurrentCompareValueGet                           
000014a0  ti_sysbios_rom_ROM_AONRTCEventClear                                       
000014a4  ti_sysbios_rom_ROM_ti_sysbios_family_arm_cc26xx_Timer_getCount64__E       
000014a8  ti_sysbios_rom_ROM_ti_sysbios_family_arm_cc26xx_Timer_getCurrentTick__E   
000014ac  ti_sysbios_rom_ROM_ti_sysbios_family_arm_cc26xx_Timer_getMaxTicks__E      
000014b0  ti_sysbios_rom_ROM_ti_sysbios_family_arm_cc26xx_Timer_initDevice__I       
000014b4  ti_sysbios_rom_ROM_ti_sysbios_family_arm_cc26xx_Timer_setNextTick__E      
000014b8  ti_sysbios_rom_ROM_ti_sysbios_family_arm_cc26xx_Timer_setThreshold__I     
000014bc  ti_sysbios_rom_ROM_ti_sysbios_family_arm_cc26xx_Timer_start__E            
000014c0  ti_sysbios_rom_ROM_ti_sysbios_family_arm_cc26xx_TimestampProvider_get32__E
000014c4  ti_sysbios_rom_ROM_xdc_runtime_Startup_getState__I                        
000014c8  ti_sysbios_rom_ROM_xdc_runtime_System_SupportProxy_abort__E               
000014cc  ti_sysbios_rom_ROM_xdc_runtime_System_SupportProxy_exit__E                
000014d0  ti_sysbios_gates_GateMutex_Instance_State_sem__O                          
000014d4  ti_sysbios_knl_Clock_Module_State_clockQ__O                               
000014d8  ti_sysbios_knl_Mailbox_Instance_State_dataQue__O                          
000014dc  ti_sysbios_knl_Mailbox_Instance_State_dataSem__O                          
000014e0  ti_sysbios_knl_Mailbox_Instance_State_freeQue__O                          
000014e4  ti_sysbios_knl_Mailbox_Instance_State_freeSem__O                          
000014e8  ti_sysbios_knl_Semaphore_Instance_State_pendQ__O                          
000014ec  ti_sysbios_knl_Task_Module_State_inactiveQ__O                             
00001e85  taskFxn                                                                   
00002cb9  startup_entry                                                             
0000361d  FHIE_parsePie                                                             
00003a79  macWrapperAddDevice                                                       
00003e0d  macBuildHeader                                                            
00004521  macRadioInit                                                              
00004521  macRadioInitSubG                                                          
000048a9  MAC_MlmeResetReq                                                          
00004f87  FHDATA_startEDFETimer                                                     
00004f89  PowerCC26XX_auxISR                                                        
00005295  xdc_runtime_System_doPrint__I                                             
000055a1  macRadioTxGo                                                              
00005885  macPwrVote                                                                
00005b59  FHAPI_getTxParams_old                                                     
00005e1d  FHIE_gen                                                                  
000060dd  FHIE_genPieContent                                                        
00006395  osal_start_system                                                         
0000664d  MAC_McpsDataReq                                                           
000068cd  RF_scheduleCmd                                                            
00006b49  FHAPI_start                                                               
00006dc1  MAC_MlmeSetSecurityReq                                                    
00007281  FHAPI_completeRxCb                                                        
000074d5  NOROM_SysCtrlSetRechargeBeforePowerDown                                   
00007711  Power_sleep                                                               
00007935  macIncomingFrameSecurityMaterialRetrieval                                 
00007b57  FHUTIL_noAction                                                           
00007b59  macBuildCommonReq                                                         
00007f75  FHAPI_sendData                                                            
00008169  RF_open                                                                   
0000834d  macBuildBeacon                                                            
00008525  macStackEventLoop                                                         
000086f9  FHIE_extractPie                                                           
000088c5  macApiScanReq                                                             
00008a8d  MAC_MlmeGetSecurityReq                                                    
00008c4d  PIN_init                                                                  
00008e05  FHIE_parseCommonInformation                                               
00008fb1  macApiDataReq                                                             
0000915d  FHPIB_set                                                                 
000092f9  FHNT_getEntry                                                             
00009491  macWrapperAddKeyInitFCtr                                                  
00009629  macTxFrame                                                                
000097bd  PowerCC26XX_doCalibrate                                                   
0000994d  MAC_MlmeSetReq                                                            
00009ad5  macBuildPayloadIes                                                        
00009c59  macRxBeaconCritical                                                       
00009dd5  macTxCompleteCallback                                                     
00009f51  NOROM_CRYPTOCcmInvAuthDecrypt                                             
0000a0c9  NOROM_CRYPTOCcmAuthEncrypt                                                
0000a239  macTxCsmaDelay                                                            
0000a39d  FHAPI_completeTxCb                                                        
0000a4f9  UARTCC26XX_open                                                           
0000a655  macRadioCsmaTxCb                                                          
0000a7ad  UARTCC26XX_hwiIntFxn                                                      
0000a8f5  macApiDisassociateReq                                                     
0000ab81  macTxBeaconCompleteCallback                                               
0000ae05  macApiAssociateRsp                                                        
0000b07d  UARTCC26XX_read                                                           
0000b1b1  macAutoPoll                                                               
0000b2e5  macSendReceiveCmdSubG                                                     
0000b415  FHNT_purgeTimerIsrCb                                                      
0000b8b5  macApiWSAsyncReq                                                          
0000b9d9  macAllocTxBuffer                                                          
0000baf9  macApiSyncReq                                                             
0000bc19  macBeaconStartContinue                                                    
0000bd39  Power_init                                                                
0000be4d  RF_close                                                                  
0000c06d  macSetupRATChanCompare                                                    
0000c38d  UARTCC26XX_write                                                          
0000c491  FHNT_getRemoveEntryFromTemp                                               
0000c591  macRatCb_B                                                                
0000c78d  FHIE_genCommonInformation                                                 
0000c885  xdc_runtime_System_printfExtend__I                                        
0000c97d  RF_getInfo                                                                
0000ca71  macRadioTxPrepCsmaUnslotted                                               
0000ca71  macRadioTxPrepCsmaUnslottedSubG                                           
0000cb65  macSetDefaultsByPhyID                                                     
0000cc59  Csf_deviceUpdate                                                          
0000cd49  FHMGR_bcTimerIsrCb                                                        
0000ce39  NOROM_RFCOverrideUpdate                                                   
0000cf29  NOROM_SetupTrimDevice                                                     
0000cf29  ti_sysbios_family_arm_cc26xx_Boot_trimDevice                              
0000d019  RF_pendCmd                                                                
0000d109  macRadioTxPrepCsmaSlottedSubG                                             
0000d1f9  macScanNextChan                                                           
0000d2e5  FHIE_parseHie                                                             
0000d3cd  FHAPI_getTxParams                                                         
0000d4b1  FHNT_addTempEUI                                                           
0000d595  PowerCC26XX_standbyPolicy                                                 
0000d679  macIndirectSend                                                           
0000d841  Collector_sendConfigRequest                                               
0000da01  RF_requestAccess                                                          
0000dae1  macBeaconSetSched                                                         
0000dc9d  macCommStatusInd                                                          
0000dd75  macDataTxSend                                                             
0000de4d  CryptoCC26XX_open                                                         
0000df21  NOROM_RFCRfTrimRead                                                       
0000dff5  macRadioLbtTxCb                                                           
0000e0c9  macRatCb_A                                                                
0000e19d  MAC_CbackEvent                                                            
0000e26d  macScanRxBeacon                                                           
0000e33d  macSendDataMsg                                                            
0000e40d  NOROM_CRYPTOAesCbc                                                        
0000e4d9  NVOCOP_writeItem                                                          
0000e671  macIndirectExpire                                                         
0000e73d  macOutgoingFrameKeyDescRetrieval                                          
0000e809  macBuildHeaderIes                                                         
0000e8d1  macCcmStarTransform                                                       
0000e999  macDataTxEnqueue                                                          
0000ea61  FHDATA_procASYNCReq                                                       
0000ebe9  macSendFsCmd                                                              
0000ecad  macStartBegin                                                             
0000ed6d  FHIE_getLen                                                               
0000ee2d  FHNT_AddDeviceCB                                                          
0000eee9  MAC_MlmeScanReq                                                           
0000efa5  Power_releaseDependency                                                   
0000f061  macTxFrameIsr                                                             
0000f11d  FHIE_getPieContentLen                                                     
0000f28d  macBuildBeaconNotifyInd                                                   
0000f345  macCoordReset                                                             
0000f4b5  Power_setDependency                                                       
0000f569  RF_control                                                                
0000f61d  macApiBeaconStartReq                                                      
0000f6d1  macTxChannelBusyCallback                                                  
0000f82d  macStartSetParams                                                         
0000f985  FHIE_genExcludedChannelRanges                                             
0000fa2f  _nop                                                                      
0000fa31  macBeaconSyncLoss                                                         
0000fad9  xdc_runtime_Text_putSite__E                                               
0000fb81  NOROM_CRYPTOAesEcb                                                        
0000fcc9  osal_set_event                                                            
0000fe11  Csf_getDevice                                                             
0000feb1  FHIE_getChannelPlan                                                       
00010091  __TI_auto_init                                                            
00010311  FHAPI_reset                                                               
000103ad  UARTCC26XX_writeCancel                                                    
000104e5  macRadioTxPrepLbt                                                         
00010581  __aeabi_memcpy                                                            
00010581  __aeabi_memcpy4                                                           
00010581  __aeabi_memcpy8                                                           
00010581  memcpy                                                                    
0001061d  FHDATA_getPktFromQueue                                                    
000106b5  FHMGR_updateRadioBCChannel                                                
0001074d  NVOCOP_deleteItem                                                         
000107e5  PIN_open                                                                  
000109ad  UARTCC26XX_swiIntFxn                                                      
00010a45  macBuildRealign                                                           
00010add  macDataTxComplete                                                         
00010b75  macIndirectMark                                                           
00010c0d  macRxBeacon                                                               
00010ca5  ti_sysbios_knl_Clock_workFuncDynamic__E                                   
00010d3d  xdc_runtime_Text_putMod__E                                                
00010dd5  __aeabi_uldivmod                                                          
00010e6b  macApiPwrOnReq                                                            
00010e6d  Cllc_init                                                                 
00010f01  Csf_updateFrameCounter                                                    
00010f95  FHNT_getNTIndexFromTempIndex                                              
00011029  NOROM_CRYPTOAesLoadKey                                                    
00011151  macCbackForEvent                                                          
000111e5  macCcmDecrypt                                                             
00011279  macCcmStarInverseTransform                                                
000114c1  ti_sysbios_family_arm_cc26xx_Timer_start__E                               
00011551  Cllc_securityInit                                                         
00011669  macCcmEncrypt                                                             
000116f5  CryptoCC26XX_allocateKey                                                  
0001177f  FHIE_extractHie                                                           
00011809  NOROM_OSCHF_GetStartupTime                                                
00011809  PowerCC26XX_getXoscStartupTime                                            
00011891  macApiPurgeReq                                                            
00011919  macMcuBitReverse                                                          
000119a1  osal_msg_receive                                                          
00011aad  UARTCC26XX_close                                                          
00011bb1  macRxDataReq                                                              
00011c31  macTimerCancel                                                            
00011d31  txComplete                                                                
00011db1  Board_Led_control                                                         
00011e2d  Csf_getDeviceItem                                                         
00011ea9  NOROM_CRYPTOCcmInvAuthDecryptResultGet                                    
00012099  macApiStartReq                                                            
00012115  macRadioUpdateChannelRx                                                   
00012191  macRadioUpdateTxPower                                                     
0001220d  macScanStartTimer                                                         
00012289  __aeabi_memclr                                                            
00012289  __aeabi_memclr4                                                           
00012289  __aeabi_memclr8                                                           
0001228b  __aeabi_memset                                                            
0001228b  __aeabi_memset4                                                           
0001228b  __aeabi_memset8                                                           
00012291  memset                                                                    
00012303  macClientSwitchCb                                                         
00012305  macBeaconCheckTxTime                                                      
000123f5  macRadioUpdateChannel                                                     
0001246d  macTrackTimeoutCallback                                                   
000124e5  main                                                                      
0001255d  osal_pwrmgr_task_state                                                    
000126c5  macKeyDescriptorLookup                                                    
0001273b  macMcuInit                                                                
0001273d  FHUTIL_getCurBfio                                                         
000127b1  ICallPlatform_pwrUpdActivityCounter                                       
00012825  RF_yield                                                                  
00012899  macMcuOverflowSetCompare                                                  
0001290d  macMcuOverflowSetPeriod                                                   
000129f5  FHAPI_startBS                                                             
00012a65  FHDH1CF_getBCChannelNum                                                   
00012ad5  macBeaconSetupCap                                                         
00012b45  macTxAckReceivedCallback                                                  
00012c95  __aeabi_ldivmod                                                           
00012d03  macNoAction                                                               
00012d05  xdc_runtime_System_formatNum__I                                           
00012d75  Cllc_restoreNetwork                                                       
00012de1  FHNT_putEntry                                                             
00012e4d  PowerCC26XX_initiateCalibration                                           
00012f25  RF_ratDisableChannel                                                      
00012ffd  macDisassocComplete                                                       
00013069  macExecute                                                                
000130d5  macSendMsg                                                                
00013219  FHDATA_purgePktFromQueue                                                  
00013281  NOROM_SysCtrlAdjustRechargeAfterPowerDown                                 
000132e9  NOROM_SysCtrl_DCDC_VoltageConditionalControl                              
00013351  UARTCC26XX_readCancel                                                     
00013421  __TI_decompress_lzss                                                      
00013559  macRxOn                                                                   
00013691  NOROM_OSCHF_AttemptToSwitchToXosc                                         
000136f5  NOROM_SetupGetTrimForAnabypassValue1                                      
00013885  macApiOrphanRsp                                                           
000138e9  macRxDisassoc                                                             
0001394d  macLowLevelReset                                                          
0001394d  macSymbolTimerInit                                                        
0001394d  macSymbolTimerReset                                                       
00013a15  macBuildWSAsyncMsg                                                        
00013a77  __aeabi_idiv0                                                             
00013a77  __aeabi_ldiv0                                                             
00013a79  FHIE_getCcaSfdTime                                                        
00013ad9  NOROM_OSCClockSourceSet                                                   
00013b39  PowerCC26XX_calibrate                                                     
00013bf9  RF_getCurrentTime                                                         
00013c59  UARTCC26XX_control                                                        
00013d19  macIndirectTxFrame                                                        
00013d79  macRadioTxBackoffBoundary                                                 
00013dd9  macRxHaltCleanup                                                          
00013e39  macScanComplete                                                           
00013e99  osal_msg_send                                                             
00013f59  xdc_runtime_Text_putLab__E                                                
00013fb9  FHMGR_updateRadioUCChannel                                                
00014017  ti_sysbios_BIOS_linkedWithIncorrectBootLibrary__E                         
00014019  Cllc_addSecDevice                                                         
00014075  PowerCC26XX_RCOSC_clockFunc                                               
0001412d  macRadioWakeupCb                                                          
00014189  macTrackPeriodCallback                                                    
00014241  xdc_runtime_Startup_getState__I                                           
0001429d  FHDATA_requeuePkt                                                         
000142f5  FHNT_DelDeviceCB                                                          
0001434d  FHUTIL_getBitCounts                                                       
000143a5  MAC_ResumeReq                                                             
000143fd  PIN_remove                                                                
00014455  RF_TxPowerTable_findValue                                                 
0001455d  macBeaconPeriodCallback                                                   
000145b5  macRxOffRequest                                                           
0001460d  macTimerAddTimer                                                          
00014665  macTimerUpdateSymbolTimer                                                 
000146bd  macFrameDuration                                                          
000146bd  macFrameDurationSubG                                                      
00014713  CryptoCC26XX_close                                                        
00014767  ti_sysbios_BIOS_nullFunc__I                                               
00014769  FHSM_event                                                                
000147bd  UartPrintf_flush                                                          
00014811  macBeaconTxCallback                                                       
00014865  macSyncTimeoutCallback                                                    
000148b9  macTrackStartCallback                                                     
0001490d  macUpdatePayloadIEPtr                                                     
00014a09  FHIE_genExcludedChannelMask                                               
00014a5b  FHIE_getSubPie                                                            
00014aad  ClockP_construct                                                          
00014afd  FHMGR_macStartFHTimer                                                     
00014b4d  FHMGR_ucTimerIsrCb                                                        
00014b9d  FHNT_getEUI                                                               
00014bed  NOROM_CRYPTOCcmAuthEncryptResultGet                                       
00014d2d  macBeaconPrepareCallback                                                  
00014d7d  macRadioSetChannel                                                        
00014dcd  macSymbolTimerSetRollover                                                 
00014e6d  FHDH1CF_mapChIdxChannel                                                   
00014ebb  ti_sysbios_knl_Clock_triggerFunc__I                                       
00014ebd  FHPIB_get                                                                 
00014f09  RF_setTxPower                                                             
00014f55  copy_in                                                                   
00014fed  macGetRadioTxPowerReg                                                     
00015039  macIndirectRequeueFrame                                                   
00015085  macRxNokIsr                                                               
0001511d  macTxAckNotReceivedCallback                                               
00015169  icall_slimMsgParser                                                       
000151b3  ti_sysbios_rom_cortexm_cc13xx_CC13xx_badRomRevision__E                    
000151b5  Board_Lcd_writeStringValue                                                
000151fd  Csf_getNumDeviceListEntries                                               
00015245  PIN_setOutputEnable                                                       
0001528d  Timer_construct                                                           
000152d5  Util_itoa                                                                 
00015365  macBeaconStartFrameResponseTimer                                          
000153ad  macRxAssociateReq                                                         
000153f5  macSetupFsCmd                                                             
00015485  FHDH1CF_getCh                                                             
000154cb  FHIE_getCommonInformationLen                                              
00015511  FHAPI_getRemDT                                                            
00015555  MAC_MlmeGetReq                                                            
00015599  RingBuf_put                                                               
000155dd  ResetISR                                                                  
000155dd  _c_int00                                                                  
00015665  macSetupReceiveCmd                                                        
000156a9  macStopCmd                                                                
000156ed  mac_msg_deallocate                                                        
00015731  xdc_runtime_Text_xprintf__I                                               
000157b7  xdc_runtime_SysCallback_defaultAbort                                      
000157b9  FHDH1CF_hashword                                                          
000157f9  FHNT_delTempIndex                                                         
00015839  FHUTIL_getCurUfsi                                                         
00015879  HalTRNG_GetTRNG                                                           
00015979  NOROM_ChipInfo_GetHwRevision                                              
000159b9  NVOCOP_initNV                                                             
00015a39  UART_init                                                                 
00015a79  UART_open                                                                 
00015ab9  __aeabi_uidiv                                                             
00015ab9  __aeabi_uidivmod                                                          
00015af9  ti_sysbios_family_arm_cc26xx_Timer_setThreshold__I                        
00015b39  HwiP_construct                                                            
00015b77  RingBuf_get                                                               
00015bb5  FHMGR_updateHopping                                                       
00015bf1  ICallPlatform_pwrConfigACAction                                           
00015ca5  NOROM_OSC_HPOSCRelativeFrequencyOffsetGet                                 
00015ce1  NOROM_RFCSynthPowerDown                                                   
00015d1d  NVOCOP_compactNV                                                          
00015d59  PowerCC26XX_isStableXOSC_HF                                               
00015dd1  SwiP_construct                                                            
00015e85  macBeaconRequeue                                                          
00015ec1  macCheckPhyRate                                                           
00015efd  macRxDisable                                                              
00015f39  macStartContinue                                                          
00015f75  macSymbolTimerRealignSubG                                                 
00015fb1  macSymbolTimerSetTrigger                                                  
00015fed  osal_msg_extract                                                          
00016029  ti_sysbios_family_arm_m3_Hwi_construct2__E                                
00016065  FHDH1CF_getChannelNum                                                     
0001609f  xdc_runtime_SysCallback_defaultExit                                       
000160a1  Collector_sendToggleLedRequest                                            
000160d9  FHAPI_stopAsync                                                           
00016111  HalTRNG_InitTRNG                                                          
00016181  NVOCOP_readItem                                                           
000161b9  PIN_setOutputValue                                                        
000162d1  macSetUserConfig                                                          
00016309  macSymbolTimerCount                                                       
00016309  macTimerGetTime                                                           
00016341  osal_msg_dequeue                                                          
000163b1  ti_sysbios_family_arm_cc26xx_Timer_getCurrentTick__E                      
00016421  FHIE_getPie                                                               
000164c1  NOROM_DDI32RegWrite                                                       
000164f5  NOROM_OSCHF_SwitchToRcOscTurnOffXosc                                      
00016529  PIN_setConfig                                                             
0001655d  Power_releaseConstraint                                                   
00016591  RF_powerConstraintRelease                                                 
0001662d  macBeaconStopTrack                                                        
00016661  macDataRxInd                                                              
00016695  macStartBeaconPrepareCallback                                             
000166c9  macStartBroadcastPendTimer                                                
000166fd  macTimerRecalcUnaligned                                                   
00016731  macTxDecrypt                                                              
00016765  macTxUpdateIE                                                             
000167cd  osal_msg_enqueue                                                          
00016835  ti_sysbios_family_arm_cc26xx_Timer_initDevice__I                          
00016869  ti_sysbios_knl_Swi_setPri__E                                              
0001689d  FHIE_getHie                                                               
00016901  macScanCnfInit                                                            
00016933  ti_sysbios_family_arm_cc26xx_Timer_setNextTick__E                         
00016965  Csf_setConfigClock                                                        
00016995  Csf_setTrackingClock                                                      
000169c5  FHAPI_SFDRxCb                                                             
000169f5  FSM_transaction_debug                                                     
00016a25  HalFlashRead                                                              
00016a55  ICallPlatform_pwrRegisterNotify                                           
00016a85  NOROM_CRYPTOAesCbcStatus                                                  
00016a85  NOROM_CRYPTOAesEcbStatus                                                  
00016ab5  NOROM_CRYPTOCcmAuthEncryptStatus                                          
00016ae5  NOROM_CRYPTOCcmInvAuthDecryptStatus                                       
00016b15  NOROM_ChipInfo_GetChipType                                                
00016b45  NOROM_SetupSetAonRtcSubSecInc                                             
00016b75  Power_setConstraint                                                       
00016c35  macBcTimerHandler                                                         
00016c65  macMRFSKGetPhyDesc                                                        
00016c95  macRxOrphan                                                               
00016cf5  macTimerSetRollover                                                       
00016d25  osal_alien2proxy                                                          
00016d85  ti_sysbios_BIOS_atExitFunc__I                                             
00016db5  ti_sysbios_BIOS_startFunc__I                                              
00016de5  Csf_getDeviceShort                                                        
00016ec9  FHIE_getExcludedChannelControl                                            
00016ef5  NOROM_OSCClockSourceGet                                                   
00016f21  NOROM_RFCCpePatchReset                                                    
00016f4d  PINCC26XX_setMux                                                          
00016fd1  SemaphoreP_constructBinary                                                
00016ffd  UartPrintf_putch                                                          
00017081  macBeaconInit                                                             
000170ad  macPibReset                                                               
000170d9  macRadioSetPanCoordinator                                                 
00017131  sAddrCmp                                                                  
0001715d  ti_sysbios_knl_Clock_getTicksUntilInterrupt__E                            
00017189  xdc_runtime_Text_printVisFxn__I                                           
000171b5  ti_sysbios_knl_Clock_getTimeout__E                                        
000171df  xdc_runtime_System_putchar__I                                             
00017209  CryptoCC26XX_releaseKey                                                   
00017231  FHMGR_macCancelFHTimer                                                    
00017281  MAC_MlmeGetPointerSecurityReq                                             
000172a9  NOROM_AONBatMonTemperatureGetDegC                                         
000172d1  NOROM_RFCDoorbellSendTo                                                   
000172f9  Power_registerNotify                                                      
00017321  RF_getTxPower                                                             
00017349  SafeHapiVoid                                                              
000173c1  macApiPending                                                             
000173e9  macBeaconCheckSched                                                       
00017411  macBeaconSetPrepareTime                                                   
00017439  macCoordAddrCmp                                                           
00017461  macGetCoordAddress                                                        
00017489  macRadioStopScan                                                          
000174b1  macRxHardDisable                                                          
000174d9  macStartComplete                                                          
00017501  macTxRequestCsmaRtcDelay                                                  
00017529  osal_mem_alloc                                                            
00017551  osal_next_timeout                                                         
000175a1  FHUTIL_getMaxChannels                                                     
000175c7  FHUTIL_getTxUfsi                                                          
00017613  xdc_runtime_System_vprintf__E                                             
00017639  CryptoCC26XX_hwiIntFxn                                                    
0001765d  FHAPI_getTxChHoppingFunc                                                  
00017681  FHPIB_getLen                                                              
000176c9  List_remove                                                               
00017735  macBeaconReset                                                            
00017759  macGetRadioState                                                          
0001777d  macRadioTxRequestTxAck                                                    
000177a1  macRxSoftDisable                                                          
000177c5  macTimerAligned                                                           
000177e9  memcmp                                                                    
0001780d  osal_msg_allocate                                                         
00017855  ti_sysbios_BIOS_registerRTSLock__I                                        
00017879  ti_sysbios_BIOS_removeRTSLock__I                                          
0001789d  ti_sysbios_family_arm_cc26xx_Timer_getMaxTicks__E                         
000178c1  List_get                                                                  
000178e3  List_insert                                                               
00017905  List_put                                                                  
00017927  List_putHead                                                              
0001796d  CryptoCC26XX_init                                                         
0001798d  FHDATA_updateCCA                                                          
000179ad  FHUTIL_updateUcNumChannels                                                
000179cd  HalFlashGetAddress                                                        
000179ed  osal_mem_free                                                             
00017b2d  MAC_GetPHYParamReq                                                        
00017b4d  NOROM_RFCAdi3VcoLdoVoltageMode                                            
00017b6d  PowerCC26XX_schedulerDisable                                              
00017b8d  PowerCC26XX_schedulerRestore                                              
00017bad  Power_unregisterNotify                                                    
00017c2d  macBeaconCoordReset                                                       
00017c4d  macDataRxMemAlloc                                                         
00017c6d  macDataSend                                                               
00017c8d  macRadioSwInit                                                            
00017cad  macRxBeaconReq                                                            
00017ccd  macRxOff                                                                  
00017ced  macRxSoftEnable                                                           
00017d0d  osal_memcmp                                                               
00017d2d  osal_msg_push                                                             
00017d4d  ti_sysbios_BIOS_rtsLock__I                                                
00017d6d  ti_sysbios_family_arm_cc26xx_Timer_dynamicStub__E                         
00017d8d  ti_sysbios_knl_Clock_stop__E                                              
00017dad  xdc_runtime_Registry_findById__E                                          
00017dcd  PIN_close                                                                 
00017deb  Power_getTransitionLatency                                                
00017e27  macPibIndex                                                               
00017e45  macScanFailedInProgress                                                   
00017e63  macTimerRemoveTimer                                                       
00017e81  Cllc_securityFill                                                         
00017e9d  FHAPI_setStateCb                                                          
00017eb9  FHPIB_getIndex                                                            
00017f0d  NOROM_ChipInfo_GetChipFamily                                              
00017f29  NOROM_FlashProgram                                                        
00017f45  NOROM_FlashSectorErase                                                    
00017fb5  RF_getRssi                                                                
00017fd1  RF_powerConstraintSet                                                     
00018041  macConflictSyncLossInd                                                    
0001805d  macMcuTimerCapture                                                        
00018079  macRadioSetRE                                                             
00018095  macRxAckTxDoneCallback                                                    
00018095  macTxAckIsr                                                               
000180cd  macSymbolTimerSetTriggerRollover                                          
000180e9  macTimer                                                                  
000181ad  sAddrExtCmp                                                               
000181c9  ti_sysbios_knl_Swi_construct2__E                                          
000181e5  copyApiMacAddrToMacAddr                                                   
000181ff  macCheckPhyMode                                                           
00018219  macLowLevelDiags                                                          
00018233  xdc_runtime_System_printf__E                                              
0001824d  ApiMac_mlmeSetReqBool                                                     
00018265  ApiMac_mlmeSetReqUint16                                                   
0001827d  ApiMac_mlmeSetReqUint8                                                    
00018295  FHAPI_getBitCount                                                         
000182ad  HalAesInit                                                                
000182c5  ICallPlatform_pwrDispense                                                 
000182dd  ICallPlatform_pwrRequire                                                  
000182f5  NOROM_AONRTCCurrentCompareValueGet                                        
0001830d  NOROM_ChipInfo_GetPackageType                                             
00018325  NOROM_OSCHF_TurnOnXosc                                                    
0001833d  NOROM_RFCCpeIntGetAndClear                                                
00018355  Power_idleFunc                                                            
0001836d  RF_cancelCmd                                                              
0001839d  UARTCC26XX_init                                                           
000183b5  UART_Params_init                                                          
000183cd  _args_main                                                                
00018445  macGetMyAddrMode                                                          
0001845d  macRadioSetIEEEAddr                                                       
00018475  macRadioSetShortAddr                                                      
0001848d  macRxOnRequest                                                            
000184a5  macStateIdleOrPolling                                                     
000184bd  macSymbolTimerRestore                                                     
000184d5  macTimerInit                                                              
000184ed  macTxAbortIsr                                                             
00018505  macWrapper8ByteUnused                                                     
0001851d  osal_memcpy                                                               
0001854d  __aeabi_lmul                                                              
00018565  ti_sysbios_BIOS_rtsUnlock__I                                              
0001857d  ti_sysbios_knl_Swi_or__E                                                  
00018595  ti_sysbios_rom_cortexm_cc13xx_CC13xx_checkRevision__E                     
000185db  Util_clearEvent                                                           
000185f1  Util_setEvent                                                             
00018607  ti_sysbios_BIOS_exitFunc__I                                               
0001861d  ApiMac_mcpsDataReq                                                        
00018631  FHPIB_reset                                                               
00018645  List_clearList                                                            
00018659  MAC_CbackQueryRetransmit                                                  
0001866d  NOROM_AONRTCCurrent64BitValueGet                                          
00018681  PIN_getInputValue                                                         
00018695  RF_Params_init                                                            
000186a9  RF_RatConfigCompare_init                                                  
000186d1  RF_flushCmd                                                               
000186e5  RF_ratCompare                                                             
00018749  macDataTxTimeAvailable                                                    
0001875d  macMainReserve                                                            
00018771  macMcuOverflowCapture                                                     
00018785  macRadioSetPanID                                                          
00018799  macRxPanConflict                                                          
000187ad  macStateScanning                                                          
000187c1  macWSAsyncCnf                                                             
000187e9  sAddrCpy                                                                  
00018811  strlen                                                                    
00018839  ti_sysbios_knl_Clock_doTick__I                                            
0001884d  Board_Lcd_writeString                                                     
00018861  FHNT_assessTime                                                           
00018873  FHUTIL_getElapsedTime                                                     
00018885  RF_getCmdOp                                                               
00018897  RingBuf_construct                                                         
000188a9  SemaphoreP_pend                                                           
000188bb  macRadioSetTxPower                                                        
000188cd  macSecurityPibIndex                                                       
000188df  osal_msg_deallocate                                                       
000188f1  xdc_runtime_Startup_exec__I                                               
00018905  ApiMac_mlmeGetReqUint16                                                   
00018915  ApiMac_mlmeSetReqArray                                                    
00018925  ApiMac_mlmeSetSecurityReqStruct                                           
00018935  ClockP_isActive                                                           
00018945  HAL_APPASRT_callAssrtHanlder                                              
00018955  HwiP_Params_init                                                          
00018965  ICallPlatform_pwrGetXOSCStartupTime                                       
00018975  Main_assertHandler                                                        
00018985  NOROM_RFCHwIntGetAndClear                                                 
00018995  NOROM_RFCRfTrimSet                                                        
000189a5  PINCC26XX_getPinCount                                                     
000189d5  SwiP_Params_init                                                          
000189e5  Timer_isActive                                                            
000189f5  macCheckSched                                                             
00018a05  macRadioPowerCtrlFEM                                                      
00018a15  macRxEnable                                                               
00018a25  macSetEvent16                                                             
00018a35  macSetEvent                                                               
00018a55  ti_sysbios_family_arm_m3_Hwi_post__E                                      
00018a55  ti_sysbios_hal_Hwi_HwiProxy_post__E                                       
00018a55  ti_sysbios_hal_Hwi_post__E                                                
00018a85  xdc_runtime_SysCallback_putch__E                                          
00018a85  xdc_runtime_System_SupportProxy_putch__E                                  
00018a95  xdc_runtime_SysCallback_ready__E                                          
00018a95  xdc_runtime_System_SupportProxy_ready__E                                  
00018aa5  xdc_runtime_System_vsnprintf__E                                           
00018ab5  FHMGR_macGetElapsedFHTime                                                 
00018ac3  ICallPlatform_pwrGetTransitionState                                       
00018ad1  ICallPlatform_pwrIsStableXOSCHF                                           
00018adf  NOROM_VIMSModeGet                                                         
00018aed  Util_buildUint32                                                          
00018afb  __TI_decompress_none                                                      
00018b09  ti_sysbios_family_arm_cc26xx_TimestampProvider_get32__E                   
00018b09  xdc_runtime_Timestamp_SupportProxy_get32__E__mangled__                    
00018b17  NOROM_CPUcpsid                                                            
00018b23  NOROM_CPUcpsie                                                            
00018b2f  NOROM_OSC_HPOSCRelativeFrequencyOffsetToRFCoreFormatConvert               
00018b3b  PIN_registerIntCb                                                         
00018b49  Power_getConstraintMask                                                   
00018b55  Power_getDependencyCount                                                  
00018b61  Power_getTransitionState                                                  
00018b6d  RF_powerConstraintGet                                                     
00018b79  _register_lock                                                            
00018b85  _register_unlock                                                          
00018b9d  __TI_zero_init                                                            
00018ba9  macDataRxMemFree                                                          
00018bb5  macIsCsmOperational                                                       
00018bc1  macRadioTxCancelAckTimeout                                                
00018bcd  macRadioTxCancelTxAck                                                     
00018bd9  osal_self                                                                 
00018be5  ti_sysbios_BIOS_getThreadType__E                                          
00018bf1  ti_sysbios_hal_Hwi_Params__init__S                                        
00018bfd  ti_sysbios_knl_Swi_getTrigger__E                                          
00018c09  xdc_runtime_Startup_reset__I                                              
00018c15  xdc_runtime_Startup_rtsDone__E                                            
00018c21  ClockP_Params_init                                                        
00018c2b  HalFlashWrite                                                             
00018c35  ICallPlatform_pwrSwitchXOSCHF                                             
00018c3f  MAC_MlmeAssociateRsp                                                      
00018c49  MAC_MlmeOrphanRsp                                                         
00018c53  UART_write                                                                
00018c5d  Util_copyExtAddr                                                          
00018c71  MAC_RandomByte                                                            
00018c71  macMcuRandomByte                                                          
00018c71  macRadioRandomByte                                                        
00018c7b  macSetSched                                                               
00018c85  CryptoCC26XX_Params_init                                                  
00018c8d  MAC_MlmeStartReq                                                          
00018c95  MAC_MlmeSyncReq                                                           
00018c9d  RF_RatConfigOutput_init                                                   
00018ca5  RF_ScheduleCmdParams_init                                                 
00018cad  Timer_setTimeout                                                          
00018cb5  Util_breakUint32                                                          
00018cbd  Util_buildUint16                                                          
00018ccd  macCsmaTimerExpiry                                                        
00018ced  xdc_runtime_Text_visitRope__I                                             
00018cf5  CryptoCC26XX_transact                                                     
00018cfb  CryptoCC26XX_transactCallback                                             
00018d01  CryptoCC26XX_transactPolling                                              
00018d07  FHDATA_asyncMinTxOffTimerCb                                               
00018d0d  FHDATA_procEDFEReq                                                        
00018d13  FHDATA_startEDFEReq                                                       
00018d19  FHMGR_BCTimerEventUpd                                                     
00018d1f  FHMGR_pendBcChUpdate                                                      
00018d25  FHMGR_pendUcChUpdate                                                      
00018d2b  Main_excHandler                                                           
00018d31  NOROM_CPUdelay                                                            
00018d3d  RF_runDirectCmd                                                           
00018d43  RF_runImmediateCmd                                                        
00018d49  UARTCC26XX_readPolling                                                    
00018d4f  UARTCC26XX_writePolling                                                   
00018d55  Util_hiUint16                                                             
00018d5b  halAssertHandler                                                          
00018d61  macApiBadState                                                            
00018d67  macBeaconBattLifeCallback                                                 
00018d6d  macBroadcastPendCallback                                                  
00018d73  macHalAssertHandler                                                       
00018d79  macSecCpy                                                                 
00018d7f  sAddrExtCpy                                                               
00018d85  ti_sysbios_family_arm_m3_Hwi_setFunc__E                                   
00018d8f  ClockP_destruct                                                           
00018d93  ClockP_getCpuFreq                                                         
00018d97  ClockP_getTimeout                                                         
00018d9b  ClockP_setTimeout                                                         
00018d9f  ClockP_start                                                              
00018da3  ClockP_stop                                                               
00018da7  CryptoCC26XX_Transac_init                                                 
00018dab  FHUTIL_assert                                                             
00018daf  FHUTIL_elapsedTime                                                        
00018db3  HwiP_destruct                                                             
00018db7  HwiP_disable                                                              
00018dbb  HwiP_enableInterrupt                                                      
00018dbf  HwiP_post                                                                 
00018dc3  HwiP_setFunc                                                              
00018dc7  HwiP_setPriority                                                          
00018dcb  PowerCC26XX_switchXOSC_HF                                                 
00018dcf  SemaphoreP_destruct                                                       
00018dd3  SemaphoreP_post                                                           
00018dd7  SwiP_destruct                                                             
00018ddb  SwiP_disable                                                              
00018ddf  SwiP_getTrigger                                                           
00018de3  SwiP_or                                                                   
00018de7  SwiP_setPriority                                                          
00018deb  Timer_start                                                               
00018def  Timer_stop                                                                
00018df3  Util_loUint16                                                             
00018df7  macRadioComputeLQI                                                        
00018e03  osal_memset                                                               
00018e07  osal_strlen                                                               
00018e0f  ti_sysbios_family_arm_cc26xx_Timer_getCount64__E                          
00018e13  ti_sysbios_knl_Clock_isActive__E                                          
00018e17  xdc_runtime_SysCallback_defaultReady                                      
00018e1b  xdc_runtime_System_printf_va__F                                           
00019a1c  macRfDriverTable                                                          
00019a88  txPowerTable_subg_CC1310                                                  
00019add  txPowerTable_subg_CC1350                                                  
00019b2d  loDivider                                                                 
00019b30  macCryptoDriverTable                                                      
00019b58  macTxPwrTbl                                                               
00019b68  __TI_static_base__                                                        
00019f94  __TI_Handler_Table_Base                                                   
00019fa0  __TI_Handler_Table_Limit                                                  
00019fd8  __TI_CINIT_Base                                                           
0001a038  __TI_CINIT_Limit                                                          
0001e000  NV_FLASH                                                                  
0001f1e1  icall_directAPI                                                           
0001f275  ICall_heapMalloc                                                          
0001f365  ICall_createRemoteTasks                                                   
0001f7ad  ICall_searchServiceEntity                                                 
0001f871  ICall_heapFree                                                            
0001f97f  ICall_enterCSImpl                                                         
0001f9d3  ICall_leaveCSImpl                                                         
0001ffa8  __ccfg                                                                    
1001a001  ti_sysbios_knl_Semaphore_pend__E                                          
1001a0cd  ti_sysbios_knl_Mailbox_Instance_init__E                                   
1001a195  ti_sysbios_heaps_HeapMem_alloc__E                                         
1001a259  ti_sysbios_knl_Task_Instance_init__E                                      
1001a315  ti_sysbios_family_arm_m3_Hwi_postInit__I                                  
1001a3c5  ti_sysbios_family_arm_m3_Hwi_Instance_init__E                             
1001a465  ti_sysbios_family_arm_cc26xx_Timer_periodicStub__E                        
1001a4f9  ti_sysbios_knl_Task_Instance_finalize__E                                  
1001a58d  ti_sysbios_knl_Mailbox_post__E                                            
1001a611  ti_sysbios_knl_Task_postInit__I                                           
1001a695  ti_sysbios_family_arm_m3_Hwi_initNVIC__E                                  
1001a715  ti_sysbios_knl_Clock_startI__E                                            
1001a791  ti_sysbios_heaps_HeapMem_free__E                                          
1001a809  ti_sysbios_knl_Clock_walkQueueDynamic__E                                  
1001a881  ti_sysbios_knl_Clock_workFunc__E                                          
1001a8f9  ti_sysbios_knl_Mailbox_Instance_finalize__E                               
1001a969  ti_sysbios_knl_Mailbox_pend__E                                            
1001a9d9  ti_sysbios_knl_Task_sleep__E                                              
1001aa49  ti_sysbios_family_arm_m3_Hwi_dispatchC__I                                 
1001aab1  ti_sysbios_family_arm_m3_Hwi_Object__create__S                            
1001ab15  ti_sysbios_family_arm_m3_Hwi_create                                       
1001ab79  ti_sysbios_hal_Hwi_create                                                 
1001abdd  ti_sysbios_knl_Mailbox_create                                             
1001ac41  ti_sysbios_knl_Semaphore_post__E                                          
1001aca5  ti_sysbios_knl_Swi_Instance_init__E                                       
1001ad05  ti_sysbios_knl_Swi_create                                                 
1001ad61  ti_sysbios_knl_Swi_restoreHwi__E                                          
1001adbd  ti_sysbios_knl_Task_Module_startup__E                                     
1001ae19  ti_sysbios_knl_Task_create                                                
1001ae75  ti_sysbios_knl_Task_startCore__E                                          
1001aed1  ti_sysbios_family_arm_m3_Hwi_Instance_finalize__E                         
1001af29  ti_sysbios_family_arm_m3_Hwi_construct                                    
1001af81  ti_sysbios_knl_Mailbox_construct                                          
1001afd9  ti_sysbios_knl_Swi_run__I                                                 
1001b031  ti_sysbios_knl_Swi_schedule__I                                            
1001b085  ti_sysbios_knl_Swi_construct                                              
1001b0d5  ti_sysbios_knl_Swi_runLoop__I                                             
1001b125  ti_sysbios_knl_Task_construct                                             
1001b175  ti_sysbios_knl_Task_schedule__I                                           
1001b1c1  ti_sysbios_family_arm_m3_Hwi_Module_startup__E                            
1001b209  ti_sysbios_heaps_HeapMem_getStats__E                                      
1001b251  ti_sysbios_family_arm_m3_Hwi_disableInterrupt__E                          
1001b251  ti_sysbios_hal_Hwi_HwiProxy_disableInterrupt__E__mangled__                
1001b295  ti_sysbios_family_arm_m3_Hwi_enableInterrupt__E                           
1001b295  ti_sysbios_hal_Hwi_HwiProxy_enableInterrupt__E__mangled__                 
1001b2d9  ti_sysbios_knl_Mailbox_Module_startup__E                                  
1001b31d  ti_sysbios_knl_Swi_post__E                                                
1001b361  ti_sysbios_knl_Task_allBlockedFunction__I                                 
1001b3a5  ti_sysbios_knl_Task_yield__E                                              
1001b3e9  ti_sysbios_knl_Clock_create                                               
1001b425  ti_sysbios_knl_Task_exit__E                                               
1001b45f  ti_sysbios_gates_GateHwi_Instance_init__E                                 
1001b461  ti_sysbios_family_arm_m3_Hwi_getStackInfo__E                              
1001b461  ti_sysbios_hal_Hwi_HwiProxy_getStackInfo__E__mangled__                    
1001b499  ti_sysbios_family_arm_m3_TaskSupport_start__E                             
1001b499  ti_sysbios_knl_Task_SupportProxy_start__E__mangled__                      
1001b4d1  ti_sysbios_heaps_HeapMem_Instance_init__E                                 
1001b509  ti_sysbios_knl_Clock_Instance_init__E                                     
1001b541  ti_sysbios_heaps_HeapMem_init__I                                          
1001b575  ti_sysbios_knl_Clock_construct                                            
1001b5a9  ti_sysbios_knl_Semaphore_create                                           
1001b5dd  SwiP_restore                                                              
1001b5dd  ti_sysbios_knl_Swi_restore__E                                             
1001b611  ti_sysbios_knl_Task_blockI__E                                             
1001b645  ti_sysbios_gates_GateMutex_Object__create__S                              
1001b675  ti_sysbios_gates_GateMutex_create                                         
1001b6a5  ti_sysbios_gates_GateMutex_enter__E                                       
1001b6d5  ClockP_getSystemTicks                                                     
1001b6d5  ti_sysbios_knl_Clock_getTicks__E                                          
1001b705  ti_sysbios_knl_Semaphore_construct                                        
1001b735  ti_sysbios_knl_Task_processVitalTaskFlag__I                               
1001b765  ti_sysbios_family_arm_cc26xx_Timer_postInit__I                            
1001b791  ti_sysbios_family_arm_cc26xx_Timer_startup__E                             
1001b791  ti_sysbios_knl_Clock_TimerProxy_startup__E                                
1001b791  ti_sysbios_knl_Clock_TimerProxy_startup__E__mangled__                     
1001b7bd  ti_sysbios_family_arm_m3_Hwi_Object__get__S                               
1001b7e9  ti_sysbios_gates_GateMutex_construct                                      
1001b815  ti_sysbios_hal_Hwi_initStack                                              
1001b841  ti_sysbios_heaps_HeapMem_Object__create__S                                
1001b86d  ti_sysbios_heaps_HeapMem_Object__get__S                                   
1001b899  ti_sysbios_knl_Mailbox_Object__get__S                                     
1001b8c5  ti_sysbios_knl_Mailbox_postInit__I                                        
1001b8f1  ti_sysbios_knl_Queue_construct                                            
1001b91d  ti_sysbios_knl_Queue_create                                               
1001b949  ti_sysbios_knl_Semaphore_pendTimeout__I                                   
1001b975  ti_sysbios_knl_Swi_Object__get__S                                         
1001b9a1  ti_sysbios_knl_Task_unblockI__E                                           
1001b9cd  ti_sysbios_family_arm_cc26xx_TimestampProvider_get64__E                   
1001b9cd  xdc_runtime_Timestamp_SupportProxy_get64__E                               
1001b9cd  xdc_runtime_Timestamp_SupportProxy_get64__E__mangled__                    
1001b9cd  xdc_runtime_Timestamp_get64__E                                            
1001b9cd  xdc_runtime_Timestamp_get64__E                                            
1001b9f5  ti_sysbios_hal_Hwi_Instance_init__E                                       
1001ba1d  ti_sysbios_knl_Clock_addI__E                                              
1001ba45  ti_sysbios_knl_Task_restore__E                                            
1001ba6d  ti_sysbios_family_arm_cc26xx_Timer_Module_startup__E                      
1001ba91  ti_sysbios_gates_GateHwi_Object__create__S                                
1001bab5  ti_sysbios_BIOS_RtsGateProxy_Object__delete__S                            
1001bab5  ti_sysbios_gates_GateMutex_Object__delete__S                              
1001bab5  ti_sysbios_heaps_HeapMem_Module_GateProxy_Object__delete__S               
1001bad9  ti_sysbios_knl_Clock_Object__delete__S                                    
1001bafd  ti_sysbios_knl_Semaphore_Instance_init__E                                 
1001bb21  ti_sysbios_knl_Semaphore_Object__delete__S                                
1001bb45  ti_sysbios_family_arm_cc26xx_Timer_Module__startupDone__S                 
1001bb45  ti_sysbios_knl_Clock_TimerProxy_Module__startupDone__S__mangled__         
1001bb65  ti_sysbios_family_arm_cc26xx_TimestampProvider_Module_startup__E          
1001bb85  ti_sysbios_family_arm_m3_Hwi_Module__startupDone__S                       
1001bb85  ti_sysbios_hal_Hwi_HwiProxy_Module__startupDone__S__mangled__             
1001bba5  ti_sysbios_family_arm_m3_Hwi_Object__delete__S                            
1001bba5  ti_sysbios_hal_Hwi_HwiProxy_Object__delete__S                             
1001bbc5  ti_sysbios_family_arm_m3_Hwi_excHandler__I                                
1001bbe5  ti_sysbios_gates_GateHwi_Handle__label__S                                 
1001bbe5  xdc_runtime_Main_Module_GateProxy_Handle__label__S                        
1001bbe5  xdc_runtime_System_Module_GateProxy_Handle__label__S                      
1001bbe5  xdc_runtime_System_Module_GateProxy_Handle__label__S__mangled__           
1001bc05  ti_sysbios_gates_GateHwi_Object__delete__S                                
1001bc05  xdc_runtime_System_Module_GateProxy_Object__delete__S                     
1001bc25  ti_sysbios_BIOS_RtsGateProxy_Handle__label__S                             
1001bc25  ti_sysbios_BIOS_RtsGateProxy_Handle__label__S__mangled__                  
1001bc25  ti_sysbios_gates_GateMutex_Handle__label__S                               
1001bc25  ti_sysbios_heaps_HeapMem_Module_GateProxy_Handle__label__S                
1001bc25  ti_sysbios_heaps_HeapMem_Module_GateProxy_Handle__label__S__mangled__     
1001bc45  ti_sysbios_gates_GateMutex_Object__destruct__S                            
1001bc65  ti_sysbios_hal_Hwi_Object__delete__S                                      
1001bc85  ti_sysbios_heaps_HeapMem_Handle__label__S                                 
1001bc85  xdc_runtime_Memory_HeapProxy_Handle__label__S                             
1001bc85  xdc_runtime_Memory_HeapProxy_Handle__label__S__mangled__                  
1001bca5  ti_sysbios_heaps_HeapMem_Object__delete__S                                
1001bca5  xdc_runtime_Memory_HeapProxy_Object__delete__S                            
1001bcc5  ti_sysbios_knl_Clock_Module_startup__E                                    
1001bce5  ti_sysbios_knl_Clock_Object__destruct__S                                  
1001bd05  ti_sysbios_knl_Idle_run__E                                                
1001bd25  ti_sysbios_knl_Mailbox_Object__delete__S                                  
1001bd45  ti_sysbios_knl_Queue_Object__delete__S                                    
1001bd65  ti_sysbios_knl_Queue_Object__get__S                                       
1001bd85  ti_sysbios_knl_Semaphore_Object__destruct__S                              
1001bda5  ti_sysbios_knl_Swi_Object__delete__S                                      
1001bdc5  ti_sysbios_knl_Task_Object__delete__S                                     
1001bde5  ti_sysbios_knl_Task_Object__get__S                                        
1001be05  ti_sysbios_knl_Task_enter__I                                              
1001be25  ti_sysbios_knl_Task_restoreHwi__E                                         
1001be45  ti_sysbios_hal_Hwi_HwiProxy_create                                        
1001be63  ti_sysbios_knl_Clock_logTick__E                                           
1001be65  ti_sysbios_family_arm_m3_Hwi_Object__destruct__S                          
1001be81  ti_sysbios_family_arm_m3_Hwi_setPriority__E                               
1001be9d  ti_sysbios_gates_GateMutex_Instance_init__E                               
1001beb9  ti_sysbios_knl_Clock_scheduleNextTick__E                                  
1001bed5  ti_sysbios_knl_Mailbox_Object__destruct__S                                
1001bef1  ti_sysbios_knl_Queue_Object__destruct__S                                  
1001bf0d  ti_sysbios_knl_Queue_get__E                                               
1001bf29  ti_sysbios_knl_Queue_put__E                                               
1001bf45  ti_sysbios_knl_Swi_Object__destruct__S                                    
1001bf61  ti_sysbios_knl_Task_Object__destruct__S                                   
1001bf7d  ti_sysbios_knl_Task_sleepTimeout__I                                       
1001bf97  ti_sysbios_knl_Swi_Instance_finalize__E                                   
1001bf99  ti_sysbios_gates_GateMutex_leave__E                                       
1001bfb1  ti_sysbios_knl_Task_unblock__E                                            
1001bfc9  ti_sysbios_knl_Clock_Instance_finalize__E                                 
1001bfdf  ti_sysbios_knl_Clock_start__E                                             
1001bff5  ti_sysbios_BIOS_getCpuFreq__E                                             
1001c009  ti_sysbios_family_arm_m3_Hwi_switchFromBootStack__E                       
1001c009  ti_sysbios_hal_Hwi_HwiProxy_switchFromBootStack__E__mangled__             
1001c01d  ti_sysbios_hal_Hwi_Module_startup__E                                      
1001c031  ti_sysbios_BIOS_exit__E                                                   
1001c041  ti_sysbios_BIOS_setThreadType__E                                          
1001c051  ti_sysbios_BIOS_start__E                                                  
1001c061  ti_sysbios_family_arm_m3_Hwi_plug__E                                      
1001c071  ti_sysbios_gates_GateMutex_Instance_finalize__E                           
1001c081  ti_sysbios_hal_Hwi_HwiProxy_Object__create__S                             
1001c091  ti_sysbios_knl_Clock_TimerProxy_getCurrentTick__E                         
1001c0a1  ti_sysbios_knl_Clock_TimerProxy_getMaxTicks__E                            
1001c0b1  ti_sysbios_knl_Clock_TimerProxy_setNextTick__E                            
1001c0c1  ti_sysbios_knl_Semaphore_Instance_finalize__E                             
1001c0d1  ti_sysbios_knl_Swi_disable__E                                             
1001c0e1  ti_sysbios_knl_Swi_enabled__E                                             
1001c0f1  ti_sysbios_knl_Task_disable__E                                            
1001c101  ti_sysbios_heaps_HeapMem_restore__E                                       
1001c10f  ti_sysbios_knl_Queue_empty__E                                             
1001c11d  ti_sysbios_knl_Queue_remove__E                                            
1001c12b  ti_sysbios_family_arm_cc26xx_TimestampProvider_getFreq__E                 
1001c12b  xdc_runtime_Timestamp_SupportProxy_getFreq__E                             
1001c12b  xdc_runtime_Timestamp_SupportProxy_getFreq__E__mangled__                  
1001c12b  xdc_runtime_Timestamp_getFreq__E                                          
1001c12b  xdc_runtime_Timestamp_getFreq__E                                          
1001c139  ti_sysbios_family_arm_m3_Hwi_Params__init__S                              
1001c139  ti_sysbios_hal_Hwi_HwiProxy_Params__init__S                               
1001c139  ti_sysbios_hal_Hwi_HwiProxy_Params__init__S__mangled__                    
1001c145  ti_sysbios_family_arm_m3_Hwi_disableFxn__E                                
1001c151  ti_sysbios_family_arm_m3_Hwi_enableFxn__E                                 
1001c15d  ti_sysbios_family_arm_m3_TaskSupport_getStackAlignment__E                 
1001c15d  ti_sysbios_knl_Task_SupportProxy_getStackAlignment__E__mangled__          
1001c169  ti_sysbios_gates_GateHwi_enter__E                                         
1001c175  ti_sysbios_BIOS_RtsGateProxy_Params__init__S                              
1001c175  ti_sysbios_BIOS_RtsGateProxy_Params__init__S__mangled__                   
1001c175  ti_sysbios_gates_GateMutex_Params__init__S                                
1001c175  ti_sysbios_heaps_HeapMem_Module_GateProxy_Params__init__S                 
1001c175  ti_sysbios_heaps_HeapMem_Module_GateProxy_Params__init__S__mangled__      
1001c181  ti_sysbios_knl_Clock_Params__init__S                                      
1001c18d  ti_sysbios_knl_Clock_getTimerHandle__E                                    
1001c199  ti_sysbios_knl_Mailbox_Params__init__S                                    
1001c1a5  ti_sysbios_knl_Queue_dequeue__E                                           
1001c1b1  ti_sysbios_knl_Queue_enqueue__E                                           
1001c1bd  ti_sysbios_knl_Semaphore_Params__init__S                                  
1001c1c9  ti_sysbios_knl_Swi_Params__init__S                                        
1001c1d5  ti_sysbios_knl_Task_Params__init__S                                       
1001c1e1  ti_sysbios_knl_Task_self__E                                               
1001c1ed  ti_sysbios_hal_Hwi_Instance_finalize__E                                   
1001c1f7  ti_sysbios_family_arm_m3_Hwi_doSwiRestore__I                              
1001c1ff  ti_sysbios_family_arm_m3_Hwi_startup__E                                   
1001c1ff  ti_sysbios_hal_Hwi_HwiProxy_startup__E__mangled__                         
1001c207  ti_sysbios_knl_Idle_loop__E                                               
1001c20f  ti_sysbios_family_arm_m3_Hwi_doTaskRestore__I                             
1001c215  HwiP_restore                                                              
1001c215  ti_sysbios_family_arm_m3_Hwi_restoreFxn__E                                
1001c21b  ti_sysbios_gates_GateHwi_leave__E                                         
1001c227  ti_sysbios_knl_Queue_Instance_init__E                                     
1001c22d  ti_sysbios_knl_Queue_elemClear__E                                         
1001c233  ti_sysbios_knl_Swi_Module_startup__E                                      
1001c239  ti_sysbios_knl_Swi_startup__E                                             
1001c23f  ti_sysbios_knl_Task_enable__E                                             
1001c245  ti_sysbios_BIOS_RtsGateProxy_enter__E                                     
1001c249  ti_sysbios_BIOS_RtsGateProxy_leave__E                                     
1001c24d  ti_sysbios_family_arm_cc26xx_Timer_getExpiredTicks__E                     
1001c251  ti_sysbios_family_arm_cc26xx_Timer_getPeriod__E                           
1001c255  ti_sysbios_family_arm_cc26xx_Timer_setPeriod__E                           
1001c259  ti_sysbios_family_arm_m3_Hwi_delete                                       
1001c25d  ti_sysbios_family_arm_m3_Hwi_destruct                                     
1001c261  ti_sysbios_family_arm_m3_TaskSupport_Module__startupDone__S               
1001c261  ti_sysbios_knl_Task_SupportProxy_Module__startupDone__S__mangled__        
1001c265  ti_sysbios_gates_GateHwi_query__E                                         
1001c265  xdc_runtime_Main_Module_GateProxy_query__E                                
1001c265  xdc_runtime_System_Module_GateProxy_query__E                              
1001c265  xdc_runtime_System_Module_GateProxy_query__E__mangled__                   
1001c269  ti_sysbios_gates_GateMutex_delete                                         
1001c26d  ti_sysbios_gates_GateMutex_destruct                                       
1001c271  ti_sysbios_BIOS_RtsGateProxy_query__E                                     
1001c271  ti_sysbios_BIOS_RtsGateProxy_query__E__mangled__                          
1001c271  ti_sysbios_gates_GateMutex_query__E                                       
1001c271  ti_sysbios_heaps_HeapMem_Module_GateProxy_query__E                        
1001c271  ti_sysbios_heaps_HeapMem_Module_GateProxy_query__E__mangled__             
1001c275  ti_sysbios_hal_Hwi_HwiProxy_Module__startupDone__S                        
1001c279  ti_sysbios_hal_Hwi_HwiProxy_delete                                        
1001c27d  ti_sysbios_hal_Hwi_HwiProxy_disableInterrupt__E                           
1001c27d  ti_sysbios_hal_Hwi_disableInterrupt__E                                    
1001c27d  ti_sysbios_hal_Hwi_disableInterrupt__E                                    
1001c281  ti_sysbios_hal_Hwi_HwiProxy_enableInterrupt__E                            
1001c281  ti_sysbios_hal_Hwi_enableInterrupt__E                                     
1001c281  ti_sysbios_hal_Hwi_enableInterrupt__E                                     
1001c285  ti_sysbios_hal_Hwi_HwiProxy_getStackInfo__E                               
1001c285  ti_sysbios_hal_Hwi_getStackInfo__E                                        
1001c285  ti_sysbios_hal_Hwi_getStackInfo__E                                        
1001c289  ti_sysbios_hal_Hwi_HwiProxy_startup__E                                    
1001c289  ti_sysbios_hal_Hwi_startup__E                                             
1001c289  ti_sysbios_hal_Hwi_startup__E                                             
1001c28d  ti_sysbios_hal_Hwi_HwiProxy_switchFromBootStack__E                        
1001c291  ti_sysbios_hal_Hwi_delete                                                 
1001c295  ti_sysbios_hal_Hwi_switchFromBootStack__E                                 
1001c295  ti_sysbios_hal_Hwi_switchFromBootStack__E                                 
1001c299  ti_sysbios_heaps_HeapMem_Module_GateProxy_enter__E                        
1001c29d  ti_sysbios_heaps_HeapMem_Module_GateProxy_leave__E                        
1001c2a1  ti_sysbios_heaps_HeapMem_isBlocking__E                                    
1001c2a5  ti_sysbios_knl_Clock_TimerProxy_Module__startupDone__S                    
1001c2a9  ti_sysbios_knl_Clock_TimerProxy_getExpiredTicks__E                        
1001c2ad  ti_sysbios_knl_Clock_TimerProxy_getPeriod__E                              
1001c2b1  ti_sysbios_knl_Clock_delete                                               
1001c2b5  ti_sysbios_knl_Clock_destruct                                             
1001c2b9  ti_sysbios_knl_Clock_removeI__E                                           
1001c2bd  ti_sysbios_knl_Clock_setTimeout__E                                        
1001c2c1  ti_sysbios_knl_Mailbox_delete                                             
1001c2c5  ti_sysbios_knl_Mailbox_destruct                                           
1001c2c9  ti_sysbios_knl_Queue_delete                                               
1001c2cd  ti_sysbios_knl_Queue_destruct                                             
1001c2d1  ti_sysbios_knl_Queue_head__E                                              
1001c2d5  ti_sysbios_knl_Queue_next__E                                              
1001c2d9  ti_sysbios_knl_Semaphore_delete                                           
1001c2dd  ti_sysbios_knl_Semaphore_destruct                                         
1001c2e1  ti_sysbios_knl_Swi_delete                                                 
1001c2e5  ti_sysbios_knl_Swi_destruct                                               
1001c2e9  ti_sysbios_knl_Swi_postInit__I                                            
1001c2ed  ti_sysbios_knl_Task_SupportProxy_Module__startupDone__S                   
1001c2f1  ti_sysbios_knl_Task_SupportProxy_getStackAlignment__E                     
1001c2f5  ti_sysbios_knl_Task_SupportProxy_start__E                                 
1001c2f9  ti_sysbios_knl_Task_SupportProxy_swap__E                                  
1001c2fd  ti_sysbios_knl_Task_delete                                                
1001c301  ti_sysbios_knl_Task_destruct                                              
1001c305  ti_sysbios_knl_Task_startup__E                                            
1001c309  xdc_runtime_Startup_startMods__I                                          
1001c401  xdc_runtime_Core_createObject__I                                          
1001c483  xdc_runtime_Error_policySpin__E                                           
1001c485  xdc_runtime_Memory_alloc__E                                               
1001c4f5  xdc_runtime_Core_deleteObject__I                                          
1001c555  xdc_runtime_Startup_exec__E                                               
1001c5a5  xdc_runtime_Assert_raise__I                                               
1001c5ed  xdc_runtime_Core_assignParams__I                                          
1001c635  xdc_runtime_Core_constructObject__I                                       
1001c67d  xdc_runtime_System_atexit__E                                              
1001c6b5  xdc_runtime_System_processAtExit__E                                       
1001c6e9  xdc_runtime_Core_assignLabel__I                                           
1001c719  xdc_runtime_Text_cordText__E                                              
1001c745  xdc_runtime_System_abort__E                                               
1001c765  xdc_runtime_Error_raiseX__E                                               
1001c781  xdc_runtime_Memory_valloc__E                                              
1001c79d  xdc_runtime_Core_destructObject__I                                        
1001c7b5  xdc_runtime_Error_check__E                                                
1001c7cd  xdc_runtime_System_exit__E                                                
1001c7e5  xdc_runtime_Text_ropeText__E                                              
1001c7fd  xdc_runtime_Memory_free__E                                                
1001c80d  xdc_runtime_SysCallback_abort__E                                          
1001c80d  xdc_runtime_System_SupportProxy_abort__E                                  
1001c81d  xdc_runtime_SysCallback_exit__E                                           
1001c81d  xdc_runtime_System_SupportProxy_exit__E                                   
1001c82d  xdc_runtime_Timestamp_SupportProxy_get32__E                               
1001c82d  xdc_runtime_Timestamp_get32__E                                            
1001c82d  xdc_runtime_Timestamp_get32__E                                            
1001c849  xdc_runtime_Memory_calloc__E                                              
1001c855  xdc_runtime_Memory_getMaxDefaultTypeAlign__E                              
1001c875  xdc_runtime_Gate_leaveSystem__E                                           
1001c87b  xdc_runtime_System_Module_startup__E                                      
1001c881  xdc_runtime_Gate_enterSystem__E                                           
1001c885  xdc_runtime_Memory_HeapProxy_alloc__E                                     
1001c889  xdc_runtime_Memory_HeapProxy_free__E                                      
1001c88d  xdc_runtime_System_Module_GateProxy_enter__E                              
1001c891  xdc_runtime_System_Module_GateProxy_leave__E                              
1001c895  xdc_runtime_System_abortSpin__E                                           
1001c897  xdc_runtime_System_exitSpin__E                                            
1001c899  ti_sysbios_family_arm_m3_Hwi_dispatch__I                                  
1001c969  ti_sysbios_family_arm_m3_TaskSupport_buildTaskStack                       
1001c9b5  ti_sysbios_family_arm_m3_Hwi_initStacks__E                                
1001c9fd  ti_sysbios_family_arm_m3_Hwi_excHandlerAsm__I                             
1001ca1d  ti_sysbios_family_xxx_Hwi_switchAndRunFunc                                
1001ca3b  ti_sysbios_family_arm_m3_Hwi_pendSV__I                                    
1001ca53  ti_sysbios_family_arm_m3_Hwi_return                                       
1001ca55  ti_sysbios_family_arm_m3_TaskSupport_glue                                 
1001ca65  ti_sysbios_family_arm_m3_TaskSupport_swap__E                              
1001ca65  ti_sysbios_knl_Task_SupportProxy_swap__E__mangled__                       
1001ca6d  ti_sysbios_knl_Task_swapReturn                                            
1001ca97  ti_sysbios_rom_cortexm_cc13xx_CC13xx_getRevision__E                       
20000000  ti_sysbios_family_arm_m3_Hwi_ramVectors                                   
20000100  ti_sysbios_knl_Task_Module__state__V                                      
20000144  ti_sysbios_family_arm_m3_Hwi_Module__state__V                             
20000178  ti_sysbios_knl_Clock_Module__state__V                                     
200001a4  ti_sysbios_BIOS_Module__state__V                                          
200001c8  ti_sysbios_knl_Swi_Module__state__V                                       
200001e4  ti_sysbios_family_arm_cc26xx_Timer_Module__state__V                       
200001ec  ti_sysbios_family_arm_cc26xx_TimestampProvider_Module__state__V           
200001f0  xdc_runtime_Startup_Module__state__V                                      
200001f8  xdc_runtime_System_Module__state__V                                       
20000200  xdc_runtime_Memory_Module__state__V                                       
20000208  macTaskId                                                                 
20000209  macMgmt                                                                   
2000020a  macPanCoordinator                                                         
2000020b  csmPhy                                                                    
2000020c  pMacDataTx                                                                
20000210  macDataTxIndirect                                                         
20000214  macDataRequeueIndirect                                                    
20000218  macDataRxBeaconCritical                                                   
2000021c  macDataTxBeaconComplete                                                   
20000220  macDataSetSched                                                           
20000224  macDataCheckSched                                                         
20000228  macDataCheckTxTime                                                        
2000022c  macDataBeaconRequeue                                                      
20000230  timerUnalignedQ                                                           
20000234  timerAlignedQ                                                             
20000238  macTimerRollover                                                          
2000023c  macTimerNewRollover                                                       
20000240  macTimerActive                                                            
20000244  Crypto_handle                                                             
20000248  macCryptoDrvTblPtr                                                        
2000024c  macBeaconCoordAction1                                                     
20000254  macCoordAction1                                                           
2000025c  macMain                                                                   
20000268  macBeaconDeviceAction                                                     
20000278  macCoordAction3                                                           
20000288  macData                                                                   
20000298  macDataTxDelay                                                            
200002a8  macDeviceAction2                                                          
200002bc  macStateTbl                                                               
200002d0  macMgmtAction2                                                            
200002e4  macScanAction                                                             
200002fc  macCoordAction2                                                           
20000318  macReset                                                                  
20000334  macBeaconMargin                                                           
20000354  macBeacon                                                                 
20000374  macActionSet                                                              
20000398  macMgmtAction1                                                            
200003c0  macCoord                                                                  
200003ec  macDevice                                                                 
20000418  macBeaconDevice                                                           
2000044c  macBeaconPayload                                                          
20000480  macDeviceAction1                                                          
200004b8  macBeaconCoord                                                            
200004f4  macSecurityPib                                                            
20000534  macScan                                                                   
20000588  fhObject                                                                  
200005f4  macPib                                                                    
2000067c  macMRFSKGenPhyTable                                                       
2000071c  enhancedAckBuf                                                            
20000818  Main_assertReason                                                         
2000081c  uartParams                                                                
20000840  macUser0Cfg                                                               
20000870  myTask                                                                    
200008c0  Main_user1Cfg                                                             
2000091c  myTaskStack                                                               
20000ce0  hUart                                                                     
200010e6  Cllc_events                                                               
20001128  Cllc_statistics                                                           
20001184  Cllc_associatedDevList                                                    
200013dc  macAddrSize                                                               
200013e0  FHNT_Dbg                                                                  
200013e8  FH_txTiming                                                               
200013f0  FHNT_tempTable                                                            
200013f8  FH_FSM                                                                    
20001404  FHNT_hnd                                                                  
2000143c  FHFSM_Dbg                                                                 
20001480  FHIE_channelPlan                                                          
200014d4  FHNT_tableOpt                                                             
20001550  FH_hnd                                                                    
200015d8  FHPIB_db                                                                  
20001666  Csf_keys                                                                  
20001667  savedCllcState                                                            
20001668  Csf_events                                                                
20001790  pinUpperBound                                                             
20001794  pinLowerBound                                                             
20001828  pinHandleTable                                                            
200018a4  PowerCC26XX_module                                                        
200019b8  RF_cmdNop                                                                 
200019c8  RF_cmdFs                                                                  
200019e0  RF_cmdPropCs                                                              
200019fc  RF_cmdPropCsSlotted                                                       
20001a18  RF_cmdPropTxAdv                                                           
20001a38  RF_cmdPropRadioDivSetup                                                   
20001a60  RF_cmdPropRxAdv                                                           
20001a94  Collector_events                                                          
20001aa8  Collector_statistics                                                      
20001ae4  Collector_macCallbacks                                                    
20001b30  ICall_enterCriticalSection                                                
20001b34  ICall_leaveCriticalSection                                                
20001b4c  HEAPMGR_SIZE                                                              
20001b50  ICall_dispatcher                                                          
20001c18  macReqAccessTimeCnt                                                       
20001c19  reqAccessAlloc                                                            
20001c1c  rxCmdHandle                                                               
20001c1e  fsCmdHandle                                                               
20001c24  lastPostCmd                                                               
20001c28  macSfdDetectCback                                                         
20001c30  macTxTimestamp                                                            
20001c34  pMacRadioConfig                                                           
20001c38  macRfDrvTblPtr                                                            
20001c3c  pRfPropTable                                                              
20001c40  pRfPropTableOld                                                           
20001c44  pMacRfAntSwitchSel                                                        
20001c48  pMacRfAntPwrSel                                                           
20001c58  macRxOutputSubG                                                           
20001c64  macFrmFilter                                                              
20001c78  ti_sysbios_knl_Task_Object__table__V                                      
20001d0c  macTxSlottedDelay                                                         
20001d0d  macUnitBackoffPeriod                                                      
20001d0e  rxFhRsl                                                                   
20001d0f  macPhyChannel                                                             
20001d10  ti_sysbios_family_arm_cc26xx_Timer_Object__table__V                       
20001d9c  ti_sysbios_gates_GateMutex_Object__table__V                               
20001ddc  RF_handle                                                                 
20001de0  macPhyTxPower                                                             
20001dec  RF_params                                                                 
20001e09  osal_entity                                                               
20001e10  osal_qHead                                                                
20001e14  osal_eventloop_hook                                                       
20001e18  osal_icallMsg_hook                                                        
20001e1c  osal_semaphore                                                            
20001e20  osal_last_timestamp                                                       
20001e24  osal_tickperiod                                                           
20001e28  osal_max_msecs                                                            
20001e38  txCmdHandle                                                               
20001e3c  pMacEnhancedAck                                                           
20001e40  macRadioAckFrame                                                          
20001e48  macAckTimer                                                               
20001e68  ti_sysbios_knl_Swi_Module_State_0_readyQ__A                               
20001e98  ti_sysbios_knl_Swi_Object__table__V                                       
20001ec8  ti_sysbios_knl_Task_Module_State_0_readyQ__A                              
20001ef8  macTxSlottedDelayFactor                                                   
20001ef9  macTxType                                                                 
20001efa  macTxBe                                                                   
20001efb  txAckReq                                                                  
20001f00  macTxCsmaBackoffDelay                                                     
20001f04  macCsmaRtcTimerId                                                         
20001f08  macAckDbg                                                                 
20001f3c  ti_sysbios_knl_Clock_Object__table__V                                     
20001f5c  xdc_runtime_Error_IgnoreBlock                                             
20001f98  macSpecUsecsPerSymbol                                                     
20001f9c  macPrevPeriodRatCount                                                     
20001fa0  macSymbolTimerRollover                                                    
20001fa4  macSymbolTimerTrigger                                                     
20001fb0  ti_sysbios_family_arm_m3_Hwi_Object__table__V                             
20001fc8  ti_sysbios_heaps_HeapMem_Object__table__V                                 
20001fe0  ApiMac_appEntity                                                          
20001fec  ApiMac_extAddr                                                            
20001ff4  macCfg                                                                    
20002004  rfPatchTable                                                              
20002014  lastRatChanA                                                              
20002015  lastRatChanB                                                              
20002016  macRxCmdActive                                                            
20002017  macTxCmdActive                                                            
20002018  macFsCmdActive                                                            
2000201a  macReqAccessCnt                                                           
2000201c  macReqAccErrCnt                                                           
2000201e  numRfCmd                                                                  
2000201f  numRxCmd                                                                  
20002020  numRxPostCmd                                                              
20002021  bInSwi                                                                    
20002022  macRadioYielded                                                           
20002024  AppTaskId                                                                 
20002028  pMacCbackQueryRetransmit                                                  
2000202c  pMacCbackCheckPending                                                     
20002030  RFCC26XX_hwAttrs                                                          
20002040  OSAL_timeSeconds                                                          
20002048  sector_addr                                                               
20002054  _lock                                                                     
20002058  _unlock                                                                   
2000205c  pOverridesTable                                                           
20002064  ti_sysbios_family_arm_m3_Hwi_Module__root__V                              
2000206c  ti_sysbios_gates_GateHwi_Module__root__V                                  
20002074  ti_sysbios_gates_GateMutex_Module__root__V                                
2000207c  ti_sysbios_hal_Hwi_Module__root__V                                        
20002084  ti_sysbios_heaps_HeapMem_Module__root__V                                  
2000208c  ti_sysbios_knl_Clock_Module__root__V                                      
20002094  ti_sysbios_knl_Mailbox_Module__root__V                                    
2000209c  ti_sysbios_knl_Queue_Module__root__V                                      
200020a4  ti_sysbios_knl_Semaphore_Module__root__V                                  
200020ac  ti_sysbios_knl_Swi_Module__root__V                                        
200020b4  ti_sysbios_knl_Task_Module__root__V                                       
200020bc  xdc_runtime_Registry_Module__state__V                                     
200020c4  pwrmgr_initialized                                                        
200020c6  pwrmgr_attribute                                                          
200020cc  main_func_sp                                                              
200020d0  ti_sysbios_family_arm_m3_Hwi_Module_State_0_excContext__A                 
200020d4  ti_sysbios_family_arm_m3_Hwi_Module_State_0_excStack__A                   
200020d8  ti_sysbios_knl_Task_Module_State_0_idleTask__A                            
200020dc  ti_sysbios_family_arm_m3_Hwi_Module_State_0_excActive__A                  
200020e0  ti_sysbios_heaps_HeapMem_Instance_State_0_buf__A                          
20002b18  ti_sysbios_knl_Task_Instance_State_0_stack__A                             
20002d18  uartCC26XXObjects                                                         
20002f08  ti_sysbios_family_arm_m3_Hwi_dispatchTable                                
20002fd0  cryptoCC26XXObjects                                                       
20003050  macRxFilter                                                               
20003051  rxPromiscuousMode                                                         
2000305c  macRxDataEntryOffset                                                      
20003064  rxRadioBufferPtr                                                          
20003070  macRxDataEntryQueue                                                       
200030a0  uartCC26XXRingBuffer                                                      
200030f8  PowerCC26XX_taskKey                                                       
200030fc  PowerCC26XX_swiKey                                                        
20003100  timerHead                                                                 
20003114  ClockP_tickPeriod                                                         
20003118  macTasksEvents                                                            
20003121  driverlib_release_0_52354                                                 
20003122  macPwr                                                                    
20003123  macRxActive                                                               
20003124  macRxEnableFlags                                                          
20003125  macRxOutgoingAckFlag                                                      
20003126  macSymbolTimerImpending                                                   
20003127  macTxActive                                                               
20003128  heapStart                                                                 
20004b00  __stack                                                                   
20004b00  heapEnd                                                                   
20005000  __STACK_END                                                               
20005000  __STACK_TOP                                                               
e000e000  ti_sysbios_family_arm_m3_Hwi_nvic                                         
ffffffff  __TI_pprof_out_hndl                                                       
ffffffff  __TI_prof_data_size                                                       
ffffffff  __TI_prof_data_start                                                      
ffffffff  __binit__                                                                 
ffffffff  __c_args__                                                                
ffffffff  binit                                                                     
UNDEFED   SHT$$INIT_ARRAY$$Base                                                     
UNDEFED   SHT$$INIT_ARRAY$$Limit                                                    

[1477 symbols]
