TI ARM Assembler PC v18.1.3 Wed Nov 28 13:34:33 2018

Tools Copyright (c) 1996-2017 Texas Instruments Incorporated
C:\Users\Adrian\AppData\Local\Temp\{E185AECD-F423-44A6-B447-8E7B9B9A1395} PAGE    1

       1                    ;******************************************************************************
       2                    ;* TI ARM C/C++ Codegen                                        PC v18.1.3.LTS *
       3                    ;* Date/Time created: Wed Nov 28 13:34:33 2018                                *
       4                    ;******************************************************************************
       5                            .compiler_opts --abi=eabi --arm_vmrs_si_workaround=off --code_state=16 --diag_wrap=off --embed
       6 00000000                   .thumb
       7                    
       8                    $C$DW$CU        .dwtag  DW_TAG_compile_unit
       9                            .dwattr $C$DW$CU, DW_AT_name("../Application/MAC/HAL/target/hal_ccm.c")
      10                            .dwattr $C$DW$CU, DW_AT_producer("TI TI ARM C/C++ Codegen PC v18.1.3.LTS Copyright (c) 1996-20
      11                            .dwattr $C$DW$CU, DW_AT_TI_version(0x01)
      12                            .dwattr $C$DW$CU, DW_AT_comp_dir("C:\Users\Adrian\workspace_v8\sensor_cc1350lp\sensor_cc1350lp
      13                    
      14                    $C$DW$1 .dwtag  DW_TAG_subprogram
      15                            .dwattr $C$DW$1, DW_AT_name("NOROM_CRYPTOCcmAuthEncrypt")
      16                            .dwattr $C$DW$1, DW_AT_TI_symbol_name("NOROM_CRYPTOCcmAuthEncrypt")
      17                            .dwattr $C$DW$1, DW_AT_type(*$C$DW$T$23)
      18                            .dwattr $C$DW$1, DW_AT_declaration
      19                            .dwattr $C$DW$1, DW_AT_external
      20                            .dwattr $C$DW$1, DW_AT_decl_file("C:/ti/simplelink_cc13x0_sdk_2_30_00_20/source/ti/devices/cc1
      21                            .dwattr $C$DW$1, DW_AT_decl_line(0x1a2)
      22                            .dwattr $C$DW$1, DW_AT_decl_column(0x11)
      23                    $C$DW$2 .dwtag  DW_TAG_formal_parameter
      24                            .dwattr $C$DW$2, DW_AT_type(*$C$DW$T$111)
      25                    
      26                    $C$DW$3 .dwtag  DW_TAG_formal_parameter
      27                            .dwattr $C$DW$3, DW_AT_type(*$C$DW$T$23)
      28                    
      29                    $C$DW$4 .dwtag  DW_TAG_formal_parameter
      30                            .dwattr $C$DW$4, DW_AT_type(*$C$DW$T$48)
      31                    
      32                    $C$DW$5 .dwtag  DW_TAG_formal_parameter
      33                            .dwattr $C$DW$5, DW_AT_type(*$C$DW$T$48)
      34                    
      35                    $C$DW$6 .dwtag  DW_TAG_formal_parameter
      36                            .dwattr $C$DW$6, DW_AT_type(*$C$DW$T$23)
      37                    
      38                    $C$DW$7 .dwtag  DW_TAG_formal_parameter
      39                            .dwattr $C$DW$7, DW_AT_type(*$C$DW$T$48)
      40                    
      41                    $C$DW$8 .dwtag  DW_TAG_formal_parameter
      42                            .dwattr $C$DW$8, DW_AT_type(*$C$DW$T$23)
      43                    
      44                    $C$DW$9 .dwtag  DW_TAG_formal_parameter
      45                            .dwattr $C$DW$9, DW_AT_type(*$C$DW$T$23)
      46                    
      47                    $C$DW$10        .dwtag  DW_TAG_formal_parameter
      48                            .dwattr $C$DW$10, DW_AT_type(*$C$DW$T$23)
      49                    
      50                    $C$DW$11        .dwtag  DW_TAG_formal_parameter
      51                            .dwattr $C$DW$11, DW_AT_type(*$C$DW$T$111)
      52                    
      53                            .dwendtag $C$DW$1
      54                    
      55                    
TI ARM Assembler PC v18.1.3 Wed Nov 28 13:34:33 2018

Tools Copyright (c) 1996-2017 Texas Instruments Incorporated
C:\Users\Adrian\AppData\Local\Temp\{E185AECD-F423-44A6-B447-8E7B9B9A1395} PAGE    2

      56                    $C$DW$12        .dwtag  DW_TAG_subprogram
      57                            .dwattr $C$DW$12, DW_AT_name("NOROM_CRYPTOCcmAuthEncryptStatus")
      58                            .dwattr $C$DW$12, DW_AT_TI_symbol_name("NOROM_CRYPTOCcmAuthEncryptStatus")
      59                            .dwattr $C$DW$12, DW_AT_type(*$C$DW$T$23)
      60                            .dwattr $C$DW$12, DW_AT_declaration
      61                            .dwattr $C$DW$12, DW_AT_external
      62                            .dwattr $C$DW$12, DW_AT_decl_file("C:/ti/simplelink_cc13x0_sdk_2_30_00_20/source/ti/devices/cc
      63                            .dwattr $C$DW$12, DW_AT_decl_line(0x1bb)
      64                            .dwattr $C$DW$12, DW_AT_decl_column(0x11)
      65                            .dwendtag $C$DW$12
      66                    
      67                    
      68                    $C$DW$13        .dwtag  DW_TAG_subprogram
      69                            .dwattr $C$DW$13, DW_AT_name("NOROM_CRYPTOCcmAuthEncryptResultGet")
      70                            .dwattr $C$DW$13, DW_AT_TI_symbol_name("NOROM_CRYPTOCcmAuthEncryptResultGet")
      71                            .dwattr $C$DW$13, DW_AT_type(*$C$DW$T$23)
      72                            .dwattr $C$DW$13, DW_AT_declaration
      73                            .dwattr $C$DW$13, DW_AT_external
      74                            .dwattr $C$DW$13, DW_AT_decl_file("C:/ti/simplelink_cc13x0_sdk_2_30_00_20/source/ti/devices/cc
      75                            .dwattr $C$DW$13, DW_AT_decl_line(0x1cb)
      76                            .dwattr $C$DW$13, DW_AT_decl_column(0x11)
      77                    $C$DW$14        .dwtag  DW_TAG_formal_parameter
      78                            .dwattr $C$DW$14, DW_AT_type(*$C$DW$T$23)
      79                    
      80                    $C$DW$15        .dwtag  DW_TAG_formal_parameter
      81                            .dwattr $C$DW$15, DW_AT_type(*$C$DW$T$48)
      82                    
      83                            .dwendtag $C$DW$13
      84                    
      85                    
      86                    $C$DW$16        .dwtag  DW_TAG_subprogram
      87                            .dwattr $C$DW$16, DW_AT_name("NOROM_CRYPTOCcmInvAuthDecrypt")
      88                            .dwattr $C$DW$16, DW_AT_TI_symbol_name("NOROM_CRYPTOCcmInvAuthDecrypt")
      89                            .dwattr $C$DW$16, DW_AT_type(*$C$DW$T$23)
      90                            .dwattr $C$DW$16, DW_AT_declaration
      91                            .dwattr $C$DW$16, DW_AT_external
      92                            .dwattr $C$DW$16, DW_AT_decl_file("C:/ti/simplelink_cc13x0_sdk_2_30_00_20/source/ti/devices/cc
      93                            .dwattr $C$DW$16, DW_AT_decl_line(0x1f1)
      94                            .dwattr $C$DW$16, DW_AT_decl_column(0x11)
      95                    $C$DW$17        .dwtag  DW_TAG_formal_parameter
      96                            .dwattr $C$DW$17, DW_AT_type(*$C$DW$T$111)
      97                    
      98                    $C$DW$18        .dwtag  DW_TAG_formal_parameter
      99                            .dwattr $C$DW$18, DW_AT_type(*$C$DW$T$23)
     100                    
     101                    $C$DW$19        .dwtag  DW_TAG_formal_parameter
     102                            .dwattr $C$DW$19, DW_AT_type(*$C$DW$T$48)
     103                    
     104                    $C$DW$20        .dwtag  DW_TAG_formal_parameter
     105                            .dwattr $C$DW$20, DW_AT_type(*$C$DW$T$48)
     106                    
     107                    $C$DW$21        .dwtag  DW_TAG_formal_parameter
     108                            .dwattr $C$DW$21, DW_AT_type(*$C$DW$T$23)
     109                    
     110                    $C$DW$22        .dwtag  DW_TAG_formal_parameter
TI ARM Assembler PC v18.1.3 Wed Nov 28 13:34:33 2018

Tools Copyright (c) 1996-2017 Texas Instruments Incorporated
C:\Users\Adrian\AppData\Local\Temp\{E185AECD-F423-44A6-B447-8E7B9B9A1395} PAGE    3

     111                            .dwattr $C$DW$22, DW_AT_type(*$C$DW$T$48)
     112                    
     113                    $C$DW$23        .dwtag  DW_TAG_formal_parameter
     114                            .dwattr $C$DW$23, DW_AT_type(*$C$DW$T$23)
     115                    
     116                    $C$DW$24        .dwtag  DW_TAG_formal_parameter
     117                            .dwattr $C$DW$24, DW_AT_type(*$C$DW$T$23)
     118                    
     119                    $C$DW$25        .dwtag  DW_TAG_formal_parameter
     120                            .dwattr $C$DW$25, DW_AT_type(*$C$DW$T$23)
     121                    
     122                    $C$DW$26        .dwtag  DW_TAG_formal_parameter
     123                            .dwattr $C$DW$26, DW_AT_type(*$C$DW$T$111)
     124                    
     125                            .dwendtag $C$DW$16
     126                    
     127                    
     128                    $C$DW$27        .dwtag  DW_TAG_subprogram
     129                            .dwattr $C$DW$27, DW_AT_name("NOROM_CRYPTOCcmInvAuthDecryptStatus")
     130                            .dwattr $C$DW$27, DW_AT_TI_symbol_name("NOROM_CRYPTOCcmInvAuthDecryptStatus")
     131                            .dwattr $C$DW$27, DW_AT_type(*$C$DW$T$23)
     132                            .dwattr $C$DW$27, DW_AT_declaration
     133                            .dwattr $C$DW$27, DW_AT_external
     134                            .dwattr $C$DW$27, DW_AT_decl_file("C:/ti/simplelink_cc13x0_sdk_2_30_00_20/source/ti/devices/cc
     135                            .dwattr $C$DW$27, DW_AT_decl_line(0x205)
     136                            .dwattr $C$DW$27, DW_AT_decl_column(0x11)
     137                            .dwendtag $C$DW$27
     138                    
     139                    
     140                    $C$DW$28        .dwtag  DW_TAG_subprogram
     141                            .dwattr $C$DW$28, DW_AT_name("NOROM_CRYPTOCcmInvAuthDecryptResultGet")
     142                            .dwattr $C$DW$28, DW_AT_TI_symbol_name("NOROM_CRYPTOCcmInvAuthDecryptResultGet")
     143                            .dwattr $C$DW$28, DW_AT_type(*$C$DW$T$23)
     144                            .dwattr $C$DW$28, DW_AT_declaration
     145                            .dwattr $C$DW$28, DW_AT_external
     146                            .dwattr $C$DW$28, DW_AT_decl_file("C:/ti/simplelink_cc13x0_sdk_2_30_00_20/source/ti/devices/cc
     147                            .dwattr $C$DW$28, DW_AT_decl_line(0x214)
     148                            .dwattr $C$DW$28, DW_AT_decl_column(0x11)
     149                    $C$DW$29        .dwtag  DW_TAG_formal_parameter
     150                            .dwattr $C$DW$29, DW_AT_type(*$C$DW$T$23)
     151                    
     152                    $C$DW$30        .dwtag  DW_TAG_formal_parameter
     153                            .dwattr $C$DW$30, DW_AT_type(*$C$DW$T$48)
     154                    
     155                    $C$DW$31        .dwtag  DW_TAG_formal_parameter
     156                            .dwattr $C$DW$31, DW_AT_type(*$C$DW$T$23)
     157                    
     158                    $C$DW$32        .dwtag  DW_TAG_formal_parameter
     159                            .dwattr $C$DW$32, DW_AT_type(*$C$DW$T$48)
     160                    
     161                            .dwendtag $C$DW$28
     162                    
     163                    ;       C:\ti\ccsv8\tools\compiler\ti-cgt-arm_18.1.3.LTS\bin\armopt.exe C:/Users/Adrian/workspace_v8/s
     164 00000000                   .sect   ".text:SSP_CCM_InvAuth_Decrypt"
     165                            .clink
TI ARM Assembler PC v18.1.3 Wed Nov 28 13:34:33 2018

Tools Copyright (c) 1996-2017 Texas Instruments Incorporated
C:\Users\Adrian\AppData\Local\Temp\{E185AECD-F423-44A6-B447-8E7B9B9A1395} PAGE    4

     166                            .thumbfunc SSP_CCM_InvAuth_Decrypt
     167 00000000                   .thumb
     168                            .global SSP_CCM_InvAuth_Decrypt
     169                    
     170                    $C$DW$33        .dwtag  DW_TAG_subprogram
     171                            .dwattr $C$DW$33, DW_AT_name("SSP_CCM_InvAuth_Decrypt")
     172                            .dwattr $C$DW$33, DW_AT_low_pc(SSP_CCM_InvAuth_Decrypt)
     173                            .dwattr $C$DW$33, DW_AT_high_pc(0x00)
     174                            .dwattr $C$DW$33, DW_AT_TI_symbol_name("SSP_CCM_InvAuth_Decrypt")
     175                            .dwattr $C$DW$33, DW_AT_external
     176                            .dwattr $C$DW$33, DW_AT_type(*$C$DW$T$183)
     177                            .dwattr $C$DW$33, DW_AT_TI_begin_file("../Application/MAC/HAL/target/hal_ccm.c")
     178                            .dwattr $C$DW$33, DW_AT_TI_begin_line(0x9c)
     179                            .dwattr $C$DW$33, DW_AT_TI_begin_column(0x07)
     180                            .dwattr $C$DW$33, DW_AT_decl_file("../Application/MAC/HAL/target/hal_ccm.c")
     181                            .dwattr $C$DW$33, DW_AT_decl_line(0x9c)
     182                            .dwattr $C$DW$33, DW_AT_decl_column(0x07)
     183                            .dwattr $C$DW$33, DW_AT_TI_max_frame_size(0x30)
     184                            .dwpsn  file "../Application/MAC/HAL/target/hal_ccm.c",line 158,column 1,is_stmt,address SSP_C
     185                    
     186                            .dwfde $C$DW$CIE, SSP_CCM_InvAuth_Decrypt
     187                    $C$DW$34        .dwtag  DW_TAG_formal_parameter
     188                            .dwattr $C$DW$34, DW_AT_name("decrypt")
     189                            .dwattr $C$DW$34, DW_AT_TI_symbol_name("decrypt")
     190                            .dwattr $C$DW$34, DW_AT_type(*$C$DW$T$10)
     191                            .dwattr $C$DW$34, DW_AT_location[DW_OP_reg0]
     192                    
     193                    $C$DW$35        .dwtag  DW_TAG_formal_parameter
     194                            .dwattr $C$DW$35, DW_AT_name("Mval")
     195                            .dwattr $C$DW$35, DW_AT_TI_symbol_name("Mval")
     196                            .dwattr $C$DW$35, DW_AT_type(*$C$DW$T$10)
     197                            .dwattr $C$DW$35, DW_AT_location[DW_OP_reg1]
     198                    
     199                    $C$DW$36        .dwtag  DW_TAG_formal_parameter
     200                            .dwattr $C$DW$36, DW_AT_name("N")
     201                            .dwattr $C$DW$36, DW_AT_TI_symbol_name("N")
     202                            .dwattr $C$DW$36, DW_AT_type(*$C$DW$T$198)
     203                            .dwattr $C$DW$36, DW_AT_location[DW_OP_reg2]
     204                    
     205                    $C$DW$37        .dwtag  DW_TAG_formal_parameter
     206                            .dwattr $C$DW$37, DW_AT_name("C")
     207                            .dwattr $C$DW$37, DW_AT_TI_symbol_name("C")
     208                            .dwattr $C$DW$37, DW_AT_type(*$C$DW$T$198)
     209                            .dwattr $C$DW$37, DW_AT_location[DW_OP_reg3]
     210                    
     211                    $C$DW$38        .dwtag  DW_TAG_formal_parameter
     212                            .dwattr $C$DW$38, DW_AT_name("len_c")
     213                            .dwattr $C$DW$38, DW_AT_TI_symbol_name("len_c")
     214                            .dwattr $C$DW$38, DW_AT_type(*$C$DW$T$10)
     215                            .dwattr $C$DW$38, DW_AT_location[DW_OP_breg13 48]
     216                    
     217                    $C$DW$39        .dwtag  DW_TAG_formal_parameter
     218                            .dwattr $C$DW$39, DW_AT_name("A")
     219                            .dwattr $C$DW$39, DW_AT_TI_symbol_name("A")
     220                            .dwattr $C$DW$39, DW_AT_type(*$C$DW$T$198)
TI ARM Assembler PC v18.1.3 Wed Nov 28 13:34:33 2018

Tools Copyright (c) 1996-2017 Texas Instruments Incorporated
C:\Users\Adrian\AppData\Local\Temp\{E185AECD-F423-44A6-B447-8E7B9B9A1395} PAGE    5

     221                            .dwattr $C$DW$39, DW_AT_location[DW_OP_breg13 52]
     222                    
     223                    $C$DW$40        .dwtag  DW_TAG_formal_parameter
     224                            .dwattr $C$DW$40, DW_AT_name("len_a")
     225                            .dwattr $C$DW$40, DW_AT_TI_symbol_name("len_a")
     226                            .dwattr $C$DW$40, DW_AT_type(*$C$DW$T$10)
     227                            .dwattr $C$DW$40, DW_AT_location[DW_OP_breg13 56]
     228                    
     229                    $C$DW$41        .dwtag  DW_TAG_formal_parameter
     230                            .dwattr $C$DW$41, DW_AT_name("AesKey")
     231                            .dwattr $C$DW$41, DW_AT_TI_symbol_name("AesKey")
     232                            .dwattr $C$DW$41, DW_AT_type(*$C$DW$T$198)
     233                            .dwattr $C$DW$41, DW_AT_location[DW_OP_breg13 60]
     234                    
     235                    $C$DW$42        .dwtag  DW_TAG_formal_parameter
     236                            .dwattr $C$DW$42, DW_AT_name("Cstate")
     237                            .dwattr $C$DW$42, DW_AT_TI_symbol_name("Cstate")
     238                            .dwattr $C$DW$42, DW_AT_type(*$C$DW$T$198)
     239                            .dwattr $C$DW$42, DW_AT_location[DW_OP_breg13 64]
     240                    
     241                    $C$DW$43        .dwtag  DW_TAG_formal_parameter
     242                            .dwattr $C$DW$43, DW_AT_name("ccmLVal")
     243                            .dwattr $C$DW$43, DW_AT_TI_symbol_name("ccmLVal")
     244                            .dwattr $C$DW$43, DW_AT_type(*$C$DW$T$10)
     245                            .dwattr $C$DW$43, DW_AT_location[DW_OP_breg13 68]
     246                    
     247                    
     248                    ;*****************************************************************************
     249                    ;* FUNCTION NAME: SSP_CCM_InvAuth_Decrypt                                    *
     250                    ;*                                                                           *
     251                    ;*   Regs Modified     : A1,A2,A3,A4,V1,V2,V3,V4,V5,V9,SP,LR,SR              *
     252                    ;*   Regs Used         : A1,A2,A3,A4,V1,V2,V3,V4,V5,V9,SP,LR,SR              *
     253                    ;*   Local Frame Size  : 24 Args + 0 Auto + 24 Save = 48 byte                *
     254                    ;*****************************************************************************
     255                    SSP_CCM_InvAuth_Decrypt:
     256                    ;* --------------------------------------------------------------------------*
     257                    ;* A1    assigned to status
     258                    $C$DW$44        .dwtag  DW_TAG_variable
     259                            .dwattr $C$DW$44, DW_AT_name("status")
     260                            .dwattr $C$DW$44, DW_AT_TI_symbol_name("status")
     261                            .dwattr $C$DW$44, DW_AT_type(*$C$DW$T$6)
     262                            .dwattr $C$DW$44, DW_AT_location[DW_OP_reg0]
     263                    
     264                    ;* A1    assigned to status
     265                    $C$DW$45        .dwtag  DW_TAG_variable
     266                            .dwattr $C$DW$45, DW_AT_name("status")
     267                            .dwattr $C$DW$45, DW_AT_TI_symbol_name("status")
     268                            .dwattr $C$DW$45, DW_AT_type(*$C$DW$T$6)
     269                            .dwattr $C$DW$45, DW_AT_location[DW_OP_reg0]
     270                    
     271                    ;* V3    assigned to Mval
     272                    $C$DW$46        .dwtag  DW_TAG_variable
     273                            .dwattr $C$DW$46, DW_AT_name("Mval")
     274                            .dwattr $C$DW$46, DW_AT_TI_symbol_name("Mval")
     275                            .dwattr $C$DW$46, DW_AT_type(*$C$DW$T$209)
TI ARM Assembler PC v18.1.3 Wed Nov 28 13:34:33 2018

Tools Copyright (c) 1996-2017 Texas Instruments Incorporated
C:\Users\Adrian\AppData\Local\Temp\{E185AECD-F423-44A6-B447-8E7B9B9A1395} PAGE    6

     276                            .dwattr $C$DW$46, DW_AT_location[DW_OP_reg6]
     277                    
     278                    ;* V5    assigned to C
     279                    $C$DW$47        .dwtag  DW_TAG_variable
     280                            .dwattr $C$DW$47, DW_AT_name("C")
     281                            .dwattr $C$DW$47, DW_AT_TI_symbol_name("C")
     282                            .dwattr $C$DW$47, DW_AT_type(*$C$DW$T$207)
     283                            .dwattr $C$DW$47, DW_AT_location[DW_OP_reg8]
     284                    
     285                    ;* V2    assigned to len_c
     286                    $C$DW$48        .dwtag  DW_TAG_variable
     287                            .dwattr $C$DW$48, DW_AT_name("len_c")
     288                            .dwattr $C$DW$48, DW_AT_TI_symbol_name("len_c")
     289                            .dwattr $C$DW$48, DW_AT_type(*$C$DW$T$219)
     290                            .dwattr $C$DW$48, DW_AT_location[DW_OP_reg5]
     291                    
     292                            .dwcfi  cfa_offset, 0
     293 00000000 41F0E92D          PUSH      {V1, V2, V3, V4, V5, LR} ; [DPU_V7M3_PIPE]  ; [KEEP 32-BIT INS]
     294                            .dwcfi  cfa_offset, 24
     295                            .dwcfi  save_reg_to_mem, 14, -4
     296                            .dwcfi  save_reg_to_mem, 8, -8
     297                            .dwcfi  save_reg_to_mem, 7, -12
     298                            .dwcfi  save_reg_to_mem, 6, -16
     299                            .dwcfi  save_reg_to_mem, 5, -20
     300                            .dwcfi  save_reg_to_mem, 4, -24
     301 00000004 AF06              ADD       V4, SP, #24           ; [DPU_V7M3_PIPE]  ; [ORIG 16-BIT INS]
     302 00000006 883D              LDRH      V2, [V4, #0]          ; [DPU_V7M3_PIPE] |158|  ; [ORIG 16-BIT INS]
     303 00000008 460E              MOV       V3, A2                ; [DPU_V7M3_PIPE] |158|  ; [ORIG 16-BIT INS]
     304 0000000a 0D18F1AD          SUB       SP, SP, #24           ; [DPU_V7M3_PIPE]  ; [KEEP 32-BIT INS]
     305                            .dwcfi  cfa_offset, 48
     306                            .dwpsn  file "../Application/MAC/HAL/target/hal_ccm.c",line 161,column 3,is_stmt,isa 1
     307 0000000e 9500              STR       V2, [SP, #0]          ; [DPU_V7M3_PIPE] |161|  ; [ORIG 16-BIT INS]
     308 00000010 6879              LDR       A2, [V4, #4]          ; [DPU_V7M3_PIPE] |161|  ; [ORIG 16-BIT INS]
     309 00000012 9101              STR       A2, [SP, #4]          ; [DPU_V7M3_PIPE] |161|  ; [ORIG 16-BIT INS]
     310 00000014 8939              LDRH      A2, [V4, #8]          ; [DPU_V7M3_PIPE] |161|  ; [ORIG 16-BIT INS]
     311 00000016 9102              STR       A2, [SP, #8]          ; [DPU_V7M3_PIPE] |161|  ; [ORIG 16-BIT INS]
     312 00000018 2400              MOVS      V1, #0                ; [DPU_V7M3_PIPE] |161|  ; [ORIG 16-BIT INS]
     313 0000001a 9403              STR       V1, [SP, #12]         ; [DPU_V7M3_PIPE] |161|  ; [ORIG 16-BIT INS]
     314 0000001c 7D39              LDRB      A2, [V4, #20]         ; [DPU_V7M3_PIPE] |161|  ; [ORIG 16-BIT INS]
     315                            .dwpsn  file "../Application/MAC/HAL/target/hal_ccm.c",line 158,column 1,is_stmt,isa 1
     316 0000001e 4698              MOV       V5, A4                ; [DPU_V7M3_PIPE] |158|  ; [ORIG 16-BIT INS]
     317                            .dwpsn  file "../Application/MAC/HAL/target/hal_ccm.c",line 161,column 3,is_stmt,isa 1
     318 00000020 9104              STR       A2, [SP, #16]         ; [DPU_V7M3_PIPE] |161|  ; [ORIG 16-BIT INS]
     319 00000022 4631              MOV       A2, V3                ; [DPU_V7M3_PIPE] |161|  ; [ORIG 16-BIT INS]
     320 00000024 9405              STR       V1, [SP, #20]         ; [DPU_V7M3_PIPE] |161|  ; [ORIG 16-BIT INS]
     321                    $C$DW$49        .dwtag  DW_TAG_TI_branch
     322                            .dwattr $C$DW$49, DW_AT_low_pc(0x00)
     323                            .dwattr $C$DW$49, DW_AT_name("NOROM_CRYPTOCcmInvAuthDecrypt")
     324                            .dwattr $C$DW$49, DW_AT_TI_call
     325                    
     326 00000026 FFFEF7FF!         BL        NOROM_CRYPTOCcmInvAuthDecrypt ; [DPU_V7M3_PIPE] |161|  ; [KEEP 32-BIT INS]
     327                            ; CALL OCCURS {NOROM_CRYPTOCcmInvAuthDecrypt }  ; [] |161| 
     328 0000002a B2C0              UXTB      A1, A1                ; [DPU_V7M3_PIPE] |161|  ; [ORIG 16-BIT INS]
     329 0000002c B960              CBNZ      A1, ||$C$L2||         ; []  ; [ORIG 16-BIT INS]
     330                            ; BRANCHCC OCCURS {||$C$L2||}    ; [] |161| 
TI ARM Assembler PC v18.1.3 Wed Nov 28 13:34:33 2018

Tools Copyright (c) 1996-2017 Texas Instruments Incorporated
C:\Users\Adrian\AppData\Local\Temp\{E185AECD-F423-44A6-B447-8E7B9B9A1395} PAGE    7

     331                    ;* --------------------------------------------------------------------------*
     332                    ;*   BEGIN LOOP ||$C$L1||
     333                    ;*
     334                    ;*   Loop source line                : 168
     335                    ;*   Loop closing brace source line  : 171
     336                    ;*   Known Minimum Trip Count        : 1
     337                    ;*   Known Maximum Trip Count        : 4294967295
     338                    ;*   Known Max Trip Count Factor     : 1
     339                    ;* --------------------------------------------------------------------------*
     340 0000002e           ||$C$L1||:    
     341 0000002e BF00       NOP ; [ORIG 16-BIT INS]
     342                            .dwpsn  file "../Application/MAC/HAL/target/hal_ccm.c",line 168,column 3,is_stmt,isa 1
     343                    $C$DW$50        .dwtag  DW_TAG_TI_branch
     344                            .dwattr $C$DW$50, DW_AT_low_pc(0x00)
     345                            .dwattr $C$DW$50, DW_AT_name("NOROM_CRYPTOCcmInvAuthDecryptStatus")
     346                            .dwattr $C$DW$50, DW_AT_TI_call
     347                    
     348 00000030 FFFEF7FF!         BL        NOROM_CRYPTOCcmInvAuthDecryptStatus ; [DPU_V7M3_PIPE] |168|  ; [KEEP 32-BIT INS]
     349                            ; CALL OCCURS {NOROM_CRYPTOCcmInvAuthDecryptStatus }  ; [] |168| 
     350 00000034 2800              CMP       A1, #0                ; [DPU_V7M3_PIPE] |168|  ; [ORIG 16-BIT INS]
     351 00000036 D1FA              BNE       ||$C$L1||             ; [DPU_V7M3_PIPE] |168|  ; [ORIG 16-BIT INS]
     352                            ; BRANCHCC OCCURS {||$C$L1||}    ; [] |168| 
     353                    ;* --------------------------------------------------------------------------*
     354                            .dwpsn  file "../Application/MAC/HAL/target/hal_ccm.c",line 174,column 3,is_stmt,isa 1
     355 00000038 693B              LDR       A4, [V4, #16]         ; [DPU_V7M3_PIPE] |174|  ; [ORIG 16-BIT INS]
     356 0000003a 4630              MOV       A1, V3                ; [DPU_V7M3_PIPE] |174|  ; [ORIG 16-BIT INS]
     357 0000003c 462A              MOV       A3, V2                ; [DPU_V7M3_PIPE] |174|  ; [ORIG 16-BIT INS]
     358 0000003e 4641              MOV       A2, V5                ; [DPU_V7M3_PIPE] |174|  ; [ORIG 16-BIT INS]
     359                    $C$DW$51        .dwtag  DW_TAG_TI_branch
     360                            .dwattr $C$DW$51, DW_AT_low_pc(0x00)
     361                            .dwattr $C$DW$51, DW_AT_name("NOROM_CRYPTOCcmInvAuthDecryptResultGet")
     362                            .dwattr $C$DW$51, DW_AT_TI_call
     363                    
     364 00000040 FFFEF7FF!         BL        NOROM_CRYPTOCcmInvAuthDecryptResultGet ; [DPU_V7M3_PIPE] |174|  ; [KEEP 32-BIT INS]
     365                            ; CALL OCCURS {NOROM_CRYPTOCcmInvAuthDecryptResultGet }  ; [] |174| 
     366 00000044 B2C0              UXTB      A1, A1                ; [DPU_V7M3_PIPE] |174|  ; [ORIG 16-BIT INS]
     367 00000046 B100              CBZ       A1, ||$C$L3||         ; []  ; [ORIG 16-BIT INS]
     368                            ; BRANCHCC OCCURS {||$C$L3||}    ; [] |174| 
     369                    ;* --------------------------------------------------------------------------*
     370 00000048           ||$C$L2||:    
     371 00000048 4604              MOV       V1, A1                ; [DPU_V7M3_PIPE]  ; [ORIG 16-BIT INS]
     372                    ;* --------------------------------------------------------------------------*
     373 0000004a           ||$C$L3||:    
     374 0000004a 4620              MOV       A1, V1                ; [DPU_V7M3_PIPE]  ; [ORIG 16-BIT INS]
     375 0000004c B006              ADD       SP, SP, #24           ; [DPU_V7M3_PIPE]  ; [ORIG 16-BIT INS]
     376                            .dwcfi  cfa_offset, 24
     377                    $C$DW$52        .dwtag  DW_TAG_TI_branch
     378                            .dwattr $C$DW$52, DW_AT_low_pc(0x00)
     379                            .dwattr $C$DW$52, DW_AT_TI_return
     380                    
     381 0000004e 81F0E8BD          POP       {V1, V2, V3, V4, V5, PC} ; [DPU_V7M3_PIPE]  ; [KEEP 32-BIT INS]
     382                            .dwcfi  cfa_offset, 0
     383                            .dwcfi  restore_reg, 8
     384                            .dwcfi  restore_reg, 7
     385                            .dwcfi  restore_reg, 6
TI ARM Assembler PC v18.1.3 Wed Nov 28 13:34:33 2018

Tools Copyright (c) 1996-2017 Texas Instruments Incorporated
C:\Users\Adrian\AppData\Local\Temp\{E185AECD-F423-44A6-B447-8E7B9B9A1395} PAGE    8

     386                            .dwcfi  restore_reg, 5
     387                            .dwcfi  restore_reg, 4
     388                            ; BRANCH OCCURS                  ; [] 
     389                            .dwattr $C$DW$33, DW_AT_TI_end_file("../Application/MAC/HAL/target/hal_ccm.c")
     390                            .dwattr $C$DW$33, DW_AT_TI_end_line(0xb4)
     391                            .dwattr $C$DW$33, DW_AT_TI_end_column(0x01)
     392                            .dwendentry
     393                            .dwendtag $C$DW$33
     394                    
     395 00000000                   .sect   ".text:SSP_CCM_Auth_Encrypt"
     396                            .clink
     397                            .thumbfunc SSP_CCM_Auth_Encrypt
     398 00000000                   .thumb
     399                            .global SSP_CCM_Auth_Encrypt
     400                    
     401                    $C$DW$53        .dwtag  DW_TAG_subprogram
     402                            .dwattr $C$DW$53, DW_AT_name("SSP_CCM_Auth_Encrypt")
     403                            .dwattr $C$DW$53, DW_AT_low_pc(SSP_CCM_Auth_Encrypt)
     404                            .dwattr $C$DW$53, DW_AT_high_pc(0x00)
     405                            .dwattr $C$DW$53, DW_AT_TI_symbol_name("SSP_CCM_Auth_Encrypt")
     406                            .dwattr $C$DW$53, DW_AT_external
     407                            .dwattr $C$DW$53, DW_AT_type(*$C$DW$T$183)
     408                            .dwattr $C$DW$53, DW_AT_TI_begin_file("../Application/MAC/HAL/target/hal_ccm.c")
     409                            .dwattr $C$DW$53, DW_AT_TI_begin_line(0x6a)
     410                            .dwattr $C$DW$53, DW_AT_TI_begin_column(0x07)
     411                            .dwattr $C$DW$53, DW_AT_decl_file("../Application/MAC/HAL/target/hal_ccm.c")
     412                            .dwattr $C$DW$53, DW_AT_decl_line(0x6a)
     413                            .dwattr $C$DW$53, DW_AT_decl_column(0x07)
     414                            .dwattr $C$DW$53, DW_AT_TI_max_frame_size(0x28)
     415                            .dwpsn  file "../Application/MAC/HAL/target/hal_ccm.c",line 108,column 1,is_stmt,address SSP_C
     416                    
     417                            .dwfde $C$DW$CIE, SSP_CCM_Auth_Encrypt
     418                    $C$DW$54        .dwtag  DW_TAG_formal_parameter
     419                            .dwattr $C$DW$54, DW_AT_name("encrypt")
     420                            .dwattr $C$DW$54, DW_AT_TI_symbol_name("encrypt")
     421                            .dwattr $C$DW$54, DW_AT_type(*$C$DW$T$10)
     422                            .dwattr $C$DW$54, DW_AT_location[DW_OP_reg0]
     423                    
     424                    $C$DW$55        .dwtag  DW_TAG_formal_parameter
     425                            .dwattr $C$DW$55, DW_AT_name("Mval")
     426                            .dwattr $C$DW$55, DW_AT_TI_symbol_name("Mval")
     427                            .dwattr $C$DW$55, DW_AT_type(*$C$DW$T$10)
     428                            .dwattr $C$DW$55, DW_AT_location[DW_OP_reg1]
     429                    
     430                    $C$DW$56        .dwtag  DW_TAG_formal_parameter
     431                            .dwattr $C$DW$56, DW_AT_name("N")
     432                            .dwattr $C$DW$56, DW_AT_TI_symbol_name("N")
     433                            .dwattr $C$DW$56, DW_AT_type(*$C$DW$T$198)
     434                            .dwattr $C$DW$56, DW_AT_location[DW_OP_reg2]
     435                    
     436                    $C$DW$57        .dwtag  DW_TAG_formal_parameter
     437                            .dwattr $C$DW$57, DW_AT_name("M")
     438                            .dwattr $C$DW$57, DW_AT_TI_symbol_name("M")
     439                            .dwattr $C$DW$57, DW_AT_type(*$C$DW$T$198)
     440                            .dwattr $C$DW$57, DW_AT_location[DW_OP_reg3]
TI ARM Assembler PC v18.1.3 Wed Nov 28 13:34:33 2018

Tools Copyright (c) 1996-2017 Texas Instruments Incorporated
C:\Users\Adrian\AppData\Local\Temp\{E185AECD-F423-44A6-B447-8E7B9B9A1395} PAGE    9

     441                    
     442                    $C$DW$58        .dwtag  DW_TAG_formal_parameter
     443                            .dwattr $C$DW$58, DW_AT_name("len_m")
     444                            .dwattr $C$DW$58, DW_AT_TI_symbol_name("len_m")
     445                            .dwattr $C$DW$58, DW_AT_type(*$C$DW$T$10)
     446                            .dwattr $C$DW$58, DW_AT_location[DW_OP_breg13 40]
     447                    
     448                    $C$DW$59        .dwtag  DW_TAG_formal_parameter
     449                            .dwattr $C$DW$59, DW_AT_name("A")
     450                            .dwattr $C$DW$59, DW_AT_TI_symbol_name("A")
     451                            .dwattr $C$DW$59, DW_AT_type(*$C$DW$T$198)
     452                            .dwattr $C$DW$59, DW_AT_location[DW_OP_breg13 44]
     453                    
     454                    $C$DW$60        .dwtag  DW_TAG_formal_parameter
     455                            .dwattr $C$DW$60, DW_AT_name("len_a")
     456                            .dwattr $C$DW$60, DW_AT_TI_symbol_name("len_a")
     457                            .dwattr $C$DW$60, DW_AT_type(*$C$DW$T$10)
     458                            .dwattr $C$DW$60, DW_AT_location[DW_OP_breg13 48]
     459                    
     460                    $C$DW$61        .dwtag  DW_TAG_formal_parameter
     461                            .dwattr $C$DW$61, DW_AT_name("AesKey")
     462                            .dwattr $C$DW$61, DW_AT_TI_symbol_name("AesKey")
     463                            .dwattr $C$DW$61, DW_AT_type(*$C$DW$T$198)
     464                            .dwattr $C$DW$61, DW_AT_location[DW_OP_breg13 52]
     465                    
     466                    $C$DW$62        .dwtag  DW_TAG_formal_parameter
     467                            .dwattr $C$DW$62, DW_AT_name("Cstate")
     468                            .dwattr $C$DW$62, DW_AT_TI_symbol_name("Cstate")
     469                            .dwattr $C$DW$62, DW_AT_type(*$C$DW$T$198)
     470                            .dwattr $C$DW$62, DW_AT_location[DW_OP_breg13 56]
     471                    
     472                    $C$DW$63        .dwtag  DW_TAG_formal_parameter
     473                            .dwattr $C$DW$63, DW_AT_name("ccmLVal")
     474                            .dwattr $C$DW$63, DW_AT_TI_symbol_name("ccmLVal")
     475                            .dwattr $C$DW$63, DW_AT_type(*$C$DW$T$10)
     476                            .dwattr $C$DW$63, DW_AT_location[DW_OP_breg13 60]
     477                    
     478                    
     479                    ;*****************************************************************************
     480                    ;* FUNCTION NAME: SSP_CCM_Auth_Encrypt                                       *
     481                    ;*                                                                           *
     482                    ;*   Regs Modified     : A1,A2,A3,A4,V1,V2,V4,V9,SP,LR,SR                    *
     483                    ;*   Regs Used         : A1,A2,A3,A4,V1,V2,V4,V9,SP,LR,SR                    *
     484                    ;*   Local Frame Size  : 24 Args + 0 Auto + 16 Save = 40 byte                *
     485                    ;*****************************************************************************
     486                    SSP_CCM_Auth_Encrypt:
     487                    ;* --------------------------------------------------------------------------*
     488                    ;* A1    assigned to status
     489                    $C$DW$64        .dwtag  DW_TAG_variable
     490                            .dwattr $C$DW$64, DW_AT_name("status")
     491                            .dwattr $C$DW$64, DW_AT_TI_symbol_name("status")
     492                            .dwattr $C$DW$64, DW_AT_type(*$C$DW$T$6)
     493                            .dwattr $C$DW$64, DW_AT_location[DW_OP_reg0]
     494                    
     495                    ;* A1    assigned to status
TI ARM Assembler PC v18.1.3 Wed Nov 28 13:34:33 2018

Tools Copyright (c) 1996-2017 Texas Instruments Incorporated
C:\Users\Adrian\AppData\Local\Temp\{E185AECD-F423-44A6-B447-8E7B9B9A1395} PAGE   10

     496                    $C$DW$65        .dwtag  DW_TAG_variable
     497                            .dwattr $C$DW$65, DW_AT_name("status")
     498                            .dwattr $C$DW$65, DW_AT_TI_symbol_name("status")
     499                            .dwattr $C$DW$65, DW_AT_type(*$C$DW$T$6)
     500                            .dwattr $C$DW$65, DW_AT_location[DW_OP_reg0]
     501                    
     502                    ;* V2    assigned to Mval
     503                    $C$DW$66        .dwtag  DW_TAG_variable
     504                            .dwattr $C$DW$66, DW_AT_name("Mval")
     505                            .dwattr $C$DW$66, DW_AT_TI_symbol_name("Mval")
     506                            .dwattr $C$DW$66, DW_AT_type(*$C$DW$T$209)
     507                            .dwattr $C$DW$66, DW_AT_location[DW_OP_reg5]
     508                    
     509                            .dwcfi  cfa_offset, 0
     510 00000000 B5B0              PUSH      {V1, V2, V4, LR}      ; [DPU_V7M3_PIPE]  ; [ORIG 16-BIT INS]
     511                            .dwcfi  cfa_offset, 16
     512                            .dwcfi  save_reg_to_mem, 14, -4
     513                            .dwcfi  save_reg_to_mem, 7, -8
     514                            .dwcfi  save_reg_to_mem, 5, -12
     515                            .dwcfi  save_reg_to_mem, 4, -16
     516 00000002 460D              MOV       V2, A2                ; [DPU_V7M3_PIPE] |108|  ; [ORIG 16-BIT INS]
     517 00000004 AF04              ADD       V4, SP, #16           ; [DPU_V7M3_PIPE]  ; [ORIG 16-BIT INS]
     518                            .dwpsn  file "../Application/MAC/HAL/target/hal_ccm.c",line 112,column 3,is_stmt,isa 1
     519 00000006 8839              LDRH      A2, [V4, #0]          ; [DPU_V7M3_PIPE] |112|  ; [ORIG 16-BIT INS]
     520 00000008 0D18F1AD          SUB       SP, SP, #24           ; [DPU_V7M3_PIPE]  ; [KEEP 32-BIT INS]
     521                            .dwcfi  cfa_offset, 40
     522 0000000c 9100              STR       A2, [SP, #0]          ; [DPU_V7M3_PIPE] |112|  ; [ORIG 16-BIT INS]
     523 0000000e 6879              LDR       A2, [V4, #4]          ; [DPU_V7M3_PIPE] |112|  ; [ORIG 16-BIT INS]
     524 00000010 9101              STR       A2, [SP, #4]          ; [DPU_V7M3_PIPE] |112|  ; [ORIG 16-BIT INS]
     525 00000012 8939              LDRH      A2, [V4, #8]          ; [DPU_V7M3_PIPE] |112|  ; [ORIG 16-BIT INS]
     526 00000014 9102              STR       A2, [SP, #8]          ; [DPU_V7M3_PIPE] |112|  ; [ORIG 16-BIT INS]
     527 00000016 2400              MOVS      V1, #0                ; [DPU_V7M3_PIPE] |112|  ; [ORIG 16-BIT INS]
     528 00000018 9403              STR       V1, [SP, #12]         ; [DPU_V7M3_PIPE] |112|  ; [ORIG 16-BIT INS]
     529 0000001a 7D39              LDRB      A2, [V4, #20]         ; [DPU_V7M3_PIPE] |112|  ; [ORIG 16-BIT INS]
     530 0000001c 9104              STR       A2, [SP, #16]         ; [DPU_V7M3_PIPE] |112|  ; [ORIG 16-BIT INS]
     531 0000001e 4629              MOV       A2, V2                ; [DPU_V7M3_PIPE] |112|  ; [ORIG 16-BIT INS]
     532 00000020 9405              STR       V1, [SP, #20]         ; [DPU_V7M3_PIPE] |112|  ; [ORIG 16-BIT INS]
     533                    $C$DW$67        .dwtag  DW_TAG_TI_branch
     534                            .dwattr $C$DW$67, DW_AT_low_pc(0x00)
     535                            .dwattr $C$DW$67, DW_AT_name("NOROM_CRYPTOCcmAuthEncrypt")
     536                            .dwattr $C$DW$67, DW_AT_TI_call
     537                    
     538 00000022 FFFEF7FF!         BL        NOROM_CRYPTOCcmAuthEncrypt ; [DPU_V7M3_PIPE] |112|  ; [KEEP 32-BIT INS]
     539                            ; CALL OCCURS {NOROM_CRYPTOCcmAuthEncrypt }  ; [] |112| 
     540 00000026 B2C0              UXTB      A1, A1                ; [DPU_V7M3_PIPE] |112|  ; [ORIG 16-BIT INS]
     541 00000028 B950              CBNZ      A1, ||$C$L5||         ; []  ; [ORIG 16-BIT INS]
     542                            ; BRANCHCC OCCURS {||$C$L5||}    ; [] |112| 
     543                    ;* --------------------------------------------------------------------------*
     544                    ;*   BEGIN LOOP ||$C$L4||
     545                    ;*
     546                    ;*   Loop source line                : 118
     547                    ;*   Loop closing brace source line  : 121
     548                    ;*   Known Minimum Trip Count        : 1
     549                    ;*   Known Maximum Trip Count        : 4294967295
     550                    ;*   Known Max Trip Count Factor     : 1
TI ARM Assembler PC v18.1.3 Wed Nov 28 13:34:33 2018

Tools Copyright (c) 1996-2017 Texas Instruments Incorporated
C:\Users\Adrian\AppData\Local\Temp\{E185AECD-F423-44A6-B447-8E7B9B9A1395} PAGE   11

     551                    ;* --------------------------------------------------------------------------*
     552 0000002a           ||$C$L4||:    
     553 0000002a BF00       NOP ; [ORIG 16-BIT INS]
     554                            .dwpsn  file "../Application/MAC/HAL/target/hal_ccm.c",line 118,column 3,is_stmt,isa 1
     555                    $C$DW$68        .dwtag  DW_TAG_TI_branch
     556                            .dwattr $C$DW$68, DW_AT_low_pc(0x00)
     557                            .dwattr $C$DW$68, DW_AT_name("NOROM_CRYPTOCcmAuthEncryptStatus")
     558                            .dwattr $C$DW$68, DW_AT_TI_call
     559                    
     560 0000002c FFFEF7FF!         BL        NOROM_CRYPTOCcmAuthEncryptStatus ; [DPU_V7M3_PIPE] |118|  ; [KEEP 32-BIT INS]
     561                            ; CALL OCCURS {NOROM_CRYPTOCcmAuthEncryptStatus }  ; [] |118| 
     562 00000030 2800              CMP       A1, #0                ; [DPU_V7M3_PIPE] |118|  ; [ORIG 16-BIT INS]
     563 00000032 D1FA              BNE       ||$C$L4||             ; [DPU_V7M3_PIPE] |118|  ; [ORIG 16-BIT INS]
     564                            ; BRANCHCC OCCURS {||$C$L4||}    ; [] |118| 
     565                    ;* --------------------------------------------------------------------------*
     566                            .dwpsn  file "../Application/MAC/HAL/target/hal_ccm.c",line 123,column 3,is_stmt,isa 1
     567 00000034 6939              LDR       A2, [V4, #16]         ; [DPU_V7M3_PIPE] |123|  ; [ORIG 16-BIT INS]
     568 00000036 4628              MOV       A1, V2                ; [DPU_V7M3_PIPE] |123|  ; [ORIG 16-BIT INS]
     569                    $C$DW$69        .dwtag  DW_TAG_TI_branch
     570                            .dwattr $C$DW$69, DW_AT_low_pc(0x00)
     571                            .dwattr $C$DW$69, DW_AT_name("NOROM_CRYPTOCcmAuthEncryptResultGet")
     572                            .dwattr $C$DW$69, DW_AT_TI_call
     573                    
     574 00000038 FFFEF7FF!         BL        NOROM_CRYPTOCcmAuthEncryptResultGet ; [DPU_V7M3_PIPE] |123|  ; [KEEP 32-BIT INS]
     575                            ; CALL OCCURS {NOROM_CRYPTOCcmAuthEncryptResultGet }  ; [] |123| 
     576 0000003c B2C0              UXTB      A1, A1                ; [DPU_V7M3_PIPE] |123|  ; [ORIG 16-BIT INS]
     577 0000003e B100              CBZ       A1, ||$C$L6||         ; []  ; [ORIG 16-BIT INS]
     578                            ; BRANCHCC OCCURS {||$C$L6||}    ; [] |123| 
     579                    ;* --------------------------------------------------------------------------*
     580 00000040           ||$C$L5||:    
     581 00000040 4604              MOV       V1, A1                ; [DPU_V7M3_PIPE]  ; [ORIG 16-BIT INS]
     582                    ;* --------------------------------------------------------------------------*
     583 00000042           ||$C$L6||:    
     584 00000042 4620              MOV       A1, V1                ; [DPU_V7M3_PIPE]  ; [ORIG 16-BIT INS]
     585 00000044 B006              ADD       SP, SP, #24           ; [DPU_V7M3_PIPE]  ; [ORIG 16-BIT INS]
     586                            .dwcfi  cfa_offset, 16
     587                    $C$DW$70        .dwtag  DW_TAG_TI_branch
     588                            .dwattr $C$DW$70, DW_AT_low_pc(0x00)
     589                            .dwattr $C$DW$70, DW_AT_TI_return
     590                    
     591 00000046 BDB0              POP       {V1, V2, V4, PC}      ; [DPU_V7M3_PIPE]  ; [ORIG 16-BIT INS]
     592                            .dwcfi  cfa_offset, 0
     593                            .dwcfi  restore_reg, 7
     594                            .dwcfi  restore_reg, 5
     595                            .dwcfi  restore_reg, 4
     596                            ; BRANCH OCCURS                  ; [] 
     597                            .dwattr $C$DW$53, DW_AT_TI_end_file("../Application/MAC/HAL/target/hal_ccm.c")
     598                            .dwattr $C$DW$53, DW_AT_TI_end_line(0x80)
     599                            .dwattr $C$DW$53, DW_AT_TI_end_column(0x01)
     600                            .dwendentry
     601                            .dwendtag $C$DW$53
     602                    
     603                    ;*****************************************************************************
     604                    ;* UNDEFINED EXTERNAL REFERENCES                                             *
     605                    ;*****************************************************************************
TI ARM Assembler PC v18.1.3 Wed Nov 28 13:34:33 2018

Tools Copyright (c) 1996-2017 Texas Instruments Incorporated
C:\Users\Adrian\AppData\Local\Temp\{E185AECD-F423-44A6-B447-8E7B9B9A1395} PAGE   12

     606                            .global NOROM_CRYPTOCcmAuthEncrypt
     607                            .global NOROM_CRYPTOCcmAuthEncryptStatus
     608                            .global NOROM_CRYPTOCcmAuthEncryptResultGet
     609                            .global NOROM_CRYPTOCcmInvAuthDecrypt
     610                            .global NOROM_CRYPTOCcmInvAuthDecryptStatus
     611                            .global NOROM_CRYPTOCcmInvAuthDecryptResultGet
     612                    
     613                    ;******************************************************************************
     614                    ;* BUILD ATTRIBUTES                                                           *
     615                    ;******************************************************************************
     616                            .battr "aeabi", Tag_File, 1, Tag_ABI_PCS_wchar_t(2)
     617                            .battr "aeabi", Tag_File, 1, Tag_ABI_FP_rounding(0)
     618                            .battr "aeabi", Tag_File, 1, Tag_ABI_FP_denormal(0)
     619                            .battr "aeabi", Tag_File, 1, Tag_ABI_FP_exceptions(0)
     620                            .battr "aeabi", Tag_File, 1, Tag_ABI_FP_number_model(1)
     621                            .battr "aeabi", Tag_File, 1, Tag_ABI_enum_size(1)
     622                            .battr "aeabi", Tag_File, 1, Tag_ABI_optimization_goals(0)
     623                            .battr "aeabi", Tag_File, 1, Tag_ABI_FP_optimization_goals(0)
     624                            .battr "TI", Tag_File, 1, Tag_Bitfield_layout(2)
     625                            .battr "aeabi", Tag_File, 1, Tag_ABI_VFP_args(3)
     626                            .battr "TI", Tag_File, 1, Tag_FP_interface(1)
     627                    
     628                    ;******************************************************************************
     629                    ;* TYPE INFORMATION                                                           *
     630                    ;******************************************************************************
     631                    
     632                    $C$DW$T$168     .dwtag  DW_TAG_enumeration_type
     633                            .dwattr $C$DW$T$168, DW_AT_byte_size(0x01)
     634                    $C$DW$71        .dwtag  DW_TAG_enumerator
     635                            .dwattr $C$DW$71, DW_AT_name("FAPI_PROGRAM_DATA")
     636                            .dwattr $C$DW$71, DW_AT_const_value(0x02)
     637                            .dwattr $C$DW$71, DW_AT_decl_file("C:/ti/simplelink_cc13x0_sdk_2_30_00_20/source/ti/devices/cc
     638                            .dwattr $C$DW$71, DW_AT_decl_line(0xa6)
     639                            .dwattr $C$DW$71, DW_AT_decl_column(0x05)
     640                    
     641                    $C$DW$72        .dwtag  DW_TAG_enumerator
     642                            .dwattr $C$DW$72, DW_AT_name("FAPI_ERASE_SECTOR")
     643                            .dwattr $C$DW$72, DW_AT_const_value(0x06)
     644                            .dwattr $C$DW$72, DW_AT_decl_file("C:/ti/simplelink_cc13x0_sdk_2_30_00_20/source/ti/devices/cc
     645                            .dwattr $C$DW$72, DW_AT_decl_line(0xa7)
     646                            .dwattr $C$DW$72, DW_AT_decl_column(0x05)
     647                    
     648                    $C$DW$73        .dwtag  DW_TAG_enumerator
     649                            .dwattr $C$DW$73, DW_AT_name("FAPI_ERASE_BANK")
     650                            .dwattr $C$DW$73, DW_AT_const_value(0x08)
     651                            .dwattr $C$DW$73, DW_AT_decl_file("C:/ti/simplelink_cc13x0_sdk_2_30_00_20/source/ti/devices/cc
     652                            .dwattr $C$DW$73, DW_AT_decl_line(0xa8)
     653                            .dwattr $C$DW$73, DW_AT_decl_column(0x05)
     654                    
     655                    $C$DW$74        .dwtag  DW_TAG_enumerator
     656                            .dwattr $C$DW$74, DW_AT_name("FAPI_VALIDATE_SECTOR")
     657                            .dwattr $C$DW$74, DW_AT_const_value(0x0e)
     658                            .dwattr $C$DW$74, DW_AT_decl_file("C:/ti/simplelink_cc13x0_sdk_2_30_00_20/source/ti/devices/cc
     659                            .dwattr $C$DW$74, DW_AT_decl_line(0xa9)
     660                            .dwattr $C$DW$74, DW_AT_decl_column(0x05)
TI ARM Assembler PC v18.1.3 Wed Nov 28 13:34:33 2018

Tools Copyright (c) 1996-2017 Texas Instruments Incorporated
C:\Users\Adrian\AppData\Local\Temp\{E185AECD-F423-44A6-B447-8E7B9B9A1395} PAGE   13

     661                    
     662                    $C$DW$75        .dwtag  DW_TAG_enumerator
     663                            .dwattr $C$DW$75, DW_AT_name("FAPI_CLEAR_STATUS")
     664                            .dwattr $C$DW$75, DW_AT_const_value(0x10)
     665                            .dwattr $C$DW$75, DW_AT_decl_file("C:/ti/simplelink_cc13x0_sdk_2_30_00_20/source/ti/devices/cc
     666                            .dwattr $C$DW$75, DW_AT_decl_line(0xaa)
     667                            .dwattr $C$DW$75, DW_AT_decl_column(0x05)
     668                    
     669                    $C$DW$76        .dwtag  DW_TAG_enumerator
     670                            .dwattr $C$DW$76, DW_AT_name("FAPI_PROGRAM_RESUME")
     671                            .dwattr $C$DW$76, DW_AT_const_value(0x14)
     672                            .dwattr $C$DW$76, DW_AT_decl_file("C:/ti/simplelink_cc13x0_sdk_2_30_00_20/source/ti/devices/cc
     673                            .dwattr $C$DW$76, DW_AT_decl_line(0xab)
     674                            .dwattr $C$DW$76, DW_AT_decl_column(0x05)
     675                    
     676                    $C$DW$77        .dwtag  DW_TAG_enumerator
     677                            .dwattr $C$DW$77, DW_AT_name("FAPI_ERASE_RESUME")
     678                            .dwattr $C$DW$77, DW_AT_const_value(0x16)
     679                            .dwattr $C$DW$77, DW_AT_decl_file("C:/ti/simplelink_cc13x0_sdk_2_30_00_20/source/ti/devices/cc
     680                            .dwattr $C$DW$77, DW_AT_decl_line(0xac)
     681                            .dwattr $C$DW$77, DW_AT_decl_column(0x05)
     682                    
     683                    $C$DW$78        .dwtag  DW_TAG_enumerator
     684                            .dwattr $C$DW$78, DW_AT_name("FAPI_CLEAR_MORE")
     685                            .dwattr $C$DW$78, DW_AT_const_value(0x18)
     686                            .dwattr $C$DW$78, DW_AT_decl_file("C:/ti/simplelink_cc13x0_sdk_2_30_00_20/source/ti/devices/cc
     687                            .dwattr $C$DW$78, DW_AT_decl_line(0xad)
     688                            .dwattr $C$DW$78, DW_AT_decl_column(0x05)
     689                    
     690                    $C$DW$79        .dwtag  DW_TAG_enumerator
     691                            .dwattr $C$DW$79, DW_AT_name("FAPI_PROGRAM_SECTOR")
     692                            .dwattr $C$DW$79, DW_AT_const_value(0x20)
     693                            .dwattr $C$DW$79, DW_AT_decl_file("C:/ti/simplelink_cc13x0_sdk_2_30_00_20/source/ti/devices/cc
     694                            .dwattr $C$DW$79, DW_AT_decl_line(0xae)
     695                            .dwattr $C$DW$79, DW_AT_decl_column(0x05)
     696                    
     697                    $C$DW$80        .dwtag  DW_TAG_enumerator
     698                            .dwattr $C$DW$80, DW_AT_name("FAPI_ERASE_OTP")
     699                            .dwattr $C$DW$80, DW_AT_const_value(0x30)
     700                            .dwattr $C$DW$80, DW_AT_decl_file("C:/ti/simplelink_cc13x0_sdk_2_30_00_20/source/ti/devices/cc
     701                            .dwattr $C$DW$80, DW_AT_decl_line(0xaf)
     702                            .dwattr $C$DW$80, DW_AT_decl_column(0x05)
     703                    
     704                            .dwattr $C$DW$T$168, DW_AT_decl_file("C:/ti/simplelink_cc13x0_sdk_2_30_00_20/source/ti/devices
     705                            .dwattr $C$DW$T$168, DW_AT_decl_line(0xa5)
     706                            .dwattr $C$DW$T$168, DW_AT_decl_column(0x01)
     707                            .dwendtag $C$DW$T$168
     708                    
     709                    $C$DW$T$169     .dwtag  DW_TAG_typedef
     710                            .dwattr $C$DW$T$169, DW_AT_name("tFlashStateCommandsType")
     711                            .dwattr $C$DW$T$169, DW_AT_type(*$C$DW$T$168)
     712                            .dwattr $C$DW$T$169, DW_AT_language(DW_LANG_C)
     713                            .dwattr $C$DW$T$169, DW_AT_decl_file("C:/ti/simplelink_cc13x0_sdk_2_30_00_20/source/ti/devices
     714                            .dwattr $C$DW$T$169, DW_AT_decl_line(0xb0)
     715                            .dwattr $C$DW$T$169, DW_AT_decl_column(0x03)
TI ARM Assembler PC v18.1.3 Wed Nov 28 13:34:33 2018

Tools Copyright (c) 1996-2017 Texas Instruments Incorporated
C:\Users\Adrian\AppData\Local\Temp\{E185AECD-F423-44A6-B447-8E7B9B9A1395} PAGE   14

     716                    
     717                    
     718                    $C$DW$T$170     .dwtag  DW_TAG_enumeration_type
     719                            .dwattr $C$DW$T$170, DW_AT_byte_size(0x01)
     720                    $C$DW$81        .dwtag  DW_TAG_enumerator
     721                            .dwattr $C$DW$81, DW_AT_name("ICALL_RTI_APP_CMD_EVENT")
     722                            .dwattr $C$DW$81, DW_AT_const_value(0xe0)
     723                            .dwattr $C$DW$81, DW_AT_decl_file("C:/ti/simplelink_cc13x0_sdk_2_30_00_20/source/ti/ti154stack
     724                            .dwattr $C$DW$81, DW_AT_decl_line(0x3de)
     725                            .dwattr $C$DW$81, DW_AT_decl_column(0x04)
     726                    
     727                    $C$DW$82        .dwtag  DW_TAG_enumerator
     728                            .dwattr $C$DW$82, DW_AT_name("ICALL_RTI_STACK_CMD_EVENT")
     729                            .dwattr $C$DW$82, DW_AT_const_value(0xe1)
     730                            .dwattr $C$DW$82, DW_AT_decl_file("C:/ti/simplelink_cc13x0_sdk_2_30_00_20/source/ti/ti154stack
     731                            .dwattr $C$DW$82, DW_AT_decl_line(0x3e0)
     732                            .dwattr $C$DW$82, DW_AT_decl_column(0x04)
     733                    
     734                    $C$DW$83        .dwtag  DW_TAG_enumerator
     735                            .dwattr $C$DW$83, DW_AT_name("ICALL_RTI_APP_ASYNC_CMD_EVENT")
     736                            .dwattr $C$DW$83, DW_AT_const_value(0xe2)
     737                            .dwattr $C$DW$83, DW_AT_decl_file("C:/ti/simplelink_cc13x0_sdk_2_30_00_20/source/ti/ti154stack
     738                            .dwattr $C$DW$83, DW_AT_decl_line(0x3e2)
     739                            .dwattr $C$DW$83, DW_AT_decl_column(0x04)
     740                    
     741                    $C$DW$84        .dwtag  DW_TAG_enumerator
     742                            .dwattr $C$DW$84, DW_AT_name("ICALL_RTI_APP_SYNC_CMD_EVENT")
     743                            .dwattr $C$DW$84, DW_AT_const_value(0xe3)
     744                            .dwattr $C$DW$84, DW_AT_decl_file("C:/ti/simplelink_cc13x0_sdk_2_30_00_20/source/ti/ti154stack
     745                            .dwattr $C$DW$84, DW_AT_decl_line(0x3e4)
     746                            .dwattr $C$DW$84, DW_AT_decl_column(0x04)
     747                    
     748                    $C$DW$85        .dwtag  DW_TAG_enumerator
     749                            .dwattr $C$DW$85, DW_AT_name("ICALL_RCN_APP_ASYNC_CMD_EVENT")
     750                            .dwattr $C$DW$85, DW_AT_const_value(0xe4)
     751                            .dwattr $C$DW$85, DW_AT_decl_file("C:/ti/simplelink_cc13x0_sdk_2_30_00_20/source/ti/ti154stack
     752                            .dwattr $C$DW$85, DW_AT_decl_line(0x3e6)
     753                            .dwattr $C$DW$85, DW_AT_decl_column(0x04)
     754                    
     755                    $C$DW$86        .dwtag  DW_TAG_enumerator
     756                            .dwattr $C$DW$86, DW_AT_name("ICALL_RCN_APP_SYNC_CMD_EVENT")
     757                            .dwattr $C$DW$86, DW_AT_const_value(0xe5)
     758                            .dwattr $C$DW$86, DW_AT_decl_file("C:/ti/simplelink_cc13x0_sdk_2_30_00_20/source/ti/ti154stack
     759                            .dwattr $C$DW$86, DW_AT_decl_line(0x3e8)
     760                            .dwattr $C$DW$86, DW_AT_decl_column(0x04)
     761                    
     762                            .dwattr $C$DW$T$170, DW_AT_decl_file("C:/ti/simplelink_cc13x0_sdk_2_30_00_20/source/ti/ti154st
     763                            .dwattr $C$DW$T$170, DW_AT_decl_line(0x3dc)
     764                            .dwattr $C$DW$T$170, DW_AT_decl_column(0x01)
     765                            .dwendtag $C$DW$T$170
     766                    
     767                    $C$DW$T$171     .dwtag  DW_TAG_typedef
     768                            .dwattr $C$DW$T$171, DW_AT_name("ICall_RemotiCmdEvent_t")
     769                            .dwattr $C$DW$T$171, DW_AT_type(*$C$DW$T$170)
     770                            .dwattr $C$DW$T$171, DW_AT_language(DW_LANG_C)
TI ARM Assembler PC v18.1.3 Wed Nov 28 13:34:33 2018

Tools Copyright (c) 1996-2017 Texas Instruments Incorporated
C:\Users\Adrian\AppData\Local\Temp\{E185AECD-F423-44A6-B447-8E7B9B9A1395} PAGE   15

     771                            .dwattr $C$DW$T$171, DW_AT_decl_file("C:/ti/simplelink_cc13x0_sdk_2_30_00_20/source/ti/ti154st
     772                            .dwattr $C$DW$T$171, DW_AT_decl_line(0x3e9)
     773                            .dwattr $C$DW$T$171, DW_AT_decl_column(0x02)
     774                    
     775                    
     776                    $C$DW$T$21      .dwtag  DW_TAG_structure_type
     777                            .dwattr $C$DW$T$21, DW_AT_byte_size(0x10)
     778                    $C$DW$87        .dwtag  DW_TAG_member
     779                            .dwattr $C$DW$87, DW_AT_type(*$C$DW$T$14)
     780                            .dwattr $C$DW$87, DW_AT_name("__max_align1")
     781                            .dwattr $C$DW$87, DW_AT_TI_symbol_name("__max_align1")
     782                            .dwattr $C$DW$87, DW_AT_data_member_location[DW_OP_plus_uconst 0x0]
     783                            .dwattr $C$DW$87, DW_AT_accessibility(DW_ACCESS_public)
     784                            .dwattr $C$DW$87, DW_AT_decl_file("C:/ti/ccsv8/tools/compiler/ti-cgt-arm_18.1.3.LTS/include/sy
     785                            .dwattr $C$DW$87, DW_AT_decl_line(0x70)
     786                            .dwattr $C$DW$87, DW_AT_decl_column(0x0c)
     787                    
     788                    $C$DW$88        .dwtag  DW_TAG_member
     789                            .dwattr $C$DW$88, DW_AT_type(*$C$DW$T$18)
     790                            .dwattr $C$DW$88, DW_AT_name("__max_align2")
     791                            .dwattr $C$DW$88, DW_AT_TI_symbol_name("__max_align2")
     792                            .dwattr $C$DW$88, DW_AT_data_member_location[DW_OP_plus_uconst 0x8]
     793                            .dwattr $C$DW$88, DW_AT_accessibility(DW_ACCESS_public)
     794                            .dwattr $C$DW$88, DW_AT_decl_file("C:/ti/ccsv8/tools/compiler/ti-cgt-arm_18.1.3.LTS/include/sy
     795                            .dwattr $C$DW$88, DW_AT_decl_line(0x71)
     796                            .dwattr $C$DW$88, DW_AT_decl_column(0x0e)
     797                    
     798                            .dwattr $C$DW$T$21, DW_AT_decl_file("C:/ti/ccsv8/tools/compiler/ti-cgt-arm_18.1.3.LTS/include/
     799                            .dwattr $C$DW$T$21, DW_AT_decl_line(0x6f)
     800                            .dwattr $C$DW$T$21, DW_AT_decl_column(0x10)
     801                            .dwendtag $C$DW$T$21
     802                    
     803                    $C$DW$T$172     .dwtag  DW_TAG_typedef
     804                            .dwattr $C$DW$T$172, DW_AT_name("__max_align_t")
     805                            .dwattr $C$DW$T$172, DW_AT_type(*$C$DW$T$21)
     806                            .dwattr $C$DW$T$172, DW_AT_language(DW_LANG_C)
     807                            .dwattr $C$DW$T$172, DW_AT_decl_file("C:/ti/ccsv8/tools/compiler/ti-cgt-arm_18.1.3.LTS/include
     808                            .dwattr $C$DW$T$172, DW_AT_decl_line(0x72)
     809                            .dwattr $C$DW$T$172, DW_AT_decl_column(0x03)
     810                    
     811                    
     812                    $C$DW$T$66      .dwtag  DW_TAG_structure_type
     813                            .dwattr $C$DW$T$66, DW_AT_byte_size(0x4c)
     814                    $C$DW$89        .dwtag  DW_TAG_member
     815                            .dwattr $C$DW$89, DW_AT_type(*$C$DW$T$29)
     816                            .dwattr $C$DW$89, DW_AT_name("Crc32")
     817                            .dwattr $C$DW$89, DW_AT_TI_symbol_name("Crc32")
     818                            .dwattr $C$DW$89, DW_AT_data_member_location[DW_OP_plus_uconst 0x0]
     819                            .dwattr $C$DW$89, DW_AT_accessibility(DW_ACCESS_public)
     820                            .dwattr $C$DW$89, DW_AT_decl_file("C:\ti\simplelink_cc13x0_sdk_2_30_00_20\source\ti\devices\cc
     821                            .dwattr $C$DW$89, DW_AT_decl_line(0x76)
     822                            .dwattr $C$DW$89, DW_AT_decl_column(0x25)
     823                    
     824                    $C$DW$90        .dwtag  DW_TAG_member
     825                            .dwattr $C$DW$90, DW_AT_type(*$C$DW$T$32)
TI ARM Assembler PC v18.1.3 Wed Nov 28 13:34:33 2018

Tools Copyright (c) 1996-2017 Texas Instruments Incorporated
C:\Users\Adrian\AppData\Local\Temp\{E185AECD-F423-44A6-B447-8E7B9B9A1395} PAGE   16

     826                            .dwattr $C$DW$90, DW_AT_name("FlashGetSize")
     827                            .dwattr $C$DW$90, DW_AT_TI_symbol_name("FlashGetSize")
     828                            .dwattr $C$DW$90, DW_AT_data_member_location[DW_OP_plus_uconst 0x4]
     829                            .dwattr $C$DW$90, DW_AT_accessibility(DW_ACCESS_public)
     830                            .dwattr $C$DW$90, DW_AT_decl_file("C:\ti\simplelink_cc13x0_sdk_2_30_00_20\source\ti\devices\cc
     831                            .dwattr $C$DW$90, DW_AT_decl_line(0x77)
     832                            .dwattr $C$DW$90, DW_AT_decl_column(0x25)
     833                    
     834                    $C$DW$91        .dwtag  DW_TAG_member
     835                            .dwattr $C$DW$91, DW_AT_type(*$C$DW$T$33)
     836                            .dwattr $C$DW$91, DW_AT_name("GetChipId")
     837                            .dwattr $C$DW$91, DW_AT_TI_symbol_name("GetChipId")
     838                            .dwattr $C$DW$91, DW_AT_data_member_location[DW_OP_plus_uconst 0x8]
     839                            .dwattr $C$DW$91, DW_AT_accessibility(DW_ACCESS_public)
     840                            .dwattr $C$DW$91, DW_AT_decl_file("C:\ti\simplelink_cc13x0_sdk_2_30_00_20\source\ti\devices\cc
     841                            .dwattr $C$DW$91, DW_AT_decl_line(0x78)
     842                            .dwattr $C$DW$91, DW_AT_decl_column(0x25)
     843                    
     844                    $C$DW$92        .dwtag  DW_TAG_member
     845                            .dwattr $C$DW$92, DW_AT_type(*$C$DW$T$36)
     846                            .dwattr $C$DW$92, DW_AT_name("ReservedLocation1")
     847                            .dwattr $C$DW$92, DW_AT_TI_symbol_name("ReservedLocation1")
     848                            .dwattr $C$DW$92, DW_AT_data_member_location[DW_OP_plus_uconst 0xc]
     849                            .dwattr $C$DW$92, DW_AT_accessibility(DW_ACCESS_public)
     850                            .dwattr $C$DW$92, DW_AT_decl_file("C:\ti\simplelink_cc13x0_sdk_2_30_00_20\source\ti\devices\cc
     851                            .dwattr $C$DW$92, DW_AT_decl_line(0x79)
     852                            .dwattr $C$DW$92, DW_AT_decl_column(0x25)
     853                    
     854                    $C$DW$93        .dwtag  DW_TAG_member
     855                            .dwattr $C$DW$93, DW_AT_type(*$C$DW$T$37)
     856                            .dwattr $C$DW$93, DW_AT_name("ReservedLocation2")
     857                            .dwattr $C$DW$93, DW_AT_TI_symbol_name("ReservedLocation2")
     858                            .dwattr $C$DW$93, DW_AT_data_member_location[DW_OP_plus_uconst 0x10]
     859                            .dwattr $C$DW$93, DW_AT_accessibility(DW_ACCESS_public)
     860                            .dwattr $C$DW$93, DW_AT_decl_file("C:\ti\simplelink_cc13x0_sdk_2_30_00_20\source\ti\devices\cc
     861                            .dwattr $C$DW$93, DW_AT_decl_line(0x7a)
     862                            .dwattr $C$DW$93, DW_AT_decl_column(0x25)
     863                    
     864                    $C$DW$94        .dwtag  DW_TAG_member
     865                            .dwattr $C$DW$94, DW_AT_type(*$C$DW$T$38)
     866                            .dwattr $C$DW$94, DW_AT_name("ReservedLocation3")
     867                            .dwattr $C$DW$94, DW_AT_TI_symbol_name("ReservedLocation3")
     868                            .dwattr $C$DW$94, DW_AT_data_member_location[DW_OP_plus_uconst 0x14]
     869                            .dwattr $C$DW$94, DW_AT_accessibility(DW_ACCESS_public)
     870                            .dwattr $C$DW$94, DW_AT_decl_file("C:\ti\simplelink_cc13x0_sdk_2_30_00_20\source\ti\devices\cc
     871                            .dwattr $C$DW$94, DW_AT_decl_line(0x7b)
     872                            .dwattr $C$DW$94, DW_AT_decl_column(0x25)
     873                    
     874                    $C$DW$95        .dwtag  DW_TAG_member
     875                            .dwattr $C$DW$95, DW_AT_type(*$C$DW$T$41)
     876                            .dwattr $C$DW$95, DW_AT_name("ResetDevice")
     877                            .dwattr $C$DW$95, DW_AT_TI_symbol_name("ResetDevice")
     878                            .dwattr $C$DW$95, DW_AT_data_member_location[DW_OP_plus_uconst 0x18]
     879                            .dwattr $C$DW$95, DW_AT_accessibility(DW_ACCESS_public)
     880                            .dwattr $C$DW$95, DW_AT_decl_file("C:\ti\simplelink_cc13x0_sdk_2_30_00_20\source\ti\devices\cc
TI ARM Assembler PC v18.1.3 Wed Nov 28 13:34:33 2018

Tools Copyright (c) 1996-2017 Texas Instruments Incorporated
C:\Users\Adrian\AppData\Local\Temp\{E185AECD-F423-44A6-B447-8E7B9B9A1395} PAGE   17

     881                            .dwattr $C$DW$95, DW_AT_decl_line(0x7c)
     882                            .dwattr $C$DW$95, DW_AT_decl_column(0x25)
     883                    
     884                    $C$DW$96        .dwtag  DW_TAG_member
     885                            .dwattr $C$DW$96, DW_AT_type(*$C$DW$T$47)
     886                            .dwattr $C$DW$96, DW_AT_name("Fletcher32")
     887                            .dwattr $C$DW$96, DW_AT_TI_symbol_name("Fletcher32")
     888                            .dwattr $C$DW$96, DW_AT_data_member_location[DW_OP_plus_uconst 0x1c]
     889                            .dwattr $C$DW$96, DW_AT_accessibility(DW_ACCESS_public)
     890                            .dwattr $C$DW$96, DW_AT_decl_file("C:\ti\simplelink_cc13x0_sdk_2_30_00_20\source\ti\devices\cc
     891                            .dwattr $C$DW$96, DW_AT_decl_line(0x7d)
     892                            .dwattr $C$DW$96, DW_AT_decl_column(0x25)
     893                    
     894                    $C$DW$97        .dwtag  DW_TAG_member
     895                            .dwattr $C$DW$97, DW_AT_type(*$C$DW$T$51)
     896                            .dwattr $C$DW$97, DW_AT_name("MinValue")
     897                            .dwattr $C$DW$97, DW_AT_TI_symbol_name("MinValue")
     898                            .dwattr $C$DW$97, DW_AT_data_member_location[DW_OP_plus_uconst 0x20]
     899                            .dwattr $C$DW$97, DW_AT_accessibility(DW_ACCESS_public)
     900                            .dwattr $C$DW$97, DW_AT_decl_file("C:\ti\simplelink_cc13x0_sdk_2_30_00_20\source\ti\devices\cc
     901                            .dwattr $C$DW$97, DW_AT_decl_line(0x7e)
     902                            .dwattr $C$DW$97, DW_AT_decl_column(0x25)
     903                    
     904                    $C$DW$98        .dwtag  DW_TAG_member
     905                            .dwattr $C$DW$98, DW_AT_type(*$C$DW$T$52)
     906                            .dwattr $C$DW$98, DW_AT_name("MaxValue")
     907                            .dwattr $C$DW$98, DW_AT_TI_symbol_name("MaxValue")
     908                            .dwattr $C$DW$98, DW_AT_data_member_location[DW_OP_plus_uconst 0x24]
     909                            .dwattr $C$DW$98, DW_AT_accessibility(DW_ACCESS_public)
     910                            .dwattr $C$DW$98, DW_AT_decl_file("C:\ti\simplelink_cc13x0_sdk_2_30_00_20\source\ti\devices\cc
     911                            .dwattr $C$DW$98, DW_AT_decl_line(0x7f)
     912                            .dwattr $C$DW$98, DW_AT_decl_column(0x25)
     913                    
     914                    $C$DW$99        .dwtag  DW_TAG_member
     915                            .dwattr $C$DW$99, DW_AT_type(*$C$DW$T$53)
     916                            .dwattr $C$DW$99, DW_AT_name("MeanValue")
     917                            .dwattr $C$DW$99, DW_AT_TI_symbol_name("MeanValue")
     918                            .dwattr $C$DW$99, DW_AT_data_member_location[DW_OP_plus_uconst 0x28]
     919                            .dwattr $C$DW$99, DW_AT_accessibility(DW_ACCESS_public)
     920                            .dwattr $C$DW$99, DW_AT_decl_file("C:\ti\simplelink_cc13x0_sdk_2_30_00_20\source\ti\devices\cc
     921                            .dwattr $C$DW$99, DW_AT_decl_line(0x80)
     922                            .dwattr $C$DW$99, DW_AT_decl_column(0x25)
     923                    
     924                    $C$DW$100       .dwtag  DW_TAG_member
     925                            .dwattr $C$DW$100, DW_AT_type(*$C$DW$T$54)
     926                            .dwattr $C$DW$100, DW_AT_name("StandDeviationValue")
     927                            .dwattr $C$DW$100, DW_AT_TI_symbol_name("StandDeviationValue")
     928                            .dwattr $C$DW$100, DW_AT_data_member_location[DW_OP_plus_uconst 0x2c]
     929                            .dwattr $C$DW$100, DW_AT_accessibility(DW_ACCESS_public)
     930                            .dwattr $C$DW$100, DW_AT_decl_file("C:\ti\simplelink_cc13x0_sdk_2_30_00_20\source\ti\devices\c
     931                            .dwattr $C$DW$100, DW_AT_decl_line(0x81)
     932                            .dwattr $C$DW$100, DW_AT_decl_column(0x25)
     933                    
     934                    $C$DW$101       .dwtag  DW_TAG_member
     935                            .dwattr $C$DW$101, DW_AT_type(*$C$DW$T$57)
TI ARM Assembler PC v18.1.3 Wed Nov 28 13:34:33 2018

Tools Copyright (c) 1996-2017 Texas Instruments Incorporated
C:\Users\Adrian\AppData\Local\Temp\{E185AECD-F423-44A6-B447-8E7B9B9A1395} PAGE   18

     936                            .dwattr $C$DW$101, DW_AT_name("ReservedLocation4")
     937                            .dwattr $C$DW$101, DW_AT_TI_symbol_name("ReservedLocation4")
     938                            .dwattr $C$DW$101, DW_AT_data_member_location[DW_OP_plus_uconst 0x30]
     939                            .dwattr $C$DW$101, DW_AT_accessibility(DW_ACCESS_public)
     940                            .dwattr $C$DW$101, DW_AT_decl_file("C:\ti\simplelink_cc13x0_sdk_2_30_00_20\source\ti\devices\c
     941                            .dwattr $C$DW$101, DW_AT_decl_line(0x82)
     942                            .dwattr $C$DW$101, DW_AT_decl_column(0x25)
     943                    
     944                    $C$DW$102       .dwtag  DW_TAG_member
     945                            .dwattr $C$DW$102, DW_AT_type(*$C$DW$T$58)
     946                            .dwattr $C$DW$102, DW_AT_name("ReservedLocation5")
     947                            .dwattr $C$DW$102, DW_AT_TI_symbol_name("ReservedLocation5")
     948                            .dwattr $C$DW$102, DW_AT_data_member_location[DW_OP_plus_uconst 0x34]
     949                            .dwattr $C$DW$102, DW_AT_accessibility(DW_ACCESS_public)
     950                            .dwattr $C$DW$102, DW_AT_decl_file("C:\ti\simplelink_cc13x0_sdk_2_30_00_20\source\ti\devices\c
     951                            .dwattr $C$DW$102, DW_AT_decl_line(0x83)
     952                            .dwattr $C$DW$102, DW_AT_decl_column(0x25)
     953                    
     954                    $C$DW$103       .dwtag  DW_TAG_member
     955                            .dwattr $C$DW$103, DW_AT_type(*$C$DW$T$59)
     956                            .dwattr $C$DW$103, DW_AT_name("HFSourceSafeSwitch")
     957                            .dwattr $C$DW$103, DW_AT_TI_symbol_name("HFSourceSafeSwitch")
     958                            .dwattr $C$DW$103, DW_AT_data_member_location[DW_OP_plus_uconst 0x38]
     959                            .dwattr $C$DW$103, DW_AT_accessibility(DW_ACCESS_public)
     960                            .dwattr $C$DW$103, DW_AT_decl_file("C:\ti\simplelink_cc13x0_sdk_2_30_00_20\source\ti\devices\c
     961                            .dwattr $C$DW$103, DW_AT_decl_line(0x84)
     962                            .dwattr $C$DW$103, DW_AT_decl_column(0x25)
     963                    
     964                    $C$DW$104       .dwtag  DW_TAG_member
     965                            .dwattr $C$DW$104, DW_AT_type(*$C$DW$T$62)
     966                            .dwattr $C$DW$104, DW_AT_name("SelectCompAInput")
     967                            .dwattr $C$DW$104, DW_AT_TI_symbol_name("SelectCompAInput")
     968                            .dwattr $C$DW$104, DW_AT_data_member_location[DW_OP_plus_uconst 0x3c]
     969                            .dwattr $C$DW$104, DW_AT_accessibility(DW_ACCESS_public)
     970                            .dwattr $C$DW$104, DW_AT_decl_file("C:\ti\simplelink_cc13x0_sdk_2_30_00_20\source\ti\devices\c
     971                            .dwattr $C$DW$104, DW_AT_decl_line(0x85)
     972                            .dwattr $C$DW$104, DW_AT_decl_column(0x25)
     973                    
     974                    $C$DW$105       .dwtag  DW_TAG_member
     975                            .dwattr $C$DW$105, DW_AT_type(*$C$DW$T$63)
     976                            .dwattr $C$DW$105, DW_AT_name("SelectCompARef")
     977                            .dwattr $C$DW$105, DW_AT_TI_symbol_name("SelectCompARef")
     978                            .dwattr $C$DW$105, DW_AT_data_member_location[DW_OP_plus_uconst 0x40]
     979                            .dwattr $C$DW$105, DW_AT_accessibility(DW_ACCESS_public)
     980                            .dwattr $C$DW$105, DW_AT_decl_file("C:\ti\simplelink_cc13x0_sdk_2_30_00_20\source\ti\devices\c
     981                            .dwattr $C$DW$105, DW_AT_decl_line(0x86)
     982                            .dwattr $C$DW$105, DW_AT_decl_column(0x25)
     983                    
     984                    $C$DW$106       .dwtag  DW_TAG_member
     985                            .dwattr $C$DW$106, DW_AT_type(*$C$DW$T$64)
     986                            .dwattr $C$DW$106, DW_AT_name("SelectADCCompBInput")
     987                            .dwattr $C$DW$106, DW_AT_TI_symbol_name("SelectADCCompBInput")
     988                            .dwattr $C$DW$106, DW_AT_data_member_location[DW_OP_plus_uconst 0x44]
     989                            .dwattr $C$DW$106, DW_AT_accessibility(DW_ACCESS_public)
     990                            .dwattr $C$DW$106, DW_AT_decl_file("C:\ti\simplelink_cc13x0_sdk_2_30_00_20\source\ti\devices\c
TI ARM Assembler PC v18.1.3 Wed Nov 28 13:34:33 2018

Tools Copyright (c) 1996-2017 Texas Instruments Incorporated
C:\Users\Adrian\AppData\Local\Temp\{E185AECD-F423-44A6-B447-8E7B9B9A1395} PAGE   19

     991                            .dwattr $C$DW$106, DW_AT_decl_line(0x87)
     992                            .dwattr $C$DW$106, DW_AT_decl_column(0x25)
     993                    
     994                    $C$DW$107       .dwtag  DW_TAG_member
     995                            .dwattr $C$DW$107, DW_AT_type(*$C$DW$T$65)
     996                            .dwattr $C$DW$107, DW_AT_name("SelectCompBRef")
     997                            .dwattr $C$DW$107, DW_AT_TI_symbol_name("SelectCompBRef")
     998                            .dwattr $C$DW$107, DW_AT_data_member_location[DW_OP_plus_uconst 0x48]
     999                            .dwattr $C$DW$107, DW_AT_accessibility(DW_ACCESS_public)
    1000                            .dwattr $C$DW$107, DW_AT_decl_file("C:\ti\simplelink_cc13x0_sdk_2_30_00_20\source\ti\devices\c
    1001                            .dwattr $C$DW$107, DW_AT_decl_line(0x88)
    1002                            .dwattr $C$DW$107, DW_AT_decl_column(0x25)
    1003                    
    1004                            .dwattr $C$DW$T$66, DW_AT_decl_file("C:\ti\simplelink_cc13x0_sdk_2_30_00_20\source\ti\devices\
    1005                            .dwattr $C$DW$T$66, DW_AT_decl_line(0x75)
    1006                            .dwattr $C$DW$T$66, DW_AT_decl_column(0x01)
    1007                            .dwendtag $C$DW$T$66
    1008                    
    1009                    $C$DW$T$173     .dwtag  DW_TAG_typedef
    1010                            .dwattr $C$DW$T$173, DW_AT_name("HARD_API_T")
    1011                            .dwattr $C$DW$T$173, DW_AT_type(*$C$DW$T$66)
    1012                            .dwattr $C$DW$T$173, DW_AT_language(DW_LANG_C)
    1013                            .dwattr $C$DW$T$173, DW_AT_decl_file("C:\ti\simplelink_cc13x0_sdk_2_30_00_20\source\ti\devices
    1014                            .dwattr $C$DW$T$173, DW_AT_decl_line(0x89)
    1015                            .dwattr $C$DW$T$173, DW_AT_decl_column(0x03)
    1016                    
    1017                    
    1018                    $C$DW$T$67      .dwtag  DW_TAG_structure_type
    1019                            .dwattr $C$DW$T$67, DW_AT_byte_size(0x08)
    1020                    $C$DW$108       .dwtag  DW_TAG_member
    1021                            .dwattr $C$DW$108, DW_AT_type(*$C$DW$T$10)
    1022                            .dwattr $C$DW$108, DW_AT_name("quot")
    1023                            .dwattr $C$DW$108, DW_AT_TI_symbol_name("quot")
    1024                            .dwattr $C$DW$108, DW_AT_data_member_location[DW_OP_plus_uconst 0x0]
    1025                            .dwattr $C$DW$108, DW_AT_accessibility(DW_ACCESS_public)
    1026                            .dwattr $C$DW$108, DW_AT_decl_file("C:/ti/ccsv8/tools/compiler/ti-cgt-arm_18.1.3.LTS/include/s
    1027                            .dwattr $C$DW$108, DW_AT_decl_line(0x49)
    1028                            .dwattr $C$DW$108, DW_AT_decl_column(0x16)
    1029                    
    1030                    $C$DW$109       .dwtag  DW_TAG_member
    1031                            .dwattr $C$DW$109, DW_AT_type(*$C$DW$T$10)
    1032                            .dwattr $C$DW$109, DW_AT_name("rem")
    1033                            .dwattr $C$DW$109, DW_AT_TI_symbol_name("rem")
    1034                            .dwattr $C$DW$109, DW_AT_data_member_location[DW_OP_plus_uconst 0x4]
    1035                            .dwattr $C$DW$109, DW_AT_accessibility(DW_ACCESS_public)
    1036                            .dwattr $C$DW$109, DW_AT_decl_file("C:/ti/ccsv8/tools/compiler/ti-cgt-arm_18.1.3.LTS/include/s
    1037                            .dwattr $C$DW$109, DW_AT_decl_line(0x49)
    1038                            .dwattr $C$DW$109, DW_AT_decl_column(0x1c)
    1039                    
    1040                            .dwattr $C$DW$T$67, DW_AT_decl_file("C:/ti/ccsv8/tools/compiler/ti-cgt-arm_18.1.3.LTS/include/
    1041                            .dwattr $C$DW$T$67, DW_AT_decl_line(0x49)
    1042                            .dwattr $C$DW$T$67, DW_AT_decl_column(0x10)
    1043                            .dwendtag $C$DW$T$67
    1044                    
    1045                    $C$DW$T$174     .dwtag  DW_TAG_typedef
TI ARM Assembler PC v18.1.3 Wed Nov 28 13:34:33 2018

Tools Copyright (c) 1996-2017 Texas Instruments Incorporated
C:\Users\Adrian\AppData\Local\Temp\{E185AECD-F423-44A6-B447-8E7B9B9A1395} PAGE   20

    1046                            .dwattr $C$DW$T$174, DW_AT_name("div_t")
    1047                            .dwattr $C$DW$T$174, DW_AT_type(*$C$DW$T$67)
    1048                            .dwattr $C$DW$T$174, DW_AT_language(DW_LANG_C)
    1049                            .dwattr $C$DW$T$174, DW_AT_decl_file("C:/ti/ccsv8/tools/compiler/ti-cgt-arm_18.1.3.LTS/include
    1050                            .dwattr $C$DW$T$174, DW_AT_decl_line(0x49)
    1051                            .dwattr $C$DW$T$174, DW_AT_decl_column(0x23)
    1052                    
    1053                    
    1054                    $C$DW$T$68      .dwtag  DW_TAG_structure_type
    1055                            .dwattr $C$DW$T$68, DW_AT_byte_size(0x08)
    1056                    $C$DW$110       .dwtag  DW_TAG_member
    1057                            .dwattr $C$DW$110, DW_AT_type(*$C$DW$T$10)
    1058                            .dwattr $C$DW$110, DW_AT_name("quot")
    1059                            .dwattr $C$DW$110, DW_AT_TI_symbol_name("quot")
    1060                            .dwattr $C$DW$110, DW_AT_data_member_location[DW_OP_plus_uconst 0x0]
    1061                            .dwattr $C$DW$110, DW_AT_accessibility(DW_ACCESS_public)
    1062                            .dwattr $C$DW$110, DW_AT_decl_file("C:/ti/ccsv8/tools/compiler/ti-cgt-arm_18.1.3.LTS/include/s
    1063                            .dwattr $C$DW$110, DW_AT_decl_line(0x4e)
    1064                            .dwattr $C$DW$110, DW_AT_decl_column(0x16)
    1065                    
    1066                    $C$DW$111       .dwtag  DW_TAG_member
    1067                            .dwattr $C$DW$111, DW_AT_type(*$C$DW$T$10)
    1068                            .dwattr $C$DW$111, DW_AT_name("rem")
    1069                            .dwattr $C$DW$111, DW_AT_TI_symbol_name("rem")
    1070                            .dwattr $C$DW$111, DW_AT_data_member_location[DW_OP_plus_uconst 0x4]
    1071                            .dwattr $C$DW$111, DW_AT_accessibility(DW_ACCESS_public)
    1072                            .dwattr $C$DW$111, DW_AT_decl_file("C:/ti/ccsv8/tools/compiler/ti-cgt-arm_18.1.3.LTS/include/s
    1073                            .dwattr $C$DW$111, DW_AT_decl_line(0x4e)
    1074                            .dwattr $C$DW$111, DW_AT_decl_column(0x1c)
    1075                    
    1076                            .dwattr $C$DW$T$68, DW_AT_decl_file("C:/ti/ccsv8/tools/compiler/ti-cgt-arm_18.1.3.LTS/include/
    1077                            .dwattr $C$DW$T$68, DW_AT_decl_line(0x4e)
    1078                            .dwattr $C$DW$T$68, DW_AT_decl_column(0x10)
    1079                            .dwendtag $C$DW$T$68
    1080                    
    1081                    $C$DW$T$175     .dwtag  DW_TAG_typedef
    1082                            .dwattr $C$DW$T$175, DW_AT_name("ldiv_t")
    1083                            .dwattr $C$DW$T$175, DW_AT_type(*$C$DW$T$68)
    1084                            .dwattr $C$DW$T$175, DW_AT_language(DW_LANG_C)
    1085                            .dwattr $C$DW$T$175, DW_AT_decl_file("C:/ti/ccsv8/tools/compiler/ti-cgt-arm_18.1.3.LTS/include
    1086                            .dwattr $C$DW$T$175, DW_AT_decl_line(0x4e)
    1087                            .dwattr $C$DW$T$175, DW_AT_decl_column(0x23)
    1088                    
    1089                    
    1090                    $C$DW$T$69      .dwtag  DW_TAG_structure_type
    1091                            .dwattr $C$DW$T$69, DW_AT_byte_size(0x10)
    1092                    $C$DW$112       .dwtag  DW_TAG_member
    1093                            .dwattr $C$DW$112, DW_AT_type(*$C$DW$T$14)
    1094                            .dwattr $C$DW$112, DW_AT_name("quot")
    1095                            .dwattr $C$DW$112, DW_AT_TI_symbol_name("quot")
    1096                            .dwattr $C$DW$112, DW_AT_data_member_location[DW_OP_plus_uconst 0x0]
    1097                            .dwattr $C$DW$112, DW_AT_accessibility(DW_ACCESS_public)
    1098                            .dwattr $C$DW$112, DW_AT_decl_file("C:/ti/ccsv8/tools/compiler/ti-cgt-arm_18.1.3.LTS/include/s
    1099                            .dwattr $C$DW$112, DW_AT_decl_line(0x56)
    1100                            .dwattr $C$DW$112, DW_AT_decl_column(0x1c)
TI ARM Assembler PC v18.1.3 Wed Nov 28 13:34:33 2018

Tools Copyright (c) 1996-2017 Texas Instruments Incorporated
C:\Users\Adrian\AppData\Local\Temp\{E185AECD-F423-44A6-B447-8E7B9B9A1395} PAGE   21

    1101                    
    1102                    $C$DW$113       .dwtag  DW_TAG_member
    1103                            .dwattr $C$DW$113, DW_AT_type(*$C$DW$T$14)
    1104                            .dwattr $C$DW$113, DW_AT_name("rem")
    1105                            .dwattr $C$DW$113, DW_AT_TI_symbol_name("rem")
    1106                            .dwattr $C$DW$113, DW_AT_data_member_location[DW_OP_plus_uconst 0x8]
    1107                            .dwattr $C$DW$113, DW_AT_accessibility(DW_ACCESS_public)
    1108                            .dwattr $C$DW$113, DW_AT_decl_file("C:/ti/ccsv8/tools/compiler/ti-cgt-arm_18.1.3.LTS/include/s
    1109                            .dwattr $C$DW$113, DW_AT_decl_line(0x56)
    1110                            .dwattr $C$DW$113, DW_AT_decl_column(0x22)
    1111                    
    1112                            .dwattr $C$DW$T$69, DW_AT_decl_file("C:/ti/ccsv8/tools/compiler/ti-cgt-arm_18.1.3.LTS/include/
    1113                            .dwattr $C$DW$T$69, DW_AT_decl_line(0x56)
    1114                            .dwattr $C$DW$T$69, DW_AT_decl_column(0x10)
    1115                            .dwendtag $C$DW$T$69
    1116                    
    1117                    $C$DW$T$176     .dwtag  DW_TAG_typedef
    1118                            .dwattr $C$DW$T$176, DW_AT_name("lldiv_t")
    1119                            .dwattr $C$DW$T$176, DW_AT_type(*$C$DW$T$69)
    1120                            .dwattr $C$DW$T$176, DW_AT_language(DW_LANG_C)
    1121                            .dwattr $C$DW$T$176, DW_AT_decl_file("C:/ti/ccsv8/tools/compiler/ti-cgt-arm_18.1.3.LTS/include
    1122                            .dwattr $C$DW$T$176, DW_AT_decl_line(0x56)
    1123                            .dwattr $C$DW$T$176, DW_AT_decl_column(0x29)
    1124                    
    1125                    
    1126                    $C$DW$T$74      .dwtag  DW_TAG_structure_type
    1127                            .dwattr $C$DW$T$74, DW_AT_byte_size(0x08)
    1128                    $C$DW$114       .dwtag  DW_TAG_member
    1129                            .dwattr $C$DW$114, DW_AT_type(*$C$DW$T$72)
    1130                            .dwattr $C$DW$114, DW_AT_name("pointerStack")
    1131                            .dwattr $C$DW$114, DW_AT_TI_symbol_name("pointerStack")
    1132                            .dwattr $C$DW$114, DW_AT_data_member_location[DW_OP_plus_uconst 0x0]
    1133                            .dwattr $C$DW$114, DW_AT_accessibility(DW_ACCESS_public)
    1134                            .dwattr $C$DW$114, DW_AT_decl_file("C:/ti/simplelink_cc13x0_sdk_2_30_00_20/source/ti/ti154stac
    1135                            .dwattr $C$DW$114, DW_AT_decl_line(0x3f5)
    1136                            .dwattr $C$DW$114, DW_AT_decl_column(0x16)
    1137                    
    1138                    $C$DW$115       .dwtag  DW_TAG_member
    1139                            .dwattr $C$DW$115, DW_AT_type(*$C$DW$T$73)
    1140                            .dwattr $C$DW$115, DW_AT_name("directAPI")
    1141                            .dwattr $C$DW$115, DW_AT_TI_symbol_name("directAPI")
    1142                            .dwattr $C$DW$115, DW_AT_data_member_location[DW_OP_plus_uconst 0x4]
    1143                            .dwattr $C$DW$115, DW_AT_accessibility(DW_ACCESS_public)
    1144                            .dwattr $C$DW$115, DW_AT_decl_file("C:/ti/simplelink_cc13x0_sdk_2_30_00_20/source/ti/ti154stac
    1145                            .dwattr $C$DW$115, DW_AT_decl_line(0x3f6)
    1146                            .dwattr $C$DW$115, DW_AT_decl_column(0x15)
    1147                    
    1148                            .dwattr $C$DW$T$74, DW_AT_decl_file("C:/ti/simplelink_cc13x0_sdk_2_30_00_20/source/ti/ti154sta
    1149                            .dwattr $C$DW$T$74, DW_AT_decl_line(0x3f4)
    1150                            .dwattr $C$DW$T$74, DW_AT_decl_column(0x01)
    1151                            .dwendtag $C$DW$T$74
    1152                    
    1153                    $C$DW$T$76      .dwtag  DW_TAG_typedef
    1154                            .dwattr $C$DW$T$76, DW_AT_name("icall_directAPIMsg_t")
    1155                            .dwattr $C$DW$T$76, DW_AT_type(*$C$DW$T$74)
TI ARM Assembler PC v18.1.3 Wed Nov 28 13:34:33 2018

Tools Copyright (c) 1996-2017 Texas Instruments Incorporated
C:\Users\Adrian\AppData\Local\Temp\{E185AECD-F423-44A6-B447-8E7B9B9A1395} PAGE   22

    1156                            .dwattr $C$DW$T$76, DW_AT_language(DW_LANG_C)
    1157                            .dwattr $C$DW$T$76, DW_AT_decl_file("C:/ti/simplelink_cc13x0_sdk_2_30_00_20/source/ti/ti154sta
    1158                            .dwattr $C$DW$T$76, DW_AT_decl_line(0x3f7)
    1159                            .dwattr $C$DW$T$76, DW_AT_decl_column(0x03)
    1160                    
    1161                    
    1162                    $C$DW$T$77      .dwtag  DW_TAG_structure_type
    1163                            .dwattr $C$DW$T$77, DW_AT_byte_size(0x14)
    1164                    $C$DW$116       .dwtag  DW_TAG_member
    1165                            .dwattr $C$DW$116, DW_AT_type(*$C$DW$T$75)
    1166                            .dwattr $C$DW$116, DW_AT_name("hdr")
    1167                            .dwattr $C$DW$116, DW_AT_TI_symbol_name("hdr")
    1168                            .dwattr $C$DW$116, DW_AT_data_member_location[DW_OP_plus_uconst 0x0]
    1169                            .dwattr $C$DW$116, DW_AT_accessibility(DW_ACCESS_public)
    1170                            .dwattr $C$DW$116, DW_AT_decl_file("C:/ti/simplelink_cc13x0_sdk_2_30_00_20/source/ti/ti154stac
    1171                            .dwattr $C$DW$116, DW_AT_decl_line(0x3fb)
    1172                            .dwattr $C$DW$116, DW_AT_decl_column(0x10)
    1173                    
    1174                    $C$DW$117       .dwtag  DW_TAG_member
    1175                            .dwattr $C$DW$117, DW_AT_type(*$C$DW$T$76)
    1176                            .dwattr $C$DW$117, DW_AT_name("msg")
    1177                            .dwattr $C$DW$117, DW_AT_TI_symbol_name("msg")
    1178                            .dwattr $C$DW$117, DW_AT_data_member_location[DW_OP_plus_uconst 0xc]
    1179                            .dwattr $C$DW$117, DW_AT_accessibility(DW_ACCESS_public)
    1180                            .dwattr $C$DW$117, DW_AT_decl_file("C:/ti/simplelink_cc13x0_sdk_2_30_00_20/source/ti/ti154stac
    1181                            .dwattr $C$DW$117, DW_AT_decl_line(0x3fc)
    1182                            .dwattr $C$DW$117, DW_AT_decl_column(0x1a)
    1183                    
    1184                            .dwattr $C$DW$T$77, DW_AT_decl_file("C:/ti/simplelink_cc13x0_sdk_2_30_00_20/source/ti/ti154sta
    1185                            .dwattr $C$DW$T$77, DW_AT_decl_line(0x3fa)
    1186                            .dwattr $C$DW$T$77, DW_AT_decl_column(0x01)
    1187                            .dwendtag $C$DW$T$77
    1188                    
    1189                    $C$DW$T$177     .dwtag  DW_TAG_typedef
    1190                            .dwattr $C$DW$T$177, DW_AT_name("icallLiteMsg_t")
    1191                            .dwattr $C$DW$T$177, DW_AT_type(*$C$DW$T$77)
    1192                            .dwattr $C$DW$T$177, DW_AT_language(DW_LANG_C)
    1193                            .dwattr $C$DW$T$177, DW_AT_decl_file("C:/ti/simplelink_cc13x0_sdk_2_30_00_20/source/ti/ti154st
    1194                            .dwattr $C$DW$T$177, DW_AT_decl_line(0x3fd)
    1195                            .dwattr $C$DW$T$177, DW_AT_decl_column(0x03)
    1196                    
    1197                    
    1198                    $C$DW$T$84      .dwtag  DW_TAG_union_type
    1199                            .dwattr $C$DW$T$84, DW_AT_byte_size(0x02)
    1200                    $C$DW$118       .dwtag  DW_TAG_member
    1201                            .dwattr $C$DW$118, DW_AT_type(*$C$DW$T$80)
    1202                            .dwattr $C$DW$118, DW_AT_name("entityId")
    1203                            .dwattr $C$DW$118, DW_AT_TI_symbol_name("entityId")
    1204                            .dwattr $C$DW$118, DW_AT_data_member_location[DW_OP_plus_uconst 0x0]
    1205                            .dwattr $C$DW$118, DW_AT_accessibility(DW_ACCESS_public)
    1206                            .dwattr $C$DW$118, DW_AT_decl_file("C:/ti/simplelink_cc13x0_sdk_2_30_00_20/source/ti/ti154stac
    1207                            .dwattr $C$DW$118, DW_AT_decl_line(0x1fe)
    1208                            .dwattr $C$DW$118, DW_AT_decl_column(0x14)
    1209                    
    1210                    $C$DW$119       .dwtag  DW_TAG_member
TI ARM Assembler PC v18.1.3 Wed Nov 28 13:34:33 2018

Tools Copyright (c) 1996-2017 Texas Instruments Incorporated
C:\Users\Adrian\AppData\Local\Temp\{E185AECD-F423-44A6-B447-8E7B9B9A1395} PAGE   23

    1211                            .dwattr $C$DW$119, DW_AT_type(*$C$DW$T$83)
    1212                            .dwattr $C$DW$119, DW_AT_name("servId")
    1213                            .dwattr $C$DW$119, DW_AT_TI_symbol_name("servId")
    1214                            .dwattr $C$DW$119, DW_AT_data_member_location[DW_OP_plus_uconst 0x0]
    1215                            .dwattr $C$DW$119, DW_AT_accessibility(DW_ACCESS_public)
    1216                            .dwattr $C$DW$119, DW_AT_decl_file("C:/ti/simplelink_cc13x0_sdk_2_30_00_20/source/ti/ti154stac
    1217                            .dwattr $C$DW$119, DW_AT_decl_line(0x200)
    1218                            .dwattr $C$DW$119, DW_AT_decl_column(0x17)
    1219                    
    1220                            .dwattr $C$DW$T$84, DW_AT_decl_file("C:/ti/simplelink_cc13x0_sdk_2_30_00_20/source/ti/ti154sta
    1221                            .dwattr $C$DW$T$84, DW_AT_decl_line(0x1fc)
    1222                            .dwattr $C$DW$T$84, DW_AT_decl_column(0x03)
    1223                            .dwendtag $C$DW$T$84
    1224                    
    1225                    
    1226                    $C$DW$T$85      .dwtag  DW_TAG_union_type
    1227                            .dwattr $C$DW$T$85, DW_AT_byte_size(0x02)
    1228                    $C$DW$120       .dwtag  DW_TAG_member
    1229                            .dwattr $C$DW$120, DW_AT_type(*$C$DW$T$83)
    1230                            .dwattr $C$DW$120, DW_AT_name("servId")
    1231                            .dwattr $C$DW$120, DW_AT_TI_symbol_name("servId")
    1232                            .dwattr $C$DW$120, DW_AT_data_member_location[DW_OP_plus_uconst 0x0]
    1233                            .dwattr $C$DW$120, DW_AT_accessibility(DW_ACCESS_public)
    1234                            .dwattr $C$DW$120, DW_AT_decl_file("C:/ti/simplelink_cc13x0_sdk_2_30_00_20/source/ti/ti154stac
    1235                            .dwattr $C$DW$120, DW_AT_decl_line(0x211)
    1236                            .dwattr $C$DW$120, DW_AT_decl_column(0x17)
    1237                    
    1238                    $C$DW$121       .dwtag  DW_TAG_member
    1239                            .dwattr $C$DW$121, DW_AT_type(*$C$DW$T$80)
    1240                            .dwattr $C$DW$121, DW_AT_name("entityId")
    1241                            .dwattr $C$DW$121, DW_AT_TI_symbol_name("entityId")
    1242                            .dwattr $C$DW$121, DW_AT_data_member_location[DW_OP_plus_uconst 0x0]
    1243                            .dwattr $C$DW$121, DW_AT_accessibility(DW_ACCESS_public)
    1244                            .dwattr $C$DW$121, DW_AT_decl_file("C:/ti/simplelink_cc13x0_sdk_2_30_00_20/source/ti/ti154stac
    1245                            .dwattr $C$DW$121, DW_AT_decl_line(0x213)
    1246                            .dwattr $C$DW$121, DW_AT_decl_column(0x14)
    1247                    
    1248                            .dwattr $C$DW$T$85, DW_AT_decl_file("C:/ti/simplelink_cc13x0_sdk_2_30_00_20/source/ti/ti154sta
    1249                            .dwattr $C$DW$T$85, DW_AT_decl_line(0x20f)
    1250                            .dwattr $C$DW$T$85, DW_AT_decl_column(0x03)
    1251                            .dwendtag $C$DW$T$85
    1252                    
    1253                    
    1254                    $C$DW$T$86      .dwtag  DW_TAG_structure_type
    1255                            .dwattr $C$DW$T$86, DW_AT_name("_ICall_LiteCmdStatus_")
    1256                            .dwattr $C$DW$T$86, DW_AT_byte_size(0x01)
    1257                    $C$DW$122       .dwtag  DW_TAG_member
    1258                            .dwattr $C$DW$122, DW_AT_type(*$C$DW$T$79)
    1259                            .dwattr $C$DW$122, DW_AT_name("cmdId")
    1260                            .dwattr $C$DW$122, DW_AT_TI_symbol_name("cmdId")
    1261                            .dwattr $C$DW$122, DW_AT_data_member_location[DW_OP_plus_uconst 0x0]
    1262                            .dwattr $C$DW$122, DW_AT_accessibility(DW_ACCESS_public)
    1263                            .dwattr $C$DW$122, DW_AT_decl_file("C:/ti/simplelink_cc13x0_sdk_2_30_00_20/source/ti/ti154stac
    1264                            .dwattr $C$DW$122, DW_AT_decl_line(0x3f0)
    1265                            .dwattr $C$DW$122, DW_AT_decl_column(0x11)
TI ARM Assembler PC v18.1.3 Wed Nov 28 13:34:33 2018

Tools Copyright (c) 1996-2017 Texas Instruments Incorporated
C:\Users\Adrian\AppData\Local\Temp\{E185AECD-F423-44A6-B447-8E7B9B9A1395} PAGE   24

    1266                    
    1267                            .dwattr $C$DW$T$86, DW_AT_decl_file("C:/ti/simplelink_cc13x0_sdk_2_30_00_20/source/ti/ti154sta
    1268                            .dwattr $C$DW$T$86, DW_AT_decl_line(0x3ee)
    1269                            .dwattr $C$DW$T$86, DW_AT_decl_column(0x10)
    1270                            .dwendtag $C$DW$T$86
    1271                    
    1272                    $C$DW$T$178     .dwtag  DW_TAG_typedef
    1273                            .dwattr $C$DW$T$178, DW_AT_name("ICall_LiteCmdStatus")
    1274                            .dwattr $C$DW$T$178, DW_AT_type(*$C$DW$T$86)
    1275                            .dwattr $C$DW$T$178, DW_AT_language(DW_LANG_C)
    1276                            .dwattr $C$DW$T$178, DW_AT_decl_file("C:/ti/simplelink_cc13x0_sdk_2_30_00_20/source/ti/ti154st
    1277                            .dwattr $C$DW$T$178, DW_AT_decl_line(0x3f1)
    1278                            .dwattr $C$DW$T$178, DW_AT_decl_column(0x03)
    1279                    
    1280                    $C$DW$T$2       .dwtag  DW_TAG_unspecified_type
    1281                            .dwattr $C$DW$T$2, DW_AT_name("void")
    1282                    
    1283                    $C$DW$T$3       .dwtag  DW_TAG_pointer_type
    1284                            .dwattr $C$DW$T$3, DW_AT_type(*$C$DW$T$2)
    1285                            .dwattr $C$DW$T$3, DW_AT_address_class(0x20)
    1286                    
    1287                    $C$DW$T$179     .dwtag  DW_TAG_typedef
    1288                            .dwattr $C$DW$T$179, DW_AT_name("ICall_Semaphore")
    1289                            .dwattr $C$DW$T$179, DW_AT_type(*$C$DW$T$3)
    1290                            .dwattr $C$DW$T$179, DW_AT_language(DW_LANG_C)
    1291                            .dwattr $C$DW$T$179, DW_AT_decl_file("C:/ti/simplelink_cc13x0_sdk_2_30_00_20/source/ti/ti154st
    1292                            .dwattr $C$DW$T$179, DW_AT_decl_line(0x1ac)
    1293                            .dwattr $C$DW$T$179, DW_AT_decl_column(0x0f)
    1294                    
    1295                    $C$DW$T$102     .dwtag  DW_TAG_typedef
    1296                            .dwattr $C$DW$T$102, DW_AT_name("ICall_SyncHandle")
    1297                            .dwattr $C$DW$T$102, DW_AT_type(*$C$DW$T$3)
    1298                            .dwattr $C$DW$T$102, DW_AT_language(DW_LANG_C)
    1299                            .dwattr $C$DW$T$102, DW_AT_decl_file("C:/ti/simplelink_cc13x0_sdk_2_30_00_20/source/ti/ti154st
    1300                            .dwattr $C$DW$T$102, DW_AT_decl_line(0x1aa)
    1301                            .dwattr $C$DW$T$102, DW_AT_decl_column(0x0f)
    1302                    
    1303                    $C$DW$T$150     .dwtag  DW_TAG_typedef
    1304                            .dwattr $C$DW$T$150, DW_AT_name("ICall_TimerID")
    1305                            .dwattr $C$DW$T$150, DW_AT_type(*$C$DW$T$3)
    1306                            .dwattr $C$DW$T$150, DW_AT_language(DW_LANG_C)
    1307                            .dwattr $C$DW$T$150, DW_AT_decl_file("C:/ti/simplelink_cc13x0_sdk_2_30_00_20/source/ti/ti154st
    1308                            .dwattr $C$DW$T$150, DW_AT_decl_line(0x1b7)
    1309                            .dwattr $C$DW$T$150, DW_AT_decl_column(0x0f)
    1310                    
    1311                    
    1312                    $C$DW$T$39      .dwtag  DW_TAG_subroutine_type
    1313                            .dwattr $C$DW$T$39, DW_AT_language(DW_LANG_C)
    1314                            .dwendtag $C$DW$T$39
    1315                    
    1316                    $C$DW$T$40      .dwtag  DW_TAG_pointer_type
    1317                            .dwattr $C$DW$T$40, DW_AT_type(*$C$DW$T$39)
    1318                            .dwattr $C$DW$T$40, DW_AT_address_class(0x20)
    1319                    
    1320                    $C$DW$T$166     .dwtag  DW_TAG_typedef
TI ARM Assembler PC v18.1.3 Wed Nov 28 13:34:33 2018

Tools Copyright (c) 1996-2017 Texas Instruments Incorporated
C:\Users\Adrian\AppData\Local\Temp\{E185AECD-F423-44A6-B447-8E7B9B9A1395} PAGE   25

    1321                            .dwattr $C$DW$T$166, DW_AT_name("APPASRTINTF_callAssrtHndler")
    1322                            .dwattr $C$DW$T$166, DW_AT_type(*$C$DW$T$40)
    1323                            .dwattr $C$DW$T$166, DW_AT_language(DW_LANG_C)
    1324                            .dwattr $C$DW$T$166, DW_AT_decl_file("C:/ti/simplelink_cc13x0_sdk_2_30_00_20/source/ti/ti154st
    1325                            .dwattr $C$DW$T$166, DW_AT_decl_line(0x43)
    1326                            .dwattr $C$DW$T$166, DW_AT_decl_column(0x10)
    1327                    
    1328                    $C$DW$T$59      .dwtag  DW_TAG_typedef
    1329                            .dwattr $C$DW$T$59, DW_AT_name("FPTR_HFSOURCESAFESWITCH_T")
    1330                            .dwattr $C$DW$T$59, DW_AT_type(*$C$DW$T$40)
    1331                            .dwattr $C$DW$T$59, DW_AT_language(DW_LANG_C)
    1332                            .dwattr $C$DW$T$59, DW_AT_decl_file("C:\ti\simplelink_cc13x0_sdk_2_30_00_20\source\ti\devices\
    1333                            .dwattr $C$DW$T$59, DW_AT_decl_line(0x5f)
    1334                            .dwattr $C$DW$T$59, DW_AT_decl_column(0x19)
    1335                    
    1336                    $C$DW$T$41      .dwtag  DW_TAG_typedef
    1337                            .dwattr $C$DW$T$41, DW_AT_name("FPTR_RESETDEV_T")
    1338                            .dwattr $C$DW$T$41, DW_AT_type(*$C$DW$T$40)
    1339                            .dwattr $C$DW$T$41, DW_AT_language(DW_LANG_C)
    1340                            .dwattr $C$DW$T$41, DW_AT_decl_file("C:\ti\simplelink_cc13x0_sdk_2_30_00_20\source\ti\devices\
    1341                            .dwattr $C$DW$T$41, DW_AT_decl_line(0x4d)
    1342                            .dwattr $C$DW$T$41, DW_AT_decl_column(0x19)
    1343                    
    1344                    $C$DW$T$180     .dwtag  DW_TAG_typedef
    1345                            .dwattr $C$DW$T$180, DW_AT_name("FPTR_VOID_VOID_T")
    1346                            .dwattr $C$DW$T$180, DW_AT_type(*$C$DW$T$40)
    1347                            .dwattr $C$DW$T$180, DW_AT_language(DW_LANG_C)
    1348                            .dwattr $C$DW$T$180, DW_AT_decl_file("C:/ti/simplelink_cc13x0_sdk_2_30_00_20/source/ti/devices
    1349                            .dwattr $C$DW$T$180, DW_AT_decl_line(0x33)
    1350                            .dwattr $C$DW$T$180, DW_AT_decl_column(0x11)
    1351                    
    1352                    $C$DW$T$181     .dwtag  DW_TAG_typedef
    1353                            .dwattr $C$DW$T$181, DW_AT_name("__TI_atexit_fn")
    1354                            .dwattr $C$DW$T$181, DW_AT_type(*$C$DW$T$40)
    1355                            .dwattr $C$DW$T$181, DW_AT_language(DW_LANG_C)
    1356                            .dwattr $C$DW$T$181, DW_AT_decl_file("C:/ti/ccsv8/tools/compiler/ti-cgt-arm_18.1.3.LTS/include
    1357                            .dwattr $C$DW$T$181, DW_AT_decl_line(0xb2)
    1358                            .dwattr $C$DW$T$181, DW_AT_decl_column(0x14)
    1359                    
    1360                    
    1361                    $C$DW$T$55      .dwtag  DW_TAG_subroutine_type
    1362                            .dwattr $C$DW$T$55, DW_AT_language(DW_LANG_C)
    1363                    $C$DW$123       .dwtag  DW_TAG_formal_parameter
    1364                            .dwattr $C$DW$123, DW_AT_type(*$C$DW$T$23)
    1365                    
    1366                            .dwendtag $C$DW$T$55
    1367                    
    1368                    $C$DW$T$56      .dwtag  DW_TAG_pointer_type
    1369                            .dwattr $C$DW$T$56, DW_AT_type(*$C$DW$T$55)
    1370                            .dwattr $C$DW$T$56, DW_AT_address_class(0x20)
    1371                    
    1372                    $C$DW$T$57      .dwtag  DW_TAG_typedef
    1373                            .dwattr $C$DW$T$57, DW_AT_name("FPTR_RESERVED4_T")
    1374                            .dwattr $C$DW$T$57, DW_AT_type(*$C$DW$T$56)
    1375                            .dwattr $C$DW$T$57, DW_AT_language(DW_LANG_C)
TI ARM Assembler PC v18.1.3 Wed Nov 28 13:34:33 2018

Tools Copyright (c) 1996-2017 Texas Instruments Incorporated
C:\Users\Adrian\AppData\Local\Temp\{E185AECD-F423-44A6-B447-8E7B9B9A1395} PAGE   26

    1376                            .dwattr $C$DW$T$57, DW_AT_decl_file("C:\ti\simplelink_cc13x0_sdk_2_30_00_20\source\ti\devices\
    1377                            .dwattr $C$DW$T$57, DW_AT_decl_line(0x61)
    1378                            .dwattr $C$DW$T$57, DW_AT_decl_column(0x19)
    1379                    
    1380                    $C$DW$T$58      .dwtag  DW_TAG_typedef
    1381                            .dwattr $C$DW$T$58, DW_AT_name("FPTR_RESERVED5_T")
    1382                            .dwattr $C$DW$T$58, DW_AT_type(*$C$DW$T$56)
    1383                            .dwattr $C$DW$T$58, DW_AT_language(DW_LANG_C)
    1384                            .dwattr $C$DW$T$58, DW_AT_decl_file("C:\ti\simplelink_cc13x0_sdk_2_30_00_20\source\ti\devices\
    1385                            .dwattr $C$DW$T$58, DW_AT_decl_line(0x63)
    1386                            .dwattr $C$DW$T$58, DW_AT_decl_column(0x19)
    1387                    
    1388                    
    1389                    $C$DW$T$60      .dwtag  DW_TAG_subroutine_type
    1390                            .dwattr $C$DW$T$60, DW_AT_language(DW_LANG_C)
    1391                    $C$DW$124       .dwtag  DW_TAG_formal_parameter
    1392                            .dwattr $C$DW$124, DW_AT_type(*$C$DW$T$25)
    1393                    
    1394                            .dwendtag $C$DW$T$60
    1395                    
    1396                    $C$DW$T$61      .dwtag  DW_TAG_pointer_type
    1397                            .dwattr $C$DW$T$61, DW_AT_type(*$C$DW$T$60)
    1398                            .dwattr $C$DW$T$61, DW_AT_address_class(0x20)
    1399                    
    1400                    $C$DW$T$64      .dwtag  DW_TAG_typedef
    1401                            .dwattr $C$DW$T$64, DW_AT_name("FPTR_ADCCOMPBIN_T")
    1402                            .dwattr $C$DW$T$64, DW_AT_type(*$C$DW$T$61)
    1403                            .dwattr $C$DW$T$64, DW_AT_language(DW_LANG_C)
    1404                            .dwattr $C$DW$T$64, DW_AT_decl_file("C:\ti\simplelink_cc13x0_sdk_2_30_00_20\source\ti\devices\
    1405                            .dwattr $C$DW$T$64, DW_AT_decl_line(0x69)
    1406                            .dwattr $C$DW$T$64, DW_AT_decl_column(0x19)
    1407                    
    1408                    $C$DW$T$62      .dwtag  DW_TAG_typedef
    1409                            .dwattr $C$DW$T$62, DW_AT_name("FPTR_COMPAIN_T")
    1410                            .dwattr $C$DW$T$62, DW_AT_type(*$C$DW$T$61)
    1411                            .dwattr $C$DW$T$62, DW_AT_language(DW_LANG_C)
    1412                            .dwattr $C$DW$T$62, DW_AT_decl_file("C:\ti\simplelink_cc13x0_sdk_2_30_00_20\source\ti\devices\
    1413                            .dwattr $C$DW$T$62, DW_AT_decl_line(0x65)
    1414                            .dwattr $C$DW$T$62, DW_AT_decl_column(0x19)
    1415                    
    1416                    $C$DW$T$63      .dwtag  DW_TAG_typedef
    1417                            .dwattr $C$DW$T$63, DW_AT_name("FPTR_COMPAREF_T")
    1418                            .dwattr $C$DW$T$63, DW_AT_type(*$C$DW$T$61)
    1419                            .dwattr $C$DW$T$63, DW_AT_language(DW_LANG_C)
    1420                            .dwattr $C$DW$T$63, DW_AT_decl_file("C:\ti\simplelink_cc13x0_sdk_2_30_00_20\source\ti\devices\
    1421                            .dwattr $C$DW$T$63, DW_AT_decl_line(0x67)
    1422                            .dwattr $C$DW$T$63, DW_AT_decl_column(0x19)
    1423                    
    1424                    $C$DW$T$65      .dwtag  DW_TAG_typedef
    1425                            .dwattr $C$DW$T$65, DW_AT_name("FPTR_COMPBREF_T")
    1426                            .dwattr $C$DW$T$65, DW_AT_type(*$C$DW$T$61)
    1427                            .dwattr $C$DW$T$65, DW_AT_language(DW_LANG_C)
    1428                            .dwattr $C$DW$T$65, DW_AT_decl_file("C:\ti\simplelink_cc13x0_sdk_2_30_00_20\source\ti\devices\
    1429                            .dwattr $C$DW$T$65, DW_AT_decl_line(0x6b)
    1430                            .dwattr $C$DW$T$65, DW_AT_decl_column(0x19)
TI ARM Assembler PC v18.1.3 Wed Nov 28 13:34:33 2018

Tools Copyright (c) 1996-2017 Texas Instruments Incorporated
C:\Users\Adrian\AppData\Local\Temp\{E185AECD-F423-44A6-B447-8E7B9B9A1395} PAGE   27

    1431                    
    1432                    $C$DW$T$182     .dwtag  DW_TAG_typedef
    1433                            .dwattr $C$DW$T$182, DW_AT_name("FPTR_VOID_UINT8_T")
    1434                            .dwattr $C$DW$T$182, DW_AT_type(*$C$DW$T$61)
    1435                            .dwattr $C$DW$T$182, DW_AT_language(DW_LANG_C)
    1436                            .dwattr $C$DW$T$182, DW_AT_decl_file("C:/ti/simplelink_cc13x0_sdk_2_30_00_20/source/ti/devices
    1437                            .dwattr $C$DW$T$182, DW_AT_decl_line(0x34)
    1438                            .dwattr $C$DW$T$182, DW_AT_decl_column(0x11)
    1439                    
    1440                    
    1441                    $C$DW$T$91      .dwtag  DW_TAG_subroutine_type
    1442                            .dwattr $C$DW$T$91, DW_AT_language(DW_LANG_C)
    1443                    $C$DW$125       .dwtag  DW_TAG_formal_parameter
    1444                            .dwattr $C$DW$125, DW_AT_type(*$C$DW$T$89)
    1445                    
    1446                            .dwendtag $C$DW$T$91
    1447                    
    1448                    $C$DW$T$92      .dwtag  DW_TAG_pointer_type
    1449                            .dwattr $C$DW$T$92, DW_AT_type(*$C$DW$T$91)
    1450                            .dwattr $C$DW$T$92, DW_AT_address_class(0x20)
    1451                    
    1452                    
    1453                    $C$DW$T$128     .dwtag  DW_TAG_subroutine_type
    1454                            .dwattr $C$DW$T$128, DW_AT_language(DW_LANG_C)
    1455                    $C$DW$126       .dwtag  DW_TAG_formal_parameter
    1456                            .dwattr $C$DW$126, DW_AT_type(*$C$DW$T$126)
    1457                    
    1458                    $C$DW$127       .dwtag  DW_TAG_formal_parameter
    1459                            .dwattr $C$DW$127, DW_AT_type(*$C$DW$T$127)
    1460                    
    1461                            .dwendtag $C$DW$T$128
    1462                    
    1463                    $C$DW$T$129     .dwtag  DW_TAG_pointer_type
    1464                            .dwattr $C$DW$T$129, DW_AT_type(*$C$DW$T$128)
    1465                            .dwattr $C$DW$T$129, DW_AT_address_class(0x20)
    1466                    
    1467                    $C$DW$T$130     .dwtag  DW_TAG_typedef
    1468                            .dwattr $C$DW$T$130, DW_AT_name("ICall_PwrNotifyFn")
    1469                            .dwattr $C$DW$T$130, DW_AT_type(*$C$DW$T$129)
    1470                            .dwattr $C$DW$T$130, DW_AT_language(DW_LANG_C)
    1471                            .dwattr $C$DW$T$130, DW_AT_decl_file("C:/ti/simplelink_cc13x0_sdk_2_30_00_20/source/ti/ti154st
    1472                            .dwattr $C$DW$T$130, DW_AT_decl_line(0x333)
    1473                            .dwattr $C$DW$T$130, DW_AT_decl_column(0x10)
    1474                    
    1475                    
    1476                    $C$DW$T$144     .dwtag  DW_TAG_subroutine_type
    1477                            .dwattr $C$DW$T$144, DW_AT_language(DW_LANG_C)
    1478                    $C$DW$128       .dwtag  DW_TAG_formal_parameter
    1479                            .dwattr $C$DW$128, DW_AT_type(*$C$DW$T$140)
    1480                    
    1481                            .dwendtag $C$DW$T$144
    1482                    
    1483                    $C$DW$T$145     .dwtag  DW_TAG_pointer_type
    1484                            .dwattr $C$DW$T$145, DW_AT_type(*$C$DW$T$144)
    1485                            .dwattr $C$DW$T$145, DW_AT_address_class(0x20)
TI ARM Assembler PC v18.1.3 Wed Nov 28 13:34:33 2018

Tools Copyright (c) 1996-2017 Texas Instruments Incorporated
C:\Users\Adrian\AppData\Local\Temp\{E185AECD-F423-44A6-B447-8E7B9B9A1395} PAGE   28

    1486                    
    1487                    $C$DW$T$146     .dwtag  DW_TAG_typedef
    1488                            .dwattr $C$DW$T$146, DW_AT_name("ICall_LeaveCS")
    1489                            .dwattr $C$DW$T$146, DW_AT_type(*$C$DW$T$145)
    1490                            .dwattr $C$DW$T$146, DW_AT_language(DW_LANG_C)
    1491                            .dwattr $C$DW$T$146, DW_AT_decl_file("C:/ti/simplelink_cc13x0_sdk_2_30_00_20/source/ti/ti154st
    1492                            .dwattr $C$DW$T$146, DW_AT_decl_line(0x37e)
    1493                            .dwattr $C$DW$T$146, DW_AT_decl_column(0x10)
    1494                    
    1495                    
    1496                    $C$DW$T$151     .dwtag  DW_TAG_subroutine_type
    1497                            .dwattr $C$DW$T$151, DW_AT_language(DW_LANG_C)
    1498                    $C$DW$129       .dwtag  DW_TAG_formal_parameter
    1499                            .dwattr $C$DW$129, DW_AT_type(*$C$DW$T$3)
    1500                    
    1501                            .dwendtag $C$DW$T$151
    1502                    
    1503                    $C$DW$T$152     .dwtag  DW_TAG_pointer_type
    1504                            .dwattr $C$DW$T$152, DW_AT_type(*$C$DW$T$151)
    1505                            .dwattr $C$DW$T$152, DW_AT_address_class(0x20)
    1506                    
    1507                    $C$DW$T$153     .dwtag  DW_TAG_typedef
    1508                            .dwattr $C$DW$T$153, DW_AT_name("ICall_TimerCback")
    1509                            .dwattr $C$DW$T$153, DW_AT_type(*$C$DW$T$152)
    1510                            .dwattr $C$DW$T$153, DW_AT_language(DW_LANG_C)
    1511                            .dwattr $C$DW$T$153, DW_AT_decl_file("C:/ti/simplelink_cc13x0_sdk_2_30_00_20/source/ti/ti154st
    1512                            .dwattr $C$DW$T$153, DW_AT_decl_line(0x1c8)
    1513                            .dwattr $C$DW$T$153, DW_AT_decl_column(0x10)
    1514                    
    1515                    $C$DW$T$160     .dwtag  DW_TAG_const_type
    1516                            .dwattr $C$DW$T$160, DW_AT_type(*$C$DW$T$2)
    1517                    
    1518                    $C$DW$T$161     .dwtag  DW_TAG_pointer_type
    1519                            .dwattr $C$DW$T$161, DW_AT_type(*$C$DW$T$160)
    1520                            .dwattr $C$DW$T$161, DW_AT_address_class(0x20)
    1521                    
    1522                    
    1523                    $C$DW$T$184     .dwtag  DW_TAG_subroutine_type
    1524                            .dwattr $C$DW$T$184, DW_AT_language(DW_LANG_C)
    1525                    $C$DW$130       .dwtag  DW_TAG_formal_parameter
    1526                            .dwattr $C$DW$130, DW_AT_type(*$C$DW$T$183)
    1527                    
    1528                    $C$DW$131       .dwtag  DW_TAG_formal_parameter
    1529                            .dwattr $C$DW$131, DW_AT_type(*$C$DW$T$183)
    1530                    
    1531                            .dwendtag $C$DW$T$184
    1532                    
    1533                    $C$DW$T$185     .dwtag  DW_TAG_pointer_type
    1534                            .dwattr $C$DW$T$185, DW_AT_type(*$C$DW$T$184)
    1535                            .dwattr $C$DW$T$185, DW_AT_address_class(0x20)
    1536                    
    1537                    $C$DW$T$186     .dwtag  DW_TAG_typedef
    1538                            .dwattr $C$DW$T$186, DW_AT_name("assertCback_t")
    1539                            .dwattr $C$DW$T$186, DW_AT_type(*$C$DW$T$185)
    1540                            .dwattr $C$DW$T$186, DW_AT_language(DW_LANG_C)
TI ARM Assembler PC v18.1.3 Wed Nov 28 13:34:33 2018

Tools Copyright (c) 1996-2017 Texas Instruments Incorporated
C:\Users\Adrian\AppData\Local\Temp\{E185AECD-F423-44A6-B447-8E7B9B9A1395} PAGE   29

    1541                            .dwattr $C$DW$T$186, DW_AT_decl_file("C:/ti/simplelink_cc13x0_sdk_2_30_00_20/source/ti/ti154st
    1542                            .dwattr $C$DW$T$186, DW_AT_decl_line(0xd3)
    1543                            .dwattr $C$DW$T$186, DW_AT_decl_column(0x10)
    1544                    
    1545                    
    1546                    $C$DW$T$190     .dwtag  DW_TAG_subroutine_type
    1547                            .dwattr $C$DW$T$190, DW_AT_language(DW_LANG_C)
    1548                    $C$DW$132       .dwtag  DW_TAG_formal_parameter
    1549                            .dwattr $C$DW$132, DW_AT_type(*$C$DW$T$189)
    1550                    
    1551                    $C$DW$133       .dwtag  DW_TAG_formal_parameter
    1552                            .dwattr $C$DW$133, DW_AT_type(*$C$DW$T$3)
    1553                    
    1554                            .dwendtag $C$DW$T$190
    1555                    
    1556                    $C$DW$T$191     .dwtag  DW_TAG_pointer_type
    1557                            .dwattr $C$DW$T$191, DW_AT_type(*$C$DW$T$190)
    1558                            .dwattr $C$DW$T$191, DW_AT_address_class(0x20)
    1559                    
    1560                    $C$DW$T$192     .dwtag  DW_TAG_typedef
    1561                            .dwattr $C$DW$T$192, DW_AT_name("ICall_RemoteTaskEntry")
    1562                            .dwattr $C$DW$T$192, DW_AT_type(*$C$DW$T$191)
    1563                            .dwattr $C$DW$T$192, DW_AT_language(DW_LANG_C)
    1564                            .dwattr $C$DW$T$192, DW_AT_decl_file("C:/ti/simplelink_cc13x0_sdk_2_30_00_20/source/ti/ti154st
    1565                            .dwattr $C$DW$T$192, DW_AT_decl_line(0x39b)
    1566                            .dwattr $C$DW$T$192, DW_AT_decl_column(0x10)
    1567                    
    1568                    $C$DW$T$4       .dwtag  DW_TAG_base_type
    1569                            .dwattr $C$DW$T$4, DW_AT_encoding(DW_ATE_boolean)
    1570                            .dwattr $C$DW$T$4, DW_AT_name("bool")
    1571                            .dwattr $C$DW$T$4, DW_AT_byte_size(0x01)
    1572                    
    1573                    $C$DW$T$5       .dwtag  DW_TAG_base_type
    1574                            .dwattr $C$DW$T$5, DW_AT_encoding(DW_ATE_signed_char)
    1575                            .dwattr $C$DW$T$5, DW_AT_name("signed char")
    1576                            .dwattr $C$DW$T$5, DW_AT_byte_size(0x01)
    1577                    
    1578                    $C$DW$T$193     .dwtag  DW_TAG_typedef
    1579                            .dwattr $C$DW$T$193, DW_AT_name("__int8_t")
    1580                            .dwattr $C$DW$T$193, DW_AT_type(*$C$DW$T$5)
    1581                            .dwattr $C$DW$T$193, DW_AT_language(DW_LANG_C)
    1582                            .dwattr $C$DW$T$193, DW_AT_decl_file("C:/ti/ccsv8/tools/compiler/ti-cgt-arm_18.1.3.LTS/include
    1583                            .dwattr $C$DW$T$193, DW_AT_decl_line(0x39)
    1584                            .dwattr $C$DW$T$193, DW_AT_decl_column(0x16)
    1585                    
    1586                    $C$DW$T$194     .dwtag  DW_TAG_typedef
    1587                            .dwattr $C$DW$T$194, DW_AT_name("__int_least8_t")
    1588                            .dwattr $C$DW$T$194, DW_AT_type(*$C$DW$T$193)
    1589                            .dwattr $C$DW$T$194, DW_AT_language(DW_LANG_C)
    1590                            .dwattr $C$DW$T$194, DW_AT_decl_file("C:/ti/ccsv8/tools/compiler/ti-cgt-arm_18.1.3.LTS/include
    1591                            .dwattr $C$DW$T$194, DW_AT_decl_line(0x58)
    1592                            .dwattr $C$DW$T$194, DW_AT_decl_column(0x12)
    1593                    
    1594                    $C$DW$T$195     .dwtag  DW_TAG_typedef
    1595                            .dwattr $C$DW$T$195, DW_AT_name("int_least8_t")
TI ARM Assembler PC v18.1.3 Wed Nov 28 13:34:33 2018

Tools Copyright (c) 1996-2017 Texas Instruments Incorporated
C:\Users\Adrian\AppData\Local\Temp\{E185AECD-F423-44A6-B447-8E7B9B9A1395} PAGE   30

    1596                            .dwattr $C$DW$T$195, DW_AT_type(*$C$DW$T$194)
    1597                            .dwattr $C$DW$T$195, DW_AT_language(DW_LANG_C)
    1598                            .dwattr $C$DW$T$195, DW_AT_decl_file("C:/ti/ccsv8/tools/compiler/ti-cgt-arm_18.1.3.LTS/include
    1599                            .dwattr $C$DW$T$195, DW_AT_decl_line(0x28)
    1600                            .dwattr $C$DW$T$195, DW_AT_decl_column(0x19)
    1601                    
    1602                    $C$DW$T$196     .dwtag  DW_TAG_typedef
    1603                            .dwattr $C$DW$T$196, DW_AT_name("int8_t")
    1604                            .dwattr $C$DW$T$196, DW_AT_type(*$C$DW$T$193)
    1605                            .dwattr $C$DW$T$196, DW_AT_language(DW_LANG_C)
    1606                            .dwattr $C$DW$T$196, DW_AT_decl_file("C:/ti/ccsv8/tools/compiler/ti-cgt-arm_18.1.3.LTS/include
    1607                            .dwattr $C$DW$T$196, DW_AT_decl_line(0x24)
    1608                            .dwattr $C$DW$T$196, DW_AT_decl_column(0x13)
    1609                    
    1610                    $C$DW$T$197     .dwtag  DW_TAG_typedef
    1611                            .dwattr $C$DW$T$197, DW_AT_name("int8")
    1612                            .dwattr $C$DW$T$197, DW_AT_type(*$C$DW$T$5)
    1613                            .dwattr $C$DW$T$197, DW_AT_language(DW_LANG_C)
    1614                            .dwattr $C$DW$T$197, DW_AT_decl_file("C:\ti\simplelink_cc13x0_sdk_2_30_00_20\source\ti\ti154st
    1615                            .dwattr $C$DW$T$197, DW_AT_decl_line(0x38)
    1616                            .dwattr $C$DW$T$197, DW_AT_decl_column(0x19)
    1617                    
    1618                    $C$DW$T$6       .dwtag  DW_TAG_base_type
    1619                            .dwattr $C$DW$T$6, DW_AT_encoding(DW_ATE_unsigned_char)
    1620                            .dwattr $C$DW$T$6, DW_AT_name("unsigned char")
    1621                            .dwattr $C$DW$T$6, DW_AT_byte_size(0x01)
    1622                    
    1623                    $C$DW$T$24      .dwtag  DW_TAG_typedef
    1624                            .dwattr $C$DW$T$24, DW_AT_name("__uint8_t")
    1625                            .dwattr $C$DW$T$24, DW_AT_type(*$C$DW$T$6)
    1626                            .dwattr $C$DW$T$24, DW_AT_language(DW_LANG_C)
    1627                            .dwattr $C$DW$T$24, DW_AT_decl_file("C:/ti/ccsv8/tools/compiler/ti-cgt-arm_18.1.3.LTS/include/
    1628                            .dwattr $C$DW$T$24, DW_AT_decl_line(0x3a)
    1629                            .dwattr $C$DW$T$24, DW_AT_decl_column(0x18)
    1630                    
    1631                    $C$DW$T$204     .dwtag  DW_TAG_typedef
    1632                            .dwattr $C$DW$T$204, DW_AT_name("__sa_family_t")
    1633                            .dwattr $C$DW$T$204, DW_AT_type(*$C$DW$T$24)
    1634                            .dwattr $C$DW$T$204, DW_AT_language(DW_LANG_C)
    1635                            .dwattr $C$DW$T$204, DW_AT_decl_file("C:/ti/ccsv8/tools/compiler/ti-cgt-arm_18.1.3.LTS/include
    1636                            .dwattr $C$DW$T$204, DW_AT_decl_line(0x43)
    1637                            .dwattr $C$DW$T$204, DW_AT_decl_column(0x13)
    1638                    
    1639                    $C$DW$T$78      .dwtag  DW_TAG_typedef
    1640                            .dwattr $C$DW$T$78, DW_AT_name("__uint_least8_t")
    1641                            .dwattr $C$DW$T$78, DW_AT_type(*$C$DW$T$24)
    1642                            .dwattr $C$DW$T$78, DW_AT_language(DW_LANG_C)
    1643                            .dwattr $C$DW$T$78, DW_AT_decl_file("C:/ti/ccsv8/tools/compiler/ti-cgt-arm_18.1.3.LTS/include/
    1644                            .dwattr $C$DW$T$78, DW_AT_decl_line(0x6d)
    1645                            .dwattr $C$DW$T$78, DW_AT_decl_column(0x13)
    1646                    
    1647                    $C$DW$T$79      .dwtag  DW_TAG_typedef
    1648                            .dwattr $C$DW$T$79, DW_AT_name("uint_least8_t")
    1649                            .dwattr $C$DW$T$79, DW_AT_type(*$C$DW$T$78)
    1650                            .dwattr $C$DW$T$79, DW_AT_language(DW_LANG_C)
TI ARM Assembler PC v18.1.3 Wed Nov 28 13:34:33 2018

Tools Copyright (c) 1996-2017 Texas Instruments Incorporated
C:\Users\Adrian\AppData\Local\Temp\{E185AECD-F423-44A6-B447-8E7B9B9A1395} PAGE   31

    1651                            .dwattr $C$DW$T$79, DW_AT_decl_file("C:/ti/ccsv8/tools/compiler/ti-cgt-arm_18.1.3.LTS/include/
    1652                            .dwattr $C$DW$T$79, DW_AT_decl_line(0x2d)
    1653                            .dwattr $C$DW$T$79, DW_AT_decl_column(0x1a)
    1654                    
    1655                    $C$DW$T$80      .dwtag  DW_TAG_typedef
    1656                            .dwattr $C$DW$T$80, DW_AT_name("ICall_EntityID")
    1657                            .dwattr $C$DW$T$80, DW_AT_type(*$C$DW$T$79)
    1658                            .dwattr $C$DW$T$80, DW_AT_language(DW_LANG_C)
    1659                            .dwattr $C$DW$T$80, DW_AT_decl_file("C:/ti/simplelink_cc13x0_sdk_2_30_00_20/source/ti/ti154sta
    1660                            .dwattr $C$DW$T$80, DW_AT_decl_line(0x1b4)
    1661                            .dwattr $C$DW$T$80, DW_AT_decl_column(0x17)
    1662                    
    1663                    $C$DW$T$148     .dwtag  DW_TAG_typedef
    1664                            .dwattr $C$DW$T$148, DW_AT_name("ICall_MSGFormat")
    1665                            .dwattr $C$DW$T$148, DW_AT_type(*$C$DW$T$79)
    1666                            .dwattr $C$DW$T$148, DW_AT_language(DW_LANG_C)
    1667                            .dwattr $C$DW$T$148, DW_AT_decl_file("C:/ti/simplelink_cc13x0_sdk_2_30_00_20/source/ti/ti154st
    1668                            .dwattr $C$DW$T$148, DW_AT_decl_line(0x1a4)
    1669                            .dwattr $C$DW$T$148, DW_AT_decl_column(0x17)
    1670                    
    1671                    $C$DW$T$25      .dwtag  DW_TAG_typedef
    1672                            .dwattr $C$DW$T$25, DW_AT_name("uint8_t")
    1673                            .dwattr $C$DW$T$25, DW_AT_type(*$C$DW$T$24)
    1674                            .dwattr $C$DW$T$25, DW_AT_language(DW_LANG_C)
    1675                            .dwattr $C$DW$T$25, DW_AT_decl_file("C:/ti/ccsv8/tools/compiler/ti-cgt-arm_18.1.3.LTS/include/
    1676                            .dwattr $C$DW$T$25, DW_AT_decl_line(0x38)
    1677                            .dwattr $C$DW$T$25, DW_AT_decl_column(0x14)
    1678                    
    1679                    $C$DW$T$26      .dwtag  DW_TAG_pointer_type
    1680                            .dwattr $C$DW$T$26, DW_AT_type(*$C$DW$T$25)
    1681                            .dwattr $C$DW$T$26, DW_AT_address_class(0x20)
    1682                    
    1683                    $C$DW$T$205     .dwtag  DW_TAG_volatile_type
    1684                            .dwattr $C$DW$T$205, DW_AT_type(*$C$DW$T$25)
    1685                    
    1686                    $C$DW$T$206     .dwtag  DW_TAG_typedef
    1687                            .dwattr $C$DW$T$206, DW_AT_name("tFwpWriteByte")
    1688                            .dwattr $C$DW$T$206, DW_AT_type(*$C$DW$T$205)
    1689                            .dwattr $C$DW$T$206, DW_AT_language(DW_LANG_C)
    1690                            .dwattr $C$DW$T$206, DW_AT_decl_file("C:/ti/simplelink_cc13x0_sdk_2_30_00_20/source/ti/devices
    1691                            .dwattr $C$DW$T$206, DW_AT_decl_line(0xde)
    1692                            .dwattr $C$DW$T$206, DW_AT_decl_column(0x1a)
    1693                    
    1694                    $C$DW$T$183     .dwtag  DW_TAG_typedef
    1695                            .dwattr $C$DW$T$183, DW_AT_name("uint8")
    1696                            .dwattr $C$DW$T$183, DW_AT_type(*$C$DW$T$6)
    1697                            .dwattr $C$DW$T$183, DW_AT_language(DW_LANG_C)
    1698                            .dwattr $C$DW$T$183, DW_AT_decl_file("C:\ti\simplelink_cc13x0_sdk_2_30_00_20\source\ti\ti154st
    1699                            .dwattr $C$DW$T$183, DW_AT_decl_line(0x39)
    1700                            .dwattr $C$DW$T$183, DW_AT_decl_column(0x19)
    1701                    
    1702                    $C$DW$T$198     .dwtag  DW_TAG_pointer_type
    1703                            .dwattr $C$DW$T$198, DW_AT_type(*$C$DW$T$183)
    1704                            .dwattr $C$DW$T$198, DW_AT_address_class(0x20)
    1705                    
TI ARM Assembler PC v18.1.3 Wed Nov 28 13:34:33 2018

Tools Copyright (c) 1996-2017 Texas Instruments Incorporated
C:\Users\Adrian\AppData\Local\Temp\{E185AECD-F423-44A6-B447-8E7B9B9A1395} PAGE   32

    1706                    $C$DW$T$207     .dwtag  DW_TAG_const_type
    1707                            .dwattr $C$DW$T$207, DW_AT_type(*$C$DW$T$198)
    1708                    
    1709                    $C$DW$T$209     .dwtag  DW_TAG_const_type
    1710                            .dwattr $C$DW$T$209, DW_AT_type(*$C$DW$T$183)
    1711                    
    1712                    $C$DW$T$7       .dwtag  DW_TAG_base_type
    1713                            .dwattr $C$DW$T$7, DW_AT_encoding(DW_ATE_signed_char)
    1714                            .dwattr $C$DW$T$7, DW_AT_name("wchar_t")
    1715                            .dwattr $C$DW$T$7, DW_AT_byte_size(0x02)
    1716                    
    1717                    $C$DW$T$8       .dwtag  DW_TAG_base_type
    1718                            .dwattr $C$DW$T$8, DW_AT_encoding(DW_ATE_signed)
    1719                            .dwattr $C$DW$T$8, DW_AT_name("short")
    1720                            .dwattr $C$DW$T$8, DW_AT_byte_size(0x02)
    1721                    
    1722                    $C$DW$T$210     .dwtag  DW_TAG_typedef
    1723                            .dwattr $C$DW$T$210, DW_AT_name("__int16_t")
    1724                            .dwattr $C$DW$T$210, DW_AT_type(*$C$DW$T$8)
    1725                            .dwattr $C$DW$T$210, DW_AT_language(DW_LANG_C)
    1726                            .dwattr $C$DW$T$210, DW_AT_decl_file("C:/ti/ccsv8/tools/compiler/ti-cgt-arm_18.1.3.LTS/include
    1727                            .dwattr $C$DW$T$210, DW_AT_decl_line(0x3b)
    1728                            .dwattr $C$DW$T$210, DW_AT_decl_column(0x11)
    1729                    
    1730                    $C$DW$T$211     .dwtag  DW_TAG_typedef
    1731                            .dwattr $C$DW$T$211, DW_AT_name("__int_least16_t")
    1732                            .dwattr $C$DW$T$211, DW_AT_type(*$C$DW$T$210)
    1733                            .dwattr $C$DW$T$211, DW_AT_language(DW_LANG_C)
    1734                            .dwattr $C$DW$T$211, DW_AT_decl_file("C:/ti/ccsv8/tools/compiler/ti-cgt-arm_18.1.3.LTS/include
    1735                            .dwattr $C$DW$T$211, DW_AT_decl_line(0x59)
    1736                            .dwattr $C$DW$T$211, DW_AT_decl_column(0x13)
    1737                    
    1738                    $C$DW$T$212     .dwtag  DW_TAG_typedef
    1739                            .dwattr $C$DW$T$212, DW_AT_name("int_least16_t")
    1740                            .dwattr $C$DW$T$212, DW_AT_type(*$C$DW$T$211)
    1741                            .dwattr $C$DW$T$212, DW_AT_language(DW_LANG_C)
    1742                            .dwattr $C$DW$T$212, DW_AT_decl_file("C:/ti/ccsv8/tools/compiler/ti-cgt-arm_18.1.3.LTS/include
    1743                            .dwattr $C$DW$T$212, DW_AT_decl_line(0x29)
    1744                            .dwattr $C$DW$T$212, DW_AT_decl_column(0x1a)
    1745                    
    1746                    $C$DW$T$213     .dwtag  DW_TAG_typedef
    1747                            .dwattr $C$DW$T$213, DW_AT_name("int16_t")
    1748                            .dwattr $C$DW$T$213, DW_AT_type(*$C$DW$T$210)
    1749                            .dwattr $C$DW$T$213, DW_AT_language(DW_LANG_C)
    1750                            .dwattr $C$DW$T$213, DW_AT_decl_file("C:/ti/ccsv8/tools/compiler/ti-cgt-arm_18.1.3.LTS/include
    1751                            .dwattr $C$DW$T$213, DW_AT_decl_line(0x29)
    1752                            .dwattr $C$DW$T$213, DW_AT_decl_column(0x14)
    1753                    
    1754                    $C$DW$T$214     .dwtag  DW_TAG_typedef
    1755                            .dwattr $C$DW$T$214, DW_AT_name("int16")
    1756                            .dwattr $C$DW$T$214, DW_AT_type(*$C$DW$T$8)
    1757                            .dwattr $C$DW$T$214, DW_AT_language(DW_LANG_C)
    1758                            .dwattr $C$DW$T$214, DW_AT_decl_file("C:\ti\simplelink_cc13x0_sdk_2_30_00_20\source\ti\ti154st
    1759                            .dwattr $C$DW$T$214, DW_AT_decl_line(0x3b)
    1760                            .dwattr $C$DW$T$214, DW_AT_decl_column(0x19)
TI ARM Assembler PC v18.1.3 Wed Nov 28 13:34:33 2018

Tools Copyright (c) 1996-2017 Texas Instruments Incorporated
C:\Users\Adrian\AppData\Local\Temp\{E185AECD-F423-44A6-B447-8E7B9B9A1395} PAGE   33

    1761                    
    1762                    $C$DW$T$9       .dwtag  DW_TAG_base_type
    1763                            .dwattr $C$DW$T$9, DW_AT_encoding(DW_ATE_unsigned)
    1764                            .dwattr $C$DW$T$9, DW_AT_name("unsigned short")
    1765                            .dwattr $C$DW$T$9, DW_AT_byte_size(0x02)
    1766                    
    1767                    $C$DW$T$215     .dwtag  DW_TAG_typedef
    1768                            .dwattr $C$DW$T$215, DW_AT_name("___wchar_t")
    1769                            .dwattr $C$DW$T$215, DW_AT_type(*$C$DW$T$9)
    1770                            .dwattr $C$DW$T$215, DW_AT_language(DW_LANG_C)
    1771                            .dwattr $C$DW$T$215, DW_AT_decl_file("C:/ti/ccsv8/tools/compiler/ti-cgt-arm_18.1.3.LTS/include
    1772                            .dwattr $C$DW$T$215, DW_AT_decl_line(0x76)
    1773                            .dwattr $C$DW$T$215, DW_AT_decl_column(0x1a)
    1774                    
    1775                    $C$DW$T$42      .dwtag  DW_TAG_typedef
    1776                            .dwattr $C$DW$T$42, DW_AT_name("__uint16_t")
    1777                            .dwattr $C$DW$T$42, DW_AT_type(*$C$DW$T$9)
    1778                            .dwattr $C$DW$T$42, DW_AT_language(DW_LANG_C)
    1779                            .dwattr $C$DW$T$42, DW_AT_decl_file("C:/ti/ccsv8/tools/compiler/ti-cgt-arm_18.1.3.LTS/include/
    1780                            .dwattr $C$DW$T$42, DW_AT_decl_line(0x3c)
    1781                            .dwattr $C$DW$T$42, DW_AT_decl_column(0x19)
    1782                    
    1783                    $C$DW$T$217     .dwtag  DW_TAG_typedef
    1784                            .dwattr $C$DW$T$217, DW_AT_name("__mode_t")
    1785                            .dwattr $C$DW$T$217, DW_AT_type(*$C$DW$T$42)
    1786                            .dwattr $C$DW$T$217, DW_AT_language(DW_LANG_C)
    1787                            .dwattr $C$DW$T$217, DW_AT_decl_file("C:/ti/ccsv8/tools/compiler/ti-cgt-arm_18.1.3.LTS/include
    1788                            .dwattr $C$DW$T$217, DW_AT_decl_line(0x39)
    1789                            .dwattr $C$DW$T$217, DW_AT_decl_column(0x14)
    1790                    
    1791                    $C$DW$T$81      .dwtag  DW_TAG_typedef
    1792                            .dwattr $C$DW$T$81, DW_AT_name("__uint_least16_t")
    1793                            .dwattr $C$DW$T$81, DW_AT_type(*$C$DW$T$42)
    1794                            .dwattr $C$DW$T$81, DW_AT_language(DW_LANG_C)
    1795                            .dwattr $C$DW$T$81, DW_AT_decl_file("C:/ti/ccsv8/tools/compiler/ti-cgt-arm_18.1.3.LTS/include/
    1796                            .dwattr $C$DW$T$81, DW_AT_decl_line(0x6e)
    1797                            .dwattr $C$DW$T$81, DW_AT_decl_column(0x14)
    1798                    
    1799                    $C$DW$T$218     .dwtag  DW_TAG_typedef
    1800                            .dwattr $C$DW$T$218, DW_AT_name("__char16_t")
    1801                            .dwattr $C$DW$T$218, DW_AT_type(*$C$DW$T$81)
    1802                            .dwattr $C$DW$T$218, DW_AT_language(DW_LANG_C)
    1803                            .dwattr $C$DW$T$218, DW_AT_decl_file("C:/ti/ccsv8/tools/compiler/ti-cgt-arm_18.1.3.LTS/include
    1804                            .dwattr $C$DW$T$218, DW_AT_decl_line(0x66)
    1805                            .dwattr $C$DW$T$218, DW_AT_decl_column(0x1a)
    1806                    
    1807                    $C$DW$T$82      .dwtag  DW_TAG_typedef
    1808                            .dwattr $C$DW$T$82, DW_AT_name("uint_least16_t")
    1809                            .dwattr $C$DW$T$82, DW_AT_type(*$C$DW$T$81)
    1810                            .dwattr $C$DW$T$82, DW_AT_language(DW_LANG_C)
    1811                            .dwattr $C$DW$T$82, DW_AT_decl_file("C:/ti/ccsv8/tools/compiler/ti-cgt-arm_18.1.3.LTS/include/
    1812                            .dwattr $C$DW$T$82, DW_AT_decl_line(0x2e)
    1813                            .dwattr $C$DW$T$82, DW_AT_decl_column(0x1a)
    1814                    
    1815                    $C$DW$T$107     .dwtag  DW_TAG_typedef
TI ARM Assembler PC v18.1.3 Wed Nov 28 13:34:33 2018

Tools Copyright (c) 1996-2017 Texas Instruments Incorporated
C:\Users\Adrian\AppData\Local\Temp\{E185AECD-F423-44A6-B447-8E7B9B9A1395} PAGE   34

    1816                            .dwattr $C$DW$T$107, DW_AT_name("ICall_FuncID")
    1817                            .dwattr $C$DW$T$107, DW_AT_type(*$C$DW$T$82)
    1818                            .dwattr $C$DW$T$107, DW_AT_language(DW_LANG_C)
    1819                            .dwattr $C$DW$T$107, DW_AT_decl_file("C:/ti/simplelink_cc13x0_sdk_2_30_00_20/source/ti/ti154st
    1820                            .dwattr $C$DW$T$107, DW_AT_decl_line(0x1a7)
    1821                            .dwattr $C$DW$T$107, DW_AT_decl_column(0x18)
    1822                    
    1823                    $C$DW$T$83      .dwtag  DW_TAG_typedef
    1824                            .dwattr $C$DW$T$83, DW_AT_name("ICall_ServiceEnum")
    1825                            .dwattr $C$DW$T$83, DW_AT_type(*$C$DW$T$82)
    1826                            .dwattr $C$DW$T$83, DW_AT_language(DW_LANG_C)
    1827                            .dwattr $C$DW$T$83, DW_AT_decl_file("C:/ti/simplelink_cc13x0_sdk_2_30_00_20/source/ti/ti154sta
    1828                            .dwattr $C$DW$T$83, DW_AT_decl_line(0x1a1)
    1829                            .dwattr $C$DW$T$83, DW_AT_decl_column(0x18)
    1830                    
    1831                    $C$DW$T$43      .dwtag  DW_TAG_typedef
    1832                            .dwattr $C$DW$T$43, DW_AT_name("uint16_t")
    1833                            .dwattr $C$DW$T$43, DW_AT_type(*$C$DW$T$42)
    1834                            .dwattr $C$DW$T$43, DW_AT_language(DW_LANG_C)
    1835                            .dwattr $C$DW$T$43, DW_AT_decl_file("C:/ti/ccsv8/tools/compiler/ti-cgt-arm_18.1.3.LTS/include/
    1836                            .dwattr $C$DW$T$43, DW_AT_decl_line(0x3d)
    1837                            .dwattr $C$DW$T$43, DW_AT_decl_column(0x15)
    1838                    
    1839                    $C$DW$T$44      .dwtag  DW_TAG_pointer_type
    1840                            .dwattr $C$DW$T$44, DW_AT_type(*$C$DW$T$43)
    1841                            .dwattr $C$DW$T$44, DW_AT_address_class(0x20)
    1842                    
    1843                    $C$DW$T$199     .dwtag  DW_TAG_typedef
    1844                            .dwattr $C$DW$T$199, DW_AT_name("uint16")
    1845                            .dwattr $C$DW$T$199, DW_AT_type(*$C$DW$T$9)
    1846                            .dwattr $C$DW$T$199, DW_AT_language(DW_LANG_C)
    1847                            .dwattr $C$DW$T$199, DW_AT_decl_file("C:\ti\simplelink_cc13x0_sdk_2_30_00_20\source\ti\ti154st
    1848                            .dwattr $C$DW$T$199, DW_AT_decl_line(0x3c)
    1849                            .dwattr $C$DW$T$199, DW_AT_decl_column(0x19)
    1850                    
    1851                    $C$DW$T$219     .dwtag  DW_TAG_const_type
    1852                            .dwattr $C$DW$T$219, DW_AT_type(*$C$DW$T$199)
    1853                    
    1854                    $C$DW$T$220     .dwtag  DW_TAG_typedef
    1855                            .dwattr $C$DW$T$220, DW_AT_name("wchar_t")
    1856                            .dwattr $C$DW$T$220, DW_AT_type(*$C$DW$T$9)
    1857                            .dwattr $C$DW$T$220, DW_AT_language(DW_LANG_C)
    1858                            .dwattr $C$DW$T$220, DW_AT_decl_file("C:/ti/ccsv8/tools/compiler/ti-cgt-arm_18.1.3.LTS/include
    1859                            .dwattr $C$DW$T$220, DW_AT_decl_line(0x6e)
    1860                            .dwattr $C$DW$T$220, DW_AT_decl_column(0x1a)
    1861                    
    1862                    $C$DW$T$10      .dwtag  DW_TAG_base_type
    1863                            .dwattr $C$DW$T$10, DW_AT_encoding(DW_ATE_signed)
    1864                            .dwattr $C$DW$T$10, DW_AT_name("int")
    1865                            .dwattr $C$DW$T$10, DW_AT_byte_size(0x04)
    1866                    
    1867                    $C$DW$T$221     .dwtag  DW_TAG_typedef
    1868                            .dwattr $C$DW$T$221, DW_AT_name("_Mbstatet")
    1869                            .dwattr $C$DW$T$221, DW_AT_type(*$C$DW$T$10)
    1870                            .dwattr $C$DW$T$221, DW_AT_language(DW_LANG_C)
TI ARM Assembler PC v18.1.3 Wed Nov 28 13:34:33 2018

Tools Copyright (c) 1996-2017 Texas Instruments Incorporated
C:\Users\Adrian\AppData\Local\Temp\{E185AECD-F423-44A6-B447-8E7B9B9A1395} PAGE   35

    1871                            .dwattr $C$DW$T$221, DW_AT_decl_file("C:/ti/ccsv8/tools/compiler/ti-cgt-arm_18.1.3.LTS/include
    1872                            .dwattr $C$DW$T$221, DW_AT_decl_line(0x84)
    1873                            .dwattr $C$DW$T$221, DW_AT_decl_column(0x0d)
    1874                    
    1875                    $C$DW$T$222     .dwtag  DW_TAG_typedef
    1876                            .dwattr $C$DW$T$222, DW_AT_name("__mbstate_t")
    1877                            .dwattr $C$DW$T$222, DW_AT_type(*$C$DW$T$221)
    1878                            .dwattr $C$DW$T$222, DW_AT_language(DW_LANG_C)
    1879                            .dwattr $C$DW$T$222, DW_AT_decl_file("C:/ti/ccsv8/tools/compiler/ti-cgt-arm_18.1.3.LTS/include
    1880                            .dwattr $C$DW$T$222, DW_AT_decl_line(0x87)
    1881                            .dwattr $C$DW$T$222, DW_AT_decl_column(0x13)
    1882                    
    1883                    $C$DW$T$223     .dwtag  DW_TAG_typedef
    1884                            .dwattr $C$DW$T$223, DW_AT_name("__accmode_t")
    1885                            .dwattr $C$DW$T$223, DW_AT_type(*$C$DW$T$10)
    1886                            .dwattr $C$DW$T$223, DW_AT_language(DW_LANG_C)
    1887                            .dwattr $C$DW$T$223, DW_AT_decl_file("C:/ti/ccsv8/tools/compiler/ti-cgt-arm_18.1.3.LTS/include
    1888                            .dwattr $C$DW$T$223, DW_AT_decl_line(0x3a)
    1889                            .dwattr $C$DW$T$223, DW_AT_decl_column(0x0e)
    1890                    
    1891                    
    1892                    $C$DW$T$224     .dwtag  DW_TAG_subroutine_type
    1893                            .dwattr $C$DW$T$224, DW_AT_type(*$C$DW$T$10)
    1894                            .dwattr $C$DW$T$224, DW_AT_language(DW_LANG_C)
    1895                    $C$DW$134       .dwtag  DW_TAG_formal_parameter
    1896                            .dwattr $C$DW$134, DW_AT_type(*$C$DW$T$161)
    1897                    
    1898                    $C$DW$135       .dwtag  DW_TAG_formal_parameter
    1899                            .dwattr $C$DW$135, DW_AT_type(*$C$DW$T$161)
    1900                    
    1901                            .dwendtag $C$DW$T$224
    1902                    
    1903                    $C$DW$T$225     .dwtag  DW_TAG_pointer_type
    1904                            .dwattr $C$DW$T$225, DW_AT_type(*$C$DW$T$224)
    1905                            .dwattr $C$DW$T$225, DW_AT_address_class(0x20)
    1906                    
    1907                    $C$DW$T$226     .dwtag  DW_TAG_typedef
    1908                            .dwattr $C$DW$T$226, DW_AT_name("__TI_compar_fn")
    1909                            .dwattr $C$DW$T$226, DW_AT_type(*$C$DW$T$225)
    1910                            .dwattr $C$DW$T$226, DW_AT_language(DW_LANG_C)
    1911                            .dwattr $C$DW$T$226, DW_AT_decl_file("C:/ti/ccsv8/tools/compiler/ti-cgt-arm_18.1.3.LTS/include
    1912                            .dwattr $C$DW$T$226, DW_AT_decl_line(0xb5)
    1913                            .dwattr $C$DW$T$226, DW_AT_decl_column(0x13)
    1914                    
    1915                    $C$DW$T$227     .dwtag  DW_TAG_typedef
    1916                            .dwattr $C$DW$T$227, DW_AT_name("__cpulevel_t")
    1917                            .dwattr $C$DW$T$227, DW_AT_type(*$C$DW$T$10)
    1918                            .dwattr $C$DW$T$227, DW_AT_language(DW_LANG_C)
    1919                            .dwattr $C$DW$T$227, DW_AT_decl_file("C:/ti/ccsv8/tools/compiler/ti-cgt-arm_18.1.3.LTS/include
    1920                            .dwattr $C$DW$T$227, DW_AT_decl_line(0x4b)
    1921                            .dwattr $C$DW$T$227, DW_AT_decl_column(0x0e)
    1922                    
    1923                    $C$DW$T$228     .dwtag  DW_TAG_typedef
    1924                            .dwattr $C$DW$T$228, DW_AT_name("__cpusetid_t")
    1925                            .dwattr $C$DW$T$228, DW_AT_type(*$C$DW$T$10)
TI ARM Assembler PC v18.1.3 Wed Nov 28 13:34:33 2018

Tools Copyright (c) 1996-2017 Texas Instruments Incorporated
C:\Users\Adrian\AppData\Local\Temp\{E185AECD-F423-44A6-B447-8E7B9B9A1395} PAGE   36

    1926                            .dwattr $C$DW$T$228, DW_AT_language(DW_LANG_C)
    1927                            .dwattr $C$DW$T$228, DW_AT_decl_file("C:/ti/ccsv8/tools/compiler/ti-cgt-arm_18.1.3.LTS/include
    1928                            .dwattr $C$DW$T$228, DW_AT_decl_line(0x4c)
    1929                            .dwattr $C$DW$T$228, DW_AT_decl_column(0x0e)
    1930                    
    1931                    $C$DW$T$229     .dwtag  DW_TAG_typedef
    1932                            .dwattr $C$DW$T$229, DW_AT_name("__cpuwhich_t")
    1933                            .dwattr $C$DW$T$229, DW_AT_type(*$C$DW$T$10)
    1934                            .dwattr $C$DW$T$229, DW_AT_language(DW_LANG_C)
    1935                            .dwattr $C$DW$T$229, DW_AT_decl_file("C:/ti/ccsv8/tools/compiler/ti-cgt-arm_18.1.3.LTS/include
    1936                            .dwattr $C$DW$T$229, DW_AT_decl_line(0x4a)
    1937                            .dwattr $C$DW$T$229, DW_AT_decl_column(0x0e)
    1938                    
    1939                    $C$DW$T$230     .dwtag  DW_TAG_typedef
    1940                            .dwattr $C$DW$T$230, DW_AT_name("__ct_rune_t")
    1941                            .dwattr $C$DW$T$230, DW_AT_type(*$C$DW$T$10)
    1942                            .dwattr $C$DW$T$230, DW_AT_language(DW_LANG_C)
    1943                            .dwattr $C$DW$T$230, DW_AT_decl_file("C:/ti/ccsv8/tools/compiler/ti-cgt-arm_18.1.3.LTS/include
    1944                            .dwattr $C$DW$T$230, DW_AT_decl_line(0x60)
    1945                            .dwattr $C$DW$T$230, DW_AT_decl_column(0x0e)
    1946                    
    1947                    $C$DW$T$231     .dwtag  DW_TAG_typedef
    1948                            .dwattr $C$DW$T$231, DW_AT_name("__rune_t")
    1949                            .dwattr $C$DW$T$231, DW_AT_type(*$C$DW$T$230)
    1950                            .dwattr $C$DW$T$231, DW_AT_language(DW_LANG_C)
    1951                            .dwattr $C$DW$T$231, DW_AT_decl_file("C:/ti/ccsv8/tools/compiler/ti-cgt-arm_18.1.3.LTS/include
    1952                            .dwattr $C$DW$T$231, DW_AT_decl_line(0x61)
    1953                            .dwattr $C$DW$T$231, DW_AT_decl_column(0x15)
    1954                    
    1955                    $C$DW$T$232     .dwtag  DW_TAG_typedef
    1956                            .dwattr $C$DW$T$232, DW_AT_name("__wint_t")
    1957                            .dwattr $C$DW$T$232, DW_AT_type(*$C$DW$T$230)
    1958                            .dwattr $C$DW$T$232, DW_AT_language(DW_LANG_C)
    1959                            .dwattr $C$DW$T$232, DW_AT_decl_file("C:/ti/ccsv8/tools/compiler/ti-cgt-arm_18.1.3.LTS/include
    1960                            .dwattr $C$DW$T$232, DW_AT_decl_line(0x62)
    1961                            .dwattr $C$DW$T$232, DW_AT_decl_column(0x15)
    1962                    
    1963                    $C$DW$T$94      .dwtag  DW_TAG_typedef
    1964                            .dwattr $C$DW$T$94, DW_AT_name("__int32_t")
    1965                            .dwattr $C$DW$T$94, DW_AT_type(*$C$DW$T$10)
    1966                            .dwattr $C$DW$T$94, DW_AT_language(DW_LANG_C)
    1967                            .dwattr $C$DW$T$94, DW_AT_decl_file("C:/ti/ccsv8/tools/compiler/ti-cgt-arm_18.1.3.LTS/include/
    1968                            .dwattr $C$DW$T$94, DW_AT_decl_line(0x3d)
    1969                            .dwattr $C$DW$T$94, DW_AT_decl_column(0x0f)
    1970                    
    1971                    $C$DW$T$233     .dwtag  DW_TAG_typedef
    1972                            .dwattr $C$DW$T$233, DW_AT_name("__blksize_t")
    1973                            .dwattr $C$DW$T$233, DW_AT_type(*$C$DW$T$94)
    1974                            .dwattr $C$DW$T$233, DW_AT_language(DW_LANG_C)
    1975                            .dwattr $C$DW$T$233, DW_AT_decl_file("C:/ti/ccsv8/tools/compiler/ti-cgt-arm_18.1.3.LTS/include
    1976                            .dwattr $C$DW$T$233, DW_AT_decl_line(0x2e)
    1977                            .dwattr $C$DW$T$233, DW_AT_decl_column(0x13)
    1978                    
    1979                    $C$DW$T$234     .dwtag  DW_TAG_typedef
    1980                            .dwattr $C$DW$T$234, DW_AT_name("__clockid_t")
TI ARM Assembler PC v18.1.3 Wed Nov 28 13:34:33 2018

Tools Copyright (c) 1996-2017 Texas Instruments Incorporated
C:\Users\Adrian\AppData\Local\Temp\{E185AECD-F423-44A6-B447-8E7B9B9A1395} PAGE   37

    1981                            .dwattr $C$DW$T$234, DW_AT_type(*$C$DW$T$94)
    1982                            .dwattr $C$DW$T$234, DW_AT_language(DW_LANG_C)
    1983                            .dwattr $C$DW$T$234, DW_AT_decl_file("C:/ti/ccsv8/tools/compiler/ti-cgt-arm_18.1.3.LTS/include
    1984                            .dwattr $C$DW$T$234, DW_AT_decl_line(0x30)
    1985                            .dwattr $C$DW$T$234, DW_AT_decl_column(0x13)
    1986                    
    1987                    $C$DW$T$235     .dwtag  DW_TAG_typedef
    1988                            .dwattr $C$DW$T$235, DW_AT_name("__critical_t")
    1989                            .dwattr $C$DW$T$235, DW_AT_type(*$C$DW$T$94)
    1990                            .dwattr $C$DW$T$235, DW_AT_language(DW_LANG_C)
    1991                            .dwattr $C$DW$T$235, DW_AT_decl_file("C:/ti/ccsv8/tools/compiler/ti-cgt-arm_18.1.3.LTS/include
    1992                            .dwattr $C$DW$T$235, DW_AT_decl_line(0x4e)
    1993                            .dwattr $C$DW$T$235, DW_AT_decl_column(0x13)
    1994                    
    1995                    $C$DW$T$95      .dwtag  DW_TAG_typedef
    1996                            .dwattr $C$DW$T$95, DW_AT_name("__int_fast16_t")
    1997                            .dwattr $C$DW$T$95, DW_AT_type(*$C$DW$T$94)
    1998                            .dwattr $C$DW$T$95, DW_AT_language(DW_LANG_C)
    1999                            .dwattr $C$DW$T$95, DW_AT_decl_file("C:/ti/ccsv8/tools/compiler/ti-cgt-arm_18.1.3.LTS/include/
    2000                            .dwattr $C$DW$T$95, DW_AT_decl_line(0x55)
    2001                            .dwattr $C$DW$T$95, DW_AT_decl_column(0x13)
    2002                    
    2003                    $C$DW$T$96      .dwtag  DW_TAG_typedef
    2004                            .dwattr $C$DW$T$96, DW_AT_name("int_fast16_t")
    2005                            .dwattr $C$DW$T$96, DW_AT_type(*$C$DW$T$95)
    2006                            .dwattr $C$DW$T$96, DW_AT_language(DW_LANG_C)
    2007                            .dwattr $C$DW$T$96, DW_AT_decl_file("C:/ti/ccsv8/tools/compiler/ti-cgt-arm_18.1.3.LTS/include/
    2008                            .dwattr $C$DW$T$96, DW_AT_decl_line(0x33)
    2009                            .dwattr $C$DW$T$96, DW_AT_decl_column(0x19)
    2010                    
    2011                    $C$DW$T$97      .dwtag  DW_TAG_typedef
    2012                            .dwattr $C$DW$T$97, DW_AT_name("ICall_Errno")
    2013                            .dwattr $C$DW$T$97, DW_AT_type(*$C$DW$T$96)
    2014                            .dwattr $C$DW$T$97, DW_AT_language(DW_LANG_C)
    2015                            .dwattr $C$DW$T$97, DW_AT_decl_file("C:/ti/simplelink_cc13x0_sdk_2_30_00_20/source/ti/ti154sta
    2016                            .dwattr $C$DW$T$97, DW_AT_decl_line(0x19e)
    2017                            .dwattr $C$DW$T$97, DW_AT_decl_column(0x16)
    2018                    
    2019                    
    2020                    $C$DW$T$99      .dwtag  DW_TAG_subroutine_type
    2021                            .dwattr $C$DW$T$99, DW_AT_type(*$C$DW$T$97)
    2022                            .dwattr $C$DW$T$99, DW_AT_language(DW_LANG_C)
    2023                    $C$DW$136       .dwtag  DW_TAG_formal_parameter
    2024                            .dwattr $C$DW$136, DW_AT_type(*$C$DW$T$98)
    2025                    
    2026                            .dwendtag $C$DW$T$99
    2027                    
    2028                    $C$DW$T$100     .dwtag  DW_TAG_pointer_type
    2029                            .dwattr $C$DW$T$100, DW_AT_type(*$C$DW$T$99)
    2030                            .dwattr $C$DW$T$100, DW_AT_address_class(0x20)
    2031                    
    2032                    $C$DW$T$139     .dwtag  DW_TAG_typedef
    2033                            .dwattr $C$DW$T$139, DW_AT_name("ICall_Dispatcher")
    2034                            .dwattr $C$DW$T$139, DW_AT_type(*$C$DW$T$100)
    2035                            .dwattr $C$DW$T$139, DW_AT_language(DW_LANG_C)
TI ARM Assembler PC v18.1.3 Wed Nov 28 13:34:33 2018

Tools Copyright (c) 1996-2017 Texas Instruments Incorporated
C:\Users\Adrian\AppData\Local\Temp\{E185AECD-F423-44A6-B447-8E7B9B9A1395} PAGE   38

    2036                            .dwattr $C$DW$T$139, DW_AT_decl_file("C:/ti/simplelink_cc13x0_sdk_2_30_00_20/source/ti/ti154st
    2037                            .dwattr $C$DW$T$139, DW_AT_decl_line(0x36c)
    2038                            .dwattr $C$DW$T$139, DW_AT_decl_column(0x17)
    2039                    
    2040                    $C$DW$T$101     .dwtag  DW_TAG_typedef
    2041                            .dwattr $C$DW$T$101, DW_AT_name("ICall_ServiceFunc")
    2042                            .dwattr $C$DW$T$101, DW_AT_type(*$C$DW$T$100)
    2043                            .dwattr $C$DW$T$101, DW_AT_language(DW_LANG_C)
    2044                            .dwattr $C$DW$T$101, DW_AT_decl_file("C:/ti/simplelink_cc13x0_sdk_2_30_00_20/source/ti/ti154st
    2045                            .dwattr $C$DW$T$101, DW_AT_decl_line(0x3a3)
    2046                            .dwattr $C$DW$T$101, DW_AT_decl_column(0x17)
    2047                    
    2048                    $C$DW$T$236     .dwtag  DW_TAG_typedef
    2049                            .dwattr $C$DW$T$236, DW_AT_name("__int_fast32_t")
    2050                            .dwattr $C$DW$T$236, DW_AT_type(*$C$DW$T$94)
    2051                            .dwattr $C$DW$T$236, DW_AT_language(DW_LANG_C)
    2052                            .dwattr $C$DW$T$236, DW_AT_decl_file("C:/ti/ccsv8/tools/compiler/ti-cgt-arm_18.1.3.LTS/include
    2053                            .dwattr $C$DW$T$236, DW_AT_decl_line(0x56)
    2054                            .dwattr $C$DW$T$236, DW_AT_decl_column(0x13)
    2055                    
    2056                    $C$DW$T$237     .dwtag  DW_TAG_typedef
    2057                            .dwattr $C$DW$T$237, DW_AT_name("int_fast32_t")
    2058                            .dwattr $C$DW$T$237, DW_AT_type(*$C$DW$T$236)
    2059                            .dwattr $C$DW$T$237, DW_AT_language(DW_LANG_C)
    2060                            .dwattr $C$DW$T$237, DW_AT_decl_file("C:/ti/ccsv8/tools/compiler/ti-cgt-arm_18.1.3.LTS/include
    2061                            .dwattr $C$DW$T$237, DW_AT_decl_line(0x34)
    2062                            .dwattr $C$DW$T$237, DW_AT_decl_column(0x19)
    2063                    
    2064                    $C$DW$T$238     .dwtag  DW_TAG_typedef
    2065                            .dwattr $C$DW$T$238, DW_AT_name("__int_fast8_t")
    2066                            .dwattr $C$DW$T$238, DW_AT_type(*$C$DW$T$94)
    2067                            .dwattr $C$DW$T$238, DW_AT_language(DW_LANG_C)
    2068                            .dwattr $C$DW$T$238, DW_AT_decl_file("C:/ti/ccsv8/tools/compiler/ti-cgt-arm_18.1.3.LTS/include
    2069                            .dwattr $C$DW$T$238, DW_AT_decl_line(0x54)
    2070                            .dwattr $C$DW$T$238, DW_AT_decl_column(0x13)
    2071                    
    2072                    $C$DW$T$239     .dwtag  DW_TAG_typedef
    2073                            .dwattr $C$DW$T$239, DW_AT_name("int_fast8_t")
    2074                            .dwattr $C$DW$T$239, DW_AT_type(*$C$DW$T$238)
    2075                            .dwattr $C$DW$T$239, DW_AT_language(DW_LANG_C)
    2076                            .dwattr $C$DW$T$239, DW_AT_decl_file("C:/ti/ccsv8/tools/compiler/ti-cgt-arm_18.1.3.LTS/include
    2077                            .dwattr $C$DW$T$239, DW_AT_decl_line(0x32)
    2078                            .dwattr $C$DW$T$239, DW_AT_decl_column(0x18)
    2079                    
    2080                    $C$DW$T$114     .dwtag  DW_TAG_typedef
    2081                            .dwattr $C$DW$T$114, DW_AT_name("__int_least32_t")
    2082                            .dwattr $C$DW$T$114, DW_AT_type(*$C$DW$T$94)
    2083                            .dwattr $C$DW$T$114, DW_AT_language(DW_LANG_C)
    2084                            .dwattr $C$DW$T$114, DW_AT_decl_file("C:/ti/ccsv8/tools/compiler/ti-cgt-arm_18.1.3.LTS/include
    2085                            .dwattr $C$DW$T$114, DW_AT_decl_line(0x5a)
    2086                            .dwattr $C$DW$T$114, DW_AT_decl_column(0x13)
    2087                    
    2088                    $C$DW$T$115     .dwtag  DW_TAG_typedef
    2089                            .dwattr $C$DW$T$115, DW_AT_name("int_least32_t")
    2090                            .dwattr $C$DW$T$115, DW_AT_type(*$C$DW$T$114)
TI ARM Assembler PC v18.1.3 Wed Nov 28 13:34:33 2018

Tools Copyright (c) 1996-2017 Texas Instruments Incorporated
C:\Users\Adrian\AppData\Local\Temp\{E185AECD-F423-44A6-B447-8E7B9B9A1395} PAGE   39

    2091                            .dwattr $C$DW$T$115, DW_AT_language(DW_LANG_C)
    2092                            .dwattr $C$DW$T$115, DW_AT_decl_file("C:/ti/ccsv8/tools/compiler/ti-cgt-arm_18.1.3.LTS/include
    2093                            .dwattr $C$DW$T$115, DW_AT_decl_line(0x2a)
    2094                            .dwattr $C$DW$T$115, DW_AT_decl_column(0x1a)
    2095                    
    2096                    $C$DW$T$240     .dwtag  DW_TAG_typedef
    2097                            .dwattr $C$DW$T$240, DW_AT_name("__intfptr_t")
    2098                            .dwattr $C$DW$T$240, DW_AT_type(*$C$DW$T$94)
    2099                            .dwattr $C$DW$T$240, DW_AT_language(DW_LANG_C)
    2100                            .dwattr $C$DW$T$240, DW_AT_decl_file("C:/ti/ccsv8/tools/compiler/ti-cgt-arm_18.1.3.LTS/include
    2101                            .dwattr $C$DW$T$240, DW_AT_decl_line(0x51)
    2102                            .dwattr $C$DW$T$240, DW_AT_decl_column(0x13)
    2103                    
    2104                    $C$DW$T$241     .dwtag  DW_TAG_typedef
    2105                            .dwattr $C$DW$T$241, DW_AT_name("__intptr_t")
    2106                            .dwattr $C$DW$T$241, DW_AT_type(*$C$DW$T$94)
    2107                            .dwattr $C$DW$T$241, DW_AT_language(DW_LANG_C)
    2108                            .dwattr $C$DW$T$241, DW_AT_decl_file("C:/ti/ccsv8/tools/compiler/ti-cgt-arm_18.1.3.LTS/include
    2109                            .dwattr $C$DW$T$241, DW_AT_decl_line(0x53)
    2110                            .dwattr $C$DW$T$241, DW_AT_decl_column(0x13)
    2111                    
    2112                    $C$DW$T$242     .dwtag  DW_TAG_typedef
    2113                            .dwattr $C$DW$T$242, DW_AT_name("intptr_t")
    2114                            .dwattr $C$DW$T$242, DW_AT_type(*$C$DW$T$241)
    2115                            .dwattr $C$DW$T$242, DW_AT_language(DW_LANG_C)
    2116                            .dwattr $C$DW$T$242, DW_AT_decl_file("C:/ti/ccsv8/tools/compiler/ti-cgt-arm_18.1.3.LTS/include
    2117                            .dwattr $C$DW$T$242, DW_AT_decl_line(0x4c)
    2118                            .dwattr $C$DW$T$242, DW_AT_decl_column(0x15)
    2119                    
    2120                    $C$DW$T$243     .dwtag  DW_TAG_typedef
    2121                            .dwattr $C$DW$T$243, DW_AT_name("__lwpid_t")
    2122                            .dwattr $C$DW$T$243, DW_AT_type(*$C$DW$T$94)
    2123                            .dwattr $C$DW$T$243, DW_AT_language(DW_LANG_C)
    2124                            .dwattr $C$DW$T$243, DW_AT_decl_file("C:/ti/ccsv8/tools/compiler/ti-cgt-arm_18.1.3.LTS/include
    2125                            .dwattr $C$DW$T$243, DW_AT_decl_line(0x38)
    2126                            .dwattr $C$DW$T$243, DW_AT_decl_column(0x13)
    2127                    
    2128                    $C$DW$T$244     .dwtag  DW_TAG_typedef
    2129                            .dwattr $C$DW$T$244, DW_AT_name("__pid_t")
    2130                            .dwattr $C$DW$T$244, DW_AT_type(*$C$DW$T$94)
    2131                            .dwattr $C$DW$T$244, DW_AT_language(DW_LANG_C)
    2132                            .dwattr $C$DW$T$244, DW_AT_decl_file("C:/ti/ccsv8/tools/compiler/ti-cgt-arm_18.1.3.LTS/include
    2133                            .dwattr $C$DW$T$244, DW_AT_decl_line(0x3f)
    2134                            .dwattr $C$DW$T$244, DW_AT_decl_column(0x13)
    2135                    
    2136                    $C$DW$T$245     .dwtag  DW_TAG_typedef
    2137                            .dwattr $C$DW$T$245, DW_AT_name("__ptrdiff_t")
    2138                            .dwattr $C$DW$T$245, DW_AT_type(*$C$DW$T$94)
    2139                            .dwattr $C$DW$T$245, DW_AT_language(DW_LANG_C)
    2140                            .dwattr $C$DW$T$245, DW_AT_decl_file("C:/ti/ccsv8/tools/compiler/ti-cgt-arm_18.1.3.LTS/include
    2141                            .dwattr $C$DW$T$245, DW_AT_decl_line(0x5c)
    2142                            .dwattr $C$DW$T$245, DW_AT_decl_column(0x13)
    2143                    
    2144                    $C$DW$T$246     .dwtag  DW_TAG_typedef
    2145                            .dwattr $C$DW$T$246, DW_AT_name("__register_t")
TI ARM Assembler PC v18.1.3 Wed Nov 28 13:34:33 2018

Tools Copyright (c) 1996-2017 Texas Instruments Incorporated
C:\Users\Adrian\AppData\Local\Temp\{E185AECD-F423-44A6-B447-8E7B9B9A1395} PAGE   40

    2146                            .dwattr $C$DW$T$246, DW_AT_type(*$C$DW$T$94)
    2147                            .dwattr $C$DW$T$246, DW_AT_language(DW_LANG_C)
    2148                            .dwattr $C$DW$T$246, DW_AT_decl_file("C:/ti/ccsv8/tools/compiler/ti-cgt-arm_18.1.3.LTS/include
    2149                            .dwattr $C$DW$T$246, DW_AT_decl_line(0x5d)
    2150                            .dwattr $C$DW$T$246, DW_AT_decl_column(0x13)
    2151                    
    2152                    $C$DW$T$247     .dwtag  DW_TAG_typedef
    2153                            .dwattr $C$DW$T$247, DW_AT_name("__segsz_t")
    2154                            .dwattr $C$DW$T$247, DW_AT_type(*$C$DW$T$94)
    2155                            .dwattr $C$DW$T$247, DW_AT_language(DW_LANG_C)
    2156                            .dwattr $C$DW$T$247, DW_AT_decl_file("C:/ti/ccsv8/tools/compiler/ti-cgt-arm_18.1.3.LTS/include
    2157                            .dwattr $C$DW$T$247, DW_AT_decl_line(0x5e)
    2158                            .dwattr $C$DW$T$247, DW_AT_decl_column(0x13)
    2159                    
    2160                    $C$DW$T$248     .dwtag  DW_TAG_typedef
    2161                            .dwattr $C$DW$T$248, DW_AT_name("__ssize_t")
    2162                            .dwattr $C$DW$T$248, DW_AT_type(*$C$DW$T$94)
    2163                            .dwattr $C$DW$T$248, DW_AT_language(DW_LANG_C)
    2164                            .dwattr $C$DW$T$248, DW_AT_decl_file("C:/ti/ccsv8/tools/compiler/ti-cgt-arm_18.1.3.LTS/include
    2165                            .dwattr $C$DW$T$248, DW_AT_decl_line(0x60)
    2166                            .dwattr $C$DW$T$248, DW_AT_decl_column(0x13)
    2167                    
    2168                    $C$DW$T$249     .dwtag  DW_TAG_typedef
    2169                            .dwattr $C$DW$T$249, DW_AT_name("int32_t")
    2170                            .dwattr $C$DW$T$249, DW_AT_type(*$C$DW$T$94)
    2171                            .dwattr $C$DW$T$249, DW_AT_language(DW_LANG_C)
    2172                            .dwattr $C$DW$T$249, DW_AT_decl_file("C:/ti/ccsv8/tools/compiler/ti-cgt-arm_18.1.3.LTS/include
    2173                            .dwattr $C$DW$T$249, DW_AT_decl_line(0x2e)
    2174                            .dwattr $C$DW$T$249, DW_AT_decl_column(0x14)
    2175                    
    2176                    $C$DW$T$250     .dwtag  DW_TAG_typedef
    2177                            .dwattr $C$DW$T$250, DW_AT_name("__nl_item")
    2178                            .dwattr $C$DW$T$250, DW_AT_type(*$C$DW$T$10)
    2179                            .dwattr $C$DW$T$250, DW_AT_language(DW_LANG_C)
    2180                            .dwattr $C$DW$T$250, DW_AT_decl_file("C:/ti/ccsv8/tools/compiler/ti-cgt-arm_18.1.3.LTS/include
    2181                            .dwattr $C$DW$T$250, DW_AT_decl_line(0x3b)
    2182                            .dwattr $C$DW$T$250, DW_AT_decl_column(0x0e)
    2183                    
    2184                    $C$DW$T$11      .dwtag  DW_TAG_base_type
    2185                            .dwattr $C$DW$T$11, DW_AT_encoding(DW_ATE_unsigned)
    2186                            .dwattr $C$DW$T$11, DW_AT_name("unsigned int")
    2187                            .dwattr $C$DW$T$11, DW_AT_byte_size(0x04)
    2188                    
    2189                    $C$DW$T$251     .dwtag  DW_TAG_typedef
    2190                            .dwattr $C$DW$T$251, DW_AT_name("__UINT32")
    2191                            .dwattr $C$DW$T$251, DW_AT_type(*$C$DW$T$11)
    2192                            .dwattr $C$DW$T$251, DW_AT_language(DW_LANG_C)
    2193                            .dwattr $C$DW$T$251, DW_AT_decl_file("C:/ti/simplelink_cc13x0_sdk_2_30_00_20/source/ti/devices
    2194                            .dwattr $C$DW$T$251, DW_AT_decl_line(0x45)
    2195                            .dwattr $C$DW$T$251, DW_AT_decl_column(0x17)
    2196                    
    2197                    $C$DW$T$22      .dwtag  DW_TAG_typedef
    2198                            .dwattr $C$DW$T$22, DW_AT_name("__uint32_t")
    2199                            .dwattr $C$DW$T$22, DW_AT_type(*$C$DW$T$11)
    2200                            .dwattr $C$DW$T$22, DW_AT_language(DW_LANG_C)
TI ARM Assembler PC v18.1.3 Wed Nov 28 13:34:33 2018

Tools Copyright (c) 1996-2017 Texas Instruments Incorporated
C:\Users\Adrian\AppData\Local\Temp\{E185AECD-F423-44A6-B447-8E7B9B9A1395} PAGE   41

    2201                            .dwattr $C$DW$T$22, DW_AT_decl_file("C:/ti/ccsv8/tools/compiler/ti-cgt-arm_18.1.3.LTS/include/
    2202                            .dwattr $C$DW$T$22, DW_AT_decl_line(0x3e)
    2203                            .dwattr $C$DW$T$22, DW_AT_decl_column(0x17)
    2204                    
    2205                    $C$DW$T$261     .dwtag  DW_TAG_typedef
    2206                            .dwattr $C$DW$T$261, DW_AT_name("__clock_t")
    2207                            .dwattr $C$DW$T$261, DW_AT_type(*$C$DW$T$22)
    2208                            .dwattr $C$DW$T$261, DW_AT_language(DW_LANG_C)
    2209                            .dwattr $C$DW$T$261, DW_AT_decl_file("C:/ti/ccsv8/tools/compiler/ti-cgt-arm_18.1.3.LTS/include
    2210                            .dwattr $C$DW$T$261, DW_AT_decl_line(0x4d)
    2211                            .dwattr $C$DW$T$261, DW_AT_decl_column(0x14)
    2212                    
    2213                    $C$DW$T$262     .dwtag  DW_TAG_typedef
    2214                            .dwattr $C$DW$T$262, DW_AT_name("__fflags_t")
    2215                            .dwattr $C$DW$T$262, DW_AT_type(*$C$DW$T$22)
    2216                            .dwattr $C$DW$T$262, DW_AT_language(DW_LANG_C)
    2217                            .dwattr $C$DW$T$262, DW_AT_decl_file("C:/ti/ccsv8/tools/compiler/ti-cgt-arm_18.1.3.LTS/include
    2218                            .dwattr $C$DW$T$262, DW_AT_decl_line(0x31)
    2219                            .dwattr $C$DW$T$262, DW_AT_decl_column(0x14)
    2220                    
    2221                    $C$DW$T$263     .dwtag  DW_TAG_typedef
    2222                            .dwattr $C$DW$T$263, DW_AT_name("__fixpt_t")
    2223                            .dwattr $C$DW$T$263, DW_AT_type(*$C$DW$T$22)
    2224                            .dwattr $C$DW$T$263, DW_AT_language(DW_LANG_C)
    2225                            .dwattr $C$DW$T$263, DW_AT_decl_file("C:/ti/ccsv8/tools/compiler/ti-cgt-arm_18.1.3.LTS/include
    2226                            .dwattr $C$DW$T$263, DW_AT_decl_line(0x76)
    2227                            .dwattr $C$DW$T$263, DW_AT_decl_column(0x14)
    2228                    
    2229                    $C$DW$T$264     .dwtag  DW_TAG_typedef
    2230                            .dwattr $C$DW$T$264, DW_AT_name("__gid_t")
    2231                            .dwattr $C$DW$T$264, DW_AT_type(*$C$DW$T$22)
    2232                            .dwattr $C$DW$T$264, DW_AT_language(DW_LANG_C)
    2233                            .dwattr $C$DW$T$264, DW_AT_decl_file("C:/ti/ccsv8/tools/compiler/ti-cgt-arm_18.1.3.LTS/include
    2234                            .dwattr $C$DW$T$264, DW_AT_decl_line(0x34)
    2235                            .dwattr $C$DW$T$264, DW_AT_decl_column(0x14)
    2236                    
    2237                    $C$DW$T$265     .dwtag  DW_TAG_typedef
    2238                            .dwattr $C$DW$T$265, DW_AT_name("__size_t")
    2239                            .dwattr $C$DW$T$265, DW_AT_type(*$C$DW$T$22)
    2240                            .dwattr $C$DW$T$265, DW_AT_language(DW_LANG_C)
    2241                            .dwattr $C$DW$T$265, DW_AT_decl_file("C:/ti/ccsv8/tools/compiler/ti-cgt-arm_18.1.3.LTS/include
    2242                            .dwattr $C$DW$T$265, DW_AT_decl_line(0x5f)
    2243                            .dwattr $C$DW$T$265, DW_AT_decl_column(0x14)
    2244                    
    2245                    $C$DW$T$266     .dwtag  DW_TAG_typedef
    2246                            .dwattr $C$DW$T$266, DW_AT_name("__socklen_t")
    2247                            .dwattr $C$DW$T$266, DW_AT_type(*$C$DW$T$22)
    2248                            .dwattr $C$DW$T$266, DW_AT_language(DW_LANG_C)
    2249                            .dwattr $C$DW$T$266, DW_AT_decl_file("C:/ti/ccsv8/tools/compiler/ti-cgt-arm_18.1.3.LTS/include
    2250                            .dwattr $C$DW$T$266, DW_AT_decl_line(0x44)
    2251                            .dwattr $C$DW$T$266, DW_AT_decl_column(0x14)
    2252                    
    2253                    $C$DW$T$267     .dwtag  DW_TAG_typedef
    2254                            .dwattr $C$DW$T$267, DW_AT_name("__time_t")
    2255                            .dwattr $C$DW$T$267, DW_AT_type(*$C$DW$T$22)
TI ARM Assembler PC v18.1.3 Wed Nov 28 13:34:33 2018

Tools Copyright (c) 1996-2017 Texas Instruments Incorporated
C:\Users\Adrian\AppData\Local\Temp\{E185AECD-F423-44A6-B447-8E7B9B9A1395} PAGE   42

    2256                            .dwattr $C$DW$T$267, DW_AT_language(DW_LANG_C)
    2257                            .dwattr $C$DW$T$267, DW_AT_decl_file("C:/ti/ccsv8/tools/compiler/ti-cgt-arm_18.1.3.LTS/include
    2258                            .dwattr $C$DW$T$267, DW_AT_decl_line(0x64)
    2259                            .dwattr $C$DW$T$267, DW_AT_decl_column(0x19)
    2260                    
    2261                    $C$DW$T$268     .dwtag  DW_TAG_typedef
    2262                            .dwattr $C$DW$T$268, DW_AT_name("__u_register_t")
    2263                            .dwattr $C$DW$T$268, DW_AT_type(*$C$DW$T$22)
    2264                            .dwattr $C$DW$T$268, DW_AT_language(DW_LANG_C)
    2265                            .dwattr $C$DW$T$268, DW_AT_decl_file("C:/ti/ccsv8/tools/compiler/ti-cgt-arm_18.1.3.LTS/include
    2266                            .dwattr $C$DW$T$268, DW_AT_decl_line(0x71)
    2267                            .dwattr $C$DW$T$268, DW_AT_decl_column(0x14)
    2268                    
    2269                    $C$DW$T$269     .dwtag  DW_TAG_typedef
    2270                            .dwattr $C$DW$T$269, DW_AT_name("__uid_t")
    2271                            .dwattr $C$DW$T$269, DW_AT_type(*$C$DW$T$22)
    2272                            .dwattr $C$DW$T$269, DW_AT_language(DW_LANG_C)
    2273                            .dwattr $C$DW$T$269, DW_AT_decl_file("C:/ti/ccsv8/tools/compiler/ti-cgt-arm_18.1.3.LTS/include
    2274                            .dwattr $C$DW$T$269, DW_AT_decl_line(0x48)
    2275                            .dwattr $C$DW$T$269, DW_AT_decl_column(0x14)
    2276                    
    2277                    $C$DW$T$270     .dwtag  DW_TAG_typedef
    2278                            .dwattr $C$DW$T$270, DW_AT_name("__uint_fast16_t")
    2279                            .dwattr $C$DW$T$270, DW_AT_type(*$C$DW$T$22)
    2280                            .dwattr $C$DW$T$270, DW_AT_language(DW_LANG_C)
    2281                            .dwattr $C$DW$T$270, DW_AT_decl_file("C:/ti/ccsv8/tools/compiler/ti-cgt-arm_18.1.3.LTS/include
    2282                            .dwattr $C$DW$T$270, DW_AT_decl_line(0x6a)
    2283                            .dwattr $C$DW$T$270, DW_AT_decl_column(0x14)
    2284                    
    2285                    $C$DW$T$271     .dwtag  DW_TAG_typedef
    2286                            .dwattr $C$DW$T$271, DW_AT_name("uint_fast16_t")
    2287                            .dwattr $C$DW$T$271, DW_AT_type(*$C$DW$T$270)
    2288                            .dwattr $C$DW$T$271, DW_AT_language(DW_LANG_C)
    2289                            .dwattr $C$DW$T$271, DW_AT_decl_file("C:/ti/ccsv8/tools/compiler/ti-cgt-arm_18.1.3.LTS/include
    2290                            .dwattr $C$DW$T$271, DW_AT_decl_line(0x38)
    2291                            .dwattr $C$DW$T$271, DW_AT_decl_column(0x1a)
    2292                    
    2293                    $C$DW$T$118     .dwtag  DW_TAG_typedef
    2294                            .dwattr $C$DW$T$118, DW_AT_name("__uint_fast32_t")
    2295                            .dwattr $C$DW$T$118, DW_AT_type(*$C$DW$T$22)
    2296                            .dwattr $C$DW$T$118, DW_AT_language(DW_LANG_C)
    2297                            .dwattr $C$DW$T$118, DW_AT_decl_file("C:/ti/ccsv8/tools/compiler/ti-cgt-arm_18.1.3.LTS/include
    2298                            .dwattr $C$DW$T$118, DW_AT_decl_line(0x6b)
    2299                            .dwattr $C$DW$T$118, DW_AT_decl_column(0x14)
    2300                    
    2301                    $C$DW$T$119     .dwtag  DW_TAG_typedef
    2302                            .dwattr $C$DW$T$119, DW_AT_name("uint_fast32_t")
    2303                            .dwattr $C$DW$T$119, DW_AT_type(*$C$DW$T$118)
    2304                            .dwattr $C$DW$T$119, DW_AT_language(DW_LANG_C)
    2305                            .dwattr $C$DW$T$119, DW_AT_decl_file("C:/ti/ccsv8/tools/compiler/ti-cgt-arm_18.1.3.LTS/include
    2306                            .dwattr $C$DW$T$119, DW_AT_decl_line(0x39)
    2307                            .dwattr $C$DW$T$119, DW_AT_decl_column(0x1a)
    2308                    
    2309                    $C$DW$T$120     .dwtag  DW_TAG_typedef
    2310                            .dwattr $C$DW$T$120, DW_AT_name("ICall_PwrBitmap_t")
TI ARM Assembler PC v18.1.3 Wed Nov 28 13:34:33 2018

Tools Copyright (c) 1996-2017 Texas Instruments Incorporated
C:\Users\Adrian\AppData\Local\Temp\{E185AECD-F423-44A6-B447-8E7B9B9A1395} PAGE   43

    2311                            .dwattr $C$DW$T$120, DW_AT_type(*$C$DW$T$119)
    2312                            .dwattr $C$DW$T$120, DW_AT_language(DW_LANG_C)
    2313                            .dwattr $C$DW$T$120, DW_AT_decl_file("C:/ti/simplelink_cc13x0_sdk_2_30_00_20/source/ti/ti154st
    2314                            .dwattr $C$DW$T$120, DW_AT_decl_line(0x287)
    2315                            .dwattr $C$DW$T$120, DW_AT_decl_column(0x17)
    2316                    
    2317                    $C$DW$T$122     .dwtag  DW_TAG_typedef
    2318                            .dwattr $C$DW$T$122, DW_AT_name("__uint_fast8_t")
    2319                            .dwattr $C$DW$T$122, DW_AT_type(*$C$DW$T$22)
    2320                            .dwattr $C$DW$T$122, DW_AT_language(DW_LANG_C)
    2321                            .dwattr $C$DW$T$122, DW_AT_decl_file("C:/ti/ccsv8/tools/compiler/ti-cgt-arm_18.1.3.LTS/include
    2322                            .dwattr $C$DW$T$122, DW_AT_decl_line(0x69)
    2323                            .dwattr $C$DW$T$122, DW_AT_decl_column(0x14)
    2324                    
    2325                    $C$DW$T$123     .dwtag  DW_TAG_typedef
    2326                            .dwattr $C$DW$T$123, DW_AT_name("uint_fast8_t")
    2327                            .dwattr $C$DW$T$123, DW_AT_type(*$C$DW$T$122)
    2328                            .dwattr $C$DW$T$123, DW_AT_language(DW_LANG_C)
    2329                            .dwattr $C$DW$T$123, DW_AT_decl_file("C:/ti/ccsv8/tools/compiler/ti-cgt-arm_18.1.3.LTS/include
    2330                            .dwattr $C$DW$T$123, DW_AT_decl_line(0x37)
    2331                            .dwattr $C$DW$T$123, DW_AT_decl_column(0x19)
    2332                    
    2333                    $C$DW$T$126     .dwtag  DW_TAG_typedef
    2334                            .dwattr $C$DW$T$126, DW_AT_name("ICall_PwrTransition")
    2335                            .dwattr $C$DW$T$126, DW_AT_type(*$C$DW$T$123)
    2336                            .dwattr $C$DW$T$126, DW_AT_language(DW_LANG_C)
    2337                            .dwattr $C$DW$T$126, DW_AT_decl_file("C:/ti/simplelink_cc13x0_sdk_2_30_00_20/source/ti/ti154st
    2338                            .dwattr $C$DW$T$126, DW_AT_decl_line(0x326)
    2339                            .dwattr $C$DW$T$126, DW_AT_decl_column(0x16)
    2340                    
    2341                    $C$DW$T$70      .dwtag  DW_TAG_typedef
    2342                            .dwattr $C$DW$T$70, DW_AT_name("__uint_least32_t")
    2343                            .dwattr $C$DW$T$70, DW_AT_type(*$C$DW$T$22)
    2344                            .dwattr $C$DW$T$70, DW_AT_language(DW_LANG_C)
    2345                            .dwattr $C$DW$T$70, DW_AT_decl_file("C:/ti/ccsv8/tools/compiler/ti-cgt-arm_18.1.3.LTS/include/
    2346                            .dwattr $C$DW$T$70, DW_AT_decl_line(0x6f)
    2347                            .dwattr $C$DW$T$70, DW_AT_decl_column(0x14)
    2348                    
    2349                    $C$DW$T$272     .dwtag  DW_TAG_typedef
    2350                            .dwattr $C$DW$T$272, DW_AT_name("__char32_t")
    2351                            .dwattr $C$DW$T$272, DW_AT_type(*$C$DW$T$70)
    2352                            .dwattr $C$DW$T$272, DW_AT_language(DW_LANG_C)
    2353                            .dwattr $C$DW$T$272, DW_AT_decl_file("C:/ti/ccsv8/tools/compiler/ti-cgt-arm_18.1.3.LTS/include
    2354                            .dwattr $C$DW$T$272, DW_AT_decl_line(0x67)
    2355                            .dwattr $C$DW$T$272, DW_AT_decl_column(0x1a)
    2356                    
    2357                    $C$DW$T$71      .dwtag  DW_TAG_typedef
    2358                            .dwattr $C$DW$T$71, DW_AT_name("uint_least32_t")
    2359                            .dwattr $C$DW$T$71, DW_AT_type(*$C$DW$T$70)
    2360                            .dwattr $C$DW$T$71, DW_AT_language(DW_LANG_C)
    2361                            .dwattr $C$DW$T$71, DW_AT_decl_file("C:/ti/ccsv8/tools/compiler/ti-cgt-arm_18.1.3.LTS/include/
    2362                            .dwattr $C$DW$T$71, DW_AT_decl_line(0x2f)
    2363                            .dwattr $C$DW$T$71, DW_AT_decl_column(0x1a)
    2364                    
    2365                    $C$DW$T$140     .dwtag  DW_TAG_typedef
TI ARM Assembler PC v18.1.3 Wed Nov 28 13:34:33 2018

Tools Copyright (c) 1996-2017 Texas Instruments Incorporated
C:\Users\Adrian\AppData\Local\Temp\{E185AECD-F423-44A6-B447-8E7B9B9A1395} PAGE   44

    2366                            .dwattr $C$DW$T$140, DW_AT_name("ICall_CSState")
    2367                            .dwattr $C$DW$T$140, DW_AT_type(*$C$DW$T$71)
    2368                            .dwattr $C$DW$T$140, DW_AT_language(DW_LANG_C)
    2369                            .dwattr $C$DW$T$140, DW_AT_decl_file("C:/ti/simplelink_cc13x0_sdk_2_30_00_20/source/ti/ti154st
    2370                            .dwattr $C$DW$T$140, DW_AT_decl_line(0x371)
    2371                            .dwattr $C$DW$T$140, DW_AT_decl_column(0x18)
    2372                    
    2373                    
    2374                    $C$DW$T$141     .dwtag  DW_TAG_subroutine_type
    2375                            .dwattr $C$DW$T$141, DW_AT_type(*$C$DW$T$140)
    2376                            .dwattr $C$DW$T$141, DW_AT_language(DW_LANG_C)
    2377                            .dwendtag $C$DW$T$141
    2378                    
    2379                    $C$DW$T$142     .dwtag  DW_TAG_pointer_type
    2380                            .dwattr $C$DW$T$142, DW_AT_type(*$C$DW$T$141)
    2381                            .dwattr $C$DW$T$142, DW_AT_address_class(0x20)
    2382                    
    2383                    $C$DW$T$143     .dwtag  DW_TAG_typedef
    2384                            .dwattr $C$DW$T$143, DW_AT_name("ICall_EnterCS")
    2385                            .dwattr $C$DW$T$143, DW_AT_type(*$C$DW$T$142)
    2386                            .dwattr $C$DW$T$143, DW_AT_language(DW_LANG_C)
    2387                            .dwattr $C$DW$T$143, DW_AT_decl_file("C:/ti/simplelink_cc13x0_sdk_2_30_00_20/source/ti/ti154st
    2388                            .dwattr $C$DW$T$143, DW_AT_decl_line(0x377)
    2389                            .dwattr $C$DW$T$143, DW_AT_decl_column(0x19)
    2390                    
    2391                    $C$DW$T$273     .dwtag  DW_TAG_typedef
    2392                            .dwattr $C$DW$T$273, DW_AT_name("halIntState_t")
    2393                            .dwattr $C$DW$T$273, DW_AT_type(*$C$DW$T$140)
    2394                            .dwattr $C$DW$T$273, DW_AT_language(DW_LANG_C)
    2395                            .dwattr $C$DW$T$273, DW_AT_decl_file("C:\ti\simplelink_cc13x0_sdk_2_30_00_20\source\ti\ti154st
    2396                            .dwattr $C$DW$T$273, DW_AT_decl_line(0x6f)
    2397                            .dwattr $C$DW$T$273, DW_AT_decl_column(0x17)
    2398                    
    2399                    $C$DW$T$72      .dwtag  DW_TAG_pointer_type
    2400                            .dwattr $C$DW$T$72, DW_AT_type(*$C$DW$T$71)
    2401                            .dwattr $C$DW$T$72, DW_AT_address_class(0x20)
    2402                    
    2403                    $C$DW$T$73      .dwtag  DW_TAG_typedef
    2404                            .dwattr $C$DW$T$73, DW_AT_name("icall_lite_id_t")
    2405                            .dwattr $C$DW$T$73, DW_AT_type(*$C$DW$T$71)
    2406                            .dwattr $C$DW$T$73, DW_AT_language(DW_LANG_C)
    2407                            .dwattr $C$DW$T$73, DW_AT_decl_file("C:/ti/simplelink_cc13x0_sdk_2_30_00_20/source/ti/ti154sta
    2408                            .dwattr $C$DW$T$73, DW_AT_decl_line(0x3ec)
    2409                            .dwattr $C$DW$T$73, DW_AT_decl_column(0x18)
    2410                    
    2411                    $C$DW$T$274     .dwtag  DW_TAG_typedef
    2412                            .dwattr $C$DW$T$274, DW_AT_name("__uintfptr_t")
    2413                            .dwattr $C$DW$T$274, DW_AT_type(*$C$DW$T$22)
    2414                            .dwattr $C$DW$T$274, DW_AT_language(DW_LANG_C)
    2415                            .dwattr $C$DW$T$274, DW_AT_decl_file("C:/ti/ccsv8/tools/compiler/ti-cgt-arm_18.1.3.LTS/include
    2416                            .dwattr $C$DW$T$274, DW_AT_decl_line(0x66)
    2417                            .dwattr $C$DW$T$274, DW_AT_decl_column(0x14)
    2418                    
    2419                    $C$DW$T$275     .dwtag  DW_TAG_typedef
    2420                            .dwattr $C$DW$T$275, DW_AT_name("__uintptr_t")
TI ARM Assembler PC v18.1.3 Wed Nov 28 13:34:33 2018

Tools Copyright (c) 1996-2017 Texas Instruments Incorporated
C:\Users\Adrian\AppData\Local\Temp\{E185AECD-F423-44A6-B447-8E7B9B9A1395} PAGE   45

    2421                            .dwattr $C$DW$T$275, DW_AT_type(*$C$DW$T$22)
    2422                            .dwattr $C$DW$T$275, DW_AT_language(DW_LANG_C)
    2423                            .dwattr $C$DW$T$275, DW_AT_decl_file("C:/ti/ccsv8/tools/compiler/ti-cgt-arm_18.1.3.LTS/include
    2424                            .dwattr $C$DW$T$275, DW_AT_decl_line(0x68)
    2425                            .dwattr $C$DW$T$275, DW_AT_decl_column(0x14)
    2426                    
    2427                    $C$DW$T$276     .dwtag  DW_TAG_typedef
    2428                            .dwattr $C$DW$T$276, DW_AT_name("uintptr_t")
    2429                            .dwattr $C$DW$T$276, DW_AT_type(*$C$DW$T$275)
    2430                            .dwattr $C$DW$T$276, DW_AT_language(DW_LANG_C)
    2431                            .dwattr $C$DW$T$276, DW_AT_decl_file("C:/ti/ccsv8/tools/compiler/ti-cgt-arm_18.1.3.LTS/include
    2432                            .dwattr $C$DW$T$276, DW_AT_decl_line(0x50)
    2433                            .dwattr $C$DW$T$276, DW_AT_decl_column(0x16)
    2434                    
    2435                    $C$DW$T$277     .dwtag  DW_TAG_typedef
    2436                            .dwattr $C$DW$T$277, DW_AT_name("__vm_offset_t")
    2437                            .dwattr $C$DW$T$277, DW_AT_type(*$C$DW$T$22)
    2438                            .dwattr $C$DW$T$277, DW_AT_language(DW_LANG_C)
    2439                            .dwattr $C$DW$T$277, DW_AT_decl_file("C:/ti/ccsv8/tools/compiler/ti-cgt-arm_18.1.3.LTS/include
    2440                            .dwattr $C$DW$T$277, DW_AT_decl_line(0x72)
    2441                            .dwattr $C$DW$T$277, DW_AT_decl_column(0x14)
    2442                    
    2443                    $C$DW$T$278     .dwtag  DW_TAG_typedef
    2444                            .dwattr $C$DW$T$278, DW_AT_name("__vm_paddr_t")
    2445                            .dwattr $C$DW$T$278, DW_AT_type(*$C$DW$T$22)
    2446                            .dwattr $C$DW$T$278, DW_AT_language(DW_LANG_C)
    2447                            .dwattr $C$DW$T$278, DW_AT_decl_file("C:/ti/ccsv8/tools/compiler/ti-cgt-arm_18.1.3.LTS/include
    2448                            .dwattr $C$DW$T$278, DW_AT_decl_line(0x73)
    2449                            .dwattr $C$DW$T$278, DW_AT_decl_column(0x14)
    2450                    
    2451                    $C$DW$T$279     .dwtag  DW_TAG_typedef
    2452                            .dwattr $C$DW$T$279, DW_AT_name("__vm_size_t")
    2453                            .dwattr $C$DW$T$279, DW_AT_type(*$C$DW$T$22)
    2454                            .dwattr $C$DW$T$279, DW_AT_language(DW_LANG_C)
    2455                            .dwattr $C$DW$T$279, DW_AT_decl_file("C:/ti/ccsv8/tools/compiler/ti-cgt-arm_18.1.3.LTS/include
    2456                            .dwattr $C$DW$T$279, DW_AT_decl_line(0x74)
    2457                            .dwattr $C$DW$T$279, DW_AT_decl_column(0x14)
    2458                    
    2459                    $C$DW$T$23      .dwtag  DW_TAG_typedef
    2460                            .dwattr $C$DW$T$23, DW_AT_name("uint32_t")
    2461                            .dwattr $C$DW$T$23, DW_AT_type(*$C$DW$T$22)
    2462                            .dwattr $C$DW$T$23, DW_AT_language(DW_LANG_C)
    2463                            .dwattr $C$DW$T$23, DW_AT_decl_file("C:/ti/ccsv8/tools/compiler/ti-cgt-arm_18.1.3.LTS/include/
    2464                            .dwattr $C$DW$T$23, DW_AT_decl_line(0x42)
    2465                            .dwattr $C$DW$T$23, DW_AT_decl_column(0x15)
    2466                    
    2467                    
    2468                    $C$DW$T$27      .dwtag  DW_TAG_subroutine_type
    2469                            .dwattr $C$DW$T$27, DW_AT_type(*$C$DW$T$23)
    2470                            .dwattr $C$DW$T$27, DW_AT_language(DW_LANG_C)
    2471                    $C$DW$137       .dwtag  DW_TAG_formal_parameter
    2472                            .dwattr $C$DW$137, DW_AT_type(*$C$DW$T$26)
    2473                    
    2474                    $C$DW$138       .dwtag  DW_TAG_formal_parameter
    2475                            .dwattr $C$DW$138, DW_AT_type(*$C$DW$T$23)
TI ARM Assembler PC v18.1.3 Wed Nov 28 13:34:33 2018

Tools Copyright (c) 1996-2017 Texas Instruments Incorporated
C:\Users\Adrian\AppData\Local\Temp\{E185AECD-F423-44A6-B447-8E7B9B9A1395} PAGE   46

    2476                    
    2477                    $C$DW$139       .dwtag  DW_TAG_formal_parameter
    2478                            .dwattr $C$DW$139, DW_AT_type(*$C$DW$T$23)
    2479                    
    2480                            .dwendtag $C$DW$T$27
    2481                    
    2482                    $C$DW$T$28      .dwtag  DW_TAG_pointer_type
    2483                            .dwattr $C$DW$T$28, DW_AT_type(*$C$DW$T$27)
    2484                            .dwattr $C$DW$T$28, DW_AT_address_class(0x20)
    2485                    
    2486                    $C$DW$T$29      .dwtag  DW_TAG_typedef
    2487                            .dwattr $C$DW$T$29, DW_AT_name("FPTR_CRC32_T")
    2488                            .dwattr $C$DW$T$29, DW_AT_type(*$C$DW$T$28)
    2489                            .dwattr $C$DW$T$29, DW_AT_language(DW_LANG_C)
    2490                            .dwattr $C$DW$T$29, DW_AT_decl_file("C:\ti\simplelink_cc13x0_sdk_2_30_00_20\source\ti\devices\
    2491                            .dwattr $C$DW$T$29, DW_AT_decl_line(0x3e)
    2492                            .dwattr $C$DW$T$29, DW_AT_decl_column(0x19)
    2493                    
    2494                    $C$DW$T$38      .dwtag  DW_TAG_typedef
    2495                            .dwattr $C$DW$T$38, DW_AT_name("FPTR_RESERVED3_T")
    2496                            .dwattr $C$DW$T$38, DW_AT_type(*$C$DW$T$28)
    2497                            .dwattr $C$DW$T$38, DW_AT_language(DW_LANG_C)
    2498                            .dwattr $C$DW$T$38, DW_AT_decl_file("C:\ti\simplelink_cc13x0_sdk_2_30_00_20\source\ti\devices\
    2499                            .dwattr $C$DW$T$38, DW_AT_decl_line(0x4a)
    2500                            .dwattr $C$DW$T$38, DW_AT_decl_column(0x19)
    2501                    
    2502                    
    2503                    $C$DW$T$30      .dwtag  DW_TAG_subroutine_type
    2504                            .dwattr $C$DW$T$30, DW_AT_type(*$C$DW$T$23)
    2505                            .dwattr $C$DW$T$30, DW_AT_language(DW_LANG_C)
    2506                            .dwendtag $C$DW$T$30
    2507                    
    2508                    $C$DW$T$31      .dwtag  DW_TAG_pointer_type
    2509                            .dwattr $C$DW$T$31, DW_AT_type(*$C$DW$T$30)
    2510                            .dwattr $C$DW$T$31, DW_AT_address_class(0x20)
    2511                    
    2512                    $C$DW$T$33      .dwtag  DW_TAG_typedef
    2513                            .dwattr $C$DW$T$33, DW_AT_name("FPTR_GETCHIPID_T")
    2514                            .dwattr $C$DW$T$33, DW_AT_type(*$C$DW$T$31)
    2515                            .dwattr $C$DW$T$33, DW_AT_language(DW_LANG_C)
    2516                            .dwattr $C$DW$T$33, DW_AT_decl_file("C:\ti\simplelink_cc13x0_sdk_2_30_00_20\source\ti\devices\
    2517                            .dwattr $C$DW$T$33, DW_AT_decl_line(0x44)
    2518                            .dwattr $C$DW$T$33, DW_AT_decl_column(0x19)
    2519                    
    2520                    $C$DW$T$32      .dwtag  DW_TAG_typedef
    2521                            .dwattr $C$DW$T$32, DW_AT_name("FPTR_GETFLSIZE_T")
    2522                            .dwattr $C$DW$T$32, DW_AT_type(*$C$DW$T$31)
    2523                            .dwattr $C$DW$T$32, DW_AT_language(DW_LANG_C)
    2524                            .dwattr $C$DW$T$32, DW_AT_decl_file("C:\ti\simplelink_cc13x0_sdk_2_30_00_20\source\ti\devices\
    2525                            .dwattr $C$DW$T$32, DW_AT_decl_line(0x42)
    2526                            .dwattr $C$DW$T$32, DW_AT_decl_column(0x19)
    2527                    
    2528                    $C$DW$T$37      .dwtag  DW_TAG_typedef
    2529                            .dwattr $C$DW$T$37, DW_AT_name("FPTR_RESERVED2_T")
    2530                            .dwattr $C$DW$T$37, DW_AT_type(*$C$DW$T$31)
TI ARM Assembler PC v18.1.3 Wed Nov 28 13:34:33 2018

Tools Copyright (c) 1996-2017 Texas Instruments Incorporated
C:\Users\Adrian\AppData\Local\Temp\{E185AECD-F423-44A6-B447-8E7B9B9A1395} PAGE   47

    2531                            .dwattr $C$DW$T$37, DW_AT_language(DW_LANG_C)
    2532                            .dwattr $C$DW$T$37, DW_AT_decl_file("C:\ti\simplelink_cc13x0_sdk_2_30_00_20\source\ti\devices\
    2533                            .dwattr $C$DW$T$37, DW_AT_decl_line(0x48)
    2534                            .dwattr $C$DW$T$37, DW_AT_decl_column(0x19)
    2535                    
    2536                    
    2537                    $C$DW$T$34      .dwtag  DW_TAG_subroutine_type
    2538                            .dwattr $C$DW$T$34, DW_AT_type(*$C$DW$T$23)
    2539                            .dwattr $C$DW$T$34, DW_AT_language(DW_LANG_C)
    2540                    $C$DW$140       .dwtag  DW_TAG_formal_parameter
    2541                            .dwattr $C$DW$140, DW_AT_type(*$C$DW$T$23)
    2542                    
    2543                            .dwendtag $C$DW$T$34
    2544                    
    2545                    $C$DW$T$35      .dwtag  DW_TAG_pointer_type
    2546                            .dwattr $C$DW$T$35, DW_AT_type(*$C$DW$T$34)
    2547                            .dwattr $C$DW$T$35, DW_AT_address_class(0x20)
    2548                    
    2549                    $C$DW$T$36      .dwtag  DW_TAG_typedef
    2550                            .dwattr $C$DW$T$36, DW_AT_name("FPTR_RESERVED1_T")
    2551                            .dwattr $C$DW$T$36, DW_AT_type(*$C$DW$T$35)
    2552                            .dwattr $C$DW$T$36, DW_AT_language(DW_LANG_C)
    2553                            .dwattr $C$DW$T$36, DW_AT_decl_file("C:\ti\simplelink_cc13x0_sdk_2_30_00_20\source\ti\devices\
    2554                            .dwattr $C$DW$T$36, DW_AT_decl_line(0x46)
    2555                            .dwattr $C$DW$T$36, DW_AT_decl_column(0x19)
    2556                    
    2557                    
    2558                    $C$DW$T$45      .dwtag  DW_TAG_subroutine_type
    2559                            .dwattr $C$DW$T$45, DW_AT_type(*$C$DW$T$23)
    2560                            .dwattr $C$DW$T$45, DW_AT_language(DW_LANG_C)
    2561                    $C$DW$141       .dwtag  DW_TAG_formal_parameter
    2562                            .dwattr $C$DW$141, DW_AT_type(*$C$DW$T$44)
    2563                    
    2564                    $C$DW$142       .dwtag  DW_TAG_formal_parameter
    2565                            .dwattr $C$DW$142, DW_AT_type(*$C$DW$T$43)
    2566                    
    2567                    $C$DW$143       .dwtag  DW_TAG_formal_parameter
    2568                            .dwattr $C$DW$143, DW_AT_type(*$C$DW$T$43)
    2569                    
    2570                            .dwendtag $C$DW$T$45
    2571                    
    2572                    $C$DW$T$46      .dwtag  DW_TAG_pointer_type
    2573                            .dwattr $C$DW$T$46, DW_AT_type(*$C$DW$T$45)
    2574                            .dwattr $C$DW$T$46, DW_AT_address_class(0x20)
    2575                    
    2576                    $C$DW$T$47      .dwtag  DW_TAG_typedef
    2577                            .dwattr $C$DW$T$47, DW_AT_name("FPTR_FLETCHER32_T")
    2578                            .dwattr $C$DW$T$47, DW_AT_type(*$C$DW$T$46)
    2579                            .dwattr $C$DW$T$47, DW_AT_language(DW_LANG_C)
    2580                            .dwattr $C$DW$T$47, DW_AT_decl_file("C:\ti\simplelink_cc13x0_sdk_2_30_00_20\source\ti\devices\
    2581                            .dwattr $C$DW$T$47, DW_AT_decl_line(0x4f)
    2582                            .dwattr $C$DW$T$47, DW_AT_decl_column(0x19)
    2583                    
    2584                    $C$DW$T$48      .dwtag  DW_TAG_pointer_type
    2585                            .dwattr $C$DW$T$48, DW_AT_type(*$C$DW$T$23)
TI ARM Assembler PC v18.1.3 Wed Nov 28 13:34:33 2018

Tools Copyright (c) 1996-2017 Texas Instruments Incorporated
C:\Users\Adrian\AppData\Local\Temp\{E185AECD-F423-44A6-B447-8E7B9B9A1395} PAGE   48

    2586                            .dwattr $C$DW$T$48, DW_AT_address_class(0x20)
    2587                    
    2588                    
    2589                    $C$DW$T$49      .dwtag  DW_TAG_subroutine_type
    2590                            .dwattr $C$DW$T$49, DW_AT_type(*$C$DW$T$23)
    2591                            .dwattr $C$DW$T$49, DW_AT_language(DW_LANG_C)
    2592                    $C$DW$144       .dwtag  DW_TAG_formal_parameter
    2593                            .dwattr $C$DW$144, DW_AT_type(*$C$DW$T$48)
    2594                    
    2595                    $C$DW$145       .dwtag  DW_TAG_formal_parameter
    2596                            .dwattr $C$DW$145, DW_AT_type(*$C$DW$T$23)
    2597                    
    2598                            .dwendtag $C$DW$T$49
    2599                    
    2600                    $C$DW$T$50      .dwtag  DW_TAG_pointer_type
    2601                            .dwattr $C$DW$T$50, DW_AT_type(*$C$DW$T$49)
    2602                            .dwattr $C$DW$T$50, DW_AT_address_class(0x20)
    2603                    
    2604                    $C$DW$T$52      .dwtag  DW_TAG_typedef
    2605                            .dwattr $C$DW$T$52, DW_AT_name("FPTR_MAXVAL_T")
    2606                            .dwattr $C$DW$T$52, DW_AT_type(*$C$DW$T$50)
    2607                            .dwattr $C$DW$T$52, DW_AT_language(DW_LANG_C)
    2608                            .dwattr $C$DW$T$52, DW_AT_decl_file("C:\ti\simplelink_cc13x0_sdk_2_30_00_20\source\ti\devices\
    2609                            .dwattr $C$DW$T$52, DW_AT_decl_line(0x56)
    2610                            .dwattr $C$DW$T$52, DW_AT_decl_column(0x19)
    2611                    
    2612                    $C$DW$T$53      .dwtag  DW_TAG_typedef
    2613                            .dwattr $C$DW$T$53, DW_AT_name("FPTR_MEANVAL_T")
    2614                            .dwattr $C$DW$T$53, DW_AT_type(*$C$DW$T$50)
    2615                            .dwattr $C$DW$T$53, DW_AT_language(DW_LANG_C)
    2616                            .dwattr $C$DW$T$53, DW_AT_decl_file("C:\ti\simplelink_cc13x0_sdk_2_30_00_20\source\ti\devices\
    2617                            .dwattr $C$DW$T$53, DW_AT_decl_line(0x59)
    2618                            .dwattr $C$DW$T$53, DW_AT_decl_column(0x19)
    2619                    
    2620                    $C$DW$T$51      .dwtag  DW_TAG_typedef
    2621                            .dwattr $C$DW$T$51, DW_AT_name("FPTR_MINVAL_T")
    2622                            .dwattr $C$DW$T$51, DW_AT_type(*$C$DW$T$50)
    2623                            .dwattr $C$DW$T$51, DW_AT_language(DW_LANG_C)
    2624                            .dwattr $C$DW$T$51, DW_AT_decl_file("C:\ti\simplelink_cc13x0_sdk_2_30_00_20\source\ti\devices\
    2625                            .dwattr $C$DW$T$51, DW_AT_decl_line(0x53)
    2626                            .dwattr $C$DW$T$51, DW_AT_decl_column(0x19)
    2627                    
    2628                    $C$DW$T$54      .dwtag  DW_TAG_typedef
    2629                            .dwattr $C$DW$T$54, DW_AT_name("FPTR_STDDVAL_T")
    2630                            .dwattr $C$DW$T$54, DW_AT_type(*$C$DW$T$50)
    2631                            .dwattr $C$DW$T$54, DW_AT_language(DW_LANG_C)
    2632                            .dwattr $C$DW$T$54, DW_AT_decl_file("C:\ti\simplelink_cc13x0_sdk_2_30_00_20\source\ti\devices\
    2633                            .dwattr $C$DW$T$54, DW_AT_decl_line(0x5c)
    2634                            .dwattr $C$DW$T$54, DW_AT_decl_column(0x19)
    2635                    
    2636                    $C$DW$T$283     .dwtag  DW_TAG_typedef
    2637                            .dwattr $C$DW$T$283, DW_AT_name("__useconds_t")
    2638                            .dwattr $C$DW$T$283, DW_AT_type(*$C$DW$T$11)
    2639                            .dwattr $C$DW$T$283, DW_AT_language(DW_LANG_C)
    2640                            .dwattr $C$DW$T$283, DW_AT_decl_file("C:/ti/ccsv8/tools/compiler/ti-cgt-arm_18.1.3.LTS/include
TI ARM Assembler PC v18.1.3 Wed Nov 28 13:34:33 2018

Tools Copyright (c) 1996-2017 Texas Instruments Incorporated
C:\Users\Adrian\AppData\Local\Temp\{E185AECD-F423-44A6-B447-8E7B9B9A1395} PAGE   49

    2641                            .dwattr $C$DW$T$283, DW_AT_decl_line(0x49)
    2642                            .dwattr $C$DW$T$283, DW_AT_decl_column(0x16)
    2643                    
    2644                    $C$DW$T$89      .dwtag  DW_TAG_typedef
    2645                            .dwattr $C$DW$T$89, DW_AT_name("size_t")
    2646                            .dwattr $C$DW$T$89, DW_AT_type(*$C$DW$T$11)
    2647                            .dwattr $C$DW$T$89, DW_AT_language(DW_LANG_C)
    2648                            .dwattr $C$DW$T$89, DW_AT_decl_file("C:/ti/ccsv8/tools/compiler/ti-cgt-arm_18.1.3.LTS/include/
    2649                            .dwattr $C$DW$T$89, DW_AT_decl_line(0x68)
    2650                            .dwattr $C$DW$T$89, DW_AT_decl_column(0x19)
    2651                    
    2652                    $C$DW$T$12      .dwtag  DW_TAG_base_type
    2653                            .dwattr $C$DW$T$12, DW_AT_encoding(DW_ATE_signed)
    2654                            .dwattr $C$DW$T$12, DW_AT_name("long")
    2655                            .dwattr $C$DW$T$12, DW_AT_byte_size(0x04)
    2656                    
    2657                    $C$DW$T$284     .dwtag  DW_TAG_typedef
    2658                            .dwattr $C$DW$T$284, DW_AT_name("__key_t")
    2659                            .dwattr $C$DW$T$284, DW_AT_type(*$C$DW$T$12)
    2660                            .dwattr $C$DW$T$284, DW_AT_language(DW_LANG_C)
    2661                            .dwattr $C$DW$T$284, DW_AT_decl_file("C:/ti/ccsv8/tools/compiler/ti-cgt-arm_18.1.3.LTS/include
    2662                            .dwattr $C$DW$T$284, DW_AT_decl_line(0x37)
    2663                            .dwattr $C$DW$T$284, DW_AT_decl_column(0x0f)
    2664                    
    2665                    $C$DW$T$285     .dwtag  DW_TAG_typedef
    2666                            .dwattr $C$DW$T$285, DW_AT_name("__suseconds_t")
    2667                            .dwattr $C$DW$T$285, DW_AT_type(*$C$DW$T$12)
    2668                            .dwattr $C$DW$T$285, DW_AT_language(DW_LANG_C)
    2669                            .dwattr $C$DW$T$285, DW_AT_decl_file("C:/ti/ccsv8/tools/compiler/ti-cgt-arm_18.1.3.LTS/include
    2670                            .dwattr $C$DW$T$285, DW_AT_decl_line(0x45)
    2671                            .dwattr $C$DW$T$285, DW_AT_decl_column(0x0f)
    2672                    
    2673                    $C$DW$T$286     .dwtag  DW_TAG_typedef
    2674                            .dwattr $C$DW$T$286, DW_AT_name("int32")
    2675                            .dwattr $C$DW$T$286, DW_AT_type(*$C$DW$T$12)
    2676                            .dwattr $C$DW$T$286, DW_AT_language(DW_LANG_C)
    2677                            .dwattr $C$DW$T$286, DW_AT_decl_file("C:\ti\simplelink_cc13x0_sdk_2_30_00_20\source\ti\ti154st
    2678                            .dwattr $C$DW$T$286, DW_AT_decl_line(0x3e)
    2679                            .dwattr $C$DW$T$286, DW_AT_decl_column(0x19)
    2680                    
    2681                    $C$DW$T$13      .dwtag  DW_TAG_base_type
    2682                            .dwattr $C$DW$T$13, DW_AT_encoding(DW_ATE_unsigned)
    2683                            .dwattr $C$DW$T$13, DW_AT_name("unsigned long")
    2684                            .dwattr $C$DW$T$13, DW_AT_byte_size(0x04)
    2685                    
    2686                    $C$DW$T$287     .dwtag  DW_TAG_typedef
    2687                            .dwattr $C$DW$T$287, DW_AT_name("uint32")
    2688                            .dwattr $C$DW$T$287, DW_AT_type(*$C$DW$T$13)
    2689                            .dwattr $C$DW$T$287, DW_AT_language(DW_LANG_C)
    2690                            .dwattr $C$DW$T$287, DW_AT_decl_file("C:\ti\simplelink_cc13x0_sdk_2_30_00_20\source\ti\ti154st
    2691                            .dwattr $C$DW$T$287, DW_AT_decl_line(0x3f)
    2692                            .dwattr $C$DW$T$287, DW_AT_decl_column(0x19)
    2693                    
    2694                    $C$DW$T$288     .dwtag  DW_TAG_typedef
    2695                            .dwattr $C$DW$T$288, DW_AT_name("halDataAlign_t")
TI ARM Assembler PC v18.1.3 Wed Nov 28 13:34:33 2018

Tools Copyright (c) 1996-2017 Texas Instruments Incorporated
C:\Users\Adrian\AppData\Local\Temp\{E185AECD-F423-44A6-B447-8E7B9B9A1395} PAGE   50

    2696                            .dwattr $C$DW$T$288, DW_AT_type(*$C$DW$T$287)
    2697                            .dwattr $C$DW$T$288, DW_AT_language(DW_LANG_C)
    2698                            .dwattr $C$DW$T$288, DW_AT_decl_file("C:\ti\simplelink_cc13x0_sdk_2_30_00_20\source\ti\ti154st
    2699                            .dwattr $C$DW$T$288, DW_AT_decl_line(0x43)
    2700                            .dwattr $C$DW$T$288, DW_AT_decl_column(0x19)
    2701                    
    2702                    $C$DW$T$14      .dwtag  DW_TAG_base_type
    2703                            .dwattr $C$DW$T$14, DW_AT_encoding(DW_ATE_signed)
    2704                            .dwattr $C$DW$T$14, DW_AT_name("long long")
    2705                            .dwattr $C$DW$T$14, DW_AT_byte_size(0x08)
    2706                    
    2707                    $C$DW$T$289     .dwtag  DW_TAG_typedef
    2708                            .dwattr $C$DW$T$289, DW_AT_name("__int64_t")
    2709                            .dwattr $C$DW$T$289, DW_AT_type(*$C$DW$T$14)
    2710                            .dwattr $C$DW$T$289, DW_AT_language(DW_LANG_C)
    2711                            .dwattr $C$DW$T$289, DW_AT_decl_file("C:/ti/ccsv8/tools/compiler/ti-cgt-arm_18.1.3.LTS/include
    2712                            .dwattr $C$DW$T$289, DW_AT_decl_line(0x43)
    2713                            .dwattr $C$DW$T$289, DW_AT_decl_column(0x14)
    2714                    
    2715                    $C$DW$T$290     .dwtag  DW_TAG_typedef
    2716                            .dwattr $C$DW$T$290, DW_AT_name("__blkcnt_t")
    2717                            .dwattr $C$DW$T$290, DW_AT_type(*$C$DW$T$289)
    2718                            .dwattr $C$DW$T$290, DW_AT_language(DW_LANG_C)
    2719                            .dwattr $C$DW$T$290, DW_AT_decl_file("C:/ti/ccsv8/tools/compiler/ti-cgt-arm_18.1.3.LTS/include
    2720                            .dwattr $C$DW$T$290, DW_AT_decl_line(0x2f)
    2721                            .dwattr $C$DW$T$290, DW_AT_decl_column(0x13)
    2722                    
    2723                    $C$DW$T$291     .dwtag  DW_TAG_typedef
    2724                            .dwattr $C$DW$T$291, DW_AT_name("__id_t")
    2725                            .dwattr $C$DW$T$291, DW_AT_type(*$C$DW$T$289)
    2726                            .dwattr $C$DW$T$291, DW_AT_language(DW_LANG_C)
    2727                            .dwattr $C$DW$T$291, DW_AT_decl_file("C:/ti/ccsv8/tools/compiler/ti-cgt-arm_18.1.3.LTS/include
    2728                            .dwattr $C$DW$T$291, DW_AT_decl_line(0x35)
    2729                            .dwattr $C$DW$T$291, DW_AT_decl_column(0x13)
    2730                    
    2731                    $C$DW$T$292     .dwtag  DW_TAG_typedef
    2732                            .dwattr $C$DW$T$292, DW_AT_name("__int_fast64_t")
    2733                            .dwattr $C$DW$T$292, DW_AT_type(*$C$DW$T$289)
    2734                            .dwattr $C$DW$T$292, DW_AT_language(DW_LANG_C)
    2735                            .dwattr $C$DW$T$292, DW_AT_decl_file("C:/ti/ccsv8/tools/compiler/ti-cgt-arm_18.1.3.LTS/include
    2736                            .dwattr $C$DW$T$292, DW_AT_decl_line(0x57)
    2737                            .dwattr $C$DW$T$292, DW_AT_decl_column(0x13)
    2738                    
    2739                    $C$DW$T$293     .dwtag  DW_TAG_typedef
    2740                            .dwattr $C$DW$T$293, DW_AT_name("int_fast64_t")
    2741                            .dwattr $C$DW$T$293, DW_AT_type(*$C$DW$T$292)
    2742                            .dwattr $C$DW$T$293, DW_AT_language(DW_LANG_C)
    2743                            .dwattr $C$DW$T$293, DW_AT_decl_file("C:/ti/ccsv8/tools/compiler/ti-cgt-arm_18.1.3.LTS/include
    2744                            .dwattr $C$DW$T$293, DW_AT_decl_line(0x35)
    2745                            .dwattr $C$DW$T$293, DW_AT_decl_column(0x19)
    2746                    
    2747                    $C$DW$T$294     .dwtag  DW_TAG_typedef
    2748                            .dwattr $C$DW$T$294, DW_AT_name("__int_least64_t")
    2749                            .dwattr $C$DW$T$294, DW_AT_type(*$C$DW$T$289)
    2750                            .dwattr $C$DW$T$294, DW_AT_language(DW_LANG_C)
TI ARM Assembler PC v18.1.3 Wed Nov 28 13:34:33 2018

Tools Copyright (c) 1996-2017 Texas Instruments Incorporated
C:\Users\Adrian\AppData\Local\Temp\{E185AECD-F423-44A6-B447-8E7B9B9A1395} PAGE   51

    2751                            .dwattr $C$DW$T$294, DW_AT_decl_file("C:/ti/ccsv8/tools/compiler/ti-cgt-arm_18.1.3.LTS/include
    2752                            .dwattr $C$DW$T$294, DW_AT_decl_line(0x5b)
    2753                            .dwattr $C$DW$T$294, DW_AT_decl_column(0x13)
    2754                    
    2755                    $C$DW$T$295     .dwtag  DW_TAG_typedef
    2756                            .dwattr $C$DW$T$295, DW_AT_name("int_least64_t")
    2757                            .dwattr $C$DW$T$295, DW_AT_type(*$C$DW$T$294)
    2758                            .dwattr $C$DW$T$295, DW_AT_language(DW_LANG_C)
    2759                            .dwattr $C$DW$T$295, DW_AT_decl_file("C:/ti/ccsv8/tools/compiler/ti-cgt-arm_18.1.3.LTS/include
    2760                            .dwattr $C$DW$T$295, DW_AT_decl_line(0x2b)
    2761                            .dwattr $C$DW$T$295, DW_AT_decl_column(0x1a)
    2762                    
    2763                    $C$DW$T$296     .dwtag  DW_TAG_typedef
    2764                            .dwattr $C$DW$T$296, DW_AT_name("__intmax_t")
    2765                            .dwattr $C$DW$T$296, DW_AT_type(*$C$DW$T$289)
    2766                            .dwattr $C$DW$T$296, DW_AT_language(DW_LANG_C)
    2767                            .dwattr $C$DW$T$296, DW_AT_decl_file("C:/ti/ccsv8/tools/compiler/ti-cgt-arm_18.1.3.LTS/include
    2768                            .dwattr $C$DW$T$296, DW_AT_decl_line(0x52)
    2769                            .dwattr $C$DW$T$296, DW_AT_decl_column(0x13)
    2770                    
    2771                    $C$DW$T$297     .dwtag  DW_TAG_typedef
    2772                            .dwattr $C$DW$T$297, DW_AT_name("intmax_t")
    2773                            .dwattr $C$DW$T$297, DW_AT_type(*$C$DW$T$296)
    2774                            .dwattr $C$DW$T$297, DW_AT_language(DW_LANG_C)
    2775                            .dwattr $C$DW$T$297, DW_AT_decl_file("C:/ti/ccsv8/tools/compiler/ti-cgt-arm_18.1.3.LTS/include
    2776                            .dwattr $C$DW$T$297, DW_AT_decl_line(0x54)
    2777                            .dwattr $C$DW$T$297, DW_AT_decl_column(0x15)
    2778                    
    2779                    $C$DW$T$298     .dwtag  DW_TAG_typedef
    2780                            .dwattr $C$DW$T$298, DW_AT_name("__off64_t")
    2781                            .dwattr $C$DW$T$298, DW_AT_type(*$C$DW$T$289)
    2782                            .dwattr $C$DW$T$298, DW_AT_language(DW_LANG_C)
    2783                            .dwattr $C$DW$T$298, DW_AT_decl_file("C:/ti/ccsv8/tools/compiler/ti-cgt-arm_18.1.3.LTS/include
    2784                            .dwattr $C$DW$T$298, DW_AT_decl_line(0x3e)
    2785                            .dwattr $C$DW$T$298, DW_AT_decl_column(0x13)
    2786                    
    2787                    $C$DW$T$299     .dwtag  DW_TAG_typedef
    2788                            .dwattr $C$DW$T$299, DW_AT_name("__off_t")
    2789                            .dwattr $C$DW$T$299, DW_AT_type(*$C$DW$T$289)
    2790                            .dwattr $C$DW$T$299, DW_AT_language(DW_LANG_C)
    2791                            .dwattr $C$DW$T$299, DW_AT_decl_file("C:/ti/ccsv8/tools/compiler/ti-cgt-arm_18.1.3.LTS/include
    2792                            .dwattr $C$DW$T$299, DW_AT_decl_line(0x3d)
    2793                            .dwattr $C$DW$T$299, DW_AT_decl_column(0x13)
    2794                    
    2795                    $C$DW$T$300     .dwtag  DW_TAG_typedef
    2796                            .dwattr $C$DW$T$300, DW_AT_name("__rlim_t")
    2797                            .dwattr $C$DW$T$300, DW_AT_type(*$C$DW$T$289)
    2798                            .dwattr $C$DW$T$300, DW_AT_language(DW_LANG_C)
    2799                            .dwattr $C$DW$T$300, DW_AT_decl_file("C:/ti/ccsv8/tools/compiler/ti-cgt-arm_18.1.3.LTS/include
    2800                            .dwattr $C$DW$T$300, DW_AT_decl_line(0x40)
    2801                            .dwattr $C$DW$T$300, DW_AT_decl_column(0x13)
    2802                    
    2803                    $C$DW$T$301     .dwtag  DW_TAG_typedef
    2804                            .dwattr $C$DW$T$301, DW_AT_name("int64_t")
    2805                            .dwattr $C$DW$T$301, DW_AT_type(*$C$DW$T$289)
TI ARM Assembler PC v18.1.3 Wed Nov 28 13:34:33 2018

Tools Copyright (c) 1996-2017 Texas Instruments Incorporated
C:\Users\Adrian\AppData\Local\Temp\{E185AECD-F423-44A6-B447-8E7B9B9A1395} PAGE   52

    2806                            .dwattr $C$DW$T$301, DW_AT_language(DW_LANG_C)
    2807                            .dwattr $C$DW$T$301, DW_AT_decl_file("C:/ti/ccsv8/tools/compiler/ti-cgt-arm_18.1.3.LTS/include
    2808                            .dwattr $C$DW$T$301, DW_AT_decl_line(0x33)
    2809                            .dwattr $C$DW$T$301, DW_AT_decl_column(0x14)
    2810                    
    2811                    $C$DW$T$15      .dwtag  DW_TAG_base_type
    2812                            .dwattr $C$DW$T$15, DW_AT_encoding(DW_ATE_unsigned)
    2813                            .dwattr $C$DW$T$15, DW_AT_name("unsigned long long")
    2814                            .dwattr $C$DW$T$15, DW_AT_byte_size(0x08)
    2815                    
    2816                    $C$DW$T$302     .dwtag  DW_TAG_typedef
    2817                            .dwattr $C$DW$T$302, DW_AT_name("__uint64_t")
    2818                            .dwattr $C$DW$T$302, DW_AT_type(*$C$DW$T$15)
    2819                            .dwattr $C$DW$T$302, DW_AT_language(DW_LANG_C)
    2820                            .dwattr $C$DW$T$302, DW_AT_decl_file("C:/ti/ccsv8/tools/compiler/ti-cgt-arm_18.1.3.LTS/include
    2821                            .dwattr $C$DW$T$302, DW_AT_decl_line(0x48)
    2822                            .dwattr $C$DW$T$302, DW_AT_decl_column(0x1c)
    2823                    
    2824                    $C$DW$T$303     .dwtag  DW_TAG_typedef
    2825                            .dwattr $C$DW$T$303, DW_AT_name("__dev_t")
    2826                            .dwattr $C$DW$T$303, DW_AT_type(*$C$DW$T$302)
    2827                            .dwattr $C$DW$T$303, DW_AT_language(DW_LANG_C)
    2828                            .dwattr $C$DW$T$303, DW_AT_decl_file("C:/ti/ccsv8/tools/compiler/ti-cgt-arm_18.1.3.LTS/include
    2829                            .dwattr $C$DW$T$303, DW_AT_decl_line(0x74)
    2830                            .dwattr $C$DW$T$303, DW_AT_decl_column(0x14)
    2831                    
    2832                    $C$DW$T$304     .dwtag  DW_TAG_typedef
    2833                            .dwattr $C$DW$T$304, DW_AT_name("__fsblkcnt_t")
    2834                            .dwattr $C$DW$T$304, DW_AT_type(*$C$DW$T$302)
    2835                            .dwattr $C$DW$T$304, DW_AT_language(DW_LANG_C)
    2836                            .dwattr $C$DW$T$304, DW_AT_decl_file("C:/ti/ccsv8/tools/compiler/ti-cgt-arm_18.1.3.LTS/include
    2837                            .dwattr $C$DW$T$304, DW_AT_decl_line(0x32)
    2838                            .dwattr $C$DW$T$304, DW_AT_decl_column(0x14)
    2839                    
    2840                    $C$DW$T$305     .dwtag  DW_TAG_typedef
    2841                            .dwattr $C$DW$T$305, DW_AT_name("__fsfilcnt_t")
    2842                            .dwattr $C$DW$T$305, DW_AT_type(*$C$DW$T$302)
    2843                            .dwattr $C$DW$T$305, DW_AT_language(DW_LANG_C)
    2844                            .dwattr $C$DW$T$305, DW_AT_decl_file("C:/ti/ccsv8/tools/compiler/ti-cgt-arm_18.1.3.LTS/include
    2845                            .dwattr $C$DW$T$305, DW_AT_decl_line(0x33)
    2846                            .dwattr $C$DW$T$305, DW_AT_decl_column(0x14)
    2847                    
    2848                    $C$DW$T$306     .dwtag  DW_TAG_typedef
    2849                            .dwattr $C$DW$T$306, DW_AT_name("__ino_t")
    2850                            .dwattr $C$DW$T$306, DW_AT_type(*$C$DW$T$302)
    2851                            .dwattr $C$DW$T$306, DW_AT_language(DW_LANG_C)
    2852                            .dwattr $C$DW$T$306, DW_AT_decl_file("C:/ti/ccsv8/tools/compiler/ti-cgt-arm_18.1.3.LTS/include
    2853                            .dwattr $C$DW$T$306, DW_AT_decl_line(0x36)
    2854                            .dwattr $C$DW$T$306, DW_AT_decl_column(0x14)
    2855                    
    2856                    $C$DW$T$307     .dwtag  DW_TAG_typedef
    2857                            .dwattr $C$DW$T$307, DW_AT_name("__nlink_t")
    2858                            .dwattr $C$DW$T$307, DW_AT_type(*$C$DW$T$302)
    2859                            .dwattr $C$DW$T$307, DW_AT_language(DW_LANG_C)
    2860                            .dwattr $C$DW$T$307, DW_AT_decl_file("C:/ti/ccsv8/tools/compiler/ti-cgt-arm_18.1.3.LTS/include
TI ARM Assembler PC v18.1.3 Wed Nov 28 13:34:33 2018

Tools Copyright (c) 1996-2017 Texas Instruments Incorporated
C:\Users\Adrian\AppData\Local\Temp\{E185AECD-F423-44A6-B447-8E7B9B9A1395} PAGE   53

    2861                            .dwattr $C$DW$T$307, DW_AT_decl_line(0x3c)
    2862                            .dwattr $C$DW$T$307, DW_AT_decl_column(0x14)
    2863                    
    2864                    $C$DW$T$308     .dwtag  DW_TAG_typedef
    2865                            .dwattr $C$DW$T$308, DW_AT_name("__uint_fast64_t")
    2866                            .dwattr $C$DW$T$308, DW_AT_type(*$C$DW$T$302)
    2867                            .dwattr $C$DW$T$308, DW_AT_language(DW_LANG_C)
    2868                            .dwattr $C$DW$T$308, DW_AT_decl_file("C:/ti/ccsv8/tools/compiler/ti-cgt-arm_18.1.3.LTS/include
    2869                            .dwattr $C$DW$T$308, DW_AT_decl_line(0x6c)
    2870                            .dwattr $C$DW$T$308, DW_AT_decl_column(0x14)
    2871                    
    2872                    $C$DW$T$309     .dwtag  DW_TAG_typedef
    2873                            .dwattr $C$DW$T$309, DW_AT_name("uint_fast64_t")
    2874                            .dwattr $C$DW$T$309, DW_AT_type(*$C$DW$T$308)
    2875                            .dwattr $C$DW$T$309, DW_AT_language(DW_LANG_C)
    2876                            .dwattr $C$DW$T$309, DW_AT_decl_file("C:/ti/ccsv8/tools/compiler/ti-cgt-arm_18.1.3.LTS/include
    2877                            .dwattr $C$DW$T$309, DW_AT_decl_line(0x3a)
    2878                            .dwattr $C$DW$T$309, DW_AT_decl_column(0x1a)
    2879                    
    2880                    $C$DW$T$310     .dwtag  DW_TAG_typedef
    2881                            .dwattr $C$DW$T$310, DW_AT_name("__uint_least64_t")
    2882                            .dwattr $C$DW$T$310, DW_AT_type(*$C$DW$T$302)
    2883                            .dwattr $C$DW$T$310, DW_AT_language(DW_LANG_C)
    2884                            .dwattr $C$DW$T$310, DW_AT_decl_file("C:/ti/ccsv8/tools/compiler/ti-cgt-arm_18.1.3.LTS/include
    2885                            .dwattr $C$DW$T$310, DW_AT_decl_line(0x70)
    2886                            .dwattr $C$DW$T$310, DW_AT_decl_column(0x14)
    2887                    
    2888                    $C$DW$T$311     .dwtag  DW_TAG_typedef
    2889                            .dwattr $C$DW$T$311, DW_AT_name("uint_least64_t")
    2890                            .dwattr $C$DW$T$311, DW_AT_type(*$C$DW$T$310)
    2891                            .dwattr $C$DW$T$311, DW_AT_language(DW_LANG_C)
    2892                            .dwattr $C$DW$T$311, DW_AT_decl_file("C:/ti/ccsv8/tools/compiler/ti-cgt-arm_18.1.3.LTS/include
    2893                            .dwattr $C$DW$T$311, DW_AT_decl_line(0x30)
    2894                            .dwattr $C$DW$T$311, DW_AT_decl_column(0x1a)
    2895                    
    2896                    $C$DW$T$312     .dwtag  DW_TAG_typedef
    2897                            .dwattr $C$DW$T$312, DW_AT_name("__uintmax_t")
    2898                            .dwattr $C$DW$T$312, DW_AT_type(*$C$DW$T$302)
    2899                            .dwattr $C$DW$T$312, DW_AT_language(DW_LANG_C)
    2900                            .dwattr $C$DW$T$312, DW_AT_decl_file("C:/ti/ccsv8/tools/compiler/ti-cgt-arm_18.1.3.LTS/include
    2901                            .dwattr $C$DW$T$312, DW_AT_decl_line(0x67)
    2902                            .dwattr $C$DW$T$312, DW_AT_decl_column(0x14)
    2903                    
    2904                    $C$DW$T$313     .dwtag  DW_TAG_typedef
    2905                            .dwattr $C$DW$T$313, DW_AT_name("__rman_res_t")
    2906                            .dwattr $C$DW$T$313, DW_AT_type(*$C$DW$T$312)
    2907                            .dwattr $C$DW$T$313, DW_AT_language(DW_LANG_C)
    2908                            .dwattr $C$DW$T$313, DW_AT_decl_file("C:/ti/ccsv8/tools/compiler/ti-cgt-arm_18.1.3.LTS/include
    2909                            .dwattr $C$DW$T$313, DW_AT_decl_line(0x8f)
    2910                            .dwattr $C$DW$T$313, DW_AT_decl_column(0x19)
    2911                    
    2912                    $C$DW$T$314     .dwtag  DW_TAG_typedef
    2913                            .dwattr $C$DW$T$314, DW_AT_name("uintmax_t")
    2914                            .dwattr $C$DW$T$314, DW_AT_type(*$C$DW$T$312)
    2915                            .dwattr $C$DW$T$314, DW_AT_language(DW_LANG_C)
TI ARM Assembler PC v18.1.3 Wed Nov 28 13:34:33 2018

Tools Copyright (c) 1996-2017 Texas Instruments Incorporated
C:\Users\Adrian\AppData\Local\Temp\{E185AECD-F423-44A6-B447-8E7B9B9A1395} PAGE   54

    2916                            .dwattr $C$DW$T$314, DW_AT_decl_file("C:/ti/ccsv8/tools/compiler/ti-cgt-arm_18.1.3.LTS/include
    2917                            .dwattr $C$DW$T$314, DW_AT_decl_line(0x58)
    2918                            .dwattr $C$DW$T$314, DW_AT_decl_column(0x16)
    2919                    
    2920                    $C$DW$T$315     .dwtag  DW_TAG_typedef
    2921                            .dwattr $C$DW$T$315, DW_AT_name("uint64_t")
    2922                            .dwattr $C$DW$T$315, DW_AT_type(*$C$DW$T$302)
    2923                            .dwattr $C$DW$T$315, DW_AT_language(DW_LANG_C)
    2924                            .dwattr $C$DW$T$315, DW_AT_decl_file("C:/ti/ccsv8/tools/compiler/ti-cgt-arm_18.1.3.LTS/include
    2925                            .dwattr $C$DW$T$315, DW_AT_decl_line(0x47)
    2926                            .dwattr $C$DW$T$315, DW_AT_decl_column(0x15)
    2927                    
    2928                    $C$DW$T$16      .dwtag  DW_TAG_base_type
    2929                            .dwattr $C$DW$T$16, DW_AT_encoding(DW_ATE_float)
    2930                            .dwattr $C$DW$T$16, DW_AT_name("float")
    2931                            .dwattr $C$DW$T$16, DW_AT_byte_size(0x04)
    2932                    
    2933                    $C$DW$T$316     .dwtag  DW_TAG_typedef
    2934                            .dwattr $C$DW$T$316, DW_AT_name("__float_t")
    2935                            .dwattr $C$DW$T$316, DW_AT_type(*$C$DW$T$16)
    2936                            .dwattr $C$DW$T$316, DW_AT_language(DW_LANG_C)
    2937                            .dwattr $C$DW$T$316, DW_AT_decl_file("C:/ti/ccsv8/tools/compiler/ti-cgt-arm_18.1.3.LTS/include
    2938                            .dwattr $C$DW$T$316, DW_AT_decl_line(0x50)
    2939                            .dwattr $C$DW$T$316, DW_AT_decl_column(0x10)
    2940                    
    2941                    $C$DW$T$17      .dwtag  DW_TAG_base_type
    2942                            .dwattr $C$DW$T$17, DW_AT_encoding(DW_ATE_float)
    2943                            .dwattr $C$DW$T$17, DW_AT_name("double")
    2944                            .dwattr $C$DW$T$17, DW_AT_byte_size(0x08)
    2945                    
    2946                    $C$DW$T$317     .dwtag  DW_TAG_typedef
    2947                            .dwattr $C$DW$T$317, DW_AT_name("__double_t")
    2948                            .dwattr $C$DW$T$317, DW_AT_type(*$C$DW$T$17)
    2949                            .dwattr $C$DW$T$317, DW_AT_language(DW_LANG_C)
    2950                            .dwattr $C$DW$T$317, DW_AT_decl_file("C:/ti/ccsv8/tools/compiler/ti-cgt-arm_18.1.3.LTS/include
    2951                            .dwattr $C$DW$T$317, DW_AT_decl_line(0x4f)
    2952                            .dwattr $C$DW$T$317, DW_AT_decl_column(0x11)
    2953                    
    2954                    $C$DW$T$18      .dwtag  DW_TAG_base_type
    2955                            .dwattr $C$DW$T$18, DW_AT_encoding(DW_ATE_float)
    2956                            .dwattr $C$DW$T$18, DW_AT_name("long double")
    2957                            .dwattr $C$DW$T$18, DW_AT_byte_size(0x08)
    2958                    
    2959                    $C$DW$T$111     .dwtag  DW_TAG_base_type
    2960                            .dwattr $C$DW$T$111, DW_AT_encoding(DW_ATE_unsigned_char)
    2961                            .dwattr $C$DW$T$111, DW_AT_name("unsigned char")
    2962                            .dwattr $C$DW$T$111, DW_AT_byte_size(0x01)
    2963                    
    2964                    
    2965                    $C$DW$T$162     .dwtag  DW_TAG_subroutine_type
    2966                            .dwattr $C$DW$T$162, DW_AT_type(*$C$DW$T$111)
    2967                            .dwattr $C$DW$T$162, DW_AT_language(DW_LANG_C)
    2968                    $C$DW$146       .dwtag  DW_TAG_formal_parameter
    2969                            .dwattr $C$DW$146, DW_AT_type(*$C$DW$T$83)
    2970                    
TI ARM Assembler PC v18.1.3 Wed Nov 28 13:34:33 2018

Tools Copyright (c) 1996-2017 Texas Instruments Incorporated
C:\Users\Adrian\AppData\Local\Temp\{E185AECD-F423-44A6-B447-8E7B9B9A1395} PAGE   55

    2971                    $C$DW$147       .dwtag  DW_TAG_formal_parameter
    2972                            .dwattr $C$DW$147, DW_AT_type(*$C$DW$T$80)
    2973                    
    2974                    $C$DW$148       .dwtag  DW_TAG_formal_parameter
    2975                            .dwattr $C$DW$148, DW_AT_type(*$C$DW$T$161)
    2976                    
    2977                            .dwendtag $C$DW$T$162
    2978                    
    2979                    $C$DW$T$163     .dwtag  DW_TAG_pointer_type
    2980                            .dwattr $C$DW$T$163, DW_AT_type(*$C$DW$T$162)
    2981                            .dwattr $C$DW$T$163, DW_AT_address_class(0x20)
    2982                    
    2983                    $C$DW$T$164     .dwtag  DW_TAG_typedef
    2984                            .dwattr $C$DW$T$164, DW_AT_name("ICall_MsgMatchFn")
    2985                            .dwattr $C$DW$T$164, DW_AT_type(*$C$DW$T$163)
    2986                            .dwattr $C$DW$T$164, DW_AT_language(DW_LANG_C)
    2987                            .dwattr $C$DW$T$164, DW_AT_decl_file("C:/ti/simplelink_cc13x0_sdk_2_30_00_20/source/ti/ti154st
    2988                            .dwattr $C$DW$T$164, DW_AT_decl_line(0x1c1)
    2989                            .dwattr $C$DW$T$164, DW_AT_decl_column(0x10)
    2990                    
    2991                    
    2992                    $C$DW$T$19      .dwtag  DW_TAG_structure_type
    2993                            .dwattr $C$DW$T$19, DW_AT_name("__mq")
    2994                            .dwattr $C$DW$T$19, DW_AT_declaration
    2995                            .dwattr $C$DW$T$19, DW_AT_decl_file("C:/ti/ccsv8/tools/compiler/ti-cgt-arm_18.1.3.LTS/include/
    2996                            .dwattr $C$DW$T$19, DW_AT_decl_line(0x47)
    2997                            .dwattr $C$DW$T$19, DW_AT_decl_column(0x10)
    2998                            .dwendtag $C$DW$T$19
    2999                    
    3000                    $C$DW$T$319     .dwtag  DW_TAG_pointer_type
    3001                            .dwattr $C$DW$T$319, DW_AT_type(*$C$DW$T$19)
    3002                            .dwattr $C$DW$T$319, DW_AT_address_class(0x20)
    3003                    
    3004                    $C$DW$T$320     .dwtag  DW_TAG_typedef
    3005                            .dwattr $C$DW$T$320, DW_AT_name("__mqd_t")
    3006                            .dwattr $C$DW$T$320, DW_AT_type(*$C$DW$T$319)
    3007                            .dwattr $C$DW$T$320, DW_AT_language(DW_LANG_C)
    3008                            .dwattr $C$DW$T$320, DW_AT_decl_file("C:/ti/ccsv8/tools/compiler/ti-cgt-arm_18.1.3.LTS/include
    3009                            .dwattr $C$DW$T$320, DW_AT_decl_line(0x47)
    3010                            .dwattr $C$DW$T$320, DW_AT_decl_column(0x16)
    3011                    
    3012                    
    3013                    $C$DW$T$20      .dwtag  DW_TAG_structure_type
    3014                            .dwattr $C$DW$T$20, DW_AT_name("__timer")
    3015                            .dwattr $C$DW$T$20, DW_AT_declaration
    3016                            .dwattr $C$DW$T$20, DW_AT_decl_file("C:/ti/ccsv8/tools/compiler/ti-cgt-arm_18.1.3.LTS/include/
    3017                            .dwattr $C$DW$T$20, DW_AT_decl_line(0x46)
    3018                            .dwattr $C$DW$T$20, DW_AT_decl_column(0x10)
    3019                            .dwendtag $C$DW$T$20
    3020                    
    3021                    $C$DW$T$321     .dwtag  DW_TAG_pointer_type
    3022                            .dwattr $C$DW$T$321, DW_AT_type(*$C$DW$T$20)
    3023                            .dwattr $C$DW$T$321, DW_AT_address_class(0x20)
    3024                    
    3025                    $C$DW$T$322     .dwtag  DW_TAG_typedef
TI ARM Assembler PC v18.1.3 Wed Nov 28 13:34:33 2018

Tools Copyright (c) 1996-2017 Texas Instruments Incorporated
C:\Users\Adrian\AppData\Local\Temp\{E185AECD-F423-44A6-B447-8E7B9B9A1395} PAGE   56

    3026                            .dwattr $C$DW$T$322, DW_AT_name("__timer_t")
    3027                            .dwattr $C$DW$T$322, DW_AT_type(*$C$DW$T$321)
    3028                            .dwattr $C$DW$T$322, DW_AT_language(DW_LANG_C)
    3029                            .dwattr $C$DW$T$322, DW_AT_decl_file("C:/ti/ccsv8/tools/compiler/ti-cgt-arm_18.1.3.LTS/include
    3030                            .dwattr $C$DW$T$322, DW_AT_decl_line(0x46)
    3031                            .dwattr $C$DW$T$322, DW_AT_decl_column(0x19)
    3032                    
    3033                    
    3034                    $C$DW$T$87      .dwtag  DW_TAG_structure_type
    3035                            .dwattr $C$DW$T$87, DW_AT_name("__va_list_t")
    3036                            .dwattr $C$DW$T$87, DW_AT_byte_size(0x04)
    3037                    $C$DW$149       .dwtag  DW_TAG_member
    3038                            .dwattr $C$DW$149, DW_AT_type(*$C$DW$T$3)
    3039                            .dwattr $C$DW$149, DW_AT_name("__ap")
    3040                            .dwattr $C$DW$149, DW_AT_TI_symbol_name("__ap")
    3041                            .dwattr $C$DW$149, DW_AT_data_member_location[DW_OP_plus_uconst 0x0]
    3042                            .dwattr $C$DW$149, DW_AT_accessibility(DW_ACCESS_public)
    3043                            .dwattr $C$DW$149, DW_AT_decl_file("C:/ti/ccsv8/tools/compiler/ti-cgt-arm_18.1.3.LTS/include/m
    3044                            .dwattr $C$DW$149, DW_AT_decl_line(0x88)
    3045                            .dwattr $C$DW$149, DW_AT_decl_column(0x0c)
    3046                    
    3047                            .dwattr $C$DW$T$87, DW_AT_decl_file("C:/ti/ccsv8/tools/compiler/ti-cgt-arm_18.1.3.LTS/include/
    3048                            .dwattr $C$DW$T$87, DW_AT_decl_line(0x87)
    3049                            .dwattr $C$DW$T$87, DW_AT_decl_column(0x10)
    3050                            .dwendtag $C$DW$T$87
    3051                    
    3052                    $C$DW$T$323     .dwtag  DW_TAG_typedef
    3053                            .dwattr $C$DW$T$323, DW_AT_name("__va_list")
    3054                            .dwattr $C$DW$T$323, DW_AT_type(*$C$DW$T$87)
    3055                            .dwattr $C$DW$T$323, DW_AT_language(DW_LANG_C)
    3056                            .dwattr $C$DW$T$323, DW_AT_decl_file("C:/ti/ccsv8/tools/compiler/ti-cgt-arm_18.1.3.LTS/include
    3057                            .dwattr $C$DW$T$323, DW_AT_decl_line(0x89)
    3058                            .dwattr $C$DW$T$323, DW_AT_decl_column(0x03)
    3059                    
    3060                    
    3061                    $C$DW$T$90      .dwtag  DW_TAG_structure_type
    3062                            .dwattr $C$DW$T$90, DW_AT_name("_icall_alloc_args_t")
    3063                            .dwattr $C$DW$T$90, DW_AT_byte_size(0x0c)
    3064                    $C$DW$150       .dwtag  DW_TAG_member
    3065                            .dwattr $C$DW$150, DW_AT_type(*$C$DW$T$88)
    3066                            .dwattr $C$DW$150, DW_AT_name("hdr")
    3067                            .dwattr $C$DW$150, DW_AT_TI_symbol_name("hdr")
    3068                            .dwattr $C$DW$150, DW_AT_data_member_location[DW_OP_plus_uconst 0x0]
    3069                            .dwattr $C$DW$150, DW_AT_accessibility(DW_ACCESS_public)
    3070                            .dwattr $C$DW$150, DW_AT_decl_file("C:/ti/simplelink_cc13x0_sdk_2_30_00_20/source/ti/ti154stac
    3071                            .dwattr $C$DW$150, DW_AT_decl_line(0x1e3)
    3072                            .dwattr $C$DW$150, DW_AT_decl_column(0x15)
    3073                    
    3074                    $C$DW$151       .dwtag  DW_TAG_member
    3075                            .dwattr $C$DW$151, DW_AT_type(*$C$DW$T$89)
    3076                            .dwattr $C$DW$151, DW_AT_name("size")
    3077                            .dwattr $C$DW$151, DW_AT_TI_symbol_name("size")
    3078                            .dwattr $C$DW$151, DW_AT_data_member_location[DW_OP_plus_uconst 0x4]
    3079                            .dwattr $C$DW$151, DW_AT_accessibility(DW_ACCESS_public)
    3080                            .dwattr $C$DW$151, DW_AT_decl_file("C:/ti/simplelink_cc13x0_sdk_2_30_00_20/source/ti/ti154stac
TI ARM Assembler PC v18.1.3 Wed Nov 28 13:34:33 2018

Tools Copyright (c) 1996-2017 Texas Instruments Incorporated
C:\Users\Adrian\AppData\Local\Temp\{E185AECD-F423-44A6-B447-8E7B9B9A1395} PAGE   57

    3081                            .dwattr $C$DW$151, DW_AT_decl_line(0x1e5)
    3082                            .dwattr $C$DW$151, DW_AT_decl_column(0x0a)
    3083                    
    3084                    $C$DW$152       .dwtag  DW_TAG_member
    3085                            .dwattr $C$DW$152, DW_AT_type(*$C$DW$T$3)
    3086                            .dwattr $C$DW$152, DW_AT_name("ptr")
    3087                            .dwattr $C$DW$152, DW_AT_TI_symbol_name("ptr")
    3088                            .dwattr $C$DW$152, DW_AT_data_member_location[DW_OP_plus_uconst 0x8]
    3089                            .dwattr $C$DW$152, DW_AT_accessibility(DW_ACCESS_public)
    3090                            .dwattr $C$DW$152, DW_AT_decl_file("C:/ti/simplelink_cc13x0_sdk_2_30_00_20/source/ti/ti154stac
    3091                            .dwattr $C$DW$152, DW_AT_decl_line(0x1e7)
    3092                            .dwattr $C$DW$152, DW_AT_decl_column(0x0a)
    3093                    
    3094                            .dwattr $C$DW$T$90, DW_AT_decl_file("C:/ti/simplelink_cc13x0_sdk_2_30_00_20/source/ti/ti154sta
    3095                            .dwattr $C$DW$T$90, DW_AT_decl_line(0x1e0)
    3096                            .dwattr $C$DW$T$90, DW_AT_decl_column(0x10)
    3097                            .dwendtag $C$DW$T$90
    3098                    
    3099                    $C$DW$T$324     .dwtag  DW_TAG_typedef
    3100                            .dwattr $C$DW$T$324, DW_AT_name("ICall_AllocArgs")
    3101                            .dwattr $C$DW$T$324, DW_AT_type(*$C$DW$T$90)
    3102                            .dwattr $C$DW$T$324, DW_AT_language(DW_LANG_C)
    3103                            .dwattr $C$DW$T$324, DW_AT_decl_file("C:/ti/simplelink_cc13x0_sdk_2_30_00_20/source/ti/ti154st
    3104                            .dwattr $C$DW$T$324, DW_AT_decl_line(0x1e8)
    3105                            .dwattr $C$DW$T$324, DW_AT_decl_column(0x03)
    3106                    
    3107                    
