TI ARM Assembler PC v18.1.3 Wed Nov 28 13:34:33 2018

Tools Copyright (c) 1996-2017 Texas Instruments Incorporated
C:\Users\Adrian\AppData\Local\Temp\{1C8A0939-AB27-43CE-9698-03BC42AA3FBD} PAGE    1

       1                    ;******************************************************************************
       2                    ;* TI ARM C/C++ Codegen                                        PC v18.1.3.LTS *
       3                    ;* Date/Time created: Wed Nov 28 13:34:33 2018                                *
       4                    ;******************************************************************************
       5                            .compiler_opts --abi=eabi --arm_vmrs_si_workaround=off --code_state=16 --diag_wrap=off --embed
       6 00000000                   .thumb
       7                    
       8                    $C$DW$CU        .dwtag  DW_TAG_compile_unit
       9                            .dwattr $C$DW$CU, DW_AT_name("../Application/MAC/HAL/target/hal_aes.c")
      10                            .dwattr $C$DW$CU, DW_AT_producer("TI TI ARM C/C++ Codegen PC v18.1.3.LTS Copyright (c) 1996-20
      11                            .dwattr $C$DW$CU, DW_AT_TI_version(0x01)
      12                            .dwattr $C$DW$CU, DW_AT_comp_dir("C:\Users\Adrian\workspace_v8\sensor_cc1350lp\sensor_cc1350lp
      13                    
      14                    $C$DW$1 .dwtag  DW_TAG_subprogram
      15                            .dwattr $C$DW$1, DW_AT_name("CRYPTOAesEcbFinish")
      16                            .dwattr $C$DW$1, DW_AT_TI_symbol_name("CRYPTOAesEcbFinish")
      17                            .dwattr $C$DW$1, DW_AT_declaration
      18                            .dwattr $C$DW$1, DW_AT_external
      19                            .dwattr $C$DW$1, DW_AT_decl_file("C:/ti/simplelink_cc13x0_sdk_2_30_00_20/source/ti/devices/cc1
      20                            .dwattr $C$DW$1, DW_AT_decl_line(0x160)
      21                            .dwattr $C$DW$1, DW_AT_decl_column(0x01)
      22                            .dwendtag $C$DW$1
      23                    
      24                            .global pSspAesEncrypt
      25 00000000                   .data
      26                            .align  4
      27                            .elfsym pSspAesEncrypt,SYM_SIZE(4)
      28 00000000           pSspAesEncrypt:
      29 00000000 00000000          .bits   0,32                    ; pSspAesEncrypt @ 0
      30                    
      31                    $C$DW$2 .dwtag  DW_TAG_variable
      32                            .dwattr $C$DW$2, DW_AT_name("pSspAesEncrypt")
      33                            .dwattr $C$DW$2, DW_AT_TI_symbol_name("pSspAesEncrypt")
      34                            .dwattr $C$DW$2, DW_AT_location[DW_OP_addr pSspAesEncrypt]
      35                            .dwattr $C$DW$2, DW_AT_type(*$C$DW$T$187)
      36                            .dwattr $C$DW$2, DW_AT_external
      37                            .dwattr $C$DW$2, DW_AT_decl_file("../Application/MAC/HAL/target/hal_aes.c")
      38                            .dwattr $C$DW$2, DW_AT_decl_line(0x4a)
      39                            .dwattr $C$DW$2, DW_AT_decl_column(0x08)
      40                    
      41                    
      42                    $C$DW$3 .dwtag  DW_TAG_subprogram
      43                            .dwattr $C$DW$3, DW_AT_name("NOROM_CRYPTOAesLoadKey")
      44                            .dwattr $C$DW$3, DW_AT_TI_symbol_name("NOROM_CRYPTOAesLoadKey")
      45                            .dwattr $C$DW$3, DW_AT_type(*$C$DW$T$23)
      46                            .dwattr $C$DW$3, DW_AT_declaration
      47                            .dwattr $C$DW$3, DW_AT_external
      48                            .dwattr $C$DW$3, DW_AT_decl_file("C:/ti/simplelink_cc13x0_sdk_2_30_00_20/source/ti/devices/cc1
      49                            .dwattr $C$DW$3, DW_AT_decl_line(0xe6)
      50                            .dwattr $C$DW$3, DW_AT_decl_column(0x11)
      51                    $C$DW$4 .dwtag  DW_TAG_formal_parameter
      52                            .dwattr $C$DW$4, DW_AT_type(*$C$DW$T$48)
      53                    
      54                    $C$DW$5 .dwtag  DW_TAG_formal_parameter
      55                            .dwattr $C$DW$5, DW_AT_type(*$C$DW$T$23)
TI ARM Assembler PC v18.1.3 Wed Nov 28 13:34:33 2018

Tools Copyright (c) 1996-2017 Texas Instruments Incorporated
C:\Users\Adrian\AppData\Local\Temp\{1C8A0939-AB27-43CE-9698-03BC42AA3FBD} PAGE    2

      56                    
      57                            .dwendtag $C$DW$3
      58                    
      59                    
      60                    $C$DW$6 .dwtag  DW_TAG_subprogram
      61                            .dwattr $C$DW$6, DW_AT_name("NOROM_CRYPTOAesEcb")
      62                            .dwattr $C$DW$6, DW_AT_TI_symbol_name("NOROM_CRYPTOAesEcb")
      63                            .dwattr $C$DW$6, DW_AT_type(*$C$DW$T$23)
      64                            .dwattr $C$DW$6, DW_AT_declaration
      65                            .dwattr $C$DW$6, DW_AT_external
      66                            .dwattr $C$DW$6, DW_AT_decl_file("C:/ti/simplelink_cc13x0_sdk_2_30_00_20/source/ti/devices/cc1
      67                            .dwattr $C$DW$6, DW_AT_decl_line(0x13e)
      68                            .dwattr $C$DW$6, DW_AT_decl_column(0x11)
      69                    $C$DW$7 .dwtag  DW_TAG_formal_parameter
      70                            .dwattr $C$DW$7, DW_AT_type(*$C$DW$T$48)
      71                    
      72                    $C$DW$8 .dwtag  DW_TAG_formal_parameter
      73                            .dwattr $C$DW$8, DW_AT_type(*$C$DW$T$48)
      74                    
      75                    $C$DW$9 .dwtag  DW_TAG_formal_parameter
      76                            .dwattr $C$DW$9, DW_AT_type(*$C$DW$T$23)
      77                    
      78                    $C$DW$10        .dwtag  DW_TAG_formal_parameter
      79                            .dwattr $C$DW$10, DW_AT_type(*$C$DW$T$111)
      80                    
      81                    $C$DW$11        .dwtag  DW_TAG_formal_parameter
      82                            .dwattr $C$DW$11, DW_AT_type(*$C$DW$T$111)
      83                    
      84                            .dwendtag $C$DW$6
      85                    
      86                    
      87                    $C$DW$12        .dwtag  DW_TAG_subprogram
      88                            .dwattr $C$DW$12, DW_AT_name("NOROM_CRYPTOAesEcbStatus")
      89                            .dwattr $C$DW$12, DW_AT_TI_symbol_name("NOROM_CRYPTOAesEcbStatus")
      90                            .dwattr $C$DW$12, DW_AT_type(*$C$DW$T$23)
      91                            .dwattr $C$DW$12, DW_AT_declaration
      92                            .dwattr $C$DW$12, DW_AT_external
      93                            .dwattr $C$DW$12, DW_AT_decl_file("C:/ti/simplelink_cc13x0_sdk_2_30_00_20/source/ti/devices/cc
      94                            .dwattr $C$DW$12, DW_AT_decl_line(0x151)
      95                            .dwattr $C$DW$12, DW_AT_decl_column(0x11)
      96                            .dwendtag $C$DW$12
      97                    
      98                    ;       C:\ti\ccsv8\tools\compiler\ti-cgt-arm_18.1.3.LTS\bin\armopt.exe C:/Users/Adrian/workspace_v8/s
      99 00000000                   .sect   ".text:ssp_HW_KeyInit"
     100                            .clink
     101                            .thumbfunc ssp_HW_KeyInit
     102 00000000                   .thumb
     103                            .global ssp_HW_KeyInit
     104                    
     105                    $C$DW$13        .dwtag  DW_TAG_subprogram
     106                            .dwattr $C$DW$13, DW_AT_name("ssp_HW_KeyInit")
     107                            .dwattr $C$DW$13, DW_AT_low_pc(ssp_HW_KeyInit)
     108                            .dwattr $C$DW$13, DW_AT_high_pc(0x00)
     109                            .dwattr $C$DW$13, DW_AT_TI_symbol_name("ssp_HW_KeyInit")
     110                            .dwattr $C$DW$13, DW_AT_external
TI ARM Assembler PC v18.1.3 Wed Nov 28 13:34:33 2018

Tools Copyright (c) 1996-2017 Texas Instruments Incorporated
C:\Users\Adrian\AppData\Local\Temp\{1C8A0939-AB27-43CE-9698-03BC42AA3FBD} PAGE    3

     111                            .dwattr $C$DW$13, DW_AT_TI_begin_file("../Application/MAC/HAL/target/hal_aes.c")
     112                            .dwattr $C$DW$13, DW_AT_TI_begin_line(0x6d)
     113                            .dwattr $C$DW$13, DW_AT_TI_begin_column(0x06)
     114                            .dwattr $C$DW$13, DW_AT_decl_file("../Application/MAC/HAL/target/hal_aes.c")
     115                            .dwattr $C$DW$13, DW_AT_decl_line(0x6d)
     116                            .dwattr $C$DW$13, DW_AT_decl_column(0x06)
     117                            .dwattr $C$DW$13, DW_AT_TI_max_frame_size(0x00)
     118                            .dwpsn  file "../Application/MAC/HAL/target/hal_aes.c",line 110,column 1,is_stmt,address ssp_H
     119                    
     120                            .dwfde $C$DW$CIE, ssp_HW_KeyInit
     121                    $C$DW$14        .dwtag  DW_TAG_formal_parameter
     122                            .dwattr $C$DW$14, DW_AT_name("AesKey")
     123                            .dwattr $C$DW$14, DW_AT_TI_symbol_name("AesKey")
     124                            .dwattr $C$DW$14, DW_AT_type(*$C$DW$T$184)
     125                            .dwattr $C$DW$14, DW_AT_location[DW_OP_reg0]
     126                    
     127                    
     128                    ;*****************************************************************************
     129                    ;* FUNCTION NAME: ssp_HW_KeyInit                                             *
     130                    ;*                                                                           *
     131                    ;*   Regs Modified     : A1,A2,A3,A4,V9,LR,SR                                *
     132                    ;*   Regs Used         : A1,A2,A3,A4,V9,SP,LR,SR                             *
     133                    ;*   Local Frame Size  : 0 Args + 0 Auto + 0 Save = 0 byte                   *
     134                    ;*****************************************************************************
     135 00000000           ssp_HW_KeyInit:
     136                    ;* --------------------------------------------------------------------------*
     137                            .dwcfi  cfa_offset, 0
     138                            .dwpsn  file "../Application/MAC/HAL/target/hal_aes.c",line 114,column 3,is_stmt,isa 1
     139 00000000 2100              MOVS      A2, #0                ; [DPU_V7M3_PIPE] |114|  ; [ORIG 16-BIT INS]
     140                    $C$DW$15        .dwtag  DW_TAG_TI_branch
     141                            .dwattr $C$DW$15, DW_AT_low_pc(0x00)
     142                            .dwattr $C$DW$15, DW_AT_name("NOROM_CRYPTOAesLoadKey")
     143                            .dwattr $C$DW$15, DW_AT_TI_call
     144                            .dwattr $C$DW$15, DW_AT_TI_return
     145                    
     146 00000002 BFFEF7FF!         CRET      NOROM_CRYPTOAesLoadKey ; [DPU_V7M3_PIPE] |114|  ; [KEEP 32-BIT INS]
     147                            ; CALL OCCURS {NOROM_CRYPTOAesLoadKey }  ; [] |114| 
     148                            .dwattr $C$DW$13, DW_AT_TI_end_file("../Application/MAC/HAL/target/hal_aes.c")
     149                            .dwattr $C$DW$13, DW_AT_TI_end_line(0x73)
     150                            .dwattr $C$DW$13, DW_AT_TI_end_column(0x01)
     151                            .dwendentry
     152                            .dwendtag $C$DW$13
     153                    
     154 00000000                   .sect   ".text:sspAesEncryptHW_keylocation"
     155                            .clink
     156                            .thumbfunc sspAesEncryptHW_keylocation
     157 00000000                   .thumb
     158                            .global sspAesEncryptHW_keylocation
     159                    
     160                    $C$DW$16        .dwtag  DW_TAG_subprogram
     161                            .dwattr $C$DW$16, DW_AT_name("sspAesEncryptHW_keylocation")
     162                            .dwattr $C$DW$16, DW_AT_low_pc(sspAesEncryptHW_keylocation)
     163                            .dwattr $C$DW$16, DW_AT_high_pc(0x00)
     164                            .dwattr $C$DW$16, DW_AT_TI_symbol_name("sspAesEncryptHW_keylocation")
     165                            .dwattr $C$DW$16, DW_AT_external
TI ARM Assembler PC v18.1.3 Wed Nov 28 13:34:33 2018

Tools Copyright (c) 1996-2017 Texas Instruments Incorporated
C:\Users\Adrian\AppData\Local\Temp\{1C8A0939-AB27-43CE-9698-03BC42AA3FBD} PAGE    4

     166                            .dwattr $C$DW$16, DW_AT_TI_begin_file("../Application/MAC/HAL/target/hal_aes.c")
     167                            .dwattr $C$DW$16, DW_AT_TI_begin_line(0xcb)
     168                            .dwattr $C$DW$16, DW_AT_TI_begin_column(0x06)
     169                            .dwattr $C$DW$16, DW_AT_decl_file("../Application/MAC/HAL/target/hal_aes.c")
     170                            .dwattr $C$DW$16, DW_AT_decl_line(0xcb)
     171                            .dwattr $C$DW$16, DW_AT_decl_column(0x06)
     172                            .dwattr $C$DW$16, DW_AT_TI_max_frame_size(0x10)
     173                            .dwpsn  file "../Application/MAC/HAL/target/hal_aes.c",line 204,column 1,is_stmt,address sspAe
     174                    
     175                            .dwfde $C$DW$CIE, sspAesEncryptHW_keylocation
     176                    $C$DW$17        .dwtag  DW_TAG_formal_parameter
     177                            .dwattr $C$DW$17, DW_AT_name("msg_in")
     178                            .dwattr $C$DW$17, DW_AT_TI_symbol_name("msg_in")
     179                            .dwattr $C$DW$17, DW_AT_type(*$C$DW$T$184)
     180                            .dwattr $C$DW$17, DW_AT_location[DW_OP_reg0]
     181                    
     182                    $C$DW$18        .dwtag  DW_TAG_formal_parameter
     183                            .dwattr $C$DW$18, DW_AT_name("msg_out")
     184                            .dwattr $C$DW$18, DW_AT_TI_symbol_name("msg_out")
     185                            .dwattr $C$DW$18, DW_AT_type(*$C$DW$T$184)
     186                            .dwattr $C$DW$18, DW_AT_location[DW_OP_reg1]
     187                    
     188                    $C$DW$19        .dwtag  DW_TAG_formal_parameter
     189                            .dwattr $C$DW$19, DW_AT_name("key_location")
     190                            .dwattr $C$DW$19, DW_AT_TI_symbol_name("key_location")
     191                            .dwattr $C$DW$19, DW_AT_type(*$C$DW$T$10)
     192                            .dwattr $C$DW$19, DW_AT_location[DW_OP_reg2]
     193                    
     194                    
     195                    ;*****************************************************************************
     196                    ;* FUNCTION NAME: sspAesEncryptHW_keylocation                                *
     197                    ;*                                                                           *
     198                    ;*   Regs Modified     : A1,A2,A3,A4,V1,V9,SP,LR,SR                          *
     199                    ;*   Regs Used         : A1,A2,A3,A4,V1,V9,SP,LR,SR                          *
     200                    ;*   Local Frame Size  : 4 Args + 0 Auto + 8 Save = 12 byte                  *
     201                    ;*****************************************************************************
     202 00000000           sspAesEncryptHW_keylocation:
     203                    ;* --------------------------------------------------------------------------*
     204                    ;* A1    assigned to $O$C1
     205                    ;* V1    assigned to $O$C2
     206                            .dwcfi  cfa_offset, 0
     207 00000000 B51C              PUSH      {A3, A4, V1, LR}      ; [DPU_V7M3_PIPE]  ; [ORIG 16-BIT INS]
     208                            .dwcfi  cfa_offset, 16
     209                            .dwcfi  save_reg_to_mem, 14, -4
     210                            .dwcfi  save_reg_to_mem, 4, -8
     211                            .dwcfi  save_reg_to_mem, 3, -12
     212                            .dwcfi  save_reg_to_mem, 2, -16
     213                            .dwpsn  file "../Application/MAC/HAL/target/hal_aes.c",line 208,column 3,is_stmt,isa 1
     214 00000002 2400              MOVS      V1, #0                ; [DPU_V7M3_PIPE] |208|  ; [ORIG 16-BIT INS]
     215 00000004 2301              MOVS      A4, #1                ; [DPU_V7M3_PIPE] |208|  ; [ORIG 16-BIT INS]
     216 00000006 9400              STR       V1, [SP, #0]          ; [DPU_V7M3_PIPE] |208|  ; [ORIG 16-BIT INS]
     217                    $C$DW$20        .dwtag  DW_TAG_TI_branch
     218                            .dwattr $C$DW$20, DW_AT_low_pc(0x00)
     219                            .dwattr $C$DW$20, DW_AT_name("NOROM_CRYPTOAesEcb")
     220                            .dwattr $C$DW$20, DW_AT_TI_call
TI ARM Assembler PC v18.1.3 Wed Nov 28 13:34:33 2018

Tools Copyright (c) 1996-2017 Texas Instruments Incorporated
C:\Users\Adrian\AppData\Local\Temp\{1C8A0939-AB27-43CE-9698-03BC42AA3FBD} PAGE    5

     221                    
     222 00000008 FFFEF7FF!         BL        NOROM_CRYPTOAesEcb    ; [DPU_V7M3_PIPE] |208|  ; [KEEP 32-BIT INS]
     223                            ; CALL OCCURS {NOROM_CRYPTOAesEcb }  ; [] |208| 
     224                    ;* --------------------------------------------------------------------------*
     225                    ;*   BEGIN LOOP ||$C$L1||
     226                    ;*
     227                    ;*   Loop source line                : 211
     228                    ;*   Loop closing brace source line  : 214
     229                    ;*   Known Minimum Trip Count        : 1
     230                    ;*   Known Maximum Trip Count        : 4294967295
     231                    ;*   Known Max Trip Count Factor     : 1
     232                    ;* --------------------------------------------------------------------------*
     233 0000000c           ||$C$L1||:    
     234 0000000c BF00       NOP ; [ORIG 16-BIT INS]
     235                            .dwpsn  file "../Application/MAC/HAL/target/hal_aes.c",line 211,column 3,is_stmt,isa 1
     236                    $C$DW$21        .dwtag  DW_TAG_TI_branch
     237                            .dwattr $C$DW$21, DW_AT_low_pc(0x00)
     238                            .dwattr $C$DW$21, DW_AT_name("NOROM_CRYPTOAesEcbStatus")
     239                            .dwattr $C$DW$21, DW_AT_TI_call
     240                    
     241 0000000e FFFEF7FF!         BL        NOROM_CRYPTOAesEcbStatus ; [DPU_V7M3_PIPE] |211|  ; [KEEP 32-BIT INS]
     242                            ; CALL OCCURS {NOROM_CRYPTOAesEcbStatus }  ; [] |211| 
     243 00000012 2800              CMP       A1, #0                ; [DPU_V7M3_PIPE] |211|  ; [ORIG 16-BIT INS]
     244 00000014 D1FA              BNE       ||$C$L1||             ; [DPU_V7M3_PIPE] |211|  ; [ORIG 16-BIT INS]
     245                            ; BRANCHCC OCCURS {||$C$L1||}    ; [] |211| 
     246                    ;* --------------------------------------------------------------------------*
     247                            .dwpsn  file "C:/ti/simplelink_cc13x0_sdk_2_30_00_20/source/ti/devices/cc13x0/driverlib/crypto
     248 00000016 4802              LDR       A1, $C$CON1           ; [DPU_V7M3_PIPE] |356|  ; [ORIG 16-BIT INS]
     249 00000018 41B0F8C0          STR       V1, [A1, #432]        ; [DPU_V7M3_PIPE] |356|  ; [KEEP 32-BIT INS]
     250                            .dwpsn  file "C:/ti/simplelink_cc13x0_sdk_2_30_00_20/source/ti/devices/cc13x0/driverlib/crypto
     251 0000001c 6004              STR       V1, [A1, #0]          ; [DPU_V7M3_PIPE] |357|  ; [ORIG 16-BIT INS]
     252                    $C$DW$22        .dwtag  DW_TAG_TI_branch
     253                            .dwattr $C$DW$22, DW_AT_low_pc(0x00)
     254                            .dwattr $C$DW$22, DW_AT_TI_return
     255                    
     256 0000001e BD1C              POP       {A3, A4, V1, PC}      ; [DPU_V7M3_PIPE]  ; [ORIG 16-BIT INS]
     257                            .dwcfi  cfa_offset, 0
     258                            .dwcfi  restore_reg, 4
     259                            .dwcfi  restore_reg, 3
     260                            .dwcfi  restore_reg, 2
     261                            ; BRANCH OCCURS                  ; [] 
     262                            .dwattr $C$DW$16, DW_AT_TI_end_file("../Application/MAC/HAL/target/hal_aes.c")
     263                            .dwattr $C$DW$16, DW_AT_TI_end_line(0xd9)
     264                            .dwattr $C$DW$16, DW_AT_TI_end_column(0x01)
     265                            .dwendentry
     266                            .dwendtag $C$DW$16
     267                    
     268 00000000                   .sect   ".text:sspAesEncryptHW"
     269                            .clink
     270                            .thumbfunc sspAesEncryptHW
     271 00000000                   .thumb
     272                            .global sspAesEncryptHW
     273                    
     274                    $C$DW$23        .dwtag  DW_TAG_subprogram
     275                            .dwattr $C$DW$23, DW_AT_name("sspAesEncryptHW")
TI ARM Assembler PC v18.1.3 Wed Nov 28 13:34:33 2018

Tools Copyright (c) 1996-2017 Texas Instruments Incorporated
C:\Users\Adrian\AppData\Local\Temp\{1C8A0939-AB27-43CE-9698-03BC42AA3FBD} PAGE    6

     276                            .dwattr $C$DW$23, DW_AT_low_pc(sspAesEncryptHW)
     277                            .dwattr $C$DW$23, DW_AT_high_pc(0x00)
     278                            .dwattr $C$DW$23, DW_AT_TI_symbol_name("sspAesEncryptHW")
     279                            .dwattr $C$DW$23, DW_AT_external
     280                            .dwattr $C$DW$23, DW_AT_TI_begin_file("../Application/MAC/HAL/target/hal_aes.c")
     281                            .dwattr $C$DW$23, DW_AT_TI_begin_line(0x87)
     282                            .dwattr $C$DW$23, DW_AT_TI_begin_column(0x06)
     283                            .dwattr $C$DW$23, DW_AT_decl_file("../Application/MAC/HAL/target/hal_aes.c")
     284                            .dwattr $C$DW$23, DW_AT_decl_line(0x87)
     285                            .dwattr $C$DW$23, DW_AT_decl_column(0x06)
     286                            .dwattr $C$DW$23, DW_AT_TI_max_frame_size(0x10)
     287                            .dwpsn  file "../Application/MAC/HAL/target/hal_aes.c",line 136,column 1,is_stmt,address sspAe
     288                    
     289                            .dwfde $C$DW$CIE, sspAesEncryptHW
     290                    $C$DW$24        .dwtag  DW_TAG_formal_parameter
     291                            .dwattr $C$DW$24, DW_AT_name("AesKey")
     292                            .dwattr $C$DW$24, DW_AT_TI_symbol_name("AesKey")
     293                            .dwattr $C$DW$24, DW_AT_type(*$C$DW$T$184)
     294                            .dwattr $C$DW$24, DW_AT_location[DW_OP_reg0]
     295                    
     296                    $C$DW$25        .dwtag  DW_TAG_formal_parameter
     297                            .dwattr $C$DW$25, DW_AT_name("Cstate")
     298                            .dwattr $C$DW$25, DW_AT_TI_symbol_name("Cstate")
     299                            .dwattr $C$DW$25, DW_AT_type(*$C$DW$T$184)
     300                            .dwattr $C$DW$25, DW_AT_location[DW_OP_reg1]
     301                    
     302                    
     303                    ;*****************************************************************************
     304                    ;* FUNCTION NAME: sspAesEncryptHW                                            *
     305                    ;*                                                                           *
     306                    ;*   Regs Modified     : A1,A2,A3,A4,V1,V9,SP,LR,SR                          *
     307                    ;*   Regs Used         : A1,A2,A3,A4,V1,V9,SP,LR,SR                          *
     308                    ;*   Local Frame Size  : 4 Args + 0 Auto + 8 Save = 12 byte                  *
     309                    ;*****************************************************************************
     310                    sspAesEncryptHW:
     311                    ;* --------------------------------------------------------------------------*
     312                    ;* A1    assigned to $O$C1
     313                    ;* V1    assigned to $O$C2
     314                    ;* A2    assigned to Cstate
     315                    $C$DW$26        .dwtag  DW_TAG_variable
     316                            .dwattr $C$DW$26, DW_AT_name("Cstate")
     317                            .dwattr $C$DW$26, DW_AT_TI_symbol_name("Cstate")
     318                            .dwattr $C$DW$26, DW_AT_type(*$C$DW$T$209)
     319                            .dwattr $C$DW$26, DW_AT_location[DW_OP_reg1]
     320                    
     321                            .dwcfi  cfa_offset, 0
     322 00000000 B51C              PUSH      {A3, A4, V1, LR}      ; [DPU_V7M3_PIPE]  ; [ORIG 16-BIT INS]
     323                            .dwcfi  cfa_offset, 16
     324                            .dwcfi  save_reg_to_mem, 14, -4
     325                            .dwcfi  save_reg_to_mem, 4, -8
     326                            .dwcfi  save_reg_to_mem, 3, -12
     327                            .dwcfi  save_reg_to_mem, 2, -16
     328                            .dwpsn  file "../Application/MAC/HAL/target/hal_aes.c",line 140,column 3,is_stmt,isa 1
     329 00000002 2400              MOVS      V1, #0                ; [DPU_V7M3_PIPE] |140|  ; [ORIG 16-BIT INS]
     330 00000004 4608              MOV       A1, A2                ; [DPU_V7M3_PIPE] |140|  ; [ORIG 16-BIT INS]
TI ARM Assembler PC v18.1.3 Wed Nov 28 13:34:33 2018

Tools Copyright (c) 1996-2017 Texas Instruments Incorporated
C:\Users\Adrian\AppData\Local\Temp\{1C8A0939-AB27-43CE-9698-03BC42AA3FBD} PAGE    7

     331 00000006 2301              MOVS      A4, #1                ; [DPU_V7M3_PIPE] |140|  ; [ORIG 16-BIT INS]
     332 00000008 4622              MOV       A3, V1                ; [DPU_V7M3_PIPE] |140|  ; [ORIG 16-BIT INS]
     333 0000000a 9400              STR       V1, [SP, #0]          ; [DPU_V7M3_PIPE] |140|  ; [ORIG 16-BIT INS]
     334                    $C$DW$27        .dwtag  DW_TAG_TI_branch
     335                            .dwattr $C$DW$27, DW_AT_low_pc(0x00)
     336                            .dwattr $C$DW$27, DW_AT_name("NOROM_CRYPTOAesEcb")
     337                            .dwattr $C$DW$27, DW_AT_TI_call
     338                    
     339 0000000c FFFEF7FF!         BL        NOROM_CRYPTOAesEcb    ; [DPU_V7M3_PIPE] |140|  ; [KEEP 32-BIT INS]
     340                            ; CALL OCCURS {NOROM_CRYPTOAesEcb }  ; [] |140| 
     341                    ;* --------------------------------------------------------------------------*
     342                    ;*   BEGIN LOOP ||$C$L2||
     343                    ;*
     344                    ;*   Loop source line                : 143
     345                    ;*   Loop closing brace source line  : 146
     346                    ;*   Known Minimum Trip Count        : 1
     347                    ;*   Known Maximum Trip Count        : 4294967295
     348                    ;*   Known Max Trip Count Factor     : 1
     349                    ;* --------------------------------------------------------------------------*
     350 00000010           ||$C$L2||:    
     351 00000010 BF00       NOP ; [ORIG 16-BIT INS]
     352                            .dwpsn  file "../Application/MAC/HAL/target/hal_aes.c",line 143,column 3,is_stmt,isa 1
     353                    $C$DW$28        .dwtag  DW_TAG_TI_branch
     354                            .dwattr $C$DW$28, DW_AT_low_pc(0x00)
     355                            .dwattr $C$DW$28, DW_AT_name("NOROM_CRYPTOAesEcbStatus")
     356                            .dwattr $C$DW$28, DW_AT_TI_call
     357                    
     358 00000012 FFFEF7FF!         BL        NOROM_CRYPTOAesEcbStatus ; [DPU_V7M3_PIPE] |143|  ; [KEEP 32-BIT INS]
     359                            ; CALL OCCURS {NOROM_CRYPTOAesEcbStatus }  ; [] |143| 
     360 00000016 2800              CMP       A1, #0                ; [DPU_V7M3_PIPE] |143|  ; [ORIG 16-BIT INS]
     361 00000018 D1FA              BNE       ||$C$L2||             ; [DPU_V7M3_PIPE] |143|  ; [ORIG 16-BIT INS]
     362                            ; BRANCHCC OCCURS {||$C$L2||}    ; [] |143| 
     363                    ;* --------------------------------------------------------------------------*
     364                            .dwpsn  file "C:/ti/simplelink_cc13x0_sdk_2_30_00_20/source/ti/devices/cc13x0/driverlib/crypto
     365 0000001a 4802              LDR       A1, $C$CON2           ; [DPU_V7M3_PIPE] |356|  ; [ORIG 16-BIT INS]
     366 0000001c 41B0F8C0          STR       V1, [A1, #432]        ; [DPU_V7M3_PIPE] |356|  ; [KEEP 32-BIT INS]
     367                            .dwpsn  file "C:/ti/simplelink_cc13x0_sdk_2_30_00_20/source/ti/devices/cc13x0/driverlib/crypto
     368 00000020 6004              STR       V1, [A1, #0]          ; [DPU_V7M3_PIPE] |357|  ; [ORIG 16-BIT INS]
     369                    $C$DW$29        .dwtag  DW_TAG_TI_branch
     370                            .dwattr $C$DW$29, DW_AT_low_pc(0x00)
     371                            .dwattr $C$DW$29, DW_AT_TI_return
     372                    
     373 00000022 BD1C              POP       {A3, A4, V1, PC}      ; [DPU_V7M3_PIPE]  ; [ORIG 16-BIT INS]
     374                            .dwcfi  cfa_offset, 0
     375                            .dwcfi  restore_reg, 4
     376                            .dwcfi  restore_reg, 3
     377                            .dwcfi  restore_reg, 2
     378                            ; BRANCH OCCURS                  ; [] 
     379                            .dwattr $C$DW$23, DW_AT_TI_end_file("../Application/MAC/HAL/target/hal_aes.c")
     380                            .dwattr $C$DW$23, DW_AT_TI_end_line(0x95)
     381                            .dwattr $C$DW$23, DW_AT_TI_end_column(0x01)
     382                            .dwendentry
     383                            .dwendtag $C$DW$23
     384                    
     385 00000000                   .sect   ".text:sspAesDecryptHW_keylocation"
TI ARM Assembler PC v18.1.3 Wed Nov 28 13:34:33 2018

Tools Copyright (c) 1996-2017 Texas Instruments Incorporated
C:\Users\Adrian\AppData\Local\Temp\{1C8A0939-AB27-43CE-9698-03BC42AA3FBD} PAGE    8

     386                            .clink
     387                            .thumbfunc sspAesDecryptHW_keylocation
     388 00000000                   .thumb
     389                            .global sspAesDecryptHW_keylocation
     390                    
     391                    $C$DW$30        .dwtag  DW_TAG_subprogram
     392                            .dwattr $C$DW$30, DW_AT_name("sspAesDecryptHW_keylocation")
     393                            .dwattr $C$DW$30, DW_AT_low_pc(sspAesDecryptHW_keylocation)
     394                            .dwattr $C$DW$30, DW_AT_high_pc(0x00)
     395                            .dwattr $C$DW$30, DW_AT_TI_symbol_name("sspAesDecryptHW_keylocation")
     396                            .dwattr $C$DW$30, DW_AT_external
     397                            .dwattr $C$DW$30, DW_AT_TI_begin_file("../Application/MAC/HAL/target/hal_aes.c")
     398                            .dwattr $C$DW$30, DW_AT_TI_begin_line(0xed)
     399                            .dwattr $C$DW$30, DW_AT_TI_begin_column(0x06)
     400                            .dwattr $C$DW$30, DW_AT_decl_file("../Application/MAC/HAL/target/hal_aes.c")
     401                            .dwattr $C$DW$30, DW_AT_decl_line(0xed)
     402                            .dwattr $C$DW$30, DW_AT_decl_column(0x06)
     403                            .dwattr $C$DW$30, DW_AT_TI_max_frame_size(0x10)
     404                            .dwpsn  file "../Application/MAC/HAL/target/hal_aes.c",line 238,column 1,is_stmt,address sspAe
     405                    
     406                            .dwfde $C$DW$CIE, sspAesDecryptHW_keylocation
     407                    $C$DW$31        .dwtag  DW_TAG_formal_parameter
     408                            .dwattr $C$DW$31, DW_AT_name("msg_in")
     409                            .dwattr $C$DW$31, DW_AT_TI_symbol_name("msg_in")
     410                            .dwattr $C$DW$31, DW_AT_type(*$C$DW$T$184)
     411                            .dwattr $C$DW$31, DW_AT_location[DW_OP_reg0]
     412                    
     413                    $C$DW$32        .dwtag  DW_TAG_formal_parameter
     414                            .dwattr $C$DW$32, DW_AT_name("msg_out")
     415                            .dwattr $C$DW$32, DW_AT_TI_symbol_name("msg_out")
     416                            .dwattr $C$DW$32, DW_AT_type(*$C$DW$T$184)
     417                            .dwattr $C$DW$32, DW_AT_location[DW_OP_reg1]
     418                    
     419                    $C$DW$33        .dwtag  DW_TAG_formal_parameter
     420                            .dwattr $C$DW$33, DW_AT_name("key_location")
     421                            .dwattr $C$DW$33, DW_AT_TI_symbol_name("key_location")
     422                            .dwattr $C$DW$33, DW_AT_type(*$C$DW$T$10)
     423                            .dwattr $C$DW$33, DW_AT_location[DW_OP_reg2]
     424                    
     425                    
     426                    ;*****************************************************************************
     427                    ;* FUNCTION NAME: sspAesDecryptHW_keylocation                                *
     428                    ;*                                                                           *
     429                    ;*   Regs Modified     : A1,A2,A3,A4,V1,V9,SP,LR,SR                          *
     430                    ;*   Regs Used         : A1,A2,A3,A4,V1,V9,SP,LR,SR                          *
     431                    ;*   Local Frame Size  : 4 Args + 0 Auto + 8 Save = 12 byte                  *
     432                    ;*****************************************************************************
     433 00000000           sspAesDecryptHW_keylocation:
     434                    ;* --------------------------------------------------------------------------*
     435                    ;* A1    assigned to $O$C1
     436                    ;* V1    assigned to $O$C2
     437                            .dwcfi  cfa_offset, 0
     438 00000000 B51C              PUSH      {A3, A4, V1, LR}      ; [DPU_V7M3_PIPE]  ; [ORIG 16-BIT INS]
     439                            .dwcfi  cfa_offset, 16
     440                            .dwcfi  save_reg_to_mem, 14, -4
TI ARM Assembler PC v18.1.3 Wed Nov 28 13:34:33 2018

Tools Copyright (c) 1996-2017 Texas Instruments Incorporated
C:\Users\Adrian\AppData\Local\Temp\{1C8A0939-AB27-43CE-9698-03BC42AA3FBD} PAGE    9

     441                            .dwcfi  save_reg_to_mem, 4, -8
     442                            .dwcfi  save_reg_to_mem, 3, -12
     443                            .dwcfi  save_reg_to_mem, 2, -16
     444                            .dwpsn  file "../Application/MAC/HAL/target/hal_aes.c",line 242,column 3,is_stmt,isa 1
     445 00000002 2400              MOVS      V1, #0                ; [DPU_V7M3_PIPE] |242|  ; [ORIG 16-BIT INS]
     446 00000004 4623              MOV       A4, V1                ; [DPU_V7M3_PIPE] |242|  ; [ORIG 16-BIT INS]
     447 00000006 9400              STR       V1, [SP, #0]          ; [DPU_V7M3_PIPE] |242|  ; [ORIG 16-BIT INS]
     448                    $C$DW$34        .dwtag  DW_TAG_TI_branch
     449                            .dwattr $C$DW$34, DW_AT_low_pc(0x00)
     450                            .dwattr $C$DW$34, DW_AT_name("NOROM_CRYPTOAesEcb")
     451                            .dwattr $C$DW$34, DW_AT_TI_call
     452                    
     453 00000008 FFFEF7FF!         BL        NOROM_CRYPTOAesEcb    ; [DPU_V7M3_PIPE] |242|  ; [KEEP 32-BIT INS]
     454                            ; CALL OCCURS {NOROM_CRYPTOAesEcb }  ; [] |242| 
     455                    ;* --------------------------------------------------------------------------*
     456                    ;*   BEGIN LOOP ||$C$L3||
     457                    ;*
     458                    ;*   Loop source line                : 245
     459                    ;*   Loop closing brace source line  : 248
     460                    ;*   Known Minimum Trip Count        : 1
     461                    ;*   Known Maximum Trip Count        : 4294967295
     462                    ;*   Known Max Trip Count Factor     : 1
     463                    ;* --------------------------------------------------------------------------*
     464 0000000c           ||$C$L3||:    
     465 0000000c BF00       NOP ; [ORIG 16-BIT INS]
     466                            .dwpsn  file "../Application/MAC/HAL/target/hal_aes.c",line 245,column 3,is_stmt,isa 1
     467                    $C$DW$35        .dwtag  DW_TAG_TI_branch
     468                            .dwattr $C$DW$35, DW_AT_low_pc(0x00)
     469                            .dwattr $C$DW$35, DW_AT_name("NOROM_CRYPTOAesEcbStatus")
     470                            .dwattr $C$DW$35, DW_AT_TI_call
     471                    
     472 0000000e FFFEF7FF!         BL        NOROM_CRYPTOAesEcbStatus ; [DPU_V7M3_PIPE] |245|  ; [KEEP 32-BIT INS]
     473                            ; CALL OCCURS {NOROM_CRYPTOAesEcbStatus }  ; [] |245| 
     474 00000012 2800              CMP       A1, #0                ; [DPU_V7M3_PIPE] |245|  ; [ORIG 16-BIT INS]
     475 00000014 D1FA              BNE       ||$C$L3||             ; [DPU_V7M3_PIPE] |245|  ; [ORIG 16-BIT INS]
     476                            ; BRANCHCC OCCURS {||$C$L3||}    ; [] |245| 
     477                    ;* --------------------------------------------------------------------------*
     478                            .dwpsn  file "C:/ti/simplelink_cc13x0_sdk_2_30_00_20/source/ti/devices/cc13x0/driverlib/crypto
     479 00000016 4802              LDR       A1, $C$CON3           ; [DPU_V7M3_PIPE] |356|  ; [ORIG 16-BIT INS]
     480 00000018 41B0F8C0          STR       V1, [A1, #432]        ; [DPU_V7M3_PIPE] |356|  ; [KEEP 32-BIT INS]
     481                            .dwpsn  file "C:/ti/simplelink_cc13x0_sdk_2_30_00_20/source/ti/devices/cc13x0/driverlib/crypto
     482 0000001c 6004              STR       V1, [A1, #0]          ; [DPU_V7M3_PIPE] |357|  ; [ORIG 16-BIT INS]
     483                    $C$DW$36        .dwtag  DW_TAG_TI_branch
     484                            .dwattr $C$DW$36, DW_AT_low_pc(0x00)
     485                            .dwattr $C$DW$36, DW_AT_TI_return
     486                    
     487 0000001e BD1C              POP       {A3, A4, V1, PC}      ; [DPU_V7M3_PIPE]  ; [ORIG 16-BIT INS]
     488                            .dwcfi  cfa_offset, 0
     489                            .dwcfi  restore_reg, 4
     490                            .dwcfi  restore_reg, 3
     491                            .dwcfi  restore_reg, 2
     492                            ; BRANCH OCCURS                  ; [] 
     493                            .dwattr $C$DW$30, DW_AT_TI_end_file("../Application/MAC/HAL/target/hal_aes.c")
     494                            .dwattr $C$DW$30, DW_AT_TI_end_line(0xfb)
     495                            .dwattr $C$DW$30, DW_AT_TI_end_column(0x01)
TI ARM Assembler PC v18.1.3 Wed Nov 28 13:34:33 2018

Tools Copyright (c) 1996-2017 Texas Instruments Incorporated
C:\Users\Adrian\AppData\Local\Temp\{1C8A0939-AB27-43CE-9698-03BC42AA3FBD} PAGE   10

     496                            .dwendentry
     497                            .dwendtag $C$DW$30
     498                    
     499 00000000                   .sect   ".text:sspAesDecryptHW"
     500                            .clink
     501                            .thumbfunc sspAesDecryptHW
     502 00000000                   .thumb
     503                            .global sspAesDecryptHW
     504                    
     505                    $C$DW$37        .dwtag  DW_TAG_subprogram
     506                            .dwattr $C$DW$37, DW_AT_name("sspAesDecryptHW")
     507                            .dwattr $C$DW$37, DW_AT_low_pc(sspAesDecryptHW)
     508                            .dwattr $C$DW$37, DW_AT_high_pc(0x00)
     509                            .dwattr $C$DW$37, DW_AT_TI_symbol_name("sspAesDecryptHW")
     510                            .dwattr $C$DW$37, DW_AT_external
     511                            .dwattr $C$DW$37, DW_AT_TI_begin_file("../Application/MAC/HAL/target/hal_aes.c")
     512                            .dwattr $C$DW$37, DW_AT_TI_begin_line(0xa9)
     513                            .dwattr $C$DW$37, DW_AT_TI_begin_column(0x06)
     514                            .dwattr $C$DW$37, DW_AT_decl_file("../Application/MAC/HAL/target/hal_aes.c")
     515                            .dwattr $C$DW$37, DW_AT_decl_line(0xa9)
     516                            .dwattr $C$DW$37, DW_AT_decl_column(0x06)
     517                            .dwattr $C$DW$37, DW_AT_TI_max_frame_size(0x10)
     518                            .dwpsn  file "../Application/MAC/HAL/target/hal_aes.c",line 170,column 1,is_stmt,address sspAe
     519                    
     520                            .dwfde $C$DW$CIE, sspAesDecryptHW
     521                    $C$DW$38        .dwtag  DW_TAG_formal_parameter
     522                            .dwattr $C$DW$38, DW_AT_name("AesKey")
     523                            .dwattr $C$DW$38, DW_AT_TI_symbol_name("AesKey")
     524                            .dwattr $C$DW$38, DW_AT_type(*$C$DW$T$184)
     525                            .dwattr $C$DW$38, DW_AT_location[DW_OP_reg0]
     526                    
     527                    $C$DW$39        .dwtag  DW_TAG_formal_parameter
     528                            .dwattr $C$DW$39, DW_AT_name("Cstate")
     529                            .dwattr $C$DW$39, DW_AT_TI_symbol_name("Cstate")
     530                            .dwattr $C$DW$39, DW_AT_type(*$C$DW$T$184)
     531                            .dwattr $C$DW$39, DW_AT_location[DW_OP_reg1]
     532                    
     533                    
     534                    ;*****************************************************************************
     535                    ;* FUNCTION NAME: sspAesDecryptHW                                            *
     536                    ;*                                                                           *
     537                    ;*   Regs Modified     : A1,A2,A3,A4,V1,V9,SP,LR,SR                          *
     538                    ;*   Regs Used         : A1,A2,A3,A4,V1,V9,SP,LR,SR                          *
     539                    ;*   Local Frame Size  : 4 Args + 0 Auto + 8 Save = 12 byte                  *
     540                    ;*****************************************************************************
     541                    sspAesDecryptHW:
     542                    ;* --------------------------------------------------------------------------*
     543                    ;* A1    assigned to $O$C1
     544                    ;* V1    assigned to $O$C2
     545                    ;* A2    assigned to Cstate
     546                    $C$DW$40        .dwtag  DW_TAG_variable
     547                            .dwattr $C$DW$40, DW_AT_name("Cstate")
     548                            .dwattr $C$DW$40, DW_AT_TI_symbol_name("Cstate")
     549                            .dwattr $C$DW$40, DW_AT_type(*$C$DW$T$209)
     550                            .dwattr $C$DW$40, DW_AT_location[DW_OP_reg1]
TI ARM Assembler PC v18.1.3 Wed Nov 28 13:34:33 2018

Tools Copyright (c) 1996-2017 Texas Instruments Incorporated
C:\Users\Adrian\AppData\Local\Temp\{1C8A0939-AB27-43CE-9698-03BC42AA3FBD} PAGE   11

     551                    
     552                            .dwcfi  cfa_offset, 0
     553 00000000 B51C              PUSH      {A3, A4, V1, LR}      ; [DPU_V7M3_PIPE]  ; [ORIG 16-BIT INS]
     554                            .dwcfi  cfa_offset, 16
     555                            .dwcfi  save_reg_to_mem, 14, -4
     556                            .dwcfi  save_reg_to_mem, 4, -8
     557                            .dwcfi  save_reg_to_mem, 3, -12
     558                            .dwcfi  save_reg_to_mem, 2, -16
     559                            .dwpsn  file "../Application/MAC/HAL/target/hal_aes.c",line 174,column 3,is_stmt,isa 1
     560 00000002 2400              MOVS      V1, #0                ; [DPU_V7M3_PIPE] |174|  ; [ORIG 16-BIT INS]
     561 00000004 4608              MOV       A1, A2                ; [DPU_V7M3_PIPE] |174|  ; [ORIG 16-BIT INS]
     562 00000006 4622              MOV       A3, V1                ; [DPU_V7M3_PIPE] |174|  ; [ORIG 16-BIT INS]
     563 00000008 9400              STR       V1, [SP, #0]          ; [DPU_V7M3_PIPE] |174|  ; [ORIG 16-BIT INS]
     564 0000000a 4613              MOV       A4, A3                ; [DPU_V7M3_PIPE] |174|  ; [ORIG 16-BIT INS]
     565                    $C$DW$41        .dwtag  DW_TAG_TI_branch
     566                            .dwattr $C$DW$41, DW_AT_low_pc(0x00)
     567                            .dwattr $C$DW$41, DW_AT_name("NOROM_CRYPTOAesEcb")
     568                            .dwattr $C$DW$41, DW_AT_TI_call
     569                    
     570 0000000c FFFEF7FF!         BL        NOROM_CRYPTOAesEcb    ; [DPU_V7M3_PIPE] |174|  ; [KEEP 32-BIT INS]
     571                            ; CALL OCCURS {NOROM_CRYPTOAesEcb }  ; [] |174| 
     572                    ;* --------------------------------------------------------------------------*
     573                    ;*   BEGIN LOOP ||$C$L4||
     574                    ;*
     575                    ;*   Loop source line                : 177
     576                    ;*   Loop closing brace source line  : 180
     577                    ;*   Known Minimum Trip Count        : 1
     578                    ;*   Known Maximum Trip Count        : 4294967295
     579                    ;*   Known Max Trip Count Factor     : 1
     580                    ;* --------------------------------------------------------------------------*
     581 00000010           ||$C$L4||:    
     582 00000010 BF00       NOP ; [ORIG 16-BIT INS]
     583                            .dwpsn  file "../Application/MAC/HAL/target/hal_aes.c",line 177,column 3,is_stmt,isa 1
     584                    $C$DW$42        .dwtag  DW_TAG_TI_branch
     585                            .dwattr $C$DW$42, DW_AT_low_pc(0x00)
     586                            .dwattr $C$DW$42, DW_AT_name("NOROM_CRYPTOAesEcbStatus")
     587                            .dwattr $C$DW$42, DW_AT_TI_call
     588                    
     589 00000012 FFFEF7FF!         BL        NOROM_CRYPTOAesEcbStatus ; [DPU_V7M3_PIPE] |177|  ; [KEEP 32-BIT INS]
     590                            ; CALL OCCURS {NOROM_CRYPTOAesEcbStatus }  ; [] |177| 
     591 00000016 2800              CMP       A1, #0                ; [DPU_V7M3_PIPE] |177|  ; [ORIG 16-BIT INS]
     592 00000018 D1FA              BNE       ||$C$L4||             ; [DPU_V7M3_PIPE] |177|  ; [ORIG 16-BIT INS]
     593                            ; BRANCHCC OCCURS {||$C$L4||}    ; [] |177| 
     594                    ;* --------------------------------------------------------------------------*
     595                            .dwpsn  file "C:/ti/simplelink_cc13x0_sdk_2_30_00_20/source/ti/devices/cc13x0/driverlib/crypto
     596 0000001a 4802              LDR       A1, $C$CON4           ; [DPU_V7M3_PIPE] |356|  ; [ORIG 16-BIT INS]
     597 0000001c 41B0F8C0          STR       V1, [A1, #432]        ; [DPU_V7M3_PIPE] |356|  ; [KEEP 32-BIT INS]
     598                            .dwpsn  file "C:/ti/simplelink_cc13x0_sdk_2_30_00_20/source/ti/devices/cc13x0/driverlib/crypto
     599 00000020 6004              STR       V1, [A1, #0]          ; [DPU_V7M3_PIPE] |357|  ; [ORIG 16-BIT INS]
     600                    $C$DW$43        .dwtag  DW_TAG_TI_branch
     601                            .dwattr $C$DW$43, DW_AT_low_pc(0x00)
     602                            .dwattr $C$DW$43, DW_AT_TI_return
     603                    
     604 00000022 BD1C              POP       {A3, A4, V1, PC}      ; [DPU_V7M3_PIPE]  ; [ORIG 16-BIT INS]
     605                            .dwcfi  cfa_offset, 0
TI ARM Assembler PC v18.1.3 Wed Nov 28 13:34:33 2018

Tools Copyright (c) 1996-2017 Texas Instruments Incorporated
C:\Users\Adrian\AppData\Local\Temp\{1C8A0939-AB27-43CE-9698-03BC42AA3FBD} PAGE   12

     606                            .dwcfi  restore_reg, 4
     607                            .dwcfi  restore_reg, 3
     608                            .dwcfi  restore_reg, 2
     609                            ; BRANCH OCCURS                  ; [] 
     610                            .dwattr $C$DW$37, DW_AT_TI_end_file("../Application/MAC/HAL/target/hal_aes.c")
     611                            .dwattr $C$DW$37, DW_AT_TI_end_line(0xb7)
     612                            .dwattr $C$DW$37, DW_AT_TI_end_column(0x01)
     613                            .dwendentry
     614                            .dwendtag $C$DW$37
     615                    
     616 00000000                   .sect   ".text:HalAesInit"
     617                            .clink
     618                            .thumbfunc HalAesInit
     619 00000000                   .thumb
     620                            .global HalAesInit
     621                    
     622                    $C$DW$44        .dwtag  DW_TAG_subprogram
     623                            .dwattr $C$DW$44, DW_AT_name("HalAesInit")
     624                            .dwattr $C$DW$44, DW_AT_low_pc(HalAesInit)
     625                            .dwattr $C$DW$44, DW_AT_high_pc(0x00)
     626                            .dwattr $C$DW$44, DW_AT_TI_symbol_name("HalAesInit")
     627                            .dwattr $C$DW$44, DW_AT_external
     628                            .dwattr $C$DW$44, DW_AT_TI_begin_file("../Application/MAC/HAL/target/hal_aes.c")
     629                            .dwattr $C$DW$44, DW_AT_TI_begin_line(0x5b)
     630                            .dwattr $C$DW$44, DW_AT_TI_begin_column(0x06)
     631                            .dwattr $C$DW$44, DW_AT_decl_file("../Application/MAC/HAL/target/hal_aes.c")
     632                            .dwattr $C$DW$44, DW_AT_decl_line(0x5b)
     633                            .dwattr $C$DW$44, DW_AT_decl_column(0x06)
     634                            .dwattr $C$DW$44, DW_AT_TI_max_frame_size(0x00)
     635                            .dwpsn  file "../Application/MAC/HAL/target/hal_aes.c",line 92,column 1,is_stmt,address HalAes
     636                    
     637                            .dwfde $C$DW$CIE, HalAesInit
     638                    
     639                    ;*****************************************************************************
     640                    ;* FUNCTION NAME: HalAesInit                                                 *
     641                    ;*                                                                           *
     642                    ;*   Regs Modified     : A1,A2                                               *
     643                    ;*   Regs Used         : A1,A2,LR                                            *
     644                    ;*   Local Frame Size  : 0 Args + 0 Auto + 0 Save = 0 byte                   *
     645                    ;*****************************************************************************
     646 00000000           HalAesInit:
     647                    ;* --------------------------------------------------------------------------*
     648                    ;* A1    assigned to $O$C1
     649                            .dwcfi  cfa_offset, 0
     650                            .dwpsn  file "../Application/MAC/HAL/target/hal_aes.c",line 93,column 3,is_stmt,isa 1
     651 00000000 4804              LDR       A1, $C$CON5           ; [DPU_V7M3_PIPE] |93|  ; [ORIG 16-BIT INS]
     652 00000002 6801              LDR       A2, [A1, #0]          ; [DPU_V7M3_PIPE] |93|  ; [ORIG 16-BIT INS]
     653 00000004 0101F041          ORR       A2, A2, #1            ; [DPU_V7M3_PIPE] |93|  ; [KEEP 32-BIT INS]
     654 00000008 6001              STR       A2, [A1, #0]          ; [DPU_V7M3_PIPE] |93|  ; [ORIG 16-BIT INS]
     655                            .dwpsn  file "../Application/MAC/HAL/target/hal_aes.c",line 94,column 3,is_stmt,isa 1
     656 0000000a 6841              LDR       A2, [A1, #4]          ; [DPU_V7M3_PIPE] |94|  ; [ORIG 16-BIT INS]
     657 0000000c 0103F041          ORR       A2, A2, #3            ; [DPU_V7M3_PIPE] |94|  ; [KEEP 32-BIT INS]
     658 00000010 6041              STR       A2, [A1, #4]          ; [DPU_V7M3_PIPE] |94|  ; [ORIG 16-BIT INS]
     659                    $C$DW$45        .dwtag  DW_TAG_TI_branch
     660                            .dwattr $C$DW$45, DW_AT_low_pc(0x00)
TI ARM Assembler PC v18.1.3 Wed Nov 28 13:34:33 2018

Tools Copyright (c) 1996-2017 Texas Instruments Incorporated
C:\Users\Adrian\AppData\Local\Temp\{1C8A0939-AB27-43CE-9698-03BC42AA3FBD} PAGE   13

     661                            .dwattr $C$DW$45, DW_AT_TI_return
     662                    
     663 00000012 4770              BX        LR                    ; [DPU_V7M3_PIPE]  ; [ORIG 16-BIT INS]
     664                            ; BRANCH OCCURS                  ; [] 
     665                            .dwattr $C$DW$44, DW_AT_TI_end_file("../Application/MAC/HAL/target/hal_aes.c")
     666                            .dwattr $C$DW$44, DW_AT_TI_end_line(0x5f)
     667                            .dwattr $C$DW$44, DW_AT_TI_end_column(0x01)
     668                            .dwendentry
     669                            .dwendtag $C$DW$44
     670                    
     671                    ;******************************************************************************
     672                    ;* CONSTANT TABLE                                                             *
     673                    ;******************************************************************************
     674 00000020                   .sect   ".text:sspAesEncryptHW_keylocation"
     675                            .align  4
     676 00000020 40024550  ||$C$CON1||:    .bits   1073890640,32
     677                    ;******************************************************************************
     678                    ;* CONSTANT TABLE                                                             *
     679                    ;******************************************************************************
     680 00000024                   .sect   ".text:sspAesEncryptHW"
     681                            .align  4
     682 00000024 40024550  ||$C$CON2||:    .bits   1073890640,32
     683                    ;******************************************************************************
     684                    ;* CONSTANT TABLE                                                             *
     685                    ;******************************************************************************
     686 00000020                   .sect   ".text:sspAesDecryptHW_keylocation"
     687                            .align  4
     688 00000020 40024550  ||$C$CON3||:    .bits   1073890640,32
     689                    ;******************************************************************************
     690                    ;* CONSTANT TABLE                                                             *
     691                    ;******************************************************************************
     692 00000024                   .sect   ".text:sspAesDecryptHW"
     693                            .align  4
     694 00000024 40024550  ||$C$CON4||:    .bits   1073890640,32
     695                    ;******************************************************************************
     696                    ;* CONSTANT TABLE                                                             *
     697                    ;******************************************************************************
     698 00000014                   .sect   ".text:HalAesInit"
     699                            .align  4
     700 00000014 40024780  ||$C$CON5||:    .bits   1073891200,32
     701                    ;*****************************************************************************
     702                    ;* UNDEFINED EXTERNAL REFERENCES                                             *
     703                    ;*****************************************************************************
     704                            .global NOROM_CRYPTOAesLoadKey
     705                            .global NOROM_CRYPTOAesEcb
     706                            .global NOROM_CRYPTOAesEcbStatus
     707                    
     708                    ;******************************************************************************
     709                    ;* BUILD ATTRIBUTES                                                           *
     710                    ;******************************************************************************
     711                            .battr "aeabi", Tag_File, 1, Tag_ABI_PCS_wchar_t(2)
     712                            .battr "aeabi", Tag_File, 1, Tag_ABI_FP_rounding(0)
     713                            .battr "aeabi", Tag_File, 1, Tag_ABI_FP_denormal(0)
     714                            .battr "aeabi", Tag_File, 1, Tag_ABI_FP_exceptions(0)
     715                            .battr "aeabi", Tag_File, 1, Tag_ABI_FP_number_model(1)
TI ARM Assembler PC v18.1.3 Wed Nov 28 13:34:33 2018

Tools Copyright (c) 1996-2017 Texas Instruments Incorporated
C:\Users\Adrian\AppData\Local\Temp\{1C8A0939-AB27-43CE-9698-03BC42AA3FBD} PAGE   14

     716                            .battr "aeabi", Tag_File, 1, Tag_ABI_enum_size(1)
     717                            .battr "aeabi", Tag_File, 1, Tag_ABI_optimization_goals(0)
     718                            .battr "aeabi", Tag_File, 1, Tag_ABI_FP_optimization_goals(0)
     719                            .battr "TI", Tag_File, 1, Tag_Bitfield_layout(2)
     720                            .battr "aeabi", Tag_File, 1, Tag_ABI_VFP_args(3)
     721                            .battr "TI", Tag_File, 1, Tag_FP_interface(1)
     722                    
     723                    ;******************************************************************************
     724                    ;* TYPE INFORMATION                                                           *
     725                    ;******************************************************************************
     726                    
     727                    $C$DW$T$168     .dwtag  DW_TAG_enumeration_type
     728                            .dwattr $C$DW$T$168, DW_AT_byte_size(0x01)
     729                    $C$DW$46        .dwtag  DW_TAG_enumerator
     730                            .dwattr $C$DW$46, DW_AT_name("FAPI_PROGRAM_DATA")
     731                            .dwattr $C$DW$46, DW_AT_const_value(0x02)
     732                            .dwattr $C$DW$46, DW_AT_decl_file("C:/ti/simplelink_cc13x0_sdk_2_30_00_20/source/ti/devices/cc
     733                            .dwattr $C$DW$46, DW_AT_decl_line(0xa6)
     734                            .dwattr $C$DW$46, DW_AT_decl_column(0x05)
     735                    
     736                    $C$DW$47        .dwtag  DW_TAG_enumerator
     737                            .dwattr $C$DW$47, DW_AT_name("FAPI_ERASE_SECTOR")
     738                            .dwattr $C$DW$47, DW_AT_const_value(0x06)
     739                            .dwattr $C$DW$47, DW_AT_decl_file("C:/ti/simplelink_cc13x0_sdk_2_30_00_20/source/ti/devices/cc
     740                            .dwattr $C$DW$47, DW_AT_decl_line(0xa7)
     741                            .dwattr $C$DW$47, DW_AT_decl_column(0x05)
     742                    
     743                    $C$DW$48        .dwtag  DW_TAG_enumerator
     744                            .dwattr $C$DW$48, DW_AT_name("FAPI_ERASE_BANK")
     745                            .dwattr $C$DW$48, DW_AT_const_value(0x08)
     746                            .dwattr $C$DW$48, DW_AT_decl_file("C:/ti/simplelink_cc13x0_sdk_2_30_00_20/source/ti/devices/cc
     747                            .dwattr $C$DW$48, DW_AT_decl_line(0xa8)
     748                            .dwattr $C$DW$48, DW_AT_decl_column(0x05)
     749                    
     750                    $C$DW$49        .dwtag  DW_TAG_enumerator
     751                            .dwattr $C$DW$49, DW_AT_name("FAPI_VALIDATE_SECTOR")
     752                            .dwattr $C$DW$49, DW_AT_const_value(0x0e)
     753                            .dwattr $C$DW$49, DW_AT_decl_file("C:/ti/simplelink_cc13x0_sdk_2_30_00_20/source/ti/devices/cc
     754                            .dwattr $C$DW$49, DW_AT_decl_line(0xa9)
     755                            .dwattr $C$DW$49, DW_AT_decl_column(0x05)
     756                    
     757                    $C$DW$50        .dwtag  DW_TAG_enumerator
     758                            .dwattr $C$DW$50, DW_AT_name("FAPI_CLEAR_STATUS")
     759                            .dwattr $C$DW$50, DW_AT_const_value(0x10)
     760                            .dwattr $C$DW$50, DW_AT_decl_file("C:/ti/simplelink_cc13x0_sdk_2_30_00_20/source/ti/devices/cc
     761                            .dwattr $C$DW$50, DW_AT_decl_line(0xaa)
     762                            .dwattr $C$DW$50, DW_AT_decl_column(0x05)
     763                    
     764                    $C$DW$51        .dwtag  DW_TAG_enumerator
     765                            .dwattr $C$DW$51, DW_AT_name("FAPI_PROGRAM_RESUME")
     766                            .dwattr $C$DW$51, DW_AT_const_value(0x14)
     767                            .dwattr $C$DW$51, DW_AT_decl_file("C:/ti/simplelink_cc13x0_sdk_2_30_00_20/source/ti/devices/cc
     768                            .dwattr $C$DW$51, DW_AT_decl_line(0xab)
     769                            .dwattr $C$DW$51, DW_AT_decl_column(0x05)
     770                    
TI ARM Assembler PC v18.1.3 Wed Nov 28 13:34:33 2018

Tools Copyright (c) 1996-2017 Texas Instruments Incorporated
C:\Users\Adrian\AppData\Local\Temp\{1C8A0939-AB27-43CE-9698-03BC42AA3FBD} PAGE   15

     771                    $C$DW$52        .dwtag  DW_TAG_enumerator
     772                            .dwattr $C$DW$52, DW_AT_name("FAPI_ERASE_RESUME")
     773                            .dwattr $C$DW$52, DW_AT_const_value(0x16)
     774                            .dwattr $C$DW$52, DW_AT_decl_file("C:/ti/simplelink_cc13x0_sdk_2_30_00_20/source/ti/devices/cc
     775                            .dwattr $C$DW$52, DW_AT_decl_line(0xac)
     776                            .dwattr $C$DW$52, DW_AT_decl_column(0x05)
     777                    
     778                    $C$DW$53        .dwtag  DW_TAG_enumerator
     779                            .dwattr $C$DW$53, DW_AT_name("FAPI_CLEAR_MORE")
     780                            .dwattr $C$DW$53, DW_AT_const_value(0x18)
     781                            .dwattr $C$DW$53, DW_AT_decl_file("C:/ti/simplelink_cc13x0_sdk_2_30_00_20/source/ti/devices/cc
     782                            .dwattr $C$DW$53, DW_AT_decl_line(0xad)
     783                            .dwattr $C$DW$53, DW_AT_decl_column(0x05)
     784                    
     785                    $C$DW$54        .dwtag  DW_TAG_enumerator
     786                            .dwattr $C$DW$54, DW_AT_name("FAPI_PROGRAM_SECTOR")
     787                            .dwattr $C$DW$54, DW_AT_const_value(0x20)
     788                            .dwattr $C$DW$54, DW_AT_decl_file("C:/ti/simplelink_cc13x0_sdk_2_30_00_20/source/ti/devices/cc
     789                            .dwattr $C$DW$54, DW_AT_decl_line(0xae)
     790                            .dwattr $C$DW$54, DW_AT_decl_column(0x05)
     791                    
     792                    $C$DW$55        .dwtag  DW_TAG_enumerator
     793                            .dwattr $C$DW$55, DW_AT_name("FAPI_ERASE_OTP")
     794                            .dwattr $C$DW$55, DW_AT_const_value(0x30)
     795                            .dwattr $C$DW$55, DW_AT_decl_file("C:/ti/simplelink_cc13x0_sdk_2_30_00_20/source/ti/devices/cc
     796                            .dwattr $C$DW$55, DW_AT_decl_line(0xaf)
     797                            .dwattr $C$DW$55, DW_AT_decl_column(0x05)
     798                    
     799                            .dwattr $C$DW$T$168, DW_AT_decl_file("C:/ti/simplelink_cc13x0_sdk_2_30_00_20/source/ti/devices
     800                            .dwattr $C$DW$T$168, DW_AT_decl_line(0xa5)
     801                            .dwattr $C$DW$T$168, DW_AT_decl_column(0x01)
     802                            .dwendtag $C$DW$T$168
     803                    
     804                    $C$DW$T$169     .dwtag  DW_TAG_typedef
     805                            .dwattr $C$DW$T$169, DW_AT_name("tFlashStateCommandsType")
     806                            .dwattr $C$DW$T$169, DW_AT_type(*$C$DW$T$168)
     807                            .dwattr $C$DW$T$169, DW_AT_language(DW_LANG_C)
     808                            .dwattr $C$DW$T$169, DW_AT_decl_file("C:/ti/simplelink_cc13x0_sdk_2_30_00_20/source/ti/devices
     809                            .dwattr $C$DW$T$169, DW_AT_decl_line(0xb0)
     810                            .dwattr $C$DW$T$169, DW_AT_decl_column(0x03)
     811                    
     812                    
     813                    $C$DW$T$170     .dwtag  DW_TAG_enumeration_type
     814                            .dwattr $C$DW$T$170, DW_AT_byte_size(0x01)
     815                    $C$DW$56        .dwtag  DW_TAG_enumerator
     816                            .dwattr $C$DW$56, DW_AT_name("ICALL_RTI_APP_CMD_EVENT")
     817                            .dwattr $C$DW$56, DW_AT_const_value(0xe0)
     818                            .dwattr $C$DW$56, DW_AT_decl_file("C:/ti/simplelink_cc13x0_sdk_2_30_00_20/source/ti/ti154stack
     819                            .dwattr $C$DW$56, DW_AT_decl_line(0x3de)
     820                            .dwattr $C$DW$56, DW_AT_decl_column(0x04)
     821                    
     822                    $C$DW$57        .dwtag  DW_TAG_enumerator
     823                            .dwattr $C$DW$57, DW_AT_name("ICALL_RTI_STACK_CMD_EVENT")
     824                            .dwattr $C$DW$57, DW_AT_const_value(0xe1)
     825                            .dwattr $C$DW$57, DW_AT_decl_file("C:/ti/simplelink_cc13x0_sdk_2_30_00_20/source/ti/ti154stack
TI ARM Assembler PC v18.1.3 Wed Nov 28 13:34:33 2018

Tools Copyright (c) 1996-2017 Texas Instruments Incorporated
C:\Users\Adrian\AppData\Local\Temp\{1C8A0939-AB27-43CE-9698-03BC42AA3FBD} PAGE   16

     826                            .dwattr $C$DW$57, DW_AT_decl_line(0x3e0)
     827                            .dwattr $C$DW$57, DW_AT_decl_column(0x04)
     828                    
     829                    $C$DW$58        .dwtag  DW_TAG_enumerator
     830                            .dwattr $C$DW$58, DW_AT_name("ICALL_RTI_APP_ASYNC_CMD_EVENT")
     831                            .dwattr $C$DW$58, DW_AT_const_value(0xe2)
     832                            .dwattr $C$DW$58, DW_AT_decl_file("C:/ti/simplelink_cc13x0_sdk_2_30_00_20/source/ti/ti154stack
     833                            .dwattr $C$DW$58, DW_AT_decl_line(0x3e2)
     834                            .dwattr $C$DW$58, DW_AT_decl_column(0x04)
     835                    
     836                    $C$DW$59        .dwtag  DW_TAG_enumerator
     837                            .dwattr $C$DW$59, DW_AT_name("ICALL_RTI_APP_SYNC_CMD_EVENT")
     838                            .dwattr $C$DW$59, DW_AT_const_value(0xe3)
     839                            .dwattr $C$DW$59, DW_AT_decl_file("C:/ti/simplelink_cc13x0_sdk_2_30_00_20/source/ti/ti154stack
     840                            .dwattr $C$DW$59, DW_AT_decl_line(0x3e4)
     841                            .dwattr $C$DW$59, DW_AT_decl_column(0x04)
     842                    
     843                    $C$DW$60        .dwtag  DW_TAG_enumerator
     844                            .dwattr $C$DW$60, DW_AT_name("ICALL_RCN_APP_ASYNC_CMD_EVENT")
     845                            .dwattr $C$DW$60, DW_AT_const_value(0xe4)
     846                            .dwattr $C$DW$60, DW_AT_decl_file("C:/ti/simplelink_cc13x0_sdk_2_30_00_20/source/ti/ti154stack
     847                            .dwattr $C$DW$60, DW_AT_decl_line(0x3e6)
     848                            .dwattr $C$DW$60, DW_AT_decl_column(0x04)
     849                    
     850                    $C$DW$61        .dwtag  DW_TAG_enumerator
     851                            .dwattr $C$DW$61, DW_AT_name("ICALL_RCN_APP_SYNC_CMD_EVENT")
     852                            .dwattr $C$DW$61, DW_AT_const_value(0xe5)
     853                            .dwattr $C$DW$61, DW_AT_decl_file("C:/ti/simplelink_cc13x0_sdk_2_30_00_20/source/ti/ti154stack
     854                            .dwattr $C$DW$61, DW_AT_decl_line(0x3e8)
     855                            .dwattr $C$DW$61, DW_AT_decl_column(0x04)
     856                    
     857                            .dwattr $C$DW$T$170, DW_AT_decl_file("C:/ti/simplelink_cc13x0_sdk_2_30_00_20/source/ti/ti154st
     858                            .dwattr $C$DW$T$170, DW_AT_decl_line(0x3dc)
     859                            .dwattr $C$DW$T$170, DW_AT_decl_column(0x01)
     860                            .dwendtag $C$DW$T$170
     861                    
     862                    $C$DW$T$171     .dwtag  DW_TAG_typedef
     863                            .dwattr $C$DW$T$171, DW_AT_name("ICall_RemotiCmdEvent_t")
     864                            .dwattr $C$DW$T$171, DW_AT_type(*$C$DW$T$170)
     865                            .dwattr $C$DW$T$171, DW_AT_language(DW_LANG_C)
     866                            .dwattr $C$DW$T$171, DW_AT_decl_file("C:/ti/simplelink_cc13x0_sdk_2_30_00_20/source/ti/ti154st
     867                            .dwattr $C$DW$T$171, DW_AT_decl_line(0x3e9)
     868                            .dwattr $C$DW$T$171, DW_AT_decl_column(0x02)
     869                    
     870                    
     871                    $C$DW$T$21      .dwtag  DW_TAG_structure_type
     872                            .dwattr $C$DW$T$21, DW_AT_byte_size(0x10)
     873                    $C$DW$62        .dwtag  DW_TAG_member
     874                            .dwattr $C$DW$62, DW_AT_type(*$C$DW$T$14)
     875                            .dwattr $C$DW$62, DW_AT_name("__max_align1")
     876                            .dwattr $C$DW$62, DW_AT_TI_symbol_name("__max_align1")
     877                            .dwattr $C$DW$62, DW_AT_data_member_location[DW_OP_plus_uconst 0x0]
     878                            .dwattr $C$DW$62, DW_AT_accessibility(DW_ACCESS_public)
     879                            .dwattr $C$DW$62, DW_AT_decl_file("C:/ti/ccsv8/tools/compiler/ti-cgt-arm_18.1.3.LTS/include/sy
     880                            .dwattr $C$DW$62, DW_AT_decl_line(0x70)
TI ARM Assembler PC v18.1.3 Wed Nov 28 13:34:33 2018

Tools Copyright (c) 1996-2017 Texas Instruments Incorporated
C:\Users\Adrian\AppData\Local\Temp\{1C8A0939-AB27-43CE-9698-03BC42AA3FBD} PAGE   17

     881                            .dwattr $C$DW$62, DW_AT_decl_column(0x0c)
     882                    
     883                    $C$DW$63        .dwtag  DW_TAG_member
     884                            .dwattr $C$DW$63, DW_AT_type(*$C$DW$T$18)
     885                            .dwattr $C$DW$63, DW_AT_name("__max_align2")
     886                            .dwattr $C$DW$63, DW_AT_TI_symbol_name("__max_align2")
     887                            .dwattr $C$DW$63, DW_AT_data_member_location[DW_OP_plus_uconst 0x8]
     888                            .dwattr $C$DW$63, DW_AT_accessibility(DW_ACCESS_public)
     889                            .dwattr $C$DW$63, DW_AT_decl_file("C:/ti/ccsv8/tools/compiler/ti-cgt-arm_18.1.3.LTS/include/sy
     890                            .dwattr $C$DW$63, DW_AT_decl_line(0x71)
     891                            .dwattr $C$DW$63, DW_AT_decl_column(0x0e)
     892                    
     893                            .dwattr $C$DW$T$21, DW_AT_decl_file("C:/ti/ccsv8/tools/compiler/ti-cgt-arm_18.1.3.LTS/include/
     894                            .dwattr $C$DW$T$21, DW_AT_decl_line(0x6f)
     895                            .dwattr $C$DW$T$21, DW_AT_decl_column(0x10)
     896                            .dwendtag $C$DW$T$21
     897                    
     898                    $C$DW$T$172     .dwtag  DW_TAG_typedef
     899                            .dwattr $C$DW$T$172, DW_AT_name("__max_align_t")
     900                            .dwattr $C$DW$T$172, DW_AT_type(*$C$DW$T$21)
     901                            .dwattr $C$DW$T$172, DW_AT_language(DW_LANG_C)
     902                            .dwattr $C$DW$T$172, DW_AT_decl_file("C:/ti/ccsv8/tools/compiler/ti-cgt-arm_18.1.3.LTS/include
     903                            .dwattr $C$DW$T$172, DW_AT_decl_line(0x72)
     904                            .dwattr $C$DW$T$172, DW_AT_decl_column(0x03)
     905                    
     906                    
     907                    $C$DW$T$66      .dwtag  DW_TAG_structure_type
     908                            .dwattr $C$DW$T$66, DW_AT_byte_size(0x4c)
     909                    $C$DW$64        .dwtag  DW_TAG_member
     910                            .dwattr $C$DW$64, DW_AT_type(*$C$DW$T$29)
     911                            .dwattr $C$DW$64, DW_AT_name("Crc32")
     912                            .dwattr $C$DW$64, DW_AT_TI_symbol_name("Crc32")
     913                            .dwattr $C$DW$64, DW_AT_data_member_location[DW_OP_plus_uconst 0x0]
     914                            .dwattr $C$DW$64, DW_AT_accessibility(DW_ACCESS_public)
     915                            .dwattr $C$DW$64, DW_AT_decl_file("C:\ti\simplelink_cc13x0_sdk_2_30_00_20\source\ti\devices\cc
     916                            .dwattr $C$DW$64, DW_AT_decl_line(0x76)
     917                            .dwattr $C$DW$64, DW_AT_decl_column(0x25)
     918                    
     919                    $C$DW$65        .dwtag  DW_TAG_member
     920                            .dwattr $C$DW$65, DW_AT_type(*$C$DW$T$32)
     921                            .dwattr $C$DW$65, DW_AT_name("FlashGetSize")
     922                            .dwattr $C$DW$65, DW_AT_TI_symbol_name("FlashGetSize")
     923                            .dwattr $C$DW$65, DW_AT_data_member_location[DW_OP_plus_uconst 0x4]
     924                            .dwattr $C$DW$65, DW_AT_accessibility(DW_ACCESS_public)
     925                            .dwattr $C$DW$65, DW_AT_decl_file("C:\ti\simplelink_cc13x0_sdk_2_30_00_20\source\ti\devices\cc
     926                            .dwattr $C$DW$65, DW_AT_decl_line(0x77)
     927                            .dwattr $C$DW$65, DW_AT_decl_column(0x25)
     928                    
     929                    $C$DW$66        .dwtag  DW_TAG_member
     930                            .dwattr $C$DW$66, DW_AT_type(*$C$DW$T$33)
     931                            .dwattr $C$DW$66, DW_AT_name("GetChipId")
     932                            .dwattr $C$DW$66, DW_AT_TI_symbol_name("GetChipId")
     933                            .dwattr $C$DW$66, DW_AT_data_member_location[DW_OP_plus_uconst 0x8]
     934                            .dwattr $C$DW$66, DW_AT_accessibility(DW_ACCESS_public)
     935                            .dwattr $C$DW$66, DW_AT_decl_file("C:\ti\simplelink_cc13x0_sdk_2_30_00_20\source\ti\devices\cc
TI ARM Assembler PC v18.1.3 Wed Nov 28 13:34:33 2018

Tools Copyright (c) 1996-2017 Texas Instruments Incorporated
C:\Users\Adrian\AppData\Local\Temp\{1C8A0939-AB27-43CE-9698-03BC42AA3FBD} PAGE   18

     936                            .dwattr $C$DW$66, DW_AT_decl_line(0x78)
     937                            .dwattr $C$DW$66, DW_AT_decl_column(0x25)
     938                    
     939                    $C$DW$67        .dwtag  DW_TAG_member
     940                            .dwattr $C$DW$67, DW_AT_type(*$C$DW$T$36)
     941                            .dwattr $C$DW$67, DW_AT_name("ReservedLocation1")
     942                            .dwattr $C$DW$67, DW_AT_TI_symbol_name("ReservedLocation1")
     943                            .dwattr $C$DW$67, DW_AT_data_member_location[DW_OP_plus_uconst 0xc]
     944                            .dwattr $C$DW$67, DW_AT_accessibility(DW_ACCESS_public)
     945                            .dwattr $C$DW$67, DW_AT_decl_file("C:\ti\simplelink_cc13x0_sdk_2_30_00_20\source\ti\devices\cc
     946                            .dwattr $C$DW$67, DW_AT_decl_line(0x79)
     947                            .dwattr $C$DW$67, DW_AT_decl_column(0x25)
     948                    
     949                    $C$DW$68        .dwtag  DW_TAG_member
     950                            .dwattr $C$DW$68, DW_AT_type(*$C$DW$T$37)
     951                            .dwattr $C$DW$68, DW_AT_name("ReservedLocation2")
     952                            .dwattr $C$DW$68, DW_AT_TI_symbol_name("ReservedLocation2")
     953                            .dwattr $C$DW$68, DW_AT_data_member_location[DW_OP_plus_uconst 0x10]
     954                            .dwattr $C$DW$68, DW_AT_accessibility(DW_ACCESS_public)
     955                            .dwattr $C$DW$68, DW_AT_decl_file("C:\ti\simplelink_cc13x0_sdk_2_30_00_20\source\ti\devices\cc
     956                            .dwattr $C$DW$68, DW_AT_decl_line(0x7a)
     957                            .dwattr $C$DW$68, DW_AT_decl_column(0x25)
     958                    
     959                    $C$DW$69        .dwtag  DW_TAG_member
     960                            .dwattr $C$DW$69, DW_AT_type(*$C$DW$T$38)
     961                            .dwattr $C$DW$69, DW_AT_name("ReservedLocation3")
     962                            .dwattr $C$DW$69, DW_AT_TI_symbol_name("ReservedLocation3")
     963                            .dwattr $C$DW$69, DW_AT_data_member_location[DW_OP_plus_uconst 0x14]
     964                            .dwattr $C$DW$69, DW_AT_accessibility(DW_ACCESS_public)
     965                            .dwattr $C$DW$69, DW_AT_decl_file("C:\ti\simplelink_cc13x0_sdk_2_30_00_20\source\ti\devices\cc
     966                            .dwattr $C$DW$69, DW_AT_decl_line(0x7b)
     967                            .dwattr $C$DW$69, DW_AT_decl_column(0x25)
     968                    
     969                    $C$DW$70        .dwtag  DW_TAG_member
     970                            .dwattr $C$DW$70, DW_AT_type(*$C$DW$T$41)
     971                            .dwattr $C$DW$70, DW_AT_name("ResetDevice")
     972                            .dwattr $C$DW$70, DW_AT_TI_symbol_name("ResetDevice")
     973                            .dwattr $C$DW$70, DW_AT_data_member_location[DW_OP_plus_uconst 0x18]
     974                            .dwattr $C$DW$70, DW_AT_accessibility(DW_ACCESS_public)
     975                            .dwattr $C$DW$70, DW_AT_decl_file("C:\ti\simplelink_cc13x0_sdk_2_30_00_20\source\ti\devices\cc
     976                            .dwattr $C$DW$70, DW_AT_decl_line(0x7c)
     977                            .dwattr $C$DW$70, DW_AT_decl_column(0x25)
     978                    
     979                    $C$DW$71        .dwtag  DW_TAG_member
     980                            .dwattr $C$DW$71, DW_AT_type(*$C$DW$T$47)
     981                            .dwattr $C$DW$71, DW_AT_name("Fletcher32")
     982                            .dwattr $C$DW$71, DW_AT_TI_symbol_name("Fletcher32")
     983                            .dwattr $C$DW$71, DW_AT_data_member_location[DW_OP_plus_uconst 0x1c]
     984                            .dwattr $C$DW$71, DW_AT_accessibility(DW_ACCESS_public)
     985                            .dwattr $C$DW$71, DW_AT_decl_file("C:\ti\simplelink_cc13x0_sdk_2_30_00_20\source\ti\devices\cc
     986                            .dwattr $C$DW$71, DW_AT_decl_line(0x7d)
     987                            .dwattr $C$DW$71, DW_AT_decl_column(0x25)
     988                    
     989                    $C$DW$72        .dwtag  DW_TAG_member
     990                            .dwattr $C$DW$72, DW_AT_type(*$C$DW$T$51)
TI ARM Assembler PC v18.1.3 Wed Nov 28 13:34:33 2018

Tools Copyright (c) 1996-2017 Texas Instruments Incorporated
C:\Users\Adrian\AppData\Local\Temp\{1C8A0939-AB27-43CE-9698-03BC42AA3FBD} PAGE   19

     991                            .dwattr $C$DW$72, DW_AT_name("MinValue")
     992                            .dwattr $C$DW$72, DW_AT_TI_symbol_name("MinValue")
     993                            .dwattr $C$DW$72, DW_AT_data_member_location[DW_OP_plus_uconst 0x20]
     994                            .dwattr $C$DW$72, DW_AT_accessibility(DW_ACCESS_public)
     995                            .dwattr $C$DW$72, DW_AT_decl_file("C:\ti\simplelink_cc13x0_sdk_2_30_00_20\source\ti\devices\cc
     996                            .dwattr $C$DW$72, DW_AT_decl_line(0x7e)
     997                            .dwattr $C$DW$72, DW_AT_decl_column(0x25)
     998                    
     999                    $C$DW$73        .dwtag  DW_TAG_member
    1000                            .dwattr $C$DW$73, DW_AT_type(*$C$DW$T$52)
    1001                            .dwattr $C$DW$73, DW_AT_name("MaxValue")
    1002                            .dwattr $C$DW$73, DW_AT_TI_symbol_name("MaxValue")
    1003                            .dwattr $C$DW$73, DW_AT_data_member_location[DW_OP_plus_uconst 0x24]
    1004                            .dwattr $C$DW$73, DW_AT_accessibility(DW_ACCESS_public)
    1005                            .dwattr $C$DW$73, DW_AT_decl_file("C:\ti\simplelink_cc13x0_sdk_2_30_00_20\source\ti\devices\cc
    1006                            .dwattr $C$DW$73, DW_AT_decl_line(0x7f)
    1007                            .dwattr $C$DW$73, DW_AT_decl_column(0x25)
    1008                    
    1009                    $C$DW$74        .dwtag  DW_TAG_member
    1010                            .dwattr $C$DW$74, DW_AT_type(*$C$DW$T$53)
    1011                            .dwattr $C$DW$74, DW_AT_name("MeanValue")
    1012                            .dwattr $C$DW$74, DW_AT_TI_symbol_name("MeanValue")
    1013                            .dwattr $C$DW$74, DW_AT_data_member_location[DW_OP_plus_uconst 0x28]
    1014                            .dwattr $C$DW$74, DW_AT_accessibility(DW_ACCESS_public)
    1015                            .dwattr $C$DW$74, DW_AT_decl_file("C:\ti\simplelink_cc13x0_sdk_2_30_00_20\source\ti\devices\cc
    1016                            .dwattr $C$DW$74, DW_AT_decl_line(0x80)
    1017                            .dwattr $C$DW$74, DW_AT_decl_column(0x25)
    1018                    
    1019                    $C$DW$75        .dwtag  DW_TAG_member
    1020                            .dwattr $C$DW$75, DW_AT_type(*$C$DW$T$54)
    1021                            .dwattr $C$DW$75, DW_AT_name("StandDeviationValue")
    1022                            .dwattr $C$DW$75, DW_AT_TI_symbol_name("StandDeviationValue")
    1023                            .dwattr $C$DW$75, DW_AT_data_member_location[DW_OP_plus_uconst 0x2c]
    1024                            .dwattr $C$DW$75, DW_AT_accessibility(DW_ACCESS_public)
    1025                            .dwattr $C$DW$75, DW_AT_decl_file("C:\ti\simplelink_cc13x0_sdk_2_30_00_20\source\ti\devices\cc
    1026                            .dwattr $C$DW$75, DW_AT_decl_line(0x81)
    1027                            .dwattr $C$DW$75, DW_AT_decl_column(0x25)
    1028                    
    1029                    $C$DW$76        .dwtag  DW_TAG_member
    1030                            .dwattr $C$DW$76, DW_AT_type(*$C$DW$T$57)
    1031                            .dwattr $C$DW$76, DW_AT_name("ReservedLocation4")
    1032                            .dwattr $C$DW$76, DW_AT_TI_symbol_name("ReservedLocation4")
    1033                            .dwattr $C$DW$76, DW_AT_data_member_location[DW_OP_plus_uconst 0x30]
    1034                            .dwattr $C$DW$76, DW_AT_accessibility(DW_ACCESS_public)
    1035                            .dwattr $C$DW$76, DW_AT_decl_file("C:\ti\simplelink_cc13x0_sdk_2_30_00_20\source\ti\devices\cc
    1036                            .dwattr $C$DW$76, DW_AT_decl_line(0x82)
    1037                            .dwattr $C$DW$76, DW_AT_decl_column(0x25)
    1038                    
    1039                    $C$DW$77        .dwtag  DW_TAG_member
    1040                            .dwattr $C$DW$77, DW_AT_type(*$C$DW$T$58)
    1041                            .dwattr $C$DW$77, DW_AT_name("ReservedLocation5")
    1042                            .dwattr $C$DW$77, DW_AT_TI_symbol_name("ReservedLocation5")
    1043                            .dwattr $C$DW$77, DW_AT_data_member_location[DW_OP_plus_uconst 0x34]
    1044                            .dwattr $C$DW$77, DW_AT_accessibility(DW_ACCESS_public)
    1045                            .dwattr $C$DW$77, DW_AT_decl_file("C:\ti\simplelink_cc13x0_sdk_2_30_00_20\source\ti\devices\cc
TI ARM Assembler PC v18.1.3 Wed Nov 28 13:34:33 2018

Tools Copyright (c) 1996-2017 Texas Instruments Incorporated
C:\Users\Adrian\AppData\Local\Temp\{1C8A0939-AB27-43CE-9698-03BC42AA3FBD} PAGE   20

    1046                            .dwattr $C$DW$77, DW_AT_decl_line(0x83)
    1047                            .dwattr $C$DW$77, DW_AT_decl_column(0x25)
    1048                    
    1049                    $C$DW$78        .dwtag  DW_TAG_member
    1050                            .dwattr $C$DW$78, DW_AT_type(*$C$DW$T$59)
    1051                            .dwattr $C$DW$78, DW_AT_name("HFSourceSafeSwitch")
    1052                            .dwattr $C$DW$78, DW_AT_TI_symbol_name("HFSourceSafeSwitch")
    1053                            .dwattr $C$DW$78, DW_AT_data_member_location[DW_OP_plus_uconst 0x38]
    1054                            .dwattr $C$DW$78, DW_AT_accessibility(DW_ACCESS_public)
    1055                            .dwattr $C$DW$78, DW_AT_decl_file("C:\ti\simplelink_cc13x0_sdk_2_30_00_20\source\ti\devices\cc
    1056                            .dwattr $C$DW$78, DW_AT_decl_line(0x84)
    1057                            .dwattr $C$DW$78, DW_AT_decl_column(0x25)
    1058                    
    1059                    $C$DW$79        .dwtag  DW_TAG_member
    1060                            .dwattr $C$DW$79, DW_AT_type(*$C$DW$T$62)
    1061                            .dwattr $C$DW$79, DW_AT_name("SelectCompAInput")
    1062                            .dwattr $C$DW$79, DW_AT_TI_symbol_name("SelectCompAInput")
    1063                            .dwattr $C$DW$79, DW_AT_data_member_location[DW_OP_plus_uconst 0x3c]
    1064                            .dwattr $C$DW$79, DW_AT_accessibility(DW_ACCESS_public)
    1065                            .dwattr $C$DW$79, DW_AT_decl_file("C:\ti\simplelink_cc13x0_sdk_2_30_00_20\source\ti\devices\cc
    1066                            .dwattr $C$DW$79, DW_AT_decl_line(0x85)
    1067                            .dwattr $C$DW$79, DW_AT_decl_column(0x25)
    1068                    
    1069                    $C$DW$80        .dwtag  DW_TAG_member
    1070                            .dwattr $C$DW$80, DW_AT_type(*$C$DW$T$63)
    1071                            .dwattr $C$DW$80, DW_AT_name("SelectCompARef")
    1072                            .dwattr $C$DW$80, DW_AT_TI_symbol_name("SelectCompARef")
    1073                            .dwattr $C$DW$80, DW_AT_data_member_location[DW_OP_plus_uconst 0x40]
    1074                            .dwattr $C$DW$80, DW_AT_accessibility(DW_ACCESS_public)
    1075                            .dwattr $C$DW$80, DW_AT_decl_file("C:\ti\simplelink_cc13x0_sdk_2_30_00_20\source\ti\devices\cc
    1076                            .dwattr $C$DW$80, DW_AT_decl_line(0x86)
    1077                            .dwattr $C$DW$80, DW_AT_decl_column(0x25)
    1078                    
    1079                    $C$DW$81        .dwtag  DW_TAG_member
    1080                            .dwattr $C$DW$81, DW_AT_type(*$C$DW$T$64)
    1081                            .dwattr $C$DW$81, DW_AT_name("SelectADCCompBInput")
    1082                            .dwattr $C$DW$81, DW_AT_TI_symbol_name("SelectADCCompBInput")
    1083                            .dwattr $C$DW$81, DW_AT_data_member_location[DW_OP_plus_uconst 0x44]
    1084                            .dwattr $C$DW$81, DW_AT_accessibility(DW_ACCESS_public)
    1085                            .dwattr $C$DW$81, DW_AT_decl_file("C:\ti\simplelink_cc13x0_sdk_2_30_00_20\source\ti\devices\cc
    1086                            .dwattr $C$DW$81, DW_AT_decl_line(0x87)
    1087                            .dwattr $C$DW$81, DW_AT_decl_column(0x25)
    1088                    
    1089                    $C$DW$82        .dwtag  DW_TAG_member
    1090                            .dwattr $C$DW$82, DW_AT_type(*$C$DW$T$65)
    1091                            .dwattr $C$DW$82, DW_AT_name("SelectCompBRef")
    1092                            .dwattr $C$DW$82, DW_AT_TI_symbol_name("SelectCompBRef")
    1093                            .dwattr $C$DW$82, DW_AT_data_member_location[DW_OP_plus_uconst 0x48]
    1094                            .dwattr $C$DW$82, DW_AT_accessibility(DW_ACCESS_public)
    1095                            .dwattr $C$DW$82, DW_AT_decl_file("C:\ti\simplelink_cc13x0_sdk_2_30_00_20\source\ti\devices\cc
    1096                            .dwattr $C$DW$82, DW_AT_decl_line(0x88)
    1097                            .dwattr $C$DW$82, DW_AT_decl_column(0x25)
    1098                    
    1099                            .dwattr $C$DW$T$66, DW_AT_decl_file("C:\ti\simplelink_cc13x0_sdk_2_30_00_20\source\ti\devices\
    1100                            .dwattr $C$DW$T$66, DW_AT_decl_line(0x75)
TI ARM Assembler PC v18.1.3 Wed Nov 28 13:34:33 2018

Tools Copyright (c) 1996-2017 Texas Instruments Incorporated
C:\Users\Adrian\AppData\Local\Temp\{1C8A0939-AB27-43CE-9698-03BC42AA3FBD} PAGE   21

    1101                            .dwattr $C$DW$T$66, DW_AT_decl_column(0x01)
    1102                            .dwendtag $C$DW$T$66
    1103                    
    1104                    $C$DW$T$173     .dwtag  DW_TAG_typedef
    1105                            .dwattr $C$DW$T$173, DW_AT_name("HARD_API_T")
    1106                            .dwattr $C$DW$T$173, DW_AT_type(*$C$DW$T$66)
    1107                            .dwattr $C$DW$T$173, DW_AT_language(DW_LANG_C)
    1108                            .dwattr $C$DW$T$173, DW_AT_decl_file("C:\ti\simplelink_cc13x0_sdk_2_30_00_20\source\ti\devices
    1109                            .dwattr $C$DW$T$173, DW_AT_decl_line(0x89)
    1110                            .dwattr $C$DW$T$173, DW_AT_decl_column(0x03)
    1111                    
    1112                    
    1113                    $C$DW$T$67      .dwtag  DW_TAG_structure_type
    1114                            .dwattr $C$DW$T$67, DW_AT_byte_size(0x08)
    1115                    $C$DW$83        .dwtag  DW_TAG_member
    1116                            .dwattr $C$DW$83, DW_AT_type(*$C$DW$T$10)
    1117                            .dwattr $C$DW$83, DW_AT_name("quot")
    1118                            .dwattr $C$DW$83, DW_AT_TI_symbol_name("quot")
    1119                            .dwattr $C$DW$83, DW_AT_data_member_location[DW_OP_plus_uconst 0x0]
    1120                            .dwattr $C$DW$83, DW_AT_accessibility(DW_ACCESS_public)
    1121                            .dwattr $C$DW$83, DW_AT_decl_file("C:/ti/ccsv8/tools/compiler/ti-cgt-arm_18.1.3.LTS/include/st
    1122                            .dwattr $C$DW$83, DW_AT_decl_line(0x49)
    1123                            .dwattr $C$DW$83, DW_AT_decl_column(0x16)
    1124                    
    1125                    $C$DW$84        .dwtag  DW_TAG_member
    1126                            .dwattr $C$DW$84, DW_AT_type(*$C$DW$T$10)
    1127                            .dwattr $C$DW$84, DW_AT_name("rem")
    1128                            .dwattr $C$DW$84, DW_AT_TI_symbol_name("rem")
    1129                            .dwattr $C$DW$84, DW_AT_data_member_location[DW_OP_plus_uconst 0x4]
    1130                            .dwattr $C$DW$84, DW_AT_accessibility(DW_ACCESS_public)
    1131                            .dwattr $C$DW$84, DW_AT_decl_file("C:/ti/ccsv8/tools/compiler/ti-cgt-arm_18.1.3.LTS/include/st
    1132                            .dwattr $C$DW$84, DW_AT_decl_line(0x49)
    1133                            .dwattr $C$DW$84, DW_AT_decl_column(0x1c)
    1134                    
    1135                            .dwattr $C$DW$T$67, DW_AT_decl_file("C:/ti/ccsv8/tools/compiler/ti-cgt-arm_18.1.3.LTS/include/
    1136                            .dwattr $C$DW$T$67, DW_AT_decl_line(0x49)
    1137                            .dwattr $C$DW$T$67, DW_AT_decl_column(0x10)
    1138                            .dwendtag $C$DW$T$67
    1139                    
    1140                    $C$DW$T$174     .dwtag  DW_TAG_typedef
    1141                            .dwattr $C$DW$T$174, DW_AT_name("div_t")
    1142                            .dwattr $C$DW$T$174, DW_AT_type(*$C$DW$T$67)
    1143                            .dwattr $C$DW$T$174, DW_AT_language(DW_LANG_C)
    1144                            .dwattr $C$DW$T$174, DW_AT_decl_file("C:/ti/ccsv8/tools/compiler/ti-cgt-arm_18.1.3.LTS/include
    1145                            .dwattr $C$DW$T$174, DW_AT_decl_line(0x49)
    1146                            .dwattr $C$DW$T$174, DW_AT_decl_column(0x23)
    1147                    
    1148                    
    1149                    $C$DW$T$68      .dwtag  DW_TAG_structure_type
    1150                            .dwattr $C$DW$T$68, DW_AT_byte_size(0x08)
    1151                    $C$DW$85        .dwtag  DW_TAG_member
    1152                            .dwattr $C$DW$85, DW_AT_type(*$C$DW$T$10)
    1153                            .dwattr $C$DW$85, DW_AT_name("quot")
    1154                            .dwattr $C$DW$85, DW_AT_TI_symbol_name("quot")
    1155                            .dwattr $C$DW$85, DW_AT_data_member_location[DW_OP_plus_uconst 0x0]
TI ARM Assembler PC v18.1.3 Wed Nov 28 13:34:33 2018

Tools Copyright (c) 1996-2017 Texas Instruments Incorporated
C:\Users\Adrian\AppData\Local\Temp\{1C8A0939-AB27-43CE-9698-03BC42AA3FBD} PAGE   22

    1156                            .dwattr $C$DW$85, DW_AT_accessibility(DW_ACCESS_public)
    1157                            .dwattr $C$DW$85, DW_AT_decl_file("C:/ti/ccsv8/tools/compiler/ti-cgt-arm_18.1.3.LTS/include/st
    1158                            .dwattr $C$DW$85, DW_AT_decl_line(0x4e)
    1159                            .dwattr $C$DW$85, DW_AT_decl_column(0x16)
    1160                    
    1161                    $C$DW$86        .dwtag  DW_TAG_member
    1162                            .dwattr $C$DW$86, DW_AT_type(*$C$DW$T$10)
    1163                            .dwattr $C$DW$86, DW_AT_name("rem")
    1164                            .dwattr $C$DW$86, DW_AT_TI_symbol_name("rem")
    1165                            .dwattr $C$DW$86, DW_AT_data_member_location[DW_OP_plus_uconst 0x4]
    1166                            .dwattr $C$DW$86, DW_AT_accessibility(DW_ACCESS_public)
    1167                            .dwattr $C$DW$86, DW_AT_decl_file("C:/ti/ccsv8/tools/compiler/ti-cgt-arm_18.1.3.LTS/include/st
    1168                            .dwattr $C$DW$86, DW_AT_decl_line(0x4e)
    1169                            .dwattr $C$DW$86, DW_AT_decl_column(0x1c)
    1170                    
    1171                            .dwattr $C$DW$T$68, DW_AT_decl_file("C:/ti/ccsv8/tools/compiler/ti-cgt-arm_18.1.3.LTS/include/
    1172                            .dwattr $C$DW$T$68, DW_AT_decl_line(0x4e)
    1173                            .dwattr $C$DW$T$68, DW_AT_decl_column(0x10)
    1174                            .dwendtag $C$DW$T$68
    1175                    
    1176                    $C$DW$T$175     .dwtag  DW_TAG_typedef
    1177                            .dwattr $C$DW$T$175, DW_AT_name("ldiv_t")
    1178                            .dwattr $C$DW$T$175, DW_AT_type(*$C$DW$T$68)
    1179                            .dwattr $C$DW$T$175, DW_AT_language(DW_LANG_C)
    1180                            .dwattr $C$DW$T$175, DW_AT_decl_file("C:/ti/ccsv8/tools/compiler/ti-cgt-arm_18.1.3.LTS/include
    1181                            .dwattr $C$DW$T$175, DW_AT_decl_line(0x4e)
    1182                            .dwattr $C$DW$T$175, DW_AT_decl_column(0x23)
    1183                    
    1184                    
    1185                    $C$DW$T$69      .dwtag  DW_TAG_structure_type
    1186                            .dwattr $C$DW$T$69, DW_AT_byte_size(0x10)
    1187                    $C$DW$87        .dwtag  DW_TAG_member
    1188                            .dwattr $C$DW$87, DW_AT_type(*$C$DW$T$14)
    1189                            .dwattr $C$DW$87, DW_AT_name("quot")
    1190                            .dwattr $C$DW$87, DW_AT_TI_symbol_name("quot")
    1191                            .dwattr $C$DW$87, DW_AT_data_member_location[DW_OP_plus_uconst 0x0]
    1192                            .dwattr $C$DW$87, DW_AT_accessibility(DW_ACCESS_public)
    1193                            .dwattr $C$DW$87, DW_AT_decl_file("C:/ti/ccsv8/tools/compiler/ti-cgt-arm_18.1.3.LTS/include/st
    1194                            .dwattr $C$DW$87, DW_AT_decl_line(0x56)
    1195                            .dwattr $C$DW$87, DW_AT_decl_column(0x1c)
    1196                    
    1197                    $C$DW$88        .dwtag  DW_TAG_member
    1198                            .dwattr $C$DW$88, DW_AT_type(*$C$DW$T$14)
    1199                            .dwattr $C$DW$88, DW_AT_name("rem")
    1200                            .dwattr $C$DW$88, DW_AT_TI_symbol_name("rem")
    1201                            .dwattr $C$DW$88, DW_AT_data_member_location[DW_OP_plus_uconst 0x8]
    1202                            .dwattr $C$DW$88, DW_AT_accessibility(DW_ACCESS_public)
    1203                            .dwattr $C$DW$88, DW_AT_decl_file("C:/ti/ccsv8/tools/compiler/ti-cgt-arm_18.1.3.LTS/include/st
    1204                            .dwattr $C$DW$88, DW_AT_decl_line(0x56)
    1205                            .dwattr $C$DW$88, DW_AT_decl_column(0x22)
    1206                    
    1207                            .dwattr $C$DW$T$69, DW_AT_decl_file("C:/ti/ccsv8/tools/compiler/ti-cgt-arm_18.1.3.LTS/include/
    1208                            .dwattr $C$DW$T$69, DW_AT_decl_line(0x56)
    1209                            .dwattr $C$DW$T$69, DW_AT_decl_column(0x10)
    1210                            .dwendtag $C$DW$T$69
TI ARM Assembler PC v18.1.3 Wed Nov 28 13:34:33 2018

Tools Copyright (c) 1996-2017 Texas Instruments Incorporated
C:\Users\Adrian\AppData\Local\Temp\{1C8A0939-AB27-43CE-9698-03BC42AA3FBD} PAGE   23

    1211                    
    1212                    $C$DW$T$176     .dwtag  DW_TAG_typedef
    1213                            .dwattr $C$DW$T$176, DW_AT_name("lldiv_t")
    1214                            .dwattr $C$DW$T$176, DW_AT_type(*$C$DW$T$69)
    1215                            .dwattr $C$DW$T$176, DW_AT_language(DW_LANG_C)
    1216                            .dwattr $C$DW$T$176, DW_AT_decl_file("C:/ti/ccsv8/tools/compiler/ti-cgt-arm_18.1.3.LTS/include
    1217                            .dwattr $C$DW$T$176, DW_AT_decl_line(0x56)
    1218                            .dwattr $C$DW$T$176, DW_AT_decl_column(0x29)
    1219                    
    1220                    
    1221                    $C$DW$T$74      .dwtag  DW_TAG_structure_type
    1222                            .dwattr $C$DW$T$74, DW_AT_byte_size(0x08)
    1223                    $C$DW$89        .dwtag  DW_TAG_member
    1224                            .dwattr $C$DW$89, DW_AT_type(*$C$DW$T$72)
    1225                            .dwattr $C$DW$89, DW_AT_name("pointerStack")
    1226                            .dwattr $C$DW$89, DW_AT_TI_symbol_name("pointerStack")
    1227                            .dwattr $C$DW$89, DW_AT_data_member_location[DW_OP_plus_uconst 0x0]
    1228                            .dwattr $C$DW$89, DW_AT_accessibility(DW_ACCESS_public)
    1229                            .dwattr $C$DW$89, DW_AT_decl_file("C:/ti/simplelink_cc13x0_sdk_2_30_00_20/source/ti/ti154stack
    1230                            .dwattr $C$DW$89, DW_AT_decl_line(0x3f5)
    1231                            .dwattr $C$DW$89, DW_AT_decl_column(0x16)
    1232                    
    1233                    $C$DW$90        .dwtag  DW_TAG_member
    1234                            .dwattr $C$DW$90, DW_AT_type(*$C$DW$T$73)
    1235                            .dwattr $C$DW$90, DW_AT_name("directAPI")
    1236                            .dwattr $C$DW$90, DW_AT_TI_symbol_name("directAPI")
    1237                            .dwattr $C$DW$90, DW_AT_data_member_location[DW_OP_plus_uconst 0x4]
    1238                            .dwattr $C$DW$90, DW_AT_accessibility(DW_ACCESS_public)
    1239                            .dwattr $C$DW$90, DW_AT_decl_file("C:/ti/simplelink_cc13x0_sdk_2_30_00_20/source/ti/ti154stack
    1240                            .dwattr $C$DW$90, DW_AT_decl_line(0x3f6)
    1241                            .dwattr $C$DW$90, DW_AT_decl_column(0x15)
    1242                    
    1243                            .dwattr $C$DW$T$74, DW_AT_decl_file("C:/ti/simplelink_cc13x0_sdk_2_30_00_20/source/ti/ti154sta
    1244                            .dwattr $C$DW$T$74, DW_AT_decl_line(0x3f4)
    1245                            .dwattr $C$DW$T$74, DW_AT_decl_column(0x01)
    1246                            .dwendtag $C$DW$T$74
    1247                    
    1248                    $C$DW$T$76      .dwtag  DW_TAG_typedef
    1249                            .dwattr $C$DW$T$76, DW_AT_name("icall_directAPIMsg_t")
    1250                            .dwattr $C$DW$T$76, DW_AT_type(*$C$DW$T$74)
    1251                            .dwattr $C$DW$T$76, DW_AT_language(DW_LANG_C)
    1252                            .dwattr $C$DW$T$76, DW_AT_decl_file("C:/ti/simplelink_cc13x0_sdk_2_30_00_20/source/ti/ti154sta
    1253                            .dwattr $C$DW$T$76, DW_AT_decl_line(0x3f7)
    1254                            .dwattr $C$DW$T$76, DW_AT_decl_column(0x03)
    1255                    
    1256                    
    1257                    $C$DW$T$77      .dwtag  DW_TAG_structure_type
    1258                            .dwattr $C$DW$T$77, DW_AT_byte_size(0x14)
    1259                    $C$DW$91        .dwtag  DW_TAG_member
    1260                            .dwattr $C$DW$91, DW_AT_type(*$C$DW$T$75)
    1261                            .dwattr $C$DW$91, DW_AT_name("hdr")
    1262                            .dwattr $C$DW$91, DW_AT_TI_symbol_name("hdr")
    1263                            .dwattr $C$DW$91, DW_AT_data_member_location[DW_OP_plus_uconst 0x0]
    1264                            .dwattr $C$DW$91, DW_AT_accessibility(DW_ACCESS_public)
    1265                            .dwattr $C$DW$91, DW_AT_decl_file("C:/ti/simplelink_cc13x0_sdk_2_30_00_20/source/ti/ti154stack
TI ARM Assembler PC v18.1.3 Wed Nov 28 13:34:33 2018

Tools Copyright (c) 1996-2017 Texas Instruments Incorporated
C:\Users\Adrian\AppData\Local\Temp\{1C8A0939-AB27-43CE-9698-03BC42AA3FBD} PAGE   24

    1266                            .dwattr $C$DW$91, DW_AT_decl_line(0x3fb)
    1267                            .dwattr $C$DW$91, DW_AT_decl_column(0x10)
    1268                    
    1269                    $C$DW$92        .dwtag  DW_TAG_member
    1270                            .dwattr $C$DW$92, DW_AT_type(*$C$DW$T$76)
    1271                            .dwattr $C$DW$92, DW_AT_name("msg")
    1272                            .dwattr $C$DW$92, DW_AT_TI_symbol_name("msg")
    1273                            .dwattr $C$DW$92, DW_AT_data_member_location[DW_OP_plus_uconst 0xc]
    1274                            .dwattr $C$DW$92, DW_AT_accessibility(DW_ACCESS_public)
    1275                            .dwattr $C$DW$92, DW_AT_decl_file("C:/ti/simplelink_cc13x0_sdk_2_30_00_20/source/ti/ti154stack
    1276                            .dwattr $C$DW$92, DW_AT_decl_line(0x3fc)
    1277                            .dwattr $C$DW$92, DW_AT_decl_column(0x1a)
    1278                    
    1279                            .dwattr $C$DW$T$77, DW_AT_decl_file("C:/ti/simplelink_cc13x0_sdk_2_30_00_20/source/ti/ti154sta
    1280                            .dwattr $C$DW$T$77, DW_AT_decl_line(0x3fa)
    1281                            .dwattr $C$DW$T$77, DW_AT_decl_column(0x01)
    1282                            .dwendtag $C$DW$T$77
    1283                    
    1284                    $C$DW$T$177     .dwtag  DW_TAG_typedef
    1285                            .dwattr $C$DW$T$177, DW_AT_name("icallLiteMsg_t")
    1286                            .dwattr $C$DW$T$177, DW_AT_type(*$C$DW$T$77)
    1287                            .dwattr $C$DW$T$177, DW_AT_language(DW_LANG_C)
    1288                            .dwattr $C$DW$T$177, DW_AT_decl_file("C:/ti/simplelink_cc13x0_sdk_2_30_00_20/source/ti/ti154st
    1289                            .dwattr $C$DW$T$177, DW_AT_decl_line(0x3fd)
    1290                            .dwattr $C$DW$T$177, DW_AT_decl_column(0x03)
    1291                    
    1292                    
    1293                    $C$DW$T$84      .dwtag  DW_TAG_union_type
    1294                            .dwattr $C$DW$T$84, DW_AT_byte_size(0x02)
    1295                    $C$DW$93        .dwtag  DW_TAG_member
    1296                            .dwattr $C$DW$93, DW_AT_type(*$C$DW$T$80)
    1297                            .dwattr $C$DW$93, DW_AT_name("entityId")
    1298                            .dwattr $C$DW$93, DW_AT_TI_symbol_name("entityId")
    1299                            .dwattr $C$DW$93, DW_AT_data_member_location[DW_OP_plus_uconst 0x0]
    1300                            .dwattr $C$DW$93, DW_AT_accessibility(DW_ACCESS_public)
    1301                            .dwattr $C$DW$93, DW_AT_decl_file("C:/ti/simplelink_cc13x0_sdk_2_30_00_20/source/ti/ti154stack
    1302                            .dwattr $C$DW$93, DW_AT_decl_line(0x1fe)
    1303                            .dwattr $C$DW$93, DW_AT_decl_column(0x14)
    1304                    
    1305                    $C$DW$94        .dwtag  DW_TAG_member
    1306                            .dwattr $C$DW$94, DW_AT_type(*$C$DW$T$83)
    1307                            .dwattr $C$DW$94, DW_AT_name("servId")
    1308                            .dwattr $C$DW$94, DW_AT_TI_symbol_name("servId")
    1309                            .dwattr $C$DW$94, DW_AT_data_member_location[DW_OP_plus_uconst 0x0]
    1310                            .dwattr $C$DW$94, DW_AT_accessibility(DW_ACCESS_public)
    1311                            .dwattr $C$DW$94, DW_AT_decl_file("C:/ti/simplelink_cc13x0_sdk_2_30_00_20/source/ti/ti154stack
    1312                            .dwattr $C$DW$94, DW_AT_decl_line(0x200)
    1313                            .dwattr $C$DW$94, DW_AT_decl_column(0x17)
    1314                    
    1315                            .dwattr $C$DW$T$84, DW_AT_decl_file("C:/ti/simplelink_cc13x0_sdk_2_30_00_20/source/ti/ti154sta
    1316                            .dwattr $C$DW$T$84, DW_AT_decl_line(0x1fc)
    1317                            .dwattr $C$DW$T$84, DW_AT_decl_column(0x03)
    1318                            .dwendtag $C$DW$T$84
    1319                    
    1320                    
TI ARM Assembler PC v18.1.3 Wed Nov 28 13:34:33 2018

Tools Copyright (c) 1996-2017 Texas Instruments Incorporated
C:\Users\Adrian\AppData\Local\Temp\{1C8A0939-AB27-43CE-9698-03BC42AA3FBD} PAGE   25

    1321                    $C$DW$T$85      .dwtag  DW_TAG_union_type
    1322                            .dwattr $C$DW$T$85, DW_AT_byte_size(0x02)
    1323                    $C$DW$95        .dwtag  DW_TAG_member
    1324                            .dwattr $C$DW$95, DW_AT_type(*$C$DW$T$83)
    1325                            .dwattr $C$DW$95, DW_AT_name("servId")
    1326                            .dwattr $C$DW$95, DW_AT_TI_symbol_name("servId")
    1327                            .dwattr $C$DW$95, DW_AT_data_member_location[DW_OP_plus_uconst 0x0]
    1328                            .dwattr $C$DW$95, DW_AT_accessibility(DW_ACCESS_public)
    1329                            .dwattr $C$DW$95, DW_AT_decl_file("C:/ti/simplelink_cc13x0_sdk_2_30_00_20/source/ti/ti154stack
    1330                            .dwattr $C$DW$95, DW_AT_decl_line(0x211)
    1331                            .dwattr $C$DW$95, DW_AT_decl_column(0x17)
    1332                    
    1333                    $C$DW$96        .dwtag  DW_TAG_member
    1334                            .dwattr $C$DW$96, DW_AT_type(*$C$DW$T$80)
    1335                            .dwattr $C$DW$96, DW_AT_name("entityId")
    1336                            .dwattr $C$DW$96, DW_AT_TI_symbol_name("entityId")
    1337                            .dwattr $C$DW$96, DW_AT_data_member_location[DW_OP_plus_uconst 0x0]
    1338                            .dwattr $C$DW$96, DW_AT_accessibility(DW_ACCESS_public)
    1339                            .dwattr $C$DW$96, DW_AT_decl_file("C:/ti/simplelink_cc13x0_sdk_2_30_00_20/source/ti/ti154stack
    1340                            .dwattr $C$DW$96, DW_AT_decl_line(0x213)
    1341                            .dwattr $C$DW$96, DW_AT_decl_column(0x14)
    1342                    
    1343                            .dwattr $C$DW$T$85, DW_AT_decl_file("C:/ti/simplelink_cc13x0_sdk_2_30_00_20/source/ti/ti154sta
    1344                            .dwattr $C$DW$T$85, DW_AT_decl_line(0x20f)
    1345                            .dwattr $C$DW$T$85, DW_AT_decl_column(0x03)
    1346                            .dwendtag $C$DW$T$85
    1347                    
    1348                    
    1349                    $C$DW$T$86      .dwtag  DW_TAG_structure_type
    1350                            .dwattr $C$DW$T$86, DW_AT_name("_ICall_LiteCmdStatus_")
    1351                            .dwattr $C$DW$T$86, DW_AT_byte_size(0x01)
    1352                    $C$DW$97        .dwtag  DW_TAG_member
    1353                            .dwattr $C$DW$97, DW_AT_type(*$C$DW$T$79)
    1354                            .dwattr $C$DW$97, DW_AT_name("cmdId")
    1355                            .dwattr $C$DW$97, DW_AT_TI_symbol_name("cmdId")
    1356                            .dwattr $C$DW$97, DW_AT_data_member_location[DW_OP_plus_uconst 0x0]
    1357                            .dwattr $C$DW$97, DW_AT_accessibility(DW_ACCESS_public)
    1358                            .dwattr $C$DW$97, DW_AT_decl_file("C:/ti/simplelink_cc13x0_sdk_2_30_00_20/source/ti/ti154stack
    1359                            .dwattr $C$DW$97, DW_AT_decl_line(0x3f0)
    1360                            .dwattr $C$DW$97, DW_AT_decl_column(0x11)
    1361                    
    1362                            .dwattr $C$DW$T$86, DW_AT_decl_file("C:/ti/simplelink_cc13x0_sdk_2_30_00_20/source/ti/ti154sta
    1363                            .dwattr $C$DW$T$86, DW_AT_decl_line(0x3ee)
    1364                            .dwattr $C$DW$T$86, DW_AT_decl_column(0x10)
    1365                            .dwendtag $C$DW$T$86
    1366                    
    1367                    $C$DW$T$178     .dwtag  DW_TAG_typedef
    1368                            .dwattr $C$DW$T$178, DW_AT_name("ICall_LiteCmdStatus")
    1369                            .dwattr $C$DW$T$178, DW_AT_type(*$C$DW$T$86)
    1370                            .dwattr $C$DW$T$178, DW_AT_language(DW_LANG_C)
    1371                            .dwattr $C$DW$T$178, DW_AT_decl_file("C:/ti/simplelink_cc13x0_sdk_2_30_00_20/source/ti/ti154st
    1372                            .dwattr $C$DW$T$178, DW_AT_decl_line(0x3f1)
    1373                            .dwattr $C$DW$T$178, DW_AT_decl_column(0x03)
    1374                    
    1375                    $C$DW$T$2       .dwtag  DW_TAG_unspecified_type
TI ARM Assembler PC v18.1.3 Wed Nov 28 13:34:33 2018

Tools Copyright (c) 1996-2017 Texas Instruments Incorporated
C:\Users\Adrian\AppData\Local\Temp\{1C8A0939-AB27-43CE-9698-03BC42AA3FBD} PAGE   26

    1376                            .dwattr $C$DW$T$2, DW_AT_name("void")
    1377                    
    1378                    $C$DW$T$3       .dwtag  DW_TAG_pointer_type
    1379                            .dwattr $C$DW$T$3, DW_AT_type(*$C$DW$T$2)
    1380                            .dwattr $C$DW$T$3, DW_AT_address_class(0x20)
    1381                    
    1382                    $C$DW$T$179     .dwtag  DW_TAG_typedef
    1383                            .dwattr $C$DW$T$179, DW_AT_name("ICall_Semaphore")
    1384                            .dwattr $C$DW$T$179, DW_AT_type(*$C$DW$T$3)
    1385                            .dwattr $C$DW$T$179, DW_AT_language(DW_LANG_C)
    1386                            .dwattr $C$DW$T$179, DW_AT_decl_file("C:/ti/simplelink_cc13x0_sdk_2_30_00_20/source/ti/ti154st
    1387                            .dwattr $C$DW$T$179, DW_AT_decl_line(0x1ac)
    1388                            .dwattr $C$DW$T$179, DW_AT_decl_column(0x0f)
    1389                    
    1390                    $C$DW$T$102     .dwtag  DW_TAG_typedef
    1391                            .dwattr $C$DW$T$102, DW_AT_name("ICall_SyncHandle")
    1392                            .dwattr $C$DW$T$102, DW_AT_type(*$C$DW$T$3)
    1393                            .dwattr $C$DW$T$102, DW_AT_language(DW_LANG_C)
    1394                            .dwattr $C$DW$T$102, DW_AT_decl_file("C:/ti/simplelink_cc13x0_sdk_2_30_00_20/source/ti/ti154st
    1395                            .dwattr $C$DW$T$102, DW_AT_decl_line(0x1aa)
    1396                            .dwattr $C$DW$T$102, DW_AT_decl_column(0x0f)
    1397                    
    1398                    $C$DW$T$150     .dwtag  DW_TAG_typedef
    1399                            .dwattr $C$DW$T$150, DW_AT_name("ICall_TimerID")
    1400                            .dwattr $C$DW$T$150, DW_AT_type(*$C$DW$T$3)
    1401                            .dwattr $C$DW$T$150, DW_AT_language(DW_LANG_C)
    1402                            .dwattr $C$DW$T$150, DW_AT_decl_file("C:/ti/simplelink_cc13x0_sdk_2_30_00_20/source/ti/ti154st
    1403                            .dwattr $C$DW$T$150, DW_AT_decl_line(0x1b7)
    1404                            .dwattr $C$DW$T$150, DW_AT_decl_column(0x0f)
    1405                    
    1406                    
    1407                    $C$DW$T$39      .dwtag  DW_TAG_subroutine_type
    1408                            .dwattr $C$DW$T$39, DW_AT_language(DW_LANG_C)
    1409                            .dwendtag $C$DW$T$39
    1410                    
    1411                    $C$DW$T$40      .dwtag  DW_TAG_pointer_type
    1412                            .dwattr $C$DW$T$40, DW_AT_type(*$C$DW$T$39)
    1413                            .dwattr $C$DW$T$40, DW_AT_address_class(0x20)
    1414                    
    1415                    $C$DW$T$166     .dwtag  DW_TAG_typedef
    1416                            .dwattr $C$DW$T$166, DW_AT_name("APPASRTINTF_callAssrtHndler")
    1417                            .dwattr $C$DW$T$166, DW_AT_type(*$C$DW$T$40)
    1418                            .dwattr $C$DW$T$166, DW_AT_language(DW_LANG_C)
    1419                            .dwattr $C$DW$T$166, DW_AT_decl_file("C:/ti/simplelink_cc13x0_sdk_2_30_00_20/source/ti/ti154st
    1420                            .dwattr $C$DW$T$166, DW_AT_decl_line(0x43)
    1421                            .dwattr $C$DW$T$166, DW_AT_decl_column(0x10)
    1422                    
    1423                    $C$DW$T$59      .dwtag  DW_TAG_typedef
    1424                            .dwattr $C$DW$T$59, DW_AT_name("FPTR_HFSOURCESAFESWITCH_T")
    1425                            .dwattr $C$DW$T$59, DW_AT_type(*$C$DW$T$40)
    1426                            .dwattr $C$DW$T$59, DW_AT_language(DW_LANG_C)
    1427                            .dwattr $C$DW$T$59, DW_AT_decl_file("C:\ti\simplelink_cc13x0_sdk_2_30_00_20\source\ti\devices\
    1428                            .dwattr $C$DW$T$59, DW_AT_decl_line(0x5f)
    1429                            .dwattr $C$DW$T$59, DW_AT_decl_column(0x19)
    1430                    
TI ARM Assembler PC v18.1.3 Wed Nov 28 13:34:33 2018

Tools Copyright (c) 1996-2017 Texas Instruments Incorporated
C:\Users\Adrian\AppData\Local\Temp\{1C8A0939-AB27-43CE-9698-03BC42AA3FBD} PAGE   27

    1431                    $C$DW$T$41      .dwtag  DW_TAG_typedef
    1432                            .dwattr $C$DW$T$41, DW_AT_name("FPTR_RESETDEV_T")
    1433                            .dwattr $C$DW$T$41, DW_AT_type(*$C$DW$T$40)
    1434                            .dwattr $C$DW$T$41, DW_AT_language(DW_LANG_C)
    1435                            .dwattr $C$DW$T$41, DW_AT_decl_file("C:\ti\simplelink_cc13x0_sdk_2_30_00_20\source\ti\devices\
    1436                            .dwattr $C$DW$T$41, DW_AT_decl_line(0x4d)
    1437                            .dwattr $C$DW$T$41, DW_AT_decl_column(0x19)
    1438                    
    1439                    $C$DW$T$180     .dwtag  DW_TAG_typedef
    1440                            .dwattr $C$DW$T$180, DW_AT_name("FPTR_VOID_VOID_T")
    1441                            .dwattr $C$DW$T$180, DW_AT_type(*$C$DW$T$40)
    1442                            .dwattr $C$DW$T$180, DW_AT_language(DW_LANG_C)
    1443                            .dwattr $C$DW$T$180, DW_AT_decl_file("C:/ti/simplelink_cc13x0_sdk_2_30_00_20/source/ti/devices
    1444                            .dwattr $C$DW$T$180, DW_AT_decl_line(0x33)
    1445                            .dwattr $C$DW$T$180, DW_AT_decl_column(0x11)
    1446                    
    1447                    $C$DW$T$181     .dwtag  DW_TAG_typedef
    1448                            .dwattr $C$DW$T$181, DW_AT_name("__TI_atexit_fn")
    1449                            .dwattr $C$DW$T$181, DW_AT_type(*$C$DW$T$40)
    1450                            .dwattr $C$DW$T$181, DW_AT_language(DW_LANG_C)
    1451                            .dwattr $C$DW$T$181, DW_AT_decl_file("C:/ti/ccsv8/tools/compiler/ti-cgt-arm_18.1.3.LTS/include
    1452                            .dwattr $C$DW$T$181, DW_AT_decl_line(0xb2)
    1453                            .dwattr $C$DW$T$181, DW_AT_decl_column(0x14)
    1454                    
    1455                    
    1456                    $C$DW$T$55      .dwtag  DW_TAG_subroutine_type
    1457                            .dwattr $C$DW$T$55, DW_AT_language(DW_LANG_C)
    1458                    $C$DW$98        .dwtag  DW_TAG_formal_parameter
    1459                            .dwattr $C$DW$98, DW_AT_type(*$C$DW$T$23)
    1460                    
    1461                            .dwendtag $C$DW$T$55
    1462                    
    1463                    $C$DW$T$56      .dwtag  DW_TAG_pointer_type
    1464                            .dwattr $C$DW$T$56, DW_AT_type(*$C$DW$T$55)
    1465                            .dwattr $C$DW$T$56, DW_AT_address_class(0x20)
    1466                    
    1467                    $C$DW$T$57      .dwtag  DW_TAG_typedef
    1468                            .dwattr $C$DW$T$57, DW_AT_name("FPTR_RESERVED4_T")
    1469                            .dwattr $C$DW$T$57, DW_AT_type(*$C$DW$T$56)
    1470                            .dwattr $C$DW$T$57, DW_AT_language(DW_LANG_C)
    1471                            .dwattr $C$DW$T$57, DW_AT_decl_file("C:\ti\simplelink_cc13x0_sdk_2_30_00_20\source\ti\devices\
    1472                            .dwattr $C$DW$T$57, DW_AT_decl_line(0x61)
    1473                            .dwattr $C$DW$T$57, DW_AT_decl_column(0x19)
    1474                    
    1475                    $C$DW$T$58      .dwtag  DW_TAG_typedef
    1476                            .dwattr $C$DW$T$58, DW_AT_name("FPTR_RESERVED5_T")
    1477                            .dwattr $C$DW$T$58, DW_AT_type(*$C$DW$T$56)
    1478                            .dwattr $C$DW$T$58, DW_AT_language(DW_LANG_C)
    1479                            .dwattr $C$DW$T$58, DW_AT_decl_file("C:\ti\simplelink_cc13x0_sdk_2_30_00_20\source\ti\devices\
    1480                            .dwattr $C$DW$T$58, DW_AT_decl_line(0x63)
    1481                            .dwattr $C$DW$T$58, DW_AT_decl_column(0x19)
    1482                    
    1483                    
    1484                    $C$DW$T$60      .dwtag  DW_TAG_subroutine_type
    1485                            .dwattr $C$DW$T$60, DW_AT_language(DW_LANG_C)
TI ARM Assembler PC v18.1.3 Wed Nov 28 13:34:33 2018

Tools Copyright (c) 1996-2017 Texas Instruments Incorporated
C:\Users\Adrian\AppData\Local\Temp\{1C8A0939-AB27-43CE-9698-03BC42AA3FBD} PAGE   28

    1486                    $C$DW$99        .dwtag  DW_TAG_formal_parameter
    1487                            .dwattr $C$DW$99, DW_AT_type(*$C$DW$T$25)
    1488                    
    1489                            .dwendtag $C$DW$T$60
    1490                    
    1491                    $C$DW$T$61      .dwtag  DW_TAG_pointer_type
    1492                            .dwattr $C$DW$T$61, DW_AT_type(*$C$DW$T$60)
    1493                            .dwattr $C$DW$T$61, DW_AT_address_class(0x20)
    1494                    
    1495                    $C$DW$T$64      .dwtag  DW_TAG_typedef
    1496                            .dwattr $C$DW$T$64, DW_AT_name("FPTR_ADCCOMPBIN_T")
    1497                            .dwattr $C$DW$T$64, DW_AT_type(*$C$DW$T$61)
    1498                            .dwattr $C$DW$T$64, DW_AT_language(DW_LANG_C)
    1499                            .dwattr $C$DW$T$64, DW_AT_decl_file("C:\ti\simplelink_cc13x0_sdk_2_30_00_20\source\ti\devices\
    1500                            .dwattr $C$DW$T$64, DW_AT_decl_line(0x69)
    1501                            .dwattr $C$DW$T$64, DW_AT_decl_column(0x19)
    1502                    
    1503                    $C$DW$T$62      .dwtag  DW_TAG_typedef
    1504                            .dwattr $C$DW$T$62, DW_AT_name("FPTR_COMPAIN_T")
    1505                            .dwattr $C$DW$T$62, DW_AT_type(*$C$DW$T$61)
    1506                            .dwattr $C$DW$T$62, DW_AT_language(DW_LANG_C)
    1507                            .dwattr $C$DW$T$62, DW_AT_decl_file("C:\ti\simplelink_cc13x0_sdk_2_30_00_20\source\ti\devices\
    1508                            .dwattr $C$DW$T$62, DW_AT_decl_line(0x65)
    1509                            .dwattr $C$DW$T$62, DW_AT_decl_column(0x19)
    1510                    
    1511                    $C$DW$T$63      .dwtag  DW_TAG_typedef
    1512                            .dwattr $C$DW$T$63, DW_AT_name("FPTR_COMPAREF_T")
    1513                            .dwattr $C$DW$T$63, DW_AT_type(*$C$DW$T$61)
    1514                            .dwattr $C$DW$T$63, DW_AT_language(DW_LANG_C)
    1515                            .dwattr $C$DW$T$63, DW_AT_decl_file("C:\ti\simplelink_cc13x0_sdk_2_30_00_20\source\ti\devices\
    1516                            .dwattr $C$DW$T$63, DW_AT_decl_line(0x67)
    1517                            .dwattr $C$DW$T$63, DW_AT_decl_column(0x19)
    1518                    
    1519                    $C$DW$T$65      .dwtag  DW_TAG_typedef
    1520                            .dwattr $C$DW$T$65, DW_AT_name("FPTR_COMPBREF_T")
    1521                            .dwattr $C$DW$T$65, DW_AT_type(*$C$DW$T$61)
    1522                            .dwattr $C$DW$T$65, DW_AT_language(DW_LANG_C)
    1523                            .dwattr $C$DW$T$65, DW_AT_decl_file("C:\ti\simplelink_cc13x0_sdk_2_30_00_20\source\ti\devices\
    1524                            .dwattr $C$DW$T$65, DW_AT_decl_line(0x6b)
    1525                            .dwattr $C$DW$T$65, DW_AT_decl_column(0x19)
    1526                    
    1527                    $C$DW$T$182     .dwtag  DW_TAG_typedef
    1528                            .dwattr $C$DW$T$182, DW_AT_name("FPTR_VOID_UINT8_T")
    1529                            .dwattr $C$DW$T$182, DW_AT_type(*$C$DW$T$61)
    1530                            .dwattr $C$DW$T$182, DW_AT_language(DW_LANG_C)
    1531                            .dwattr $C$DW$T$182, DW_AT_decl_file("C:/ti/simplelink_cc13x0_sdk_2_30_00_20/source/ti/devices
    1532                            .dwattr $C$DW$T$182, DW_AT_decl_line(0x34)
    1533                            .dwattr $C$DW$T$182, DW_AT_decl_column(0x11)
    1534                    
    1535                    
    1536                    $C$DW$T$91      .dwtag  DW_TAG_subroutine_type
    1537                            .dwattr $C$DW$T$91, DW_AT_language(DW_LANG_C)
    1538                    $C$DW$100       .dwtag  DW_TAG_formal_parameter
    1539                            .dwattr $C$DW$100, DW_AT_type(*$C$DW$T$89)
    1540                    
TI ARM Assembler PC v18.1.3 Wed Nov 28 13:34:33 2018

Tools Copyright (c) 1996-2017 Texas Instruments Incorporated
C:\Users\Adrian\AppData\Local\Temp\{1C8A0939-AB27-43CE-9698-03BC42AA3FBD} PAGE   29

    1541                            .dwendtag $C$DW$T$91
    1542                    
    1543                    $C$DW$T$92      .dwtag  DW_TAG_pointer_type
    1544                            .dwattr $C$DW$T$92, DW_AT_type(*$C$DW$T$91)
    1545                            .dwattr $C$DW$T$92, DW_AT_address_class(0x20)
    1546                    
    1547                    
    1548                    $C$DW$T$128     .dwtag  DW_TAG_subroutine_type
    1549                            .dwattr $C$DW$T$128, DW_AT_language(DW_LANG_C)
    1550                    $C$DW$101       .dwtag  DW_TAG_formal_parameter
    1551                            .dwattr $C$DW$101, DW_AT_type(*$C$DW$T$126)
    1552                    
    1553                    $C$DW$102       .dwtag  DW_TAG_formal_parameter
    1554                            .dwattr $C$DW$102, DW_AT_type(*$C$DW$T$127)
    1555                    
    1556                            .dwendtag $C$DW$T$128
    1557                    
    1558                    $C$DW$T$129     .dwtag  DW_TAG_pointer_type
    1559                            .dwattr $C$DW$T$129, DW_AT_type(*$C$DW$T$128)
    1560                            .dwattr $C$DW$T$129, DW_AT_address_class(0x20)
    1561                    
    1562                    $C$DW$T$130     .dwtag  DW_TAG_typedef
    1563                            .dwattr $C$DW$T$130, DW_AT_name("ICall_PwrNotifyFn")
    1564                            .dwattr $C$DW$T$130, DW_AT_type(*$C$DW$T$129)
    1565                            .dwattr $C$DW$T$130, DW_AT_language(DW_LANG_C)
    1566                            .dwattr $C$DW$T$130, DW_AT_decl_file("C:/ti/simplelink_cc13x0_sdk_2_30_00_20/source/ti/ti154st
    1567                            .dwattr $C$DW$T$130, DW_AT_decl_line(0x333)
    1568                            .dwattr $C$DW$T$130, DW_AT_decl_column(0x10)
    1569                    
    1570                    
    1571                    $C$DW$T$144     .dwtag  DW_TAG_subroutine_type
    1572                            .dwattr $C$DW$T$144, DW_AT_language(DW_LANG_C)
    1573                    $C$DW$103       .dwtag  DW_TAG_formal_parameter
    1574                            .dwattr $C$DW$103, DW_AT_type(*$C$DW$T$140)
    1575                    
    1576                            .dwendtag $C$DW$T$144
    1577                    
    1578                    $C$DW$T$145     .dwtag  DW_TAG_pointer_type
    1579                            .dwattr $C$DW$T$145, DW_AT_type(*$C$DW$T$144)
    1580                            .dwattr $C$DW$T$145, DW_AT_address_class(0x20)
    1581                    
    1582                    $C$DW$T$146     .dwtag  DW_TAG_typedef
    1583                            .dwattr $C$DW$T$146, DW_AT_name("ICall_LeaveCS")
    1584                            .dwattr $C$DW$T$146, DW_AT_type(*$C$DW$T$145)
    1585                            .dwattr $C$DW$T$146, DW_AT_language(DW_LANG_C)
    1586                            .dwattr $C$DW$T$146, DW_AT_decl_file("C:/ti/simplelink_cc13x0_sdk_2_30_00_20/source/ti/ti154st
    1587                            .dwattr $C$DW$T$146, DW_AT_decl_line(0x37e)
    1588                            .dwattr $C$DW$T$146, DW_AT_decl_column(0x10)
    1589                    
    1590                    
    1591                    $C$DW$T$151     .dwtag  DW_TAG_subroutine_type
    1592                            .dwattr $C$DW$T$151, DW_AT_language(DW_LANG_C)
    1593                    $C$DW$104       .dwtag  DW_TAG_formal_parameter
    1594                            .dwattr $C$DW$104, DW_AT_type(*$C$DW$T$3)
    1595                    
TI ARM Assembler PC v18.1.3 Wed Nov 28 13:34:33 2018

Tools Copyright (c) 1996-2017 Texas Instruments Incorporated
C:\Users\Adrian\AppData\Local\Temp\{1C8A0939-AB27-43CE-9698-03BC42AA3FBD} PAGE   30

    1596                            .dwendtag $C$DW$T$151
    1597                    
    1598                    $C$DW$T$152     .dwtag  DW_TAG_pointer_type
    1599                            .dwattr $C$DW$T$152, DW_AT_type(*$C$DW$T$151)
    1600                            .dwattr $C$DW$T$152, DW_AT_address_class(0x20)
    1601                    
    1602                    $C$DW$T$153     .dwtag  DW_TAG_typedef
    1603                            .dwattr $C$DW$T$153, DW_AT_name("ICall_TimerCback")
    1604                            .dwattr $C$DW$T$153, DW_AT_type(*$C$DW$T$152)
    1605                            .dwattr $C$DW$T$153, DW_AT_language(DW_LANG_C)
    1606                            .dwattr $C$DW$T$153, DW_AT_decl_file("C:/ti/simplelink_cc13x0_sdk_2_30_00_20/source/ti/ti154st
    1607                            .dwattr $C$DW$T$153, DW_AT_decl_line(0x1c8)
    1608                            .dwattr $C$DW$T$153, DW_AT_decl_column(0x10)
    1609                    
    1610                    $C$DW$T$160     .dwtag  DW_TAG_const_type
    1611                            .dwattr $C$DW$T$160, DW_AT_type(*$C$DW$T$2)
    1612                    
    1613                    $C$DW$T$161     .dwtag  DW_TAG_pointer_type
    1614                            .dwattr $C$DW$T$161, DW_AT_type(*$C$DW$T$160)
    1615                            .dwattr $C$DW$T$161, DW_AT_address_class(0x20)
    1616                    
    1617                    
    1618                    $C$DW$T$186     .dwtag  DW_TAG_subroutine_type
    1619                            .dwattr $C$DW$T$186, DW_AT_language(DW_LANG_C)
    1620                    $C$DW$105       .dwtag  DW_TAG_formal_parameter
    1621                            .dwattr $C$DW$105, DW_AT_type(*$C$DW$T$184)
    1622                    
    1623                    $C$DW$106       .dwtag  DW_TAG_formal_parameter
    1624                            .dwattr $C$DW$106, DW_AT_type(*$C$DW$T$184)
    1625                    
    1626                            .dwendtag $C$DW$T$186
    1627                    
    1628                    $C$DW$T$187     .dwtag  DW_TAG_pointer_type
    1629                            .dwattr $C$DW$T$187, DW_AT_type(*$C$DW$T$186)
    1630                            .dwattr $C$DW$T$187, DW_AT_address_class(0x20)
    1631                    
    1632                    
    1633                    $C$DW$T$189     .dwtag  DW_TAG_subroutine_type
    1634                            .dwattr $C$DW$T$189, DW_AT_language(DW_LANG_C)
    1635                    $C$DW$107       .dwtag  DW_TAG_formal_parameter
    1636                            .dwattr $C$DW$107, DW_AT_type(*$C$DW$T$183)
    1637                    
    1638                    $C$DW$108       .dwtag  DW_TAG_formal_parameter
    1639                            .dwattr $C$DW$108, DW_AT_type(*$C$DW$T$183)
    1640                    
    1641                            .dwendtag $C$DW$T$189
    1642                    
    1643                    $C$DW$T$190     .dwtag  DW_TAG_pointer_type
    1644                            .dwattr $C$DW$T$190, DW_AT_type(*$C$DW$T$189)
    1645                            .dwattr $C$DW$T$190, DW_AT_address_class(0x20)
    1646                    
    1647                    $C$DW$T$191     .dwtag  DW_TAG_typedef
    1648                            .dwattr $C$DW$T$191, DW_AT_name("assertCback_t")
    1649                            .dwattr $C$DW$T$191, DW_AT_type(*$C$DW$T$190)
    1650                            .dwattr $C$DW$T$191, DW_AT_language(DW_LANG_C)
TI ARM Assembler PC v18.1.3 Wed Nov 28 13:34:33 2018

Tools Copyright (c) 1996-2017 Texas Instruments Incorporated
C:\Users\Adrian\AppData\Local\Temp\{1C8A0939-AB27-43CE-9698-03BC42AA3FBD} PAGE   31

    1651                            .dwattr $C$DW$T$191, DW_AT_decl_file("C:/ti/simplelink_cc13x0_sdk_2_30_00_20/source/ti/ti154st
    1652                            .dwattr $C$DW$T$191, DW_AT_decl_line(0xd3)
    1653                            .dwattr $C$DW$T$191, DW_AT_decl_column(0x10)
    1654                    
    1655                    
    1656                    $C$DW$T$195     .dwtag  DW_TAG_subroutine_type
    1657                            .dwattr $C$DW$T$195, DW_AT_language(DW_LANG_C)
    1658                    $C$DW$109       .dwtag  DW_TAG_formal_parameter
    1659                            .dwattr $C$DW$109, DW_AT_type(*$C$DW$T$194)
    1660                    
    1661                    $C$DW$110       .dwtag  DW_TAG_formal_parameter
    1662                            .dwattr $C$DW$110, DW_AT_type(*$C$DW$T$3)
    1663                    
    1664                            .dwendtag $C$DW$T$195
    1665                    
    1666                    $C$DW$T$196     .dwtag  DW_TAG_pointer_type
    1667                            .dwattr $C$DW$T$196, DW_AT_type(*$C$DW$T$195)
    1668                            .dwattr $C$DW$T$196, DW_AT_address_class(0x20)
    1669                    
    1670                    $C$DW$T$197     .dwtag  DW_TAG_typedef
    1671                            .dwattr $C$DW$T$197, DW_AT_name("ICall_RemoteTaskEntry")
    1672                            .dwattr $C$DW$T$197, DW_AT_type(*$C$DW$T$196)
    1673                            .dwattr $C$DW$T$197, DW_AT_language(DW_LANG_C)
    1674                            .dwattr $C$DW$T$197, DW_AT_decl_file("C:/ti/simplelink_cc13x0_sdk_2_30_00_20/source/ti/ti154st
    1675                            .dwattr $C$DW$T$197, DW_AT_decl_line(0x39b)
    1676                            .dwattr $C$DW$T$197, DW_AT_decl_column(0x10)
    1677                    
    1678                    $C$DW$T$4       .dwtag  DW_TAG_base_type
    1679                            .dwattr $C$DW$T$4, DW_AT_encoding(DW_ATE_boolean)
    1680                            .dwattr $C$DW$T$4, DW_AT_name("bool")
    1681                            .dwattr $C$DW$T$4, DW_AT_byte_size(0x01)
    1682                    
    1683                    $C$DW$T$5       .dwtag  DW_TAG_base_type
    1684                            .dwattr $C$DW$T$5, DW_AT_encoding(DW_ATE_signed_char)
    1685                            .dwattr $C$DW$T$5, DW_AT_name("signed char")
    1686                            .dwattr $C$DW$T$5, DW_AT_byte_size(0x01)
    1687                    
    1688                    $C$DW$T$198     .dwtag  DW_TAG_typedef
    1689                            .dwattr $C$DW$T$198, DW_AT_name("__int8_t")
    1690                            .dwattr $C$DW$T$198, DW_AT_type(*$C$DW$T$5)
    1691                            .dwattr $C$DW$T$198, DW_AT_language(DW_LANG_C)
    1692                            .dwattr $C$DW$T$198, DW_AT_decl_file("C:/ti/ccsv8/tools/compiler/ti-cgt-arm_18.1.3.LTS/include
    1693                            .dwattr $C$DW$T$198, DW_AT_decl_line(0x39)
    1694                            .dwattr $C$DW$T$198, DW_AT_decl_column(0x16)
    1695                    
    1696                    $C$DW$T$199     .dwtag  DW_TAG_typedef
    1697                            .dwattr $C$DW$T$199, DW_AT_name("__int_least8_t")
    1698                            .dwattr $C$DW$T$199, DW_AT_type(*$C$DW$T$198)
    1699                            .dwattr $C$DW$T$199, DW_AT_language(DW_LANG_C)
    1700                            .dwattr $C$DW$T$199, DW_AT_decl_file("C:/ti/ccsv8/tools/compiler/ti-cgt-arm_18.1.3.LTS/include
    1701                            .dwattr $C$DW$T$199, DW_AT_decl_line(0x58)
    1702                            .dwattr $C$DW$T$199, DW_AT_decl_column(0x12)
    1703                    
    1704                    $C$DW$T$200     .dwtag  DW_TAG_typedef
    1705                            .dwattr $C$DW$T$200, DW_AT_name("int_least8_t")
TI ARM Assembler PC v18.1.3 Wed Nov 28 13:34:33 2018

Tools Copyright (c) 1996-2017 Texas Instruments Incorporated
C:\Users\Adrian\AppData\Local\Temp\{1C8A0939-AB27-43CE-9698-03BC42AA3FBD} PAGE   32

    1706                            .dwattr $C$DW$T$200, DW_AT_type(*$C$DW$T$199)
    1707                            .dwattr $C$DW$T$200, DW_AT_language(DW_LANG_C)
    1708                            .dwattr $C$DW$T$200, DW_AT_decl_file("C:/ti/ccsv8/tools/compiler/ti-cgt-arm_18.1.3.LTS/include
    1709                            .dwattr $C$DW$T$200, DW_AT_decl_line(0x28)
    1710                            .dwattr $C$DW$T$200, DW_AT_decl_column(0x19)
    1711                    
    1712                    $C$DW$T$201     .dwtag  DW_TAG_typedef
    1713                            .dwattr $C$DW$T$201, DW_AT_name("int8_t")
    1714                            .dwattr $C$DW$T$201, DW_AT_type(*$C$DW$T$198)
    1715                            .dwattr $C$DW$T$201, DW_AT_language(DW_LANG_C)
    1716                            .dwattr $C$DW$T$201, DW_AT_decl_file("C:/ti/ccsv8/tools/compiler/ti-cgt-arm_18.1.3.LTS/include
    1717                            .dwattr $C$DW$T$201, DW_AT_decl_line(0x24)
    1718                            .dwattr $C$DW$T$201, DW_AT_decl_column(0x13)
    1719                    
    1720                    $C$DW$T$202     .dwtag  DW_TAG_typedef
    1721                            .dwattr $C$DW$T$202, DW_AT_name("int8")
    1722                            .dwattr $C$DW$T$202, DW_AT_type(*$C$DW$T$5)
    1723                            .dwattr $C$DW$T$202, DW_AT_language(DW_LANG_C)
    1724                            .dwattr $C$DW$T$202, DW_AT_decl_file("C:\ti\simplelink_cc13x0_sdk_2_30_00_20\source\ti\ti154st
    1725                            .dwattr $C$DW$T$202, DW_AT_decl_line(0x38)
    1726                            .dwattr $C$DW$T$202, DW_AT_decl_column(0x19)
    1727                    
    1728                    $C$DW$T$6       .dwtag  DW_TAG_base_type
    1729                            .dwattr $C$DW$T$6, DW_AT_encoding(DW_ATE_unsigned_char)
    1730                            .dwattr $C$DW$T$6, DW_AT_name("unsigned char")
    1731                            .dwattr $C$DW$T$6, DW_AT_byte_size(0x01)
    1732                    
    1733                    $C$DW$T$24      .dwtag  DW_TAG_typedef
    1734                            .dwattr $C$DW$T$24, DW_AT_name("__uint8_t")
    1735                            .dwattr $C$DW$T$24, DW_AT_type(*$C$DW$T$6)
    1736                            .dwattr $C$DW$T$24, DW_AT_language(DW_LANG_C)
    1737                            .dwattr $C$DW$T$24, DW_AT_decl_file("C:/ti/ccsv8/tools/compiler/ti-cgt-arm_18.1.3.LTS/include/
    1738                            .dwattr $C$DW$T$24, DW_AT_decl_line(0x3a)
    1739                            .dwattr $C$DW$T$24, DW_AT_decl_column(0x18)
    1740                    
    1741                    $C$DW$T$206     .dwtag  DW_TAG_typedef
    1742                            .dwattr $C$DW$T$206, DW_AT_name("__sa_family_t")
    1743                            .dwattr $C$DW$T$206, DW_AT_type(*$C$DW$T$24)
    1744                            .dwattr $C$DW$T$206, DW_AT_language(DW_LANG_C)
    1745                            .dwattr $C$DW$T$206, DW_AT_decl_file("C:/ti/ccsv8/tools/compiler/ti-cgt-arm_18.1.3.LTS/include
    1746                            .dwattr $C$DW$T$206, DW_AT_decl_line(0x43)
    1747                            .dwattr $C$DW$T$206, DW_AT_decl_column(0x13)
    1748                    
    1749                    $C$DW$T$78      .dwtag  DW_TAG_typedef
    1750                            .dwattr $C$DW$T$78, DW_AT_name("__uint_least8_t")
    1751                            .dwattr $C$DW$T$78, DW_AT_type(*$C$DW$T$24)
    1752                            .dwattr $C$DW$T$78, DW_AT_language(DW_LANG_C)
    1753                            .dwattr $C$DW$T$78, DW_AT_decl_file("C:/ti/ccsv8/tools/compiler/ti-cgt-arm_18.1.3.LTS/include/
    1754                            .dwattr $C$DW$T$78, DW_AT_decl_line(0x6d)
    1755                            .dwattr $C$DW$T$78, DW_AT_decl_column(0x13)
    1756                    
    1757                    $C$DW$T$79      .dwtag  DW_TAG_typedef
    1758                            .dwattr $C$DW$T$79, DW_AT_name("uint_least8_t")
    1759                            .dwattr $C$DW$T$79, DW_AT_type(*$C$DW$T$78)
    1760                            .dwattr $C$DW$T$79, DW_AT_language(DW_LANG_C)
TI ARM Assembler PC v18.1.3 Wed Nov 28 13:34:33 2018

Tools Copyright (c) 1996-2017 Texas Instruments Incorporated
C:\Users\Adrian\AppData\Local\Temp\{1C8A0939-AB27-43CE-9698-03BC42AA3FBD} PAGE   33

    1761                            .dwattr $C$DW$T$79, DW_AT_decl_file("C:/ti/ccsv8/tools/compiler/ti-cgt-arm_18.1.3.LTS/include/
    1762                            .dwattr $C$DW$T$79, DW_AT_decl_line(0x2d)
    1763                            .dwattr $C$DW$T$79, DW_AT_decl_column(0x1a)
    1764                    
    1765                    $C$DW$T$80      .dwtag  DW_TAG_typedef
    1766                            .dwattr $C$DW$T$80, DW_AT_name("ICall_EntityID")
    1767                            .dwattr $C$DW$T$80, DW_AT_type(*$C$DW$T$79)
    1768                            .dwattr $C$DW$T$80, DW_AT_language(DW_LANG_C)
    1769                            .dwattr $C$DW$T$80, DW_AT_decl_file("C:/ti/simplelink_cc13x0_sdk_2_30_00_20/source/ti/ti154sta
    1770                            .dwattr $C$DW$T$80, DW_AT_decl_line(0x1b4)
    1771                            .dwattr $C$DW$T$80, DW_AT_decl_column(0x17)
    1772                    
    1773                    $C$DW$T$148     .dwtag  DW_TAG_typedef
    1774                            .dwattr $C$DW$T$148, DW_AT_name("ICall_MSGFormat")
    1775                            .dwattr $C$DW$T$148, DW_AT_type(*$C$DW$T$79)
    1776                            .dwattr $C$DW$T$148, DW_AT_language(DW_LANG_C)
    1777                            .dwattr $C$DW$T$148, DW_AT_decl_file("C:/ti/simplelink_cc13x0_sdk_2_30_00_20/source/ti/ti154st
    1778                            .dwattr $C$DW$T$148, DW_AT_decl_line(0x1a4)
    1779                            .dwattr $C$DW$T$148, DW_AT_decl_column(0x17)
    1780                    
    1781                    $C$DW$T$25      .dwtag  DW_TAG_typedef
    1782                            .dwattr $C$DW$T$25, DW_AT_name("uint8_t")
    1783                            .dwattr $C$DW$T$25, DW_AT_type(*$C$DW$T$24)
    1784                            .dwattr $C$DW$T$25, DW_AT_language(DW_LANG_C)
    1785                            .dwattr $C$DW$T$25, DW_AT_decl_file("C:/ti/ccsv8/tools/compiler/ti-cgt-arm_18.1.3.LTS/include/
    1786                            .dwattr $C$DW$T$25, DW_AT_decl_line(0x38)
    1787                            .dwattr $C$DW$T$25, DW_AT_decl_column(0x14)
    1788                    
    1789                    $C$DW$T$26      .dwtag  DW_TAG_pointer_type
    1790                            .dwattr $C$DW$T$26, DW_AT_type(*$C$DW$T$25)
    1791                            .dwattr $C$DW$T$26, DW_AT_address_class(0x20)
    1792                    
    1793                    $C$DW$T$207     .dwtag  DW_TAG_volatile_type
    1794                            .dwattr $C$DW$T$207, DW_AT_type(*$C$DW$T$25)
    1795                    
    1796                    $C$DW$T$208     .dwtag  DW_TAG_typedef
    1797                            .dwattr $C$DW$T$208, DW_AT_name("tFwpWriteByte")
    1798                            .dwattr $C$DW$T$208, DW_AT_type(*$C$DW$T$207)
    1799                            .dwattr $C$DW$T$208, DW_AT_language(DW_LANG_C)
    1800                            .dwattr $C$DW$T$208, DW_AT_decl_file("C:/ti/simplelink_cc13x0_sdk_2_30_00_20/source/ti/devices
    1801                            .dwattr $C$DW$T$208, DW_AT_decl_line(0xde)
    1802                            .dwattr $C$DW$T$208, DW_AT_decl_column(0x1a)
    1803                    
    1804                    $C$DW$T$183     .dwtag  DW_TAG_typedef
    1805                            .dwattr $C$DW$T$183, DW_AT_name("uint8")
    1806                            .dwattr $C$DW$T$183, DW_AT_type(*$C$DW$T$6)
    1807                            .dwattr $C$DW$T$183, DW_AT_language(DW_LANG_C)
    1808                            .dwattr $C$DW$T$183, DW_AT_decl_file("C:\ti\simplelink_cc13x0_sdk_2_30_00_20\source\ti\ti154st
    1809                            .dwattr $C$DW$T$183, DW_AT_decl_line(0x39)
    1810                            .dwattr $C$DW$T$183, DW_AT_decl_column(0x19)
    1811                    
    1812                    $C$DW$T$184     .dwtag  DW_TAG_pointer_type
    1813                            .dwattr $C$DW$T$184, DW_AT_type(*$C$DW$T$183)
    1814                            .dwattr $C$DW$T$184, DW_AT_address_class(0x20)
    1815                    
TI ARM Assembler PC v18.1.3 Wed Nov 28 13:34:33 2018

Tools Copyright (c) 1996-2017 Texas Instruments Incorporated
C:\Users\Adrian\AppData\Local\Temp\{1C8A0939-AB27-43CE-9698-03BC42AA3FBD} PAGE   34

    1816                    $C$DW$T$209     .dwtag  DW_TAG_const_type
    1817                            .dwattr $C$DW$T$209, DW_AT_type(*$C$DW$T$184)
    1818                    
    1819                    $C$DW$T$7       .dwtag  DW_TAG_base_type
    1820                            .dwattr $C$DW$T$7, DW_AT_encoding(DW_ATE_signed_char)
    1821                            .dwattr $C$DW$T$7, DW_AT_name("wchar_t")
    1822                            .dwattr $C$DW$T$7, DW_AT_byte_size(0x02)
    1823                    
    1824                    $C$DW$T$8       .dwtag  DW_TAG_base_type
    1825                            .dwattr $C$DW$T$8, DW_AT_encoding(DW_ATE_signed)
    1826                            .dwattr $C$DW$T$8, DW_AT_name("short")
    1827                            .dwattr $C$DW$T$8, DW_AT_byte_size(0x02)
    1828                    
    1829                    $C$DW$T$211     .dwtag  DW_TAG_typedef
    1830                            .dwattr $C$DW$T$211, DW_AT_name("__int16_t")
    1831                            .dwattr $C$DW$T$211, DW_AT_type(*$C$DW$T$8)
    1832                            .dwattr $C$DW$T$211, DW_AT_language(DW_LANG_C)
    1833                            .dwattr $C$DW$T$211, DW_AT_decl_file("C:/ti/ccsv8/tools/compiler/ti-cgt-arm_18.1.3.LTS/include
    1834                            .dwattr $C$DW$T$211, DW_AT_decl_line(0x3b)
    1835                            .dwattr $C$DW$T$211, DW_AT_decl_column(0x11)
    1836                    
    1837                    $C$DW$T$212     .dwtag  DW_TAG_typedef
    1838                            .dwattr $C$DW$T$212, DW_AT_name("__int_least16_t")
    1839                            .dwattr $C$DW$T$212, DW_AT_type(*$C$DW$T$211)
    1840                            .dwattr $C$DW$T$212, DW_AT_language(DW_LANG_C)
    1841                            .dwattr $C$DW$T$212, DW_AT_decl_file("C:/ti/ccsv8/tools/compiler/ti-cgt-arm_18.1.3.LTS/include
    1842                            .dwattr $C$DW$T$212, DW_AT_decl_line(0x59)
    1843                            .dwattr $C$DW$T$212, DW_AT_decl_column(0x13)
    1844                    
    1845                    $C$DW$T$213     .dwtag  DW_TAG_typedef
    1846                            .dwattr $C$DW$T$213, DW_AT_name("int_least16_t")
    1847                            .dwattr $C$DW$T$213, DW_AT_type(*$C$DW$T$212)
    1848                            .dwattr $C$DW$T$213, DW_AT_language(DW_LANG_C)
    1849                            .dwattr $C$DW$T$213, DW_AT_decl_file("C:/ti/ccsv8/tools/compiler/ti-cgt-arm_18.1.3.LTS/include
    1850                            .dwattr $C$DW$T$213, DW_AT_decl_line(0x29)
    1851                            .dwattr $C$DW$T$213, DW_AT_decl_column(0x1a)
    1852                    
    1853                    $C$DW$T$214     .dwtag  DW_TAG_typedef
    1854                            .dwattr $C$DW$T$214, DW_AT_name("int16_t")
    1855                            .dwattr $C$DW$T$214, DW_AT_type(*$C$DW$T$211)
    1856                            .dwattr $C$DW$T$214, DW_AT_language(DW_LANG_C)
    1857                            .dwattr $C$DW$T$214, DW_AT_decl_file("C:/ti/ccsv8/tools/compiler/ti-cgt-arm_18.1.3.LTS/include
    1858                            .dwattr $C$DW$T$214, DW_AT_decl_line(0x29)
    1859                            .dwattr $C$DW$T$214, DW_AT_decl_column(0x14)
    1860                    
    1861                    $C$DW$T$215     .dwtag  DW_TAG_typedef
    1862                            .dwattr $C$DW$T$215, DW_AT_name("int16")
    1863                            .dwattr $C$DW$T$215, DW_AT_type(*$C$DW$T$8)
    1864                            .dwattr $C$DW$T$215, DW_AT_language(DW_LANG_C)
    1865                            .dwattr $C$DW$T$215, DW_AT_decl_file("C:\ti\simplelink_cc13x0_sdk_2_30_00_20\source\ti\ti154st
    1866                            .dwattr $C$DW$T$215, DW_AT_decl_line(0x3b)
    1867                            .dwattr $C$DW$T$215, DW_AT_decl_column(0x19)
    1868                    
    1869                    $C$DW$T$9       .dwtag  DW_TAG_base_type
    1870                            .dwattr $C$DW$T$9, DW_AT_encoding(DW_ATE_unsigned)
TI ARM Assembler PC v18.1.3 Wed Nov 28 13:34:33 2018

Tools Copyright (c) 1996-2017 Texas Instruments Incorporated
C:\Users\Adrian\AppData\Local\Temp\{1C8A0939-AB27-43CE-9698-03BC42AA3FBD} PAGE   35

    1871                            .dwattr $C$DW$T$9, DW_AT_name("unsigned short")
    1872                            .dwattr $C$DW$T$9, DW_AT_byte_size(0x02)
    1873                    
    1874                    $C$DW$T$216     .dwtag  DW_TAG_typedef
    1875                            .dwattr $C$DW$T$216, DW_AT_name("___wchar_t")
    1876                            .dwattr $C$DW$T$216, DW_AT_type(*$C$DW$T$9)
    1877                            .dwattr $C$DW$T$216, DW_AT_language(DW_LANG_C)
    1878                            .dwattr $C$DW$T$216, DW_AT_decl_file("C:/ti/ccsv8/tools/compiler/ti-cgt-arm_18.1.3.LTS/include
    1879                            .dwattr $C$DW$T$216, DW_AT_decl_line(0x76)
    1880                            .dwattr $C$DW$T$216, DW_AT_decl_column(0x1a)
    1881                    
    1882                    $C$DW$T$42      .dwtag  DW_TAG_typedef
    1883                            .dwattr $C$DW$T$42, DW_AT_name("__uint16_t")
    1884                            .dwattr $C$DW$T$42, DW_AT_type(*$C$DW$T$9)
    1885                            .dwattr $C$DW$T$42, DW_AT_language(DW_LANG_C)
    1886                            .dwattr $C$DW$T$42, DW_AT_decl_file("C:/ti/ccsv8/tools/compiler/ti-cgt-arm_18.1.3.LTS/include/
    1887                            .dwattr $C$DW$T$42, DW_AT_decl_line(0x3c)
    1888                            .dwattr $C$DW$T$42, DW_AT_decl_column(0x19)
    1889                    
    1890                    $C$DW$T$217     .dwtag  DW_TAG_typedef
    1891                            .dwattr $C$DW$T$217, DW_AT_name("__mode_t")
    1892                            .dwattr $C$DW$T$217, DW_AT_type(*$C$DW$T$42)
    1893                            .dwattr $C$DW$T$217, DW_AT_language(DW_LANG_C)
    1894                            .dwattr $C$DW$T$217, DW_AT_decl_file("C:/ti/ccsv8/tools/compiler/ti-cgt-arm_18.1.3.LTS/include
    1895                            .dwattr $C$DW$T$217, DW_AT_decl_line(0x39)
    1896                            .dwattr $C$DW$T$217, DW_AT_decl_column(0x14)
    1897                    
    1898                    $C$DW$T$81      .dwtag  DW_TAG_typedef
    1899                            .dwattr $C$DW$T$81, DW_AT_name("__uint_least16_t")
    1900                            .dwattr $C$DW$T$81, DW_AT_type(*$C$DW$T$42)
    1901                            .dwattr $C$DW$T$81, DW_AT_language(DW_LANG_C)
    1902                            .dwattr $C$DW$T$81, DW_AT_decl_file("C:/ti/ccsv8/tools/compiler/ti-cgt-arm_18.1.3.LTS/include/
    1903                            .dwattr $C$DW$T$81, DW_AT_decl_line(0x6e)
    1904                            .dwattr $C$DW$T$81, DW_AT_decl_column(0x14)
    1905                    
    1906                    $C$DW$T$218     .dwtag  DW_TAG_typedef
    1907                            .dwattr $C$DW$T$218, DW_AT_name("__char16_t")
    1908                            .dwattr $C$DW$T$218, DW_AT_type(*$C$DW$T$81)
    1909                            .dwattr $C$DW$T$218, DW_AT_language(DW_LANG_C)
    1910                            .dwattr $C$DW$T$218, DW_AT_decl_file("C:/ti/ccsv8/tools/compiler/ti-cgt-arm_18.1.3.LTS/include
    1911                            .dwattr $C$DW$T$218, DW_AT_decl_line(0x66)
    1912                            .dwattr $C$DW$T$218, DW_AT_decl_column(0x1a)
    1913                    
    1914                    $C$DW$T$82      .dwtag  DW_TAG_typedef
    1915                            .dwattr $C$DW$T$82, DW_AT_name("uint_least16_t")
    1916                            .dwattr $C$DW$T$82, DW_AT_type(*$C$DW$T$81)
    1917                            .dwattr $C$DW$T$82, DW_AT_language(DW_LANG_C)
    1918                            .dwattr $C$DW$T$82, DW_AT_decl_file("C:/ti/ccsv8/tools/compiler/ti-cgt-arm_18.1.3.LTS/include/
    1919                            .dwattr $C$DW$T$82, DW_AT_decl_line(0x2e)
    1920                            .dwattr $C$DW$T$82, DW_AT_decl_column(0x1a)
    1921                    
    1922                    $C$DW$T$107     .dwtag  DW_TAG_typedef
    1923                            .dwattr $C$DW$T$107, DW_AT_name("ICall_FuncID")
    1924                            .dwattr $C$DW$T$107, DW_AT_type(*$C$DW$T$82)
    1925                            .dwattr $C$DW$T$107, DW_AT_language(DW_LANG_C)
TI ARM Assembler PC v18.1.3 Wed Nov 28 13:34:33 2018

Tools Copyright (c) 1996-2017 Texas Instruments Incorporated
C:\Users\Adrian\AppData\Local\Temp\{1C8A0939-AB27-43CE-9698-03BC42AA3FBD} PAGE   36

    1926                            .dwattr $C$DW$T$107, DW_AT_decl_file("C:/ti/simplelink_cc13x0_sdk_2_30_00_20/source/ti/ti154st
    1927                            .dwattr $C$DW$T$107, DW_AT_decl_line(0x1a7)
    1928                            .dwattr $C$DW$T$107, DW_AT_decl_column(0x18)
    1929                    
    1930                    $C$DW$T$83      .dwtag  DW_TAG_typedef
    1931                            .dwattr $C$DW$T$83, DW_AT_name("ICall_ServiceEnum")
    1932                            .dwattr $C$DW$T$83, DW_AT_type(*$C$DW$T$82)
    1933                            .dwattr $C$DW$T$83, DW_AT_language(DW_LANG_C)
    1934                            .dwattr $C$DW$T$83, DW_AT_decl_file("C:/ti/simplelink_cc13x0_sdk_2_30_00_20/source/ti/ti154sta
    1935                            .dwattr $C$DW$T$83, DW_AT_decl_line(0x1a1)
    1936                            .dwattr $C$DW$T$83, DW_AT_decl_column(0x18)
    1937                    
    1938                    $C$DW$T$43      .dwtag  DW_TAG_typedef
    1939                            .dwattr $C$DW$T$43, DW_AT_name("uint16_t")
    1940                            .dwattr $C$DW$T$43, DW_AT_type(*$C$DW$T$42)
    1941                            .dwattr $C$DW$T$43, DW_AT_language(DW_LANG_C)
    1942                            .dwattr $C$DW$T$43, DW_AT_decl_file("C:/ti/ccsv8/tools/compiler/ti-cgt-arm_18.1.3.LTS/include/
    1943                            .dwattr $C$DW$T$43, DW_AT_decl_line(0x3d)
    1944                            .dwattr $C$DW$T$43, DW_AT_decl_column(0x15)
    1945                    
    1946                    $C$DW$T$44      .dwtag  DW_TAG_pointer_type
    1947                            .dwattr $C$DW$T$44, DW_AT_type(*$C$DW$T$43)
    1948                            .dwattr $C$DW$T$44, DW_AT_address_class(0x20)
    1949                    
    1950                    $C$DW$T$219     .dwtag  DW_TAG_typedef
    1951                            .dwattr $C$DW$T$219, DW_AT_name("uint16")
    1952                            .dwattr $C$DW$T$219, DW_AT_type(*$C$DW$T$9)
    1953                            .dwattr $C$DW$T$219, DW_AT_language(DW_LANG_C)
    1954                            .dwattr $C$DW$T$219, DW_AT_decl_file("C:\ti\simplelink_cc13x0_sdk_2_30_00_20\source\ti\ti154st
    1955                            .dwattr $C$DW$T$219, DW_AT_decl_line(0x3c)
    1956                            .dwattr $C$DW$T$219, DW_AT_decl_column(0x19)
    1957                    
    1958                    $C$DW$T$220     .dwtag  DW_TAG_typedef
    1959                            .dwattr $C$DW$T$220, DW_AT_name("wchar_t")
    1960                            .dwattr $C$DW$T$220, DW_AT_type(*$C$DW$T$9)
    1961                            .dwattr $C$DW$T$220, DW_AT_language(DW_LANG_C)
    1962                            .dwattr $C$DW$T$220, DW_AT_decl_file("C:/ti/ccsv8/tools/compiler/ti-cgt-arm_18.1.3.LTS/include
    1963                            .dwattr $C$DW$T$220, DW_AT_decl_line(0x6e)
    1964                            .dwattr $C$DW$T$220, DW_AT_decl_column(0x1a)
    1965                    
    1966                    $C$DW$T$10      .dwtag  DW_TAG_base_type
    1967                            .dwattr $C$DW$T$10, DW_AT_encoding(DW_ATE_signed)
    1968                            .dwattr $C$DW$T$10, DW_AT_name("int")
    1969                            .dwattr $C$DW$T$10, DW_AT_byte_size(0x04)
    1970                    
    1971                    $C$DW$T$221     .dwtag  DW_TAG_typedef
    1972                            .dwattr $C$DW$T$221, DW_AT_name("_Mbstatet")
    1973                            .dwattr $C$DW$T$221, DW_AT_type(*$C$DW$T$10)
    1974                            .dwattr $C$DW$T$221, DW_AT_language(DW_LANG_C)
    1975                            .dwattr $C$DW$T$221, DW_AT_decl_file("C:/ti/ccsv8/tools/compiler/ti-cgt-arm_18.1.3.LTS/include
    1976                            .dwattr $C$DW$T$221, DW_AT_decl_line(0x84)
    1977                            .dwattr $C$DW$T$221, DW_AT_decl_column(0x0d)
    1978                    
    1979                    $C$DW$T$222     .dwtag  DW_TAG_typedef
    1980                            .dwattr $C$DW$T$222, DW_AT_name("__mbstate_t")
TI ARM Assembler PC v18.1.3 Wed Nov 28 13:34:33 2018

Tools Copyright (c) 1996-2017 Texas Instruments Incorporated
C:\Users\Adrian\AppData\Local\Temp\{1C8A0939-AB27-43CE-9698-03BC42AA3FBD} PAGE   37

    1981                            .dwattr $C$DW$T$222, DW_AT_type(*$C$DW$T$221)
    1982                            .dwattr $C$DW$T$222, DW_AT_language(DW_LANG_C)
    1983                            .dwattr $C$DW$T$222, DW_AT_decl_file("C:/ti/ccsv8/tools/compiler/ti-cgt-arm_18.1.3.LTS/include
    1984                            .dwattr $C$DW$T$222, DW_AT_decl_line(0x87)
    1985                            .dwattr $C$DW$T$222, DW_AT_decl_column(0x13)
    1986                    
    1987                    $C$DW$T$223     .dwtag  DW_TAG_typedef
    1988                            .dwattr $C$DW$T$223, DW_AT_name("__accmode_t")
    1989                            .dwattr $C$DW$T$223, DW_AT_type(*$C$DW$T$10)
    1990                            .dwattr $C$DW$T$223, DW_AT_language(DW_LANG_C)
    1991                            .dwattr $C$DW$T$223, DW_AT_decl_file("C:/ti/ccsv8/tools/compiler/ti-cgt-arm_18.1.3.LTS/include
    1992                            .dwattr $C$DW$T$223, DW_AT_decl_line(0x3a)
    1993                            .dwattr $C$DW$T$223, DW_AT_decl_column(0x0e)
    1994                    
    1995                    
    1996                    $C$DW$T$224     .dwtag  DW_TAG_subroutine_type
    1997                            .dwattr $C$DW$T$224, DW_AT_type(*$C$DW$T$10)
    1998                            .dwattr $C$DW$T$224, DW_AT_language(DW_LANG_C)
    1999                    $C$DW$111       .dwtag  DW_TAG_formal_parameter
    2000                            .dwattr $C$DW$111, DW_AT_type(*$C$DW$T$161)
    2001                    
    2002                    $C$DW$112       .dwtag  DW_TAG_formal_parameter
    2003                            .dwattr $C$DW$112, DW_AT_type(*$C$DW$T$161)
    2004                    
    2005                            .dwendtag $C$DW$T$224
    2006                    
    2007                    $C$DW$T$225     .dwtag  DW_TAG_pointer_type
    2008                            .dwattr $C$DW$T$225, DW_AT_type(*$C$DW$T$224)
    2009                            .dwattr $C$DW$T$225, DW_AT_address_class(0x20)
    2010                    
    2011                    $C$DW$T$226     .dwtag  DW_TAG_typedef
    2012                            .dwattr $C$DW$T$226, DW_AT_name("__TI_compar_fn")
    2013                            .dwattr $C$DW$T$226, DW_AT_type(*$C$DW$T$225)
    2014                            .dwattr $C$DW$T$226, DW_AT_language(DW_LANG_C)
    2015                            .dwattr $C$DW$T$226, DW_AT_decl_file("C:/ti/ccsv8/tools/compiler/ti-cgt-arm_18.1.3.LTS/include
    2016                            .dwattr $C$DW$T$226, DW_AT_decl_line(0xb5)
    2017                            .dwattr $C$DW$T$226, DW_AT_decl_column(0x13)
    2018                    
    2019                    $C$DW$T$227     .dwtag  DW_TAG_typedef
    2020                            .dwattr $C$DW$T$227, DW_AT_name("__cpulevel_t")
    2021                            .dwattr $C$DW$T$227, DW_AT_type(*$C$DW$T$10)
    2022                            .dwattr $C$DW$T$227, DW_AT_language(DW_LANG_C)
    2023                            .dwattr $C$DW$T$227, DW_AT_decl_file("C:/ti/ccsv8/tools/compiler/ti-cgt-arm_18.1.3.LTS/include
    2024                            .dwattr $C$DW$T$227, DW_AT_decl_line(0x4b)
    2025                            .dwattr $C$DW$T$227, DW_AT_decl_column(0x0e)
    2026                    
    2027                    $C$DW$T$228     .dwtag  DW_TAG_typedef
    2028                            .dwattr $C$DW$T$228, DW_AT_name("__cpusetid_t")
    2029                            .dwattr $C$DW$T$228, DW_AT_type(*$C$DW$T$10)
    2030                            .dwattr $C$DW$T$228, DW_AT_language(DW_LANG_C)
    2031                            .dwattr $C$DW$T$228, DW_AT_decl_file("C:/ti/ccsv8/tools/compiler/ti-cgt-arm_18.1.3.LTS/include
    2032                            .dwattr $C$DW$T$228, DW_AT_decl_line(0x4c)
    2033                            .dwattr $C$DW$T$228, DW_AT_decl_column(0x0e)
    2034                    
    2035                    $C$DW$T$229     .dwtag  DW_TAG_typedef
TI ARM Assembler PC v18.1.3 Wed Nov 28 13:34:33 2018

Tools Copyright (c) 1996-2017 Texas Instruments Incorporated
C:\Users\Adrian\AppData\Local\Temp\{1C8A0939-AB27-43CE-9698-03BC42AA3FBD} PAGE   38

    2036                            .dwattr $C$DW$T$229, DW_AT_name("__cpuwhich_t")
    2037                            .dwattr $C$DW$T$229, DW_AT_type(*$C$DW$T$10)
    2038                            .dwattr $C$DW$T$229, DW_AT_language(DW_LANG_C)
    2039                            .dwattr $C$DW$T$229, DW_AT_decl_file("C:/ti/ccsv8/tools/compiler/ti-cgt-arm_18.1.3.LTS/include
    2040                            .dwattr $C$DW$T$229, DW_AT_decl_line(0x4a)
    2041                            .dwattr $C$DW$T$229, DW_AT_decl_column(0x0e)
    2042                    
    2043                    $C$DW$T$230     .dwtag  DW_TAG_typedef
    2044                            .dwattr $C$DW$T$230, DW_AT_name("__ct_rune_t")
    2045                            .dwattr $C$DW$T$230, DW_AT_type(*$C$DW$T$10)
    2046                            .dwattr $C$DW$T$230, DW_AT_language(DW_LANG_C)
    2047                            .dwattr $C$DW$T$230, DW_AT_decl_file("C:/ti/ccsv8/tools/compiler/ti-cgt-arm_18.1.3.LTS/include
    2048                            .dwattr $C$DW$T$230, DW_AT_decl_line(0x60)
    2049                            .dwattr $C$DW$T$230, DW_AT_decl_column(0x0e)
    2050                    
    2051                    $C$DW$T$231     .dwtag  DW_TAG_typedef
    2052                            .dwattr $C$DW$T$231, DW_AT_name("__rune_t")
    2053                            .dwattr $C$DW$T$231, DW_AT_type(*$C$DW$T$230)
    2054                            .dwattr $C$DW$T$231, DW_AT_language(DW_LANG_C)
    2055                            .dwattr $C$DW$T$231, DW_AT_decl_file("C:/ti/ccsv8/tools/compiler/ti-cgt-arm_18.1.3.LTS/include
    2056                            .dwattr $C$DW$T$231, DW_AT_decl_line(0x61)
    2057                            .dwattr $C$DW$T$231, DW_AT_decl_column(0x15)
    2058                    
    2059                    $C$DW$T$232     .dwtag  DW_TAG_typedef
    2060                            .dwattr $C$DW$T$232, DW_AT_name("__wint_t")
    2061                            .dwattr $C$DW$T$232, DW_AT_type(*$C$DW$T$230)
    2062                            .dwattr $C$DW$T$232, DW_AT_language(DW_LANG_C)
    2063                            .dwattr $C$DW$T$232, DW_AT_decl_file("C:/ti/ccsv8/tools/compiler/ti-cgt-arm_18.1.3.LTS/include
    2064                            .dwattr $C$DW$T$232, DW_AT_decl_line(0x62)
    2065                            .dwattr $C$DW$T$232, DW_AT_decl_column(0x15)
    2066                    
    2067                    $C$DW$T$94      .dwtag  DW_TAG_typedef
    2068                            .dwattr $C$DW$T$94, DW_AT_name("__int32_t")
    2069                            .dwattr $C$DW$T$94, DW_AT_type(*$C$DW$T$10)
    2070                            .dwattr $C$DW$T$94, DW_AT_language(DW_LANG_C)
    2071                            .dwattr $C$DW$T$94, DW_AT_decl_file("C:/ti/ccsv8/tools/compiler/ti-cgt-arm_18.1.3.LTS/include/
    2072                            .dwattr $C$DW$T$94, DW_AT_decl_line(0x3d)
    2073                            .dwattr $C$DW$T$94, DW_AT_decl_column(0x0f)
    2074                    
    2075                    $C$DW$T$233     .dwtag  DW_TAG_typedef
    2076                            .dwattr $C$DW$T$233, DW_AT_name("__blksize_t")
    2077                            .dwattr $C$DW$T$233, DW_AT_type(*$C$DW$T$94)
    2078                            .dwattr $C$DW$T$233, DW_AT_language(DW_LANG_C)
    2079                            .dwattr $C$DW$T$233, DW_AT_decl_file("C:/ti/ccsv8/tools/compiler/ti-cgt-arm_18.1.3.LTS/include
    2080                            .dwattr $C$DW$T$233, DW_AT_decl_line(0x2e)
    2081                            .dwattr $C$DW$T$233, DW_AT_decl_column(0x13)
    2082                    
    2083                    $C$DW$T$234     .dwtag  DW_TAG_typedef
    2084                            .dwattr $C$DW$T$234, DW_AT_name("__clockid_t")
    2085                            .dwattr $C$DW$T$234, DW_AT_type(*$C$DW$T$94)
    2086                            .dwattr $C$DW$T$234, DW_AT_language(DW_LANG_C)
    2087                            .dwattr $C$DW$T$234, DW_AT_decl_file("C:/ti/ccsv8/tools/compiler/ti-cgt-arm_18.1.3.LTS/include
    2088                            .dwattr $C$DW$T$234, DW_AT_decl_line(0x30)
    2089                            .dwattr $C$DW$T$234, DW_AT_decl_column(0x13)
    2090                    
TI ARM Assembler PC v18.1.3 Wed Nov 28 13:34:33 2018

Tools Copyright (c) 1996-2017 Texas Instruments Incorporated
C:\Users\Adrian\AppData\Local\Temp\{1C8A0939-AB27-43CE-9698-03BC42AA3FBD} PAGE   39

    2091                    $C$DW$T$235     .dwtag  DW_TAG_typedef
    2092                            .dwattr $C$DW$T$235, DW_AT_name("__critical_t")
    2093                            .dwattr $C$DW$T$235, DW_AT_type(*$C$DW$T$94)
    2094                            .dwattr $C$DW$T$235, DW_AT_language(DW_LANG_C)
    2095                            .dwattr $C$DW$T$235, DW_AT_decl_file("C:/ti/ccsv8/tools/compiler/ti-cgt-arm_18.1.3.LTS/include
    2096                            .dwattr $C$DW$T$235, DW_AT_decl_line(0x4e)
    2097                            .dwattr $C$DW$T$235, DW_AT_decl_column(0x13)
    2098                    
    2099                    $C$DW$T$95      .dwtag  DW_TAG_typedef
    2100                            .dwattr $C$DW$T$95, DW_AT_name("__int_fast16_t")
    2101                            .dwattr $C$DW$T$95, DW_AT_type(*$C$DW$T$94)
    2102                            .dwattr $C$DW$T$95, DW_AT_language(DW_LANG_C)
    2103                            .dwattr $C$DW$T$95, DW_AT_decl_file("C:/ti/ccsv8/tools/compiler/ti-cgt-arm_18.1.3.LTS/include/
    2104                            .dwattr $C$DW$T$95, DW_AT_decl_line(0x55)
    2105                            .dwattr $C$DW$T$95, DW_AT_decl_column(0x13)
    2106                    
    2107                    $C$DW$T$96      .dwtag  DW_TAG_typedef
    2108                            .dwattr $C$DW$T$96, DW_AT_name("int_fast16_t")
    2109                            .dwattr $C$DW$T$96, DW_AT_type(*$C$DW$T$95)
    2110                            .dwattr $C$DW$T$96, DW_AT_language(DW_LANG_C)
    2111                            .dwattr $C$DW$T$96, DW_AT_decl_file("C:/ti/ccsv8/tools/compiler/ti-cgt-arm_18.1.3.LTS/include/
    2112                            .dwattr $C$DW$T$96, DW_AT_decl_line(0x33)
    2113                            .dwattr $C$DW$T$96, DW_AT_decl_column(0x19)
    2114                    
    2115                    $C$DW$T$97      .dwtag  DW_TAG_typedef
    2116                            .dwattr $C$DW$T$97, DW_AT_name("ICall_Errno")
    2117                            .dwattr $C$DW$T$97, DW_AT_type(*$C$DW$T$96)
    2118                            .dwattr $C$DW$T$97, DW_AT_language(DW_LANG_C)
    2119                            .dwattr $C$DW$T$97, DW_AT_decl_file("C:/ti/simplelink_cc13x0_sdk_2_30_00_20/source/ti/ti154sta
    2120                            .dwattr $C$DW$T$97, DW_AT_decl_line(0x19e)
    2121                            .dwattr $C$DW$T$97, DW_AT_decl_column(0x16)
    2122                    
    2123                    
    2124                    $C$DW$T$99      .dwtag  DW_TAG_subroutine_type
    2125                            .dwattr $C$DW$T$99, DW_AT_type(*$C$DW$T$97)
    2126                            .dwattr $C$DW$T$99, DW_AT_language(DW_LANG_C)
    2127                    $C$DW$113       .dwtag  DW_TAG_formal_parameter
    2128                            .dwattr $C$DW$113, DW_AT_type(*$C$DW$T$98)
    2129                    
    2130                            .dwendtag $C$DW$T$99
    2131                    
    2132                    $C$DW$T$100     .dwtag  DW_TAG_pointer_type
    2133                            .dwattr $C$DW$T$100, DW_AT_type(*$C$DW$T$99)
    2134                            .dwattr $C$DW$T$100, DW_AT_address_class(0x20)
    2135                    
    2136                    $C$DW$T$139     .dwtag  DW_TAG_typedef
    2137                            .dwattr $C$DW$T$139, DW_AT_name("ICall_Dispatcher")
    2138                            .dwattr $C$DW$T$139, DW_AT_type(*$C$DW$T$100)
    2139                            .dwattr $C$DW$T$139, DW_AT_language(DW_LANG_C)
    2140                            .dwattr $C$DW$T$139, DW_AT_decl_file("C:/ti/simplelink_cc13x0_sdk_2_30_00_20/source/ti/ti154st
    2141                            .dwattr $C$DW$T$139, DW_AT_decl_line(0x36c)
    2142                            .dwattr $C$DW$T$139, DW_AT_decl_column(0x17)
    2143                    
    2144                    $C$DW$T$101     .dwtag  DW_TAG_typedef
    2145                            .dwattr $C$DW$T$101, DW_AT_name("ICall_ServiceFunc")
TI ARM Assembler PC v18.1.3 Wed Nov 28 13:34:33 2018

Tools Copyright (c) 1996-2017 Texas Instruments Incorporated
C:\Users\Adrian\AppData\Local\Temp\{1C8A0939-AB27-43CE-9698-03BC42AA3FBD} PAGE   40

    2146                            .dwattr $C$DW$T$101, DW_AT_type(*$C$DW$T$100)
    2147                            .dwattr $C$DW$T$101, DW_AT_language(DW_LANG_C)
    2148                            .dwattr $C$DW$T$101, DW_AT_decl_file("C:/ti/simplelink_cc13x0_sdk_2_30_00_20/source/ti/ti154st
    2149                            .dwattr $C$DW$T$101, DW_AT_decl_line(0x3a3)
    2150                            .dwattr $C$DW$T$101, DW_AT_decl_column(0x17)
    2151                    
    2152                    $C$DW$T$236     .dwtag  DW_TAG_typedef
    2153                            .dwattr $C$DW$T$236, DW_AT_name("__int_fast32_t")
    2154                            .dwattr $C$DW$T$236, DW_AT_type(*$C$DW$T$94)
    2155                            .dwattr $C$DW$T$236, DW_AT_language(DW_LANG_C)
    2156                            .dwattr $C$DW$T$236, DW_AT_decl_file("C:/ti/ccsv8/tools/compiler/ti-cgt-arm_18.1.3.LTS/include
    2157                            .dwattr $C$DW$T$236, DW_AT_decl_line(0x56)
    2158                            .dwattr $C$DW$T$236, DW_AT_decl_column(0x13)
    2159                    
    2160                    $C$DW$T$237     .dwtag  DW_TAG_typedef
    2161                            .dwattr $C$DW$T$237, DW_AT_name("int_fast32_t")
    2162                            .dwattr $C$DW$T$237, DW_AT_type(*$C$DW$T$236)
    2163                            .dwattr $C$DW$T$237, DW_AT_language(DW_LANG_C)
    2164                            .dwattr $C$DW$T$237, DW_AT_decl_file("C:/ti/ccsv8/tools/compiler/ti-cgt-arm_18.1.3.LTS/include
    2165                            .dwattr $C$DW$T$237, DW_AT_decl_line(0x34)
    2166                            .dwattr $C$DW$T$237, DW_AT_decl_column(0x19)
    2167                    
    2168                    $C$DW$T$238     .dwtag  DW_TAG_typedef
    2169                            .dwattr $C$DW$T$238, DW_AT_name("__int_fast8_t")
    2170                            .dwattr $C$DW$T$238, DW_AT_type(*$C$DW$T$94)
    2171                            .dwattr $C$DW$T$238, DW_AT_language(DW_LANG_C)
    2172                            .dwattr $C$DW$T$238, DW_AT_decl_file("C:/ti/ccsv8/tools/compiler/ti-cgt-arm_18.1.3.LTS/include
    2173                            .dwattr $C$DW$T$238, DW_AT_decl_line(0x54)
    2174                            .dwattr $C$DW$T$238, DW_AT_decl_column(0x13)
    2175                    
    2176                    $C$DW$T$239     .dwtag  DW_TAG_typedef
    2177                            .dwattr $C$DW$T$239, DW_AT_name("int_fast8_t")
    2178                            .dwattr $C$DW$T$239, DW_AT_type(*$C$DW$T$238)
    2179                            .dwattr $C$DW$T$239, DW_AT_language(DW_LANG_C)
    2180                            .dwattr $C$DW$T$239, DW_AT_decl_file("C:/ti/ccsv8/tools/compiler/ti-cgt-arm_18.1.3.LTS/include
    2181                            .dwattr $C$DW$T$239, DW_AT_decl_line(0x32)
    2182                            .dwattr $C$DW$T$239, DW_AT_decl_column(0x18)
    2183                    
    2184                    $C$DW$T$114     .dwtag  DW_TAG_typedef
    2185                            .dwattr $C$DW$T$114, DW_AT_name("__int_least32_t")
    2186                            .dwattr $C$DW$T$114, DW_AT_type(*$C$DW$T$94)
    2187                            .dwattr $C$DW$T$114, DW_AT_language(DW_LANG_C)
    2188                            .dwattr $C$DW$T$114, DW_AT_decl_file("C:/ti/ccsv8/tools/compiler/ti-cgt-arm_18.1.3.LTS/include
    2189                            .dwattr $C$DW$T$114, DW_AT_decl_line(0x5a)
    2190                            .dwattr $C$DW$T$114, DW_AT_decl_column(0x13)
    2191                    
    2192                    $C$DW$T$115     .dwtag  DW_TAG_typedef
    2193                            .dwattr $C$DW$T$115, DW_AT_name("int_least32_t")
    2194                            .dwattr $C$DW$T$115, DW_AT_type(*$C$DW$T$114)
    2195                            .dwattr $C$DW$T$115, DW_AT_language(DW_LANG_C)
    2196                            .dwattr $C$DW$T$115, DW_AT_decl_file("C:/ti/ccsv8/tools/compiler/ti-cgt-arm_18.1.3.LTS/include
    2197                            .dwattr $C$DW$T$115, DW_AT_decl_line(0x2a)
    2198                            .dwattr $C$DW$T$115, DW_AT_decl_column(0x1a)
    2199                    
    2200                    $C$DW$T$240     .dwtag  DW_TAG_typedef
TI ARM Assembler PC v18.1.3 Wed Nov 28 13:34:33 2018

Tools Copyright (c) 1996-2017 Texas Instruments Incorporated
C:\Users\Adrian\AppData\Local\Temp\{1C8A0939-AB27-43CE-9698-03BC42AA3FBD} PAGE   41

    2201                            .dwattr $C$DW$T$240, DW_AT_name("__intfptr_t")
    2202                            .dwattr $C$DW$T$240, DW_AT_type(*$C$DW$T$94)
    2203                            .dwattr $C$DW$T$240, DW_AT_language(DW_LANG_C)
    2204                            .dwattr $C$DW$T$240, DW_AT_decl_file("C:/ti/ccsv8/tools/compiler/ti-cgt-arm_18.1.3.LTS/include
    2205                            .dwattr $C$DW$T$240, DW_AT_decl_line(0x51)
    2206                            .dwattr $C$DW$T$240, DW_AT_decl_column(0x13)
    2207                    
    2208                    $C$DW$T$241     .dwtag  DW_TAG_typedef
    2209                            .dwattr $C$DW$T$241, DW_AT_name("__intptr_t")
    2210                            .dwattr $C$DW$T$241, DW_AT_type(*$C$DW$T$94)
    2211                            .dwattr $C$DW$T$241, DW_AT_language(DW_LANG_C)
    2212                            .dwattr $C$DW$T$241, DW_AT_decl_file("C:/ti/ccsv8/tools/compiler/ti-cgt-arm_18.1.3.LTS/include
    2213                            .dwattr $C$DW$T$241, DW_AT_decl_line(0x53)
    2214                            .dwattr $C$DW$T$241, DW_AT_decl_column(0x13)
    2215                    
    2216                    $C$DW$T$242     .dwtag  DW_TAG_typedef
    2217                            .dwattr $C$DW$T$242, DW_AT_name("intptr_t")
    2218                            .dwattr $C$DW$T$242, DW_AT_type(*$C$DW$T$241)
    2219                            .dwattr $C$DW$T$242, DW_AT_language(DW_LANG_C)
    2220                            .dwattr $C$DW$T$242, DW_AT_decl_file("C:/ti/ccsv8/tools/compiler/ti-cgt-arm_18.1.3.LTS/include
    2221                            .dwattr $C$DW$T$242, DW_AT_decl_line(0x4c)
    2222                            .dwattr $C$DW$T$242, DW_AT_decl_column(0x15)
    2223                    
    2224                    $C$DW$T$243     .dwtag  DW_TAG_typedef
    2225                            .dwattr $C$DW$T$243, DW_AT_name("__lwpid_t")
    2226                            .dwattr $C$DW$T$243, DW_AT_type(*$C$DW$T$94)
    2227                            .dwattr $C$DW$T$243, DW_AT_language(DW_LANG_C)
    2228                            .dwattr $C$DW$T$243, DW_AT_decl_file("C:/ti/ccsv8/tools/compiler/ti-cgt-arm_18.1.3.LTS/include
    2229                            .dwattr $C$DW$T$243, DW_AT_decl_line(0x38)
    2230                            .dwattr $C$DW$T$243, DW_AT_decl_column(0x13)
    2231                    
    2232                    $C$DW$T$244     .dwtag  DW_TAG_typedef
    2233                            .dwattr $C$DW$T$244, DW_AT_name("__pid_t")
    2234                            .dwattr $C$DW$T$244, DW_AT_type(*$C$DW$T$94)
    2235                            .dwattr $C$DW$T$244, DW_AT_language(DW_LANG_C)
    2236                            .dwattr $C$DW$T$244, DW_AT_decl_file("C:/ti/ccsv8/tools/compiler/ti-cgt-arm_18.1.3.LTS/include
    2237                            .dwattr $C$DW$T$244, DW_AT_decl_line(0x3f)
    2238                            .dwattr $C$DW$T$244, DW_AT_decl_column(0x13)
    2239                    
    2240                    $C$DW$T$245     .dwtag  DW_TAG_typedef
    2241                            .dwattr $C$DW$T$245, DW_AT_name("__ptrdiff_t")
    2242                            .dwattr $C$DW$T$245, DW_AT_type(*$C$DW$T$94)
    2243                            .dwattr $C$DW$T$245, DW_AT_language(DW_LANG_C)
    2244                            .dwattr $C$DW$T$245, DW_AT_decl_file("C:/ti/ccsv8/tools/compiler/ti-cgt-arm_18.1.3.LTS/include
    2245                            .dwattr $C$DW$T$245, DW_AT_decl_line(0x5c)
    2246                            .dwattr $C$DW$T$245, DW_AT_decl_column(0x13)
    2247                    
    2248                    $C$DW$T$246     .dwtag  DW_TAG_typedef
    2249                            .dwattr $C$DW$T$246, DW_AT_name("__register_t")
    2250                            .dwattr $C$DW$T$246, DW_AT_type(*$C$DW$T$94)
    2251                            .dwattr $C$DW$T$246, DW_AT_language(DW_LANG_C)
    2252                            .dwattr $C$DW$T$246, DW_AT_decl_file("C:/ti/ccsv8/tools/compiler/ti-cgt-arm_18.1.3.LTS/include
    2253                            .dwattr $C$DW$T$246, DW_AT_decl_line(0x5d)
    2254                            .dwattr $C$DW$T$246, DW_AT_decl_column(0x13)
    2255                    
TI ARM Assembler PC v18.1.3 Wed Nov 28 13:34:33 2018

Tools Copyright (c) 1996-2017 Texas Instruments Incorporated
C:\Users\Adrian\AppData\Local\Temp\{1C8A0939-AB27-43CE-9698-03BC42AA3FBD} PAGE   42

    2256                    $C$DW$T$247     .dwtag  DW_TAG_typedef
    2257                            .dwattr $C$DW$T$247, DW_AT_name("__segsz_t")
    2258                            .dwattr $C$DW$T$247, DW_AT_type(*$C$DW$T$94)
    2259                            .dwattr $C$DW$T$247, DW_AT_language(DW_LANG_C)
    2260                            .dwattr $C$DW$T$247, DW_AT_decl_file("C:/ti/ccsv8/tools/compiler/ti-cgt-arm_18.1.3.LTS/include
    2261                            .dwattr $C$DW$T$247, DW_AT_decl_line(0x5e)
    2262                            .dwattr $C$DW$T$247, DW_AT_decl_column(0x13)
    2263                    
    2264                    $C$DW$T$248     .dwtag  DW_TAG_typedef
    2265                            .dwattr $C$DW$T$248, DW_AT_name("__ssize_t")
    2266                            .dwattr $C$DW$T$248, DW_AT_type(*$C$DW$T$94)
    2267                            .dwattr $C$DW$T$248, DW_AT_language(DW_LANG_C)
    2268                            .dwattr $C$DW$T$248, DW_AT_decl_file("C:/ti/ccsv8/tools/compiler/ti-cgt-arm_18.1.3.LTS/include
    2269                            .dwattr $C$DW$T$248, DW_AT_decl_line(0x60)
    2270                            .dwattr $C$DW$T$248, DW_AT_decl_column(0x13)
    2271                    
    2272                    $C$DW$T$249     .dwtag  DW_TAG_typedef
    2273                            .dwattr $C$DW$T$249, DW_AT_name("int32_t")
    2274                            .dwattr $C$DW$T$249, DW_AT_type(*$C$DW$T$94)
    2275                            .dwattr $C$DW$T$249, DW_AT_language(DW_LANG_C)
    2276                            .dwattr $C$DW$T$249, DW_AT_decl_file("C:/ti/ccsv8/tools/compiler/ti-cgt-arm_18.1.3.LTS/include
    2277                            .dwattr $C$DW$T$249, DW_AT_decl_line(0x2e)
    2278                            .dwattr $C$DW$T$249, DW_AT_decl_column(0x14)
    2279                    
    2280                    $C$DW$T$250     .dwtag  DW_TAG_typedef
    2281                            .dwattr $C$DW$T$250, DW_AT_name("__nl_item")
    2282                            .dwattr $C$DW$T$250, DW_AT_type(*$C$DW$T$10)
    2283                            .dwattr $C$DW$T$250, DW_AT_language(DW_LANG_C)
    2284                            .dwattr $C$DW$T$250, DW_AT_decl_file("C:/ti/ccsv8/tools/compiler/ti-cgt-arm_18.1.3.LTS/include
    2285                            .dwattr $C$DW$T$250, DW_AT_decl_line(0x3b)
    2286                            .dwattr $C$DW$T$250, DW_AT_decl_column(0x0e)
    2287                    
    2288                    $C$DW$T$11      .dwtag  DW_TAG_base_type
    2289                            .dwattr $C$DW$T$11, DW_AT_encoding(DW_ATE_unsigned)
    2290                            .dwattr $C$DW$T$11, DW_AT_name("unsigned int")
    2291                            .dwattr $C$DW$T$11, DW_AT_byte_size(0x04)
    2292                    
    2293                    $C$DW$T$251     .dwtag  DW_TAG_typedef
    2294                            .dwattr $C$DW$T$251, DW_AT_name("__UINT32")
    2295                            .dwattr $C$DW$T$251, DW_AT_type(*$C$DW$T$11)
    2296                            .dwattr $C$DW$T$251, DW_AT_language(DW_LANG_C)
    2297                            .dwattr $C$DW$T$251, DW_AT_decl_file("C:/ti/simplelink_cc13x0_sdk_2_30_00_20/source/ti/devices
    2298                            .dwattr $C$DW$T$251, DW_AT_decl_line(0x45)
    2299                            .dwattr $C$DW$T$251, DW_AT_decl_column(0x17)
    2300                    
    2301                    $C$DW$T$22      .dwtag  DW_TAG_typedef
    2302                            .dwattr $C$DW$T$22, DW_AT_name("__uint32_t")
    2303                            .dwattr $C$DW$T$22, DW_AT_type(*$C$DW$T$11)
    2304                            .dwattr $C$DW$T$22, DW_AT_language(DW_LANG_C)
    2305                            .dwattr $C$DW$T$22, DW_AT_decl_file("C:/ti/ccsv8/tools/compiler/ti-cgt-arm_18.1.3.LTS/include/
    2306                            .dwattr $C$DW$T$22, DW_AT_decl_line(0x3e)
    2307                            .dwattr $C$DW$T$22, DW_AT_decl_column(0x17)
    2308                    
    2309                    $C$DW$T$261     .dwtag  DW_TAG_typedef
    2310                            .dwattr $C$DW$T$261, DW_AT_name("__clock_t")
TI ARM Assembler PC v18.1.3 Wed Nov 28 13:34:33 2018

Tools Copyright (c) 1996-2017 Texas Instruments Incorporated
C:\Users\Adrian\AppData\Local\Temp\{1C8A0939-AB27-43CE-9698-03BC42AA3FBD} PAGE   43

    2311                            .dwattr $C$DW$T$261, DW_AT_type(*$C$DW$T$22)
    2312                            .dwattr $C$DW$T$261, DW_AT_language(DW_LANG_C)
    2313                            .dwattr $C$DW$T$261, DW_AT_decl_file("C:/ti/ccsv8/tools/compiler/ti-cgt-arm_18.1.3.LTS/include
    2314                            .dwattr $C$DW$T$261, DW_AT_decl_line(0x4d)
    2315                            .dwattr $C$DW$T$261, DW_AT_decl_column(0x14)
    2316                    
    2317                    $C$DW$T$262     .dwtag  DW_TAG_typedef
    2318                            .dwattr $C$DW$T$262, DW_AT_name("__fflags_t")
    2319                            .dwattr $C$DW$T$262, DW_AT_type(*$C$DW$T$22)
    2320                            .dwattr $C$DW$T$262, DW_AT_language(DW_LANG_C)
    2321                            .dwattr $C$DW$T$262, DW_AT_decl_file("C:/ti/ccsv8/tools/compiler/ti-cgt-arm_18.1.3.LTS/include
    2322                            .dwattr $C$DW$T$262, DW_AT_decl_line(0x31)
    2323                            .dwattr $C$DW$T$262, DW_AT_decl_column(0x14)
    2324                    
    2325                    $C$DW$T$263     .dwtag  DW_TAG_typedef
    2326                            .dwattr $C$DW$T$263, DW_AT_name("__fixpt_t")
    2327                            .dwattr $C$DW$T$263, DW_AT_type(*$C$DW$T$22)
    2328                            .dwattr $C$DW$T$263, DW_AT_language(DW_LANG_C)
    2329                            .dwattr $C$DW$T$263, DW_AT_decl_file("C:/ti/ccsv8/tools/compiler/ti-cgt-arm_18.1.3.LTS/include
    2330                            .dwattr $C$DW$T$263, DW_AT_decl_line(0x76)
    2331                            .dwattr $C$DW$T$263, DW_AT_decl_column(0x14)
    2332                    
    2333                    $C$DW$T$264     .dwtag  DW_TAG_typedef
    2334                            .dwattr $C$DW$T$264, DW_AT_name("__gid_t")
    2335                            .dwattr $C$DW$T$264, DW_AT_type(*$C$DW$T$22)
    2336                            .dwattr $C$DW$T$264, DW_AT_language(DW_LANG_C)
    2337                            .dwattr $C$DW$T$264, DW_AT_decl_file("C:/ti/ccsv8/tools/compiler/ti-cgt-arm_18.1.3.LTS/include
    2338                            .dwattr $C$DW$T$264, DW_AT_decl_line(0x34)
    2339                            .dwattr $C$DW$T$264, DW_AT_decl_column(0x14)
    2340                    
    2341                    $C$DW$T$265     .dwtag  DW_TAG_typedef
    2342                            .dwattr $C$DW$T$265, DW_AT_name("__size_t")
    2343                            .dwattr $C$DW$T$265, DW_AT_type(*$C$DW$T$22)
    2344                            .dwattr $C$DW$T$265, DW_AT_language(DW_LANG_C)
    2345                            .dwattr $C$DW$T$265, DW_AT_decl_file("C:/ti/ccsv8/tools/compiler/ti-cgt-arm_18.1.3.LTS/include
    2346                            .dwattr $C$DW$T$265, DW_AT_decl_line(0x5f)
    2347                            .dwattr $C$DW$T$265, DW_AT_decl_column(0x14)
    2348                    
    2349                    $C$DW$T$266     .dwtag  DW_TAG_typedef
    2350                            .dwattr $C$DW$T$266, DW_AT_name("__socklen_t")
    2351                            .dwattr $C$DW$T$266, DW_AT_type(*$C$DW$T$22)
    2352                            .dwattr $C$DW$T$266, DW_AT_language(DW_LANG_C)
    2353                            .dwattr $C$DW$T$266, DW_AT_decl_file("C:/ti/ccsv8/tools/compiler/ti-cgt-arm_18.1.3.LTS/include
    2354                            .dwattr $C$DW$T$266, DW_AT_decl_line(0x44)
    2355                            .dwattr $C$DW$T$266, DW_AT_decl_column(0x14)
    2356                    
    2357                    $C$DW$T$267     .dwtag  DW_TAG_typedef
    2358                            .dwattr $C$DW$T$267, DW_AT_name("__time_t")
    2359                            .dwattr $C$DW$T$267, DW_AT_type(*$C$DW$T$22)
    2360                            .dwattr $C$DW$T$267, DW_AT_language(DW_LANG_C)
    2361                            .dwattr $C$DW$T$267, DW_AT_decl_file("C:/ti/ccsv8/tools/compiler/ti-cgt-arm_18.1.3.LTS/include
    2362                            .dwattr $C$DW$T$267, DW_AT_decl_line(0x64)
    2363                            .dwattr $C$DW$T$267, DW_AT_decl_column(0x19)
    2364                    
    2365                    $C$DW$T$268     .dwtag  DW_TAG_typedef
TI ARM Assembler PC v18.1.3 Wed Nov 28 13:34:33 2018

Tools Copyright (c) 1996-2017 Texas Instruments Incorporated
C:\Users\Adrian\AppData\Local\Temp\{1C8A0939-AB27-43CE-9698-03BC42AA3FBD} PAGE   44

    2366                            .dwattr $C$DW$T$268, DW_AT_name("__u_register_t")
    2367                            .dwattr $C$DW$T$268, DW_AT_type(*$C$DW$T$22)
    2368                            .dwattr $C$DW$T$268, DW_AT_language(DW_LANG_C)
    2369                            .dwattr $C$DW$T$268, DW_AT_decl_file("C:/ti/ccsv8/tools/compiler/ti-cgt-arm_18.1.3.LTS/include
    2370                            .dwattr $C$DW$T$268, DW_AT_decl_line(0x71)
    2371                            .dwattr $C$DW$T$268, DW_AT_decl_column(0x14)
    2372                    
    2373                    $C$DW$T$269     .dwtag  DW_TAG_typedef
    2374                            .dwattr $C$DW$T$269, DW_AT_name("__uid_t")
    2375                            .dwattr $C$DW$T$269, DW_AT_type(*$C$DW$T$22)
    2376                            .dwattr $C$DW$T$269, DW_AT_language(DW_LANG_C)
    2377                            .dwattr $C$DW$T$269, DW_AT_decl_file("C:/ti/ccsv8/tools/compiler/ti-cgt-arm_18.1.3.LTS/include
    2378                            .dwattr $C$DW$T$269, DW_AT_decl_line(0x48)
    2379                            .dwattr $C$DW$T$269, DW_AT_decl_column(0x14)
    2380                    
    2381                    $C$DW$T$270     .dwtag  DW_TAG_typedef
    2382                            .dwattr $C$DW$T$270, DW_AT_name("__uint_fast16_t")
    2383                            .dwattr $C$DW$T$270, DW_AT_type(*$C$DW$T$22)
    2384                            .dwattr $C$DW$T$270, DW_AT_language(DW_LANG_C)
    2385                            .dwattr $C$DW$T$270, DW_AT_decl_file("C:/ti/ccsv8/tools/compiler/ti-cgt-arm_18.1.3.LTS/include
    2386                            .dwattr $C$DW$T$270, DW_AT_decl_line(0x6a)
    2387                            .dwattr $C$DW$T$270, DW_AT_decl_column(0x14)
    2388                    
    2389                    $C$DW$T$271     .dwtag  DW_TAG_typedef
    2390                            .dwattr $C$DW$T$271, DW_AT_name("uint_fast16_t")
    2391                            .dwattr $C$DW$T$271, DW_AT_type(*$C$DW$T$270)
    2392                            .dwattr $C$DW$T$271, DW_AT_language(DW_LANG_C)
    2393                            .dwattr $C$DW$T$271, DW_AT_decl_file("C:/ti/ccsv8/tools/compiler/ti-cgt-arm_18.1.3.LTS/include
    2394                            .dwattr $C$DW$T$271, DW_AT_decl_line(0x38)
    2395                            .dwattr $C$DW$T$271, DW_AT_decl_column(0x1a)
    2396                    
    2397                    $C$DW$T$118     .dwtag  DW_TAG_typedef
    2398                            .dwattr $C$DW$T$118, DW_AT_name("__uint_fast32_t")
    2399                            .dwattr $C$DW$T$118, DW_AT_type(*$C$DW$T$22)
    2400                            .dwattr $C$DW$T$118, DW_AT_language(DW_LANG_C)
    2401                            .dwattr $C$DW$T$118, DW_AT_decl_file("C:/ti/ccsv8/tools/compiler/ti-cgt-arm_18.1.3.LTS/include
    2402                            .dwattr $C$DW$T$118, DW_AT_decl_line(0x6b)
    2403                            .dwattr $C$DW$T$118, DW_AT_decl_column(0x14)
    2404                    
    2405                    $C$DW$T$119     .dwtag  DW_TAG_typedef
    2406                            .dwattr $C$DW$T$119, DW_AT_name("uint_fast32_t")
    2407                            .dwattr $C$DW$T$119, DW_AT_type(*$C$DW$T$118)
    2408                            .dwattr $C$DW$T$119, DW_AT_language(DW_LANG_C)
    2409                            .dwattr $C$DW$T$119, DW_AT_decl_file("C:/ti/ccsv8/tools/compiler/ti-cgt-arm_18.1.3.LTS/include
    2410                            .dwattr $C$DW$T$119, DW_AT_decl_line(0x39)
    2411                            .dwattr $C$DW$T$119, DW_AT_decl_column(0x1a)
    2412                    
    2413                    $C$DW$T$120     .dwtag  DW_TAG_typedef
    2414                            .dwattr $C$DW$T$120, DW_AT_name("ICall_PwrBitmap_t")
    2415                            .dwattr $C$DW$T$120, DW_AT_type(*$C$DW$T$119)
    2416                            .dwattr $C$DW$T$120, DW_AT_language(DW_LANG_C)
    2417                            .dwattr $C$DW$T$120, DW_AT_decl_file("C:/ti/simplelink_cc13x0_sdk_2_30_00_20/source/ti/ti154st
    2418                            .dwattr $C$DW$T$120, DW_AT_decl_line(0x287)
    2419                            .dwattr $C$DW$T$120, DW_AT_decl_column(0x17)
    2420                    
TI ARM Assembler PC v18.1.3 Wed Nov 28 13:34:33 2018

Tools Copyright (c) 1996-2017 Texas Instruments Incorporated
C:\Users\Adrian\AppData\Local\Temp\{1C8A0939-AB27-43CE-9698-03BC42AA3FBD} PAGE   45

    2421                    $C$DW$T$122     .dwtag  DW_TAG_typedef
    2422                            .dwattr $C$DW$T$122, DW_AT_name("__uint_fast8_t")
    2423                            .dwattr $C$DW$T$122, DW_AT_type(*$C$DW$T$22)
    2424                            .dwattr $C$DW$T$122, DW_AT_language(DW_LANG_C)
    2425                            .dwattr $C$DW$T$122, DW_AT_decl_file("C:/ti/ccsv8/tools/compiler/ti-cgt-arm_18.1.3.LTS/include
    2426                            .dwattr $C$DW$T$122, DW_AT_decl_line(0x69)
    2427                            .dwattr $C$DW$T$122, DW_AT_decl_column(0x14)
    2428                    
    2429                    $C$DW$T$123     .dwtag  DW_TAG_typedef
    2430                            .dwattr $C$DW$T$123, DW_AT_name("uint_fast8_t")
    2431                            .dwattr $C$DW$T$123, DW_AT_type(*$C$DW$T$122)
    2432                            .dwattr $C$DW$T$123, DW_AT_language(DW_LANG_C)
    2433                            .dwattr $C$DW$T$123, DW_AT_decl_file("C:/ti/ccsv8/tools/compiler/ti-cgt-arm_18.1.3.LTS/include
    2434                            .dwattr $C$DW$T$123, DW_AT_decl_line(0x37)
    2435                            .dwattr $C$DW$T$123, DW_AT_decl_column(0x19)
    2436                    
    2437                    $C$DW$T$126     .dwtag  DW_TAG_typedef
    2438                            .dwattr $C$DW$T$126, DW_AT_name("ICall_PwrTransition")
    2439                            .dwattr $C$DW$T$126, DW_AT_type(*$C$DW$T$123)
    2440                            .dwattr $C$DW$T$126, DW_AT_language(DW_LANG_C)
    2441                            .dwattr $C$DW$T$126, DW_AT_decl_file("C:/ti/simplelink_cc13x0_sdk_2_30_00_20/source/ti/ti154st
    2442                            .dwattr $C$DW$T$126, DW_AT_decl_line(0x326)
    2443                            .dwattr $C$DW$T$126, DW_AT_decl_column(0x16)
    2444                    
    2445                    $C$DW$T$70      .dwtag  DW_TAG_typedef
    2446                            .dwattr $C$DW$T$70, DW_AT_name("__uint_least32_t")
    2447                            .dwattr $C$DW$T$70, DW_AT_type(*$C$DW$T$22)
    2448                            .dwattr $C$DW$T$70, DW_AT_language(DW_LANG_C)
    2449                            .dwattr $C$DW$T$70, DW_AT_decl_file("C:/ti/ccsv8/tools/compiler/ti-cgt-arm_18.1.3.LTS/include/
    2450                            .dwattr $C$DW$T$70, DW_AT_decl_line(0x6f)
    2451                            .dwattr $C$DW$T$70, DW_AT_decl_column(0x14)
    2452                    
    2453                    $C$DW$T$272     .dwtag  DW_TAG_typedef
    2454                            .dwattr $C$DW$T$272, DW_AT_name("__char32_t")
    2455                            .dwattr $C$DW$T$272, DW_AT_type(*$C$DW$T$70)
    2456                            .dwattr $C$DW$T$272, DW_AT_language(DW_LANG_C)
    2457                            .dwattr $C$DW$T$272, DW_AT_decl_file("C:/ti/ccsv8/tools/compiler/ti-cgt-arm_18.1.3.LTS/include
    2458                            .dwattr $C$DW$T$272, DW_AT_decl_line(0x67)
    2459                            .dwattr $C$DW$T$272, DW_AT_decl_column(0x1a)
    2460                    
    2461                    $C$DW$T$71      .dwtag  DW_TAG_typedef
    2462                            .dwattr $C$DW$T$71, DW_AT_name("uint_least32_t")
    2463                            .dwattr $C$DW$T$71, DW_AT_type(*$C$DW$T$70)
    2464                            .dwattr $C$DW$T$71, DW_AT_language(DW_LANG_C)
    2465                            .dwattr $C$DW$T$71, DW_AT_decl_file("C:/ti/ccsv8/tools/compiler/ti-cgt-arm_18.1.3.LTS/include/
    2466                            .dwattr $C$DW$T$71, DW_AT_decl_line(0x2f)
    2467                            .dwattr $C$DW$T$71, DW_AT_decl_column(0x1a)
    2468                    
    2469                    $C$DW$T$140     .dwtag  DW_TAG_typedef
    2470                            .dwattr $C$DW$T$140, DW_AT_name("ICall_CSState")
    2471                            .dwattr $C$DW$T$140, DW_AT_type(*$C$DW$T$71)
    2472                            .dwattr $C$DW$T$140, DW_AT_language(DW_LANG_C)
    2473                            .dwattr $C$DW$T$140, DW_AT_decl_file("C:/ti/simplelink_cc13x0_sdk_2_30_00_20/source/ti/ti154st
    2474                            .dwattr $C$DW$T$140, DW_AT_decl_line(0x371)
    2475                            .dwattr $C$DW$T$140, DW_AT_decl_column(0x18)
TI ARM Assembler PC v18.1.3 Wed Nov 28 13:34:33 2018

Tools Copyright (c) 1996-2017 Texas Instruments Incorporated
C:\Users\Adrian\AppData\Local\Temp\{1C8A0939-AB27-43CE-9698-03BC42AA3FBD} PAGE   46

    2476                    
    2477                    
    2478                    $C$DW$T$141     .dwtag  DW_TAG_subroutine_type
    2479                            .dwattr $C$DW$T$141, DW_AT_type(*$C$DW$T$140)
    2480                            .dwattr $C$DW$T$141, DW_AT_language(DW_LANG_C)
    2481                            .dwendtag $C$DW$T$141
    2482                    
    2483                    $C$DW$T$142     .dwtag  DW_TAG_pointer_type
    2484                            .dwattr $C$DW$T$142, DW_AT_type(*$C$DW$T$141)
    2485                            .dwattr $C$DW$T$142, DW_AT_address_class(0x20)
    2486                    
    2487                    $C$DW$T$143     .dwtag  DW_TAG_typedef
    2488                            .dwattr $C$DW$T$143, DW_AT_name("ICall_EnterCS")
    2489                            .dwattr $C$DW$T$143, DW_AT_type(*$C$DW$T$142)
    2490                            .dwattr $C$DW$T$143, DW_AT_language(DW_LANG_C)
    2491                            .dwattr $C$DW$T$143, DW_AT_decl_file("C:/ti/simplelink_cc13x0_sdk_2_30_00_20/source/ti/ti154st
    2492                            .dwattr $C$DW$T$143, DW_AT_decl_line(0x377)
    2493                            .dwattr $C$DW$T$143, DW_AT_decl_column(0x19)
    2494                    
    2495                    $C$DW$T$273     .dwtag  DW_TAG_typedef
    2496                            .dwattr $C$DW$T$273, DW_AT_name("halIntState_t")
    2497                            .dwattr $C$DW$T$273, DW_AT_type(*$C$DW$T$140)
    2498                            .dwattr $C$DW$T$273, DW_AT_language(DW_LANG_C)
    2499                            .dwattr $C$DW$T$273, DW_AT_decl_file("C:\ti\simplelink_cc13x0_sdk_2_30_00_20\source\ti\ti154st
    2500                            .dwattr $C$DW$T$273, DW_AT_decl_line(0x6f)
    2501                            .dwattr $C$DW$T$273, DW_AT_decl_column(0x17)
    2502                    
    2503                    $C$DW$T$72      .dwtag  DW_TAG_pointer_type
    2504                            .dwattr $C$DW$T$72, DW_AT_type(*$C$DW$T$71)
    2505                            .dwattr $C$DW$T$72, DW_AT_address_class(0x20)
    2506                    
    2507                    $C$DW$T$73      .dwtag  DW_TAG_typedef
    2508                            .dwattr $C$DW$T$73, DW_AT_name("icall_lite_id_t")
    2509                            .dwattr $C$DW$T$73, DW_AT_type(*$C$DW$T$71)
    2510                            .dwattr $C$DW$T$73, DW_AT_language(DW_LANG_C)
    2511                            .dwattr $C$DW$T$73, DW_AT_decl_file("C:/ti/simplelink_cc13x0_sdk_2_30_00_20/source/ti/ti154sta
    2512                            .dwattr $C$DW$T$73, DW_AT_decl_line(0x3ec)
    2513                            .dwattr $C$DW$T$73, DW_AT_decl_column(0x18)
    2514                    
    2515                    $C$DW$T$274     .dwtag  DW_TAG_typedef
    2516                            .dwattr $C$DW$T$274, DW_AT_name("__uintfptr_t")
    2517                            .dwattr $C$DW$T$274, DW_AT_type(*$C$DW$T$22)
    2518                            .dwattr $C$DW$T$274, DW_AT_language(DW_LANG_C)
    2519                            .dwattr $C$DW$T$274, DW_AT_decl_file("C:/ti/ccsv8/tools/compiler/ti-cgt-arm_18.1.3.LTS/include
    2520                            .dwattr $C$DW$T$274, DW_AT_decl_line(0x66)
    2521                            .dwattr $C$DW$T$274, DW_AT_decl_column(0x14)
    2522                    
    2523                    $C$DW$T$275     .dwtag  DW_TAG_typedef
    2524                            .dwattr $C$DW$T$275, DW_AT_name("__uintptr_t")
    2525                            .dwattr $C$DW$T$275, DW_AT_type(*$C$DW$T$22)
    2526                            .dwattr $C$DW$T$275, DW_AT_language(DW_LANG_C)
    2527                            .dwattr $C$DW$T$275, DW_AT_decl_file("C:/ti/ccsv8/tools/compiler/ti-cgt-arm_18.1.3.LTS/include
    2528                            .dwattr $C$DW$T$275, DW_AT_decl_line(0x68)
    2529                            .dwattr $C$DW$T$275, DW_AT_decl_column(0x14)
    2530                    
TI ARM Assembler PC v18.1.3 Wed Nov 28 13:34:33 2018

Tools Copyright (c) 1996-2017 Texas Instruments Incorporated
C:\Users\Adrian\AppData\Local\Temp\{1C8A0939-AB27-43CE-9698-03BC42AA3FBD} PAGE   47

    2531                    $C$DW$T$276     .dwtag  DW_TAG_typedef
    2532                            .dwattr $C$DW$T$276, DW_AT_name("uintptr_t")
    2533                            .dwattr $C$DW$T$276, DW_AT_type(*$C$DW$T$275)
    2534                            .dwattr $C$DW$T$276, DW_AT_language(DW_LANG_C)
    2535                            .dwattr $C$DW$T$276, DW_AT_decl_file("C:/ti/ccsv8/tools/compiler/ti-cgt-arm_18.1.3.LTS/include
    2536                            .dwattr $C$DW$T$276, DW_AT_decl_line(0x50)
    2537                            .dwattr $C$DW$T$276, DW_AT_decl_column(0x16)
    2538                    
    2539                    $C$DW$T$277     .dwtag  DW_TAG_typedef
    2540                            .dwattr $C$DW$T$277, DW_AT_name("__vm_offset_t")
    2541                            .dwattr $C$DW$T$277, DW_AT_type(*$C$DW$T$22)
    2542                            .dwattr $C$DW$T$277, DW_AT_language(DW_LANG_C)
    2543                            .dwattr $C$DW$T$277, DW_AT_decl_file("C:/ti/ccsv8/tools/compiler/ti-cgt-arm_18.1.3.LTS/include
    2544                            .dwattr $C$DW$T$277, DW_AT_decl_line(0x72)
    2545                            .dwattr $C$DW$T$277, DW_AT_decl_column(0x14)
    2546                    
    2547                    $C$DW$T$278     .dwtag  DW_TAG_typedef
    2548                            .dwattr $C$DW$T$278, DW_AT_name("__vm_paddr_t")
    2549                            .dwattr $C$DW$T$278, DW_AT_type(*$C$DW$T$22)
    2550                            .dwattr $C$DW$T$278, DW_AT_language(DW_LANG_C)
    2551                            .dwattr $C$DW$T$278, DW_AT_decl_file("C:/ti/ccsv8/tools/compiler/ti-cgt-arm_18.1.3.LTS/include
    2552                            .dwattr $C$DW$T$278, DW_AT_decl_line(0x73)
    2553                            .dwattr $C$DW$T$278, DW_AT_decl_column(0x14)
    2554                    
    2555                    $C$DW$T$279     .dwtag  DW_TAG_typedef
    2556                            .dwattr $C$DW$T$279, DW_AT_name("__vm_size_t")
    2557                            .dwattr $C$DW$T$279, DW_AT_type(*$C$DW$T$22)
    2558                            .dwattr $C$DW$T$279, DW_AT_language(DW_LANG_C)
    2559                            .dwattr $C$DW$T$279, DW_AT_decl_file("C:/ti/ccsv8/tools/compiler/ti-cgt-arm_18.1.3.LTS/include
    2560                            .dwattr $C$DW$T$279, DW_AT_decl_line(0x74)
    2561                            .dwattr $C$DW$T$279, DW_AT_decl_column(0x14)
    2562                    
    2563                    $C$DW$T$23      .dwtag  DW_TAG_typedef
    2564                            .dwattr $C$DW$T$23, DW_AT_name("uint32_t")
    2565                            .dwattr $C$DW$T$23, DW_AT_type(*$C$DW$T$22)
    2566                            .dwattr $C$DW$T$23, DW_AT_language(DW_LANG_C)
    2567                            .dwattr $C$DW$T$23, DW_AT_decl_file("C:/ti/ccsv8/tools/compiler/ti-cgt-arm_18.1.3.LTS/include/
    2568                            .dwattr $C$DW$T$23, DW_AT_decl_line(0x42)
    2569                            .dwattr $C$DW$T$23, DW_AT_decl_column(0x15)
    2570                    
    2571                    
    2572                    $C$DW$T$27      .dwtag  DW_TAG_subroutine_type
    2573                            .dwattr $C$DW$T$27, DW_AT_type(*$C$DW$T$23)
    2574                            .dwattr $C$DW$T$27, DW_AT_language(DW_LANG_C)
    2575                    $C$DW$114       .dwtag  DW_TAG_formal_parameter
    2576                            .dwattr $C$DW$114, DW_AT_type(*$C$DW$T$26)
    2577                    
    2578                    $C$DW$115       .dwtag  DW_TAG_formal_parameter
    2579                            .dwattr $C$DW$115, DW_AT_type(*$C$DW$T$23)
    2580                    
    2581                    $C$DW$116       .dwtag  DW_TAG_formal_parameter
    2582                            .dwattr $C$DW$116, DW_AT_type(*$C$DW$T$23)
    2583                    
    2584                            .dwendtag $C$DW$T$27
    2585                    
TI ARM Assembler PC v18.1.3 Wed Nov 28 13:34:33 2018

Tools Copyright (c) 1996-2017 Texas Instruments Incorporated
C:\Users\Adrian\AppData\Local\Temp\{1C8A0939-AB27-43CE-9698-03BC42AA3FBD} PAGE   48

    2586                    $C$DW$T$28      .dwtag  DW_TAG_pointer_type
    2587                            .dwattr $C$DW$T$28, DW_AT_type(*$C$DW$T$27)
    2588                            .dwattr $C$DW$T$28, DW_AT_address_class(0x20)
    2589                    
    2590                    $C$DW$T$29      .dwtag  DW_TAG_typedef
    2591                            .dwattr $C$DW$T$29, DW_AT_name("FPTR_CRC32_T")
    2592                            .dwattr $C$DW$T$29, DW_AT_type(*$C$DW$T$28)
    2593                            .dwattr $C$DW$T$29, DW_AT_language(DW_LANG_C)
    2594                            .dwattr $C$DW$T$29, DW_AT_decl_file("C:\ti\simplelink_cc13x0_sdk_2_30_00_20\source\ti\devices\
    2595                            .dwattr $C$DW$T$29, DW_AT_decl_line(0x3e)
    2596                            .dwattr $C$DW$T$29, DW_AT_decl_column(0x19)
    2597                    
    2598                    $C$DW$T$38      .dwtag  DW_TAG_typedef
    2599                            .dwattr $C$DW$T$38, DW_AT_name("FPTR_RESERVED3_T")
    2600                            .dwattr $C$DW$T$38, DW_AT_type(*$C$DW$T$28)
    2601                            .dwattr $C$DW$T$38, DW_AT_language(DW_LANG_C)
    2602                            .dwattr $C$DW$T$38, DW_AT_decl_file("C:\ti\simplelink_cc13x0_sdk_2_30_00_20\source\ti\devices\
    2603                            .dwattr $C$DW$T$38, DW_AT_decl_line(0x4a)
    2604                            .dwattr $C$DW$T$38, DW_AT_decl_column(0x19)
    2605                    
    2606                    
    2607                    $C$DW$T$30      .dwtag  DW_TAG_subroutine_type
    2608                            .dwattr $C$DW$T$30, DW_AT_type(*$C$DW$T$23)
    2609                            .dwattr $C$DW$T$30, DW_AT_language(DW_LANG_C)
    2610                            .dwendtag $C$DW$T$30
    2611                    
    2612                    $C$DW$T$31      .dwtag  DW_TAG_pointer_type
    2613                            .dwattr $C$DW$T$31, DW_AT_type(*$C$DW$T$30)
    2614                            .dwattr $C$DW$T$31, DW_AT_address_class(0x20)
    2615                    
    2616                    $C$DW$T$33      .dwtag  DW_TAG_typedef
    2617                            .dwattr $C$DW$T$33, DW_AT_name("FPTR_GETCHIPID_T")
    2618                            .dwattr $C$DW$T$33, DW_AT_type(*$C$DW$T$31)
    2619                            .dwattr $C$DW$T$33, DW_AT_language(DW_LANG_C)
    2620                            .dwattr $C$DW$T$33, DW_AT_decl_file("C:\ti\simplelink_cc13x0_sdk_2_30_00_20\source\ti\devices\
    2621                            .dwattr $C$DW$T$33, DW_AT_decl_line(0x44)
    2622                            .dwattr $C$DW$T$33, DW_AT_decl_column(0x19)
    2623                    
    2624                    $C$DW$T$32      .dwtag  DW_TAG_typedef
    2625                            .dwattr $C$DW$T$32, DW_AT_name("FPTR_GETFLSIZE_T")
    2626                            .dwattr $C$DW$T$32, DW_AT_type(*$C$DW$T$31)
    2627                            .dwattr $C$DW$T$32, DW_AT_language(DW_LANG_C)
    2628                            .dwattr $C$DW$T$32, DW_AT_decl_file("C:\ti\simplelink_cc13x0_sdk_2_30_00_20\source\ti\devices\
    2629                            .dwattr $C$DW$T$32, DW_AT_decl_line(0x42)
    2630                            .dwattr $C$DW$T$32, DW_AT_decl_column(0x19)
    2631                    
    2632                    $C$DW$T$37      .dwtag  DW_TAG_typedef
    2633                            .dwattr $C$DW$T$37, DW_AT_name("FPTR_RESERVED2_T")
    2634                            .dwattr $C$DW$T$37, DW_AT_type(*$C$DW$T$31)
    2635                            .dwattr $C$DW$T$37, DW_AT_language(DW_LANG_C)
    2636                            .dwattr $C$DW$T$37, DW_AT_decl_file("C:\ti\simplelink_cc13x0_sdk_2_30_00_20\source\ti\devices\
    2637                            .dwattr $C$DW$T$37, DW_AT_decl_line(0x48)
    2638                            .dwattr $C$DW$T$37, DW_AT_decl_column(0x19)
    2639                    
    2640                    
TI ARM Assembler PC v18.1.3 Wed Nov 28 13:34:33 2018

Tools Copyright (c) 1996-2017 Texas Instruments Incorporated
C:\Users\Adrian\AppData\Local\Temp\{1C8A0939-AB27-43CE-9698-03BC42AA3FBD} PAGE   49

    2641                    $C$DW$T$34      .dwtag  DW_TAG_subroutine_type
    2642                            .dwattr $C$DW$T$34, DW_AT_type(*$C$DW$T$23)
    2643                            .dwattr $C$DW$T$34, DW_AT_language(DW_LANG_C)
    2644                    $C$DW$117       .dwtag  DW_TAG_formal_parameter
    2645                            .dwattr $C$DW$117, DW_AT_type(*$C$DW$T$23)
    2646                    
    2647                            .dwendtag $C$DW$T$34
    2648                    
    2649                    $C$DW$T$35      .dwtag  DW_TAG_pointer_type
    2650                            .dwattr $C$DW$T$35, DW_AT_type(*$C$DW$T$34)
    2651                            .dwattr $C$DW$T$35, DW_AT_address_class(0x20)
    2652                    
    2653                    $C$DW$T$36      .dwtag  DW_TAG_typedef
    2654                            .dwattr $C$DW$T$36, DW_AT_name("FPTR_RESERVED1_T")
    2655                            .dwattr $C$DW$T$36, DW_AT_type(*$C$DW$T$35)
    2656                            .dwattr $C$DW$T$36, DW_AT_language(DW_LANG_C)
    2657                            .dwattr $C$DW$T$36, DW_AT_decl_file("C:\ti\simplelink_cc13x0_sdk_2_30_00_20\source\ti\devices\
    2658                            .dwattr $C$DW$T$36, DW_AT_decl_line(0x46)
    2659                            .dwattr $C$DW$T$36, DW_AT_decl_column(0x19)
    2660                    
    2661                    
    2662                    $C$DW$T$45      .dwtag  DW_TAG_subroutine_type
    2663                            .dwattr $C$DW$T$45, DW_AT_type(*$C$DW$T$23)
    2664                            .dwattr $C$DW$T$45, DW_AT_language(DW_LANG_C)
    2665                    $C$DW$118       .dwtag  DW_TAG_formal_parameter
    2666                            .dwattr $C$DW$118, DW_AT_type(*$C$DW$T$44)
    2667                    
    2668                    $C$DW$119       .dwtag  DW_TAG_formal_parameter
    2669                            .dwattr $C$DW$119, DW_AT_type(*$C$DW$T$43)
    2670                    
    2671                    $C$DW$120       .dwtag  DW_TAG_formal_parameter
    2672                            .dwattr $C$DW$120, DW_AT_type(*$C$DW$T$43)
    2673                    
    2674                            .dwendtag $C$DW$T$45
    2675                    
    2676                    $C$DW$T$46      .dwtag  DW_TAG_pointer_type
    2677                            .dwattr $C$DW$T$46, DW_AT_type(*$C$DW$T$45)
    2678                            .dwattr $C$DW$T$46, DW_AT_address_class(0x20)
    2679                    
    2680                    $C$DW$T$47      .dwtag  DW_TAG_typedef
    2681                            .dwattr $C$DW$T$47, DW_AT_name("FPTR_FLETCHER32_T")
    2682                            .dwattr $C$DW$T$47, DW_AT_type(*$C$DW$T$46)
    2683                            .dwattr $C$DW$T$47, DW_AT_language(DW_LANG_C)
    2684                            .dwattr $C$DW$T$47, DW_AT_decl_file("C:\ti\simplelink_cc13x0_sdk_2_30_00_20\source\ti\devices\
    2685                            .dwattr $C$DW$T$47, DW_AT_decl_line(0x4f)
    2686                            .dwattr $C$DW$T$47, DW_AT_decl_column(0x19)
    2687                    
    2688                    $C$DW$T$48      .dwtag  DW_TAG_pointer_type
    2689                            .dwattr $C$DW$T$48, DW_AT_type(*$C$DW$T$23)
    2690                            .dwattr $C$DW$T$48, DW_AT_address_class(0x20)
    2691                    
    2692                    
    2693                    $C$DW$T$49      .dwtag  DW_TAG_subroutine_type
    2694                            .dwattr $C$DW$T$49, DW_AT_type(*$C$DW$T$23)
    2695                            .dwattr $C$DW$T$49, DW_AT_language(DW_LANG_C)
TI ARM Assembler PC v18.1.3 Wed Nov 28 13:34:33 2018

Tools Copyright (c) 1996-2017 Texas Instruments Incorporated
C:\Users\Adrian\AppData\Local\Temp\{1C8A0939-AB27-43CE-9698-03BC42AA3FBD} PAGE   50

    2696                    $C$DW$121       .dwtag  DW_TAG_formal_parameter
    2697                            .dwattr $C$DW$121, DW_AT_type(*$C$DW$T$48)
    2698                    
    2699                    $C$DW$122       .dwtag  DW_TAG_formal_parameter
    2700                            .dwattr $C$DW$122, DW_AT_type(*$C$DW$T$23)
    2701                    
    2702                            .dwendtag $C$DW$T$49
    2703                    
    2704                    $C$DW$T$50      .dwtag  DW_TAG_pointer_type
    2705                            .dwattr $C$DW$T$50, DW_AT_type(*$C$DW$T$49)
    2706                            .dwattr $C$DW$T$50, DW_AT_address_class(0x20)
    2707                    
    2708                    $C$DW$T$52      .dwtag  DW_TAG_typedef
    2709                            .dwattr $C$DW$T$52, DW_AT_name("FPTR_MAXVAL_T")
    2710                            .dwattr $C$DW$T$52, DW_AT_type(*$C$DW$T$50)
    2711                            .dwattr $C$DW$T$52, DW_AT_language(DW_LANG_C)
    2712                            .dwattr $C$DW$T$52, DW_AT_decl_file("C:\ti\simplelink_cc13x0_sdk_2_30_00_20\source\ti\devices\
    2713                            .dwattr $C$DW$T$52, DW_AT_decl_line(0x56)
    2714                            .dwattr $C$DW$T$52, DW_AT_decl_column(0x19)
    2715                    
    2716                    $C$DW$T$53      .dwtag  DW_TAG_typedef
    2717                            .dwattr $C$DW$T$53, DW_AT_name("FPTR_MEANVAL_T")
    2718                            .dwattr $C$DW$T$53, DW_AT_type(*$C$DW$T$50)
    2719                            .dwattr $C$DW$T$53, DW_AT_language(DW_LANG_C)
    2720                            .dwattr $C$DW$T$53, DW_AT_decl_file("C:\ti\simplelink_cc13x0_sdk_2_30_00_20\source\ti\devices\
    2721                            .dwattr $C$DW$T$53, DW_AT_decl_line(0x59)
    2722                            .dwattr $C$DW$T$53, DW_AT_decl_column(0x19)
    2723                    
    2724                    $C$DW$T$51      .dwtag  DW_TAG_typedef
    2725                            .dwattr $C$DW$T$51, DW_AT_name("FPTR_MINVAL_T")
    2726                            .dwattr $C$DW$T$51, DW_AT_type(*$C$DW$T$50)
    2727                            .dwattr $C$DW$T$51, DW_AT_language(DW_LANG_C)
    2728                            .dwattr $C$DW$T$51, DW_AT_decl_file("C:\ti\simplelink_cc13x0_sdk_2_30_00_20\source\ti\devices\
    2729                            .dwattr $C$DW$T$51, DW_AT_decl_line(0x53)
    2730                            .dwattr $C$DW$T$51, DW_AT_decl_column(0x19)
    2731                    
    2732                    $C$DW$T$54      .dwtag  DW_TAG_typedef
    2733                            .dwattr $C$DW$T$54, DW_AT_name("FPTR_STDDVAL_T")
    2734                            .dwattr $C$DW$T$54, DW_AT_type(*$C$DW$T$50)
    2735                            .dwattr $C$DW$T$54, DW_AT_language(DW_LANG_C)
    2736                            .dwattr $C$DW$T$54, DW_AT_decl_file("C:\ti\simplelink_cc13x0_sdk_2_30_00_20\source\ti\devices\
    2737                            .dwattr $C$DW$T$54, DW_AT_decl_line(0x5c)
    2738                            .dwattr $C$DW$T$54, DW_AT_decl_column(0x19)
    2739                    
    2740                    $C$DW$T$281     .dwtag  DW_TAG_typedef
    2741                            .dwattr $C$DW$T$281, DW_AT_name("__useconds_t")
    2742                            .dwattr $C$DW$T$281, DW_AT_type(*$C$DW$T$11)
    2743                            .dwattr $C$DW$T$281, DW_AT_language(DW_LANG_C)
    2744                            .dwattr $C$DW$T$281, DW_AT_decl_file("C:/ti/ccsv8/tools/compiler/ti-cgt-arm_18.1.3.LTS/include
    2745                            .dwattr $C$DW$T$281, DW_AT_decl_line(0x49)
    2746                            .dwattr $C$DW$T$281, DW_AT_decl_column(0x16)
    2747                    
    2748                    $C$DW$T$89      .dwtag  DW_TAG_typedef
    2749                            .dwattr $C$DW$T$89, DW_AT_name("size_t")
    2750                            .dwattr $C$DW$T$89, DW_AT_type(*$C$DW$T$11)
TI ARM Assembler PC v18.1.3 Wed Nov 28 13:34:33 2018

Tools Copyright (c) 1996-2017 Texas Instruments Incorporated
C:\Users\Adrian\AppData\Local\Temp\{1C8A0939-AB27-43CE-9698-03BC42AA3FBD} PAGE   51

    2751                            .dwattr $C$DW$T$89, DW_AT_language(DW_LANG_C)
    2752                            .dwattr $C$DW$T$89, DW_AT_decl_file("C:/ti/ccsv8/tools/compiler/ti-cgt-arm_18.1.3.LTS/include/
    2753                            .dwattr $C$DW$T$89, DW_AT_decl_line(0x68)
    2754                            .dwattr $C$DW$T$89, DW_AT_decl_column(0x19)
    2755                    
    2756                    $C$DW$T$12      .dwtag  DW_TAG_base_type
    2757                            .dwattr $C$DW$T$12, DW_AT_encoding(DW_ATE_signed)
    2758                            .dwattr $C$DW$T$12, DW_AT_name("long")
    2759                            .dwattr $C$DW$T$12, DW_AT_byte_size(0x04)
    2760                    
    2761                    $C$DW$T$282     .dwtag  DW_TAG_typedef
    2762                            .dwattr $C$DW$T$282, DW_AT_name("__key_t")
    2763                            .dwattr $C$DW$T$282, DW_AT_type(*$C$DW$T$12)
    2764                            .dwattr $C$DW$T$282, DW_AT_language(DW_LANG_C)
    2765                            .dwattr $C$DW$T$282, DW_AT_decl_file("C:/ti/ccsv8/tools/compiler/ti-cgt-arm_18.1.3.LTS/include
    2766                            .dwattr $C$DW$T$282, DW_AT_decl_line(0x37)
    2767                            .dwattr $C$DW$T$282, DW_AT_decl_column(0x0f)
    2768                    
    2769                    $C$DW$T$283     .dwtag  DW_TAG_typedef
    2770                            .dwattr $C$DW$T$283, DW_AT_name("__suseconds_t")
    2771                            .dwattr $C$DW$T$283, DW_AT_type(*$C$DW$T$12)
    2772                            .dwattr $C$DW$T$283, DW_AT_language(DW_LANG_C)
    2773                            .dwattr $C$DW$T$283, DW_AT_decl_file("C:/ti/ccsv8/tools/compiler/ti-cgt-arm_18.1.3.LTS/include
    2774                            .dwattr $C$DW$T$283, DW_AT_decl_line(0x45)
    2775                            .dwattr $C$DW$T$283, DW_AT_decl_column(0x0f)
    2776                    
    2777                    $C$DW$T$284     .dwtag  DW_TAG_typedef
    2778                            .dwattr $C$DW$T$284, DW_AT_name("int32")
    2779                            .dwattr $C$DW$T$284, DW_AT_type(*$C$DW$T$12)
    2780                            .dwattr $C$DW$T$284, DW_AT_language(DW_LANG_C)
    2781                            .dwattr $C$DW$T$284, DW_AT_decl_file("C:\ti\simplelink_cc13x0_sdk_2_30_00_20\source\ti\ti154st
    2782                            .dwattr $C$DW$T$284, DW_AT_decl_line(0x3e)
    2783                            .dwattr $C$DW$T$284, DW_AT_decl_column(0x19)
    2784                    
    2785                    $C$DW$T$13      .dwtag  DW_TAG_base_type
    2786                            .dwattr $C$DW$T$13, DW_AT_encoding(DW_ATE_unsigned)
    2787                            .dwattr $C$DW$T$13, DW_AT_name("unsigned long")
    2788                            .dwattr $C$DW$T$13, DW_AT_byte_size(0x04)
    2789                    
    2790                    $C$DW$T$285     .dwtag  DW_TAG_typedef
    2791                            .dwattr $C$DW$T$285, DW_AT_name("uint32")
    2792                            .dwattr $C$DW$T$285, DW_AT_type(*$C$DW$T$13)
    2793                            .dwattr $C$DW$T$285, DW_AT_language(DW_LANG_C)
    2794                            .dwattr $C$DW$T$285, DW_AT_decl_file("C:\ti\simplelink_cc13x0_sdk_2_30_00_20\source\ti\ti154st
    2795                            .dwattr $C$DW$T$285, DW_AT_decl_line(0x3f)
    2796                            .dwattr $C$DW$T$285, DW_AT_decl_column(0x19)
    2797                    
    2798                    $C$DW$T$286     .dwtag  DW_TAG_typedef
    2799                            .dwattr $C$DW$T$286, DW_AT_name("halDataAlign_t")
    2800                            .dwattr $C$DW$T$286, DW_AT_type(*$C$DW$T$285)
    2801                            .dwattr $C$DW$T$286, DW_AT_language(DW_LANG_C)
    2802                            .dwattr $C$DW$T$286, DW_AT_decl_file("C:\ti\simplelink_cc13x0_sdk_2_30_00_20\source\ti\ti154st
    2803                            .dwattr $C$DW$T$286, DW_AT_decl_line(0x43)
    2804                            .dwattr $C$DW$T$286, DW_AT_decl_column(0x19)
    2805                    
TI ARM Assembler PC v18.1.3 Wed Nov 28 13:34:33 2018

Tools Copyright (c) 1996-2017 Texas Instruments Incorporated
C:\Users\Adrian\AppData\Local\Temp\{1C8A0939-AB27-43CE-9698-03BC42AA3FBD} PAGE   52

    2806                    $C$DW$T$14      .dwtag  DW_TAG_base_type
    2807                            .dwattr $C$DW$T$14, DW_AT_encoding(DW_ATE_signed)
    2808                            .dwattr $C$DW$T$14, DW_AT_name("long long")
    2809                            .dwattr $C$DW$T$14, DW_AT_byte_size(0x08)
    2810                    
    2811                    $C$DW$T$287     .dwtag  DW_TAG_typedef
    2812                            .dwattr $C$DW$T$287, DW_AT_name("__int64_t")
    2813                            .dwattr $C$DW$T$287, DW_AT_type(*$C$DW$T$14)
    2814                            .dwattr $C$DW$T$287, DW_AT_language(DW_LANG_C)
    2815                            .dwattr $C$DW$T$287, DW_AT_decl_file("C:/ti/ccsv8/tools/compiler/ti-cgt-arm_18.1.3.LTS/include
    2816                            .dwattr $C$DW$T$287, DW_AT_decl_line(0x43)
    2817                            .dwattr $C$DW$T$287, DW_AT_decl_column(0x14)
    2818                    
    2819                    $C$DW$T$288     .dwtag  DW_TAG_typedef
    2820                            .dwattr $C$DW$T$288, DW_AT_name("__blkcnt_t")
    2821                            .dwattr $C$DW$T$288, DW_AT_type(*$C$DW$T$287)
    2822                            .dwattr $C$DW$T$288, DW_AT_language(DW_LANG_C)
    2823                            .dwattr $C$DW$T$288, DW_AT_decl_file("C:/ti/ccsv8/tools/compiler/ti-cgt-arm_18.1.3.LTS/include
    2824                            .dwattr $C$DW$T$288, DW_AT_decl_line(0x2f)
    2825                            .dwattr $C$DW$T$288, DW_AT_decl_column(0x13)
    2826                    
    2827                    $C$DW$T$289     .dwtag  DW_TAG_typedef
    2828                            .dwattr $C$DW$T$289, DW_AT_name("__id_t")
    2829                            .dwattr $C$DW$T$289, DW_AT_type(*$C$DW$T$287)
    2830                            .dwattr $C$DW$T$289, DW_AT_language(DW_LANG_C)
    2831                            .dwattr $C$DW$T$289, DW_AT_decl_file("C:/ti/ccsv8/tools/compiler/ti-cgt-arm_18.1.3.LTS/include
    2832                            .dwattr $C$DW$T$289, DW_AT_decl_line(0x35)
    2833                            .dwattr $C$DW$T$289, DW_AT_decl_column(0x13)
    2834                    
    2835                    $C$DW$T$290     .dwtag  DW_TAG_typedef
    2836                            .dwattr $C$DW$T$290, DW_AT_name("__int_fast64_t")
    2837                            .dwattr $C$DW$T$290, DW_AT_type(*$C$DW$T$287)
    2838                            .dwattr $C$DW$T$290, DW_AT_language(DW_LANG_C)
    2839                            .dwattr $C$DW$T$290, DW_AT_decl_file("C:/ti/ccsv8/tools/compiler/ti-cgt-arm_18.1.3.LTS/include
    2840                            .dwattr $C$DW$T$290, DW_AT_decl_line(0x57)
    2841                            .dwattr $C$DW$T$290, DW_AT_decl_column(0x13)
    2842                    
    2843                    $C$DW$T$291     .dwtag  DW_TAG_typedef
    2844                            .dwattr $C$DW$T$291, DW_AT_name("int_fast64_t")
    2845                            .dwattr $C$DW$T$291, DW_AT_type(*$C$DW$T$290)
    2846                            .dwattr $C$DW$T$291, DW_AT_language(DW_LANG_C)
    2847                            .dwattr $C$DW$T$291, DW_AT_decl_file("C:/ti/ccsv8/tools/compiler/ti-cgt-arm_18.1.3.LTS/include
    2848                            .dwattr $C$DW$T$291, DW_AT_decl_line(0x35)
    2849                            .dwattr $C$DW$T$291, DW_AT_decl_column(0x19)
    2850                    
    2851                    $C$DW$T$292     .dwtag  DW_TAG_typedef
    2852                            .dwattr $C$DW$T$292, DW_AT_name("__int_least64_t")
    2853                            .dwattr $C$DW$T$292, DW_AT_type(*$C$DW$T$287)
    2854                            .dwattr $C$DW$T$292, DW_AT_language(DW_LANG_C)
    2855                            .dwattr $C$DW$T$292, DW_AT_decl_file("C:/ti/ccsv8/tools/compiler/ti-cgt-arm_18.1.3.LTS/include
    2856                            .dwattr $C$DW$T$292, DW_AT_decl_line(0x5b)
    2857                            .dwattr $C$DW$T$292, DW_AT_decl_column(0x13)
    2858                    
    2859                    $C$DW$T$293     .dwtag  DW_TAG_typedef
    2860                            .dwattr $C$DW$T$293, DW_AT_name("int_least64_t")
TI ARM Assembler PC v18.1.3 Wed Nov 28 13:34:33 2018

Tools Copyright (c) 1996-2017 Texas Instruments Incorporated
C:\Users\Adrian\AppData\Local\Temp\{1C8A0939-AB27-43CE-9698-03BC42AA3FBD} PAGE   53

    2861                            .dwattr $C$DW$T$293, DW_AT_type(*$C$DW$T$292)
    2862                            .dwattr $C$DW$T$293, DW_AT_language(DW_LANG_C)
    2863                            .dwattr $C$DW$T$293, DW_AT_decl_file("C:/ti/ccsv8/tools/compiler/ti-cgt-arm_18.1.3.LTS/include
    2864                            .dwattr $C$DW$T$293, DW_AT_decl_line(0x2b)
    2865                            .dwattr $C$DW$T$293, DW_AT_decl_column(0x1a)
    2866                    
    2867                    $C$DW$T$294     .dwtag  DW_TAG_typedef
    2868                            .dwattr $C$DW$T$294, DW_AT_name("__intmax_t")
    2869                            .dwattr $C$DW$T$294, DW_AT_type(*$C$DW$T$287)
    2870                            .dwattr $C$DW$T$294, DW_AT_language(DW_LANG_C)
    2871                            .dwattr $C$DW$T$294, DW_AT_decl_file("C:/ti/ccsv8/tools/compiler/ti-cgt-arm_18.1.3.LTS/include
    2872                            .dwattr $C$DW$T$294, DW_AT_decl_line(0x52)
    2873                            .dwattr $C$DW$T$294, DW_AT_decl_column(0x13)
    2874                    
    2875                    $C$DW$T$295     .dwtag  DW_TAG_typedef
    2876                            .dwattr $C$DW$T$295, DW_AT_name("intmax_t")
    2877                            .dwattr $C$DW$T$295, DW_AT_type(*$C$DW$T$294)
    2878                            .dwattr $C$DW$T$295, DW_AT_language(DW_LANG_C)
    2879                            .dwattr $C$DW$T$295, DW_AT_decl_file("C:/ti/ccsv8/tools/compiler/ti-cgt-arm_18.1.3.LTS/include
    2880                            .dwattr $C$DW$T$295, DW_AT_decl_line(0x54)
    2881                            .dwattr $C$DW$T$295, DW_AT_decl_column(0x15)
    2882                    
    2883                    $C$DW$T$296     .dwtag  DW_TAG_typedef
    2884                            .dwattr $C$DW$T$296, DW_AT_name("__off64_t")
    2885                            .dwattr $C$DW$T$296, DW_AT_type(*$C$DW$T$287)
    2886                            .dwattr $C$DW$T$296, DW_AT_language(DW_LANG_C)
    2887                            .dwattr $C$DW$T$296, DW_AT_decl_file("C:/ti/ccsv8/tools/compiler/ti-cgt-arm_18.1.3.LTS/include
    2888                            .dwattr $C$DW$T$296, DW_AT_decl_line(0x3e)
    2889                            .dwattr $C$DW$T$296, DW_AT_decl_column(0x13)
    2890                    
    2891                    $C$DW$T$297     .dwtag  DW_TAG_typedef
    2892                            .dwattr $C$DW$T$297, DW_AT_name("__off_t")
    2893                            .dwattr $C$DW$T$297, DW_AT_type(*$C$DW$T$287)
    2894                            .dwattr $C$DW$T$297, DW_AT_language(DW_LANG_C)
    2895                            .dwattr $C$DW$T$297, DW_AT_decl_file("C:/ti/ccsv8/tools/compiler/ti-cgt-arm_18.1.3.LTS/include
    2896                            .dwattr $C$DW$T$297, DW_AT_decl_line(0x3d)
    2897                            .dwattr $C$DW$T$297, DW_AT_decl_column(0x13)
    2898                    
    2899                    $C$DW$T$298     .dwtag  DW_TAG_typedef
    2900                            .dwattr $C$DW$T$298, DW_AT_name("__rlim_t")
    2901                            .dwattr $C$DW$T$298, DW_AT_type(*$C$DW$T$287)
    2902                            .dwattr $C$DW$T$298, DW_AT_language(DW_LANG_C)
    2903                            .dwattr $C$DW$T$298, DW_AT_decl_file("C:/ti/ccsv8/tools/compiler/ti-cgt-arm_18.1.3.LTS/include
    2904                            .dwattr $C$DW$T$298, DW_AT_decl_line(0x40)
    2905                            .dwattr $C$DW$T$298, DW_AT_decl_column(0x13)
    2906                    
    2907                    $C$DW$T$299     .dwtag  DW_TAG_typedef
    2908                            .dwattr $C$DW$T$299, DW_AT_name("int64_t")
    2909                            .dwattr $C$DW$T$299, DW_AT_type(*$C$DW$T$287)
    2910                            .dwattr $C$DW$T$299, DW_AT_language(DW_LANG_C)
    2911                            .dwattr $C$DW$T$299, DW_AT_decl_file("C:/ti/ccsv8/tools/compiler/ti-cgt-arm_18.1.3.LTS/include
    2912                            .dwattr $C$DW$T$299, DW_AT_decl_line(0x33)
    2913                            .dwattr $C$DW$T$299, DW_AT_decl_column(0x14)
    2914                    
    2915                    $C$DW$T$15      .dwtag  DW_TAG_base_type
TI ARM Assembler PC v18.1.3 Wed Nov 28 13:34:33 2018

Tools Copyright (c) 1996-2017 Texas Instruments Incorporated
C:\Users\Adrian\AppData\Local\Temp\{1C8A0939-AB27-43CE-9698-03BC42AA3FBD} PAGE   54

    2916                            .dwattr $C$DW$T$15, DW_AT_encoding(DW_ATE_unsigned)
    2917                            .dwattr $C$DW$T$15, DW_AT_name("unsigned long long")
    2918                            .dwattr $C$DW$T$15, DW_AT_byte_size(0x08)
    2919                    
    2920                    $C$DW$T$300     .dwtag  DW_TAG_typedef
    2921                            .dwattr $C$DW$T$300, DW_AT_name("__uint64_t")
    2922                            .dwattr $C$DW$T$300, DW_AT_type(*$C$DW$T$15)
    2923                            .dwattr $C$DW$T$300, DW_AT_language(DW_LANG_C)
    2924                            .dwattr $C$DW$T$300, DW_AT_decl_file("C:/ti/ccsv8/tools/compiler/ti-cgt-arm_18.1.3.LTS/include
    2925                            .dwattr $C$DW$T$300, DW_AT_decl_line(0x48)
    2926                            .dwattr $C$DW$T$300, DW_AT_decl_column(0x1c)
    2927                    
    2928                    $C$DW$T$301     .dwtag  DW_TAG_typedef
    2929                            .dwattr $C$DW$T$301, DW_AT_name("__dev_t")
    2930                            .dwattr $C$DW$T$301, DW_AT_type(*$C$DW$T$300)
    2931                            .dwattr $C$DW$T$301, DW_AT_language(DW_LANG_C)
    2932                            .dwattr $C$DW$T$301, DW_AT_decl_file("C:/ti/ccsv8/tools/compiler/ti-cgt-arm_18.1.3.LTS/include
    2933                            .dwattr $C$DW$T$301, DW_AT_decl_line(0x74)
    2934                            .dwattr $C$DW$T$301, DW_AT_decl_column(0x14)
    2935                    
    2936                    $C$DW$T$302     .dwtag  DW_TAG_typedef
    2937                            .dwattr $C$DW$T$302, DW_AT_name("__fsblkcnt_t")
    2938                            .dwattr $C$DW$T$302, DW_AT_type(*$C$DW$T$300)
    2939                            .dwattr $C$DW$T$302, DW_AT_language(DW_LANG_C)
    2940                            .dwattr $C$DW$T$302, DW_AT_decl_file("C:/ti/ccsv8/tools/compiler/ti-cgt-arm_18.1.3.LTS/include
    2941                            .dwattr $C$DW$T$302, DW_AT_decl_line(0x32)
    2942                            .dwattr $C$DW$T$302, DW_AT_decl_column(0x14)
    2943                    
    2944                    $C$DW$T$303     .dwtag  DW_TAG_typedef
    2945                            .dwattr $C$DW$T$303, DW_AT_name("__fsfilcnt_t")
    2946                            .dwattr $C$DW$T$303, DW_AT_type(*$C$DW$T$300)
    2947                            .dwattr $C$DW$T$303, DW_AT_language(DW_LANG_C)
    2948                            .dwattr $C$DW$T$303, DW_AT_decl_file("C:/ti/ccsv8/tools/compiler/ti-cgt-arm_18.1.3.LTS/include
    2949                            .dwattr $C$DW$T$303, DW_AT_decl_line(0x33)
    2950                            .dwattr $C$DW$T$303, DW_AT_decl_column(0x14)
    2951                    
    2952                    $C$DW$T$304     .dwtag  DW_TAG_typedef
    2953                            .dwattr $C$DW$T$304, DW_AT_name("__ino_t")
    2954                            .dwattr $C$DW$T$304, DW_AT_type(*$C$DW$T$300)
    2955                            .dwattr $C$DW$T$304, DW_AT_language(DW_LANG_C)
    2956                            .dwattr $C$DW$T$304, DW_AT_decl_file("C:/ti/ccsv8/tools/compiler/ti-cgt-arm_18.1.3.LTS/include
    2957                            .dwattr $C$DW$T$304, DW_AT_decl_line(0x36)
    2958                            .dwattr $C$DW$T$304, DW_AT_decl_column(0x14)
    2959                    
    2960                    $C$DW$T$305     .dwtag  DW_TAG_typedef
    2961                            .dwattr $C$DW$T$305, DW_AT_name("__nlink_t")
    2962                            .dwattr $C$DW$T$305, DW_AT_type(*$C$DW$T$300)
    2963                            .dwattr $C$DW$T$305, DW_AT_language(DW_LANG_C)
    2964                            .dwattr $C$DW$T$305, DW_AT_decl_file("C:/ti/ccsv8/tools/compiler/ti-cgt-arm_18.1.3.LTS/include
    2965                            .dwattr $C$DW$T$305, DW_AT_decl_line(0x3c)
    2966                            .dwattr $C$DW$T$305, DW_AT_decl_column(0x14)
    2967                    
    2968                    $C$DW$T$306     .dwtag  DW_TAG_typedef
    2969                            .dwattr $C$DW$T$306, DW_AT_name("__uint_fast64_t")
    2970                            .dwattr $C$DW$T$306, DW_AT_type(*$C$DW$T$300)
TI ARM Assembler PC v18.1.3 Wed Nov 28 13:34:33 2018

Tools Copyright (c) 1996-2017 Texas Instruments Incorporated
C:\Users\Adrian\AppData\Local\Temp\{1C8A0939-AB27-43CE-9698-03BC42AA3FBD} PAGE   55

    2971                            .dwattr $C$DW$T$306, DW_AT_language(DW_LANG_C)
    2972                            .dwattr $C$DW$T$306, DW_AT_decl_file("C:/ti/ccsv8/tools/compiler/ti-cgt-arm_18.1.3.LTS/include
    2973                            .dwattr $C$DW$T$306, DW_AT_decl_line(0x6c)
    2974                            .dwattr $C$DW$T$306, DW_AT_decl_column(0x14)
    2975                    
    2976                    $C$DW$T$307     .dwtag  DW_TAG_typedef
    2977                            .dwattr $C$DW$T$307, DW_AT_name("uint_fast64_t")
    2978                            .dwattr $C$DW$T$307, DW_AT_type(*$C$DW$T$306)
    2979                            .dwattr $C$DW$T$307, DW_AT_language(DW_LANG_C)
    2980                            .dwattr $C$DW$T$307, DW_AT_decl_file("C:/ti/ccsv8/tools/compiler/ti-cgt-arm_18.1.3.LTS/include
    2981                            .dwattr $C$DW$T$307, DW_AT_decl_line(0x3a)
    2982                            .dwattr $C$DW$T$307, DW_AT_decl_column(0x1a)
    2983                    
    2984                    $C$DW$T$308     .dwtag  DW_TAG_typedef
    2985                            .dwattr $C$DW$T$308, DW_AT_name("__uint_least64_t")
    2986                            .dwattr $C$DW$T$308, DW_AT_type(*$C$DW$T$300)
    2987                            .dwattr $C$DW$T$308, DW_AT_language(DW_LANG_C)
    2988                            .dwattr $C$DW$T$308, DW_AT_decl_file("C:/ti/ccsv8/tools/compiler/ti-cgt-arm_18.1.3.LTS/include
    2989                            .dwattr $C$DW$T$308, DW_AT_decl_line(0x70)
    2990                            .dwattr $C$DW$T$308, DW_AT_decl_column(0x14)
    2991                    
    2992                    $C$DW$T$309     .dwtag  DW_TAG_typedef
    2993                            .dwattr $C$DW$T$309, DW_AT_name("uint_least64_t")
    2994                            .dwattr $C$DW$T$309, DW_AT_type(*$C$DW$T$308)
    2995                            .dwattr $C$DW$T$309, DW_AT_language(DW_LANG_C)
    2996                            .dwattr $C$DW$T$309, DW_AT_decl_file("C:/ti/ccsv8/tools/compiler/ti-cgt-arm_18.1.3.LTS/include
    2997                            .dwattr $C$DW$T$309, DW_AT_decl_line(0x30)
    2998                            .dwattr $C$DW$T$309, DW_AT_decl_column(0x1a)
    2999                    
    3000                    $C$DW$T$310     .dwtag  DW_TAG_typedef
    3001                            .dwattr $C$DW$T$310, DW_AT_name("__uintmax_t")
    3002                            .dwattr $C$DW$T$310, DW_AT_type(*$C$DW$T$300)
    3003                            .dwattr $C$DW$T$310, DW_AT_language(DW_LANG_C)
    3004                            .dwattr $C$DW$T$310, DW_AT_decl_file("C:/ti/ccsv8/tools/compiler/ti-cgt-arm_18.1.3.LTS/include
    3005                            .dwattr $C$DW$T$310, DW_AT_decl_line(0x67)
    3006                            .dwattr $C$DW$T$310, DW_AT_decl_column(0x14)
    3007                    
    3008                    $C$DW$T$311     .dwtag  DW_TAG_typedef
    3009                            .dwattr $C$DW$T$311, DW_AT_name("__rman_res_t")
    3010                            .dwattr $C$DW$T$311, DW_AT_type(*$C$DW$T$310)
    3011                            .dwattr $C$DW$T$311, DW_AT_language(DW_LANG_C)
    3012                            .dwattr $C$DW$T$311, DW_AT_decl_file("C:/ti/ccsv8/tools/compiler/ti-cgt-arm_18.1.3.LTS/include
    3013                            .dwattr $C$DW$T$311, DW_AT_decl_line(0x8f)
    3014                            .dwattr $C$DW$T$311, DW_AT_decl_column(0x19)
    3015                    
    3016                    $C$DW$T$312     .dwtag  DW_TAG_typedef
    3017                            .dwattr $C$DW$T$312, DW_AT_name("uintmax_t")
    3018                            .dwattr $C$DW$T$312, DW_AT_type(*$C$DW$T$310)
    3019                            .dwattr $C$DW$T$312, DW_AT_language(DW_LANG_C)
    3020                            .dwattr $C$DW$T$312, DW_AT_decl_file("C:/ti/ccsv8/tools/compiler/ti-cgt-arm_18.1.3.LTS/include
    3021                            .dwattr $C$DW$T$312, DW_AT_decl_line(0x58)
    3022                            .dwattr $C$DW$T$312, DW_AT_decl_column(0x16)
    3023                    
    3024                    $C$DW$T$313     .dwtag  DW_TAG_typedef
    3025                            .dwattr $C$DW$T$313, DW_AT_name("uint64_t")
TI ARM Assembler PC v18.1.3 Wed Nov 28 13:34:33 2018

Tools Copyright (c) 1996-2017 Texas Instruments Incorporated
C:\Users\Adrian\AppData\Local\Temp\{1C8A0939-AB27-43CE-9698-03BC42AA3FBD} PAGE   56

    3026                            .dwattr $C$DW$T$313, DW_AT_type(*$C$DW$T$300)
    3027                            .dwattr $C$DW$T$313, DW_AT_language(DW_LANG_C)
    3028                            .dwattr $C$DW$T$313, DW_AT_decl_file("C:/ti/ccsv8/tools/compiler/ti-cgt-arm_18.1.3.LTS/include
    3029                            .dwattr $C$DW$T$313, DW_AT_decl_line(0x47)
    3030                            .dwattr $C$DW$T$313, DW_AT_decl_column(0x15)
    3031                    
    3032                    $C$DW$T$16      .dwtag  DW_TAG_base_type
    3033                            .dwattr $C$DW$T$16, DW_AT_encoding(DW_ATE_float)
    3034                            .dwattr $C$DW$T$16, DW_AT_name("float")
    3035                            .dwattr $C$DW$T$16, DW_AT_byte_size(0x04)
    3036                    
    3037                    $C$DW$T$314     .dwtag  DW_TAG_typedef
    3038                            .dwattr $C$DW$T$314, DW_AT_name("__float_t")
    3039                            .dwattr $C$DW$T$314, DW_AT_type(*$C$DW$T$16)
    3040                            .dwattr $C$DW$T$314, DW_AT_language(DW_LANG_C)
    3041                            .dwattr $C$DW$T$314, DW_AT_decl_file("C:/ti/ccsv8/tools/compiler/ti-cgt-arm_18.1.3.LTS/include
    3042                            .dwattr $C$DW$T$314, DW_AT_decl_line(0x50)
    3043                            .dwattr $C$DW$T$314, DW_AT_decl_column(0x10)
    3044                    
    3045                    $C$DW$T$17      .dwtag  DW_TAG_base_type
    3046                            .dwattr $C$DW$T$17, DW_AT_encoding(DW_ATE_float)
    3047                            .dwattr $C$DW$T$17, DW_AT_name("double")
    3048                            .dwattr $C$DW$T$17, DW_AT_byte_size(0x08)
    3049                    
    3050                    $C$DW$T$315     .dwtag  DW_TAG_typedef
    3051                            .dwattr $C$DW$T$315, DW_AT_name("__double_t")
    3052                            .dwattr $C$DW$T$315, DW_AT_type(*$C$DW$T$17)
    3053                            .dwattr $C$DW$T$315, DW_AT_language(DW_LANG_C)
    3054                            .dwattr $C$DW$T$315, DW_AT_decl_file("C:/ti/ccsv8/tools/compiler/ti-cgt-arm_18.1.3.LTS/include
    3055                            .dwattr $C$DW$T$315, DW_AT_decl_line(0x4f)
    3056                            .dwattr $C$DW$T$315, DW_AT_decl_column(0x11)
    3057                    
    3058                    $C$DW$T$18      .dwtag  DW_TAG_base_type
    3059                            .dwattr $C$DW$T$18, DW_AT_encoding(DW_ATE_float)
    3060                            .dwattr $C$DW$T$18, DW_AT_name("long double")
    3061                            .dwattr $C$DW$T$18, DW_AT_byte_size(0x08)
    3062                    
    3063                    $C$DW$T$111     .dwtag  DW_TAG_base_type
    3064                            .dwattr $C$DW$T$111, DW_AT_encoding(DW_ATE_unsigned_char)
    3065                            .dwattr $C$DW$T$111, DW_AT_name("unsigned char")
    3066                            .dwattr $C$DW$T$111, DW_AT_byte_size(0x01)
    3067                    
    3068                    
    3069                    $C$DW$T$162     .dwtag  DW_TAG_subroutine_type
    3070                            .dwattr $C$DW$T$162, DW_AT_type(*$C$DW$T$111)
    3071                            .dwattr $C$DW$T$162, DW_AT_language(DW_LANG_C)
    3072                    $C$DW$123       .dwtag  DW_TAG_formal_parameter
    3073                            .dwattr $C$DW$123, DW_AT_type(*$C$DW$T$83)
    3074                    
    3075                    $C$DW$124       .dwtag  DW_TAG_formal_parameter
    3076                            .dwattr $C$DW$124, DW_AT_type(*$C$DW$T$80)
    3077                    
    3078                    $C$DW$125       .dwtag  DW_TAG_formal_parameter
    3079                            .dwattr $C$DW$125, DW_AT_type(*$C$DW$T$161)
    3080                    
TI ARM Assembler PC v18.1.3 Wed Nov 28 13:34:33 2018

Tools Copyright (c) 1996-2017 Texas Instruments Incorporated
C:\Users\Adrian\AppData\Local\Temp\{1C8A0939-AB27-43CE-9698-03BC42AA3FBD} PAGE   57

    3081                            .dwendtag $C$DW$T$162
    3082                    
    3083                    $C$DW$T$163     .dwtag  DW_TAG_pointer_type
    3084                            .dwattr $C$DW$T$163, DW_AT_type(*$C$DW$T$162)
    3085                            .dwattr $C$DW$T$163, DW_AT_address_class(0x20)
    3086                    
    3087                    $C$DW$T$164     .dwtag  DW_TAG_typedef
    3088                            .dwattr $C$DW$T$164, DW_AT_name("ICall_MsgMatchFn")
    3089                            .dwattr $C$DW$T$164, DW_AT_type(*$C$DW$T$163)
    3090                            .dwattr $C$DW$T$164, DW_AT_language(DW_LANG_C)
    3091                            .dwattr $C$DW$T$164, DW_AT_decl_file("C:/ti/simplelink_cc13x0_sdk_2_30_00_20/source/ti/ti154st
