TI ARM Assembler PC v18.1.3 Wed Nov 28 13:22:09 2018

Tools Copyright (c) 1996-2017 Texas Instruments Incorporated
C:\Users\Adrian\AppData\Local\Temp\{F87BBCDE-FD87-4EF2-8C66-DFD97B5C0FAE} PAGE    1

       1                    ;******************************************************************************
       2                    ;* TI ARM C/C++ Codegen                                        PC v18.1.3.LTS *
       3                    ;* Date/Time created: Wed Nov 28 13:22:09 2018                                *
       4                    ;******************************************************************************
       5                            .compiler_opts --abi=eabi --arm_vmrs_si_workaround=off --code_state=16 --diag_wrap=off --embed
       6 00000000                   .thumb
       7                    
       8                    $C$DW$CU        .dwtag  DW_TAG_compile_unit
       9                            .dwattr $C$DW$CU, DW_AT_name("../Application/PALNA/board_palna.c")
      10                            .dwattr $C$DW$CU, DW_AT_producer("TI TI ARM C/C++ Codegen PC v18.1.3.LTS Copyright (c) 1996-20
      11                            .dwattr $C$DW$CU, DW_AT_TI_version(0x01)
      12                            .dwattr $C$DW$CU, DW_AT_comp_dir("C:\Users\Adrian\workspace_v8\collector_cc1350lp\collector_cc
      13                    
      14                    $C$DW$1 .dwtag  DW_TAG_subprogram
      15                            .dwattr $C$DW$1, DW_AT_name("CC13x0_LAUNCHXL_rfDisableCallback")
      16                            .dwattr $C$DW$1, DW_AT_TI_symbol_name("CC13x0_LAUNCHXL_rfDisableCallback")
      17                            .dwattr $C$DW$1, DW_AT_declaration
      18                            .dwattr $C$DW$1, DW_AT_external
      19                            .dwattr $C$DW$1, DW_AT_decl_file("C:\ti\simplelink_cc13x0_sdk_2_30_00_20\examples\rtos\CC1350_
      20                            .dwattr $C$DW$1, DW_AT_decl_line(0xa9)
      21                            .dwattr $C$DW$1, DW_AT_decl_column(0x06)
      22                            .dwendtag $C$DW$1
      23                    
      24                    
      25                    $C$DW$2 .dwtag  DW_TAG_subprogram
      26                            .dwattr $C$DW$2, DW_AT_name("PIN_open")
      27                            .dwattr $C$DW$2, DW_AT_TI_symbol_name("PIN_open")
      28                            .dwattr $C$DW$2, DW_AT_type(*$C$DW$T$86)
      29                            .dwattr $C$DW$2, DW_AT_declaration
      30                            .dwattr $C$DW$2, DW_AT_external
      31                            .dwattr $C$DW$2, DW_AT_decl_file("C:/ti/simplelink_cc13x0_sdk_2_30_00_20/source/ti/drivers/PIN
      32                            .dwattr $C$DW$2, DW_AT_decl_line(0x2f5)
      33                            .dwattr $C$DW$2, DW_AT_decl_column(0x13)
      34                    $C$DW$3 .dwtag  DW_TAG_formal_parameter
      35                            .dwattr $C$DW$3, DW_AT_type(*$C$DW$T$85)
      36                    
      37                    $C$DW$4 .dwtag  DW_TAG_formal_parameter
      38                            .dwattr $C$DW$4, DW_AT_type(*$C$DW$T$143)
      39                    
      40                            .dwendtag $C$DW$2
      41                    
      42                    
      43                    $C$DW$5 .dwtag  DW_TAG_subprogram
      44                            .dwattr $C$DW$5, DW_AT_name("PINCC26XX_setMux")
      45                            .dwattr $C$DW$5, DW_AT_TI_symbol_name("PINCC26XX_setMux")
      46                            .dwattr $C$DW$5, DW_AT_type(*$C$DW$T$94)
      47                            .dwattr $C$DW$5, DW_AT_declaration
      48                            .dwattr $C$DW$5, DW_AT_external
      49                            .dwattr $C$DW$5, DW_AT_decl_file("C:/ti/simplelink_cc13x0_sdk_2_30_00_20/source/ti/drivers/pin
      50                            .dwattr $C$DW$5, DW_AT_decl_line(0x154)
      51                            .dwattr $C$DW$5, DW_AT_decl_column(0x13)
      52                    $C$DW$6 .dwtag  DW_TAG_formal_parameter
      53                            .dwattr $C$DW$6, DW_AT_type(*$C$DW$T$86)
      54                    
      55                    $C$DW$7 .dwtag  DW_TAG_formal_parameter
TI ARM Assembler PC v18.1.3 Wed Nov 28 13:22:09 2018

Tools Copyright (c) 1996-2017 Texas Instruments Incorporated
C:\Users\Adrian\AppData\Local\Temp\{F87BBCDE-FD87-4EF2-8C66-DFD97B5C0FAE} PAGE    2

      56                            .dwattr $C$DW$7, DW_AT_type(*$C$DW$T$87)
      57                    
      58                    $C$DW$8 .dwtag  DW_TAG_formal_parameter
      59                            .dwattr $C$DW$8, DW_AT_type(*$C$DW$T$96)
      60                    
      61                            .dwendtag $C$DW$5
      62                    
      63                    
      64                    $C$DW$9 .dwtag  DW_TAG_subprogram
      65                            .dwattr $C$DW$9, DW_AT_name("PIN_setOutputValue")
      66                            .dwattr $C$DW$9, DW_AT_TI_symbol_name("PIN_setOutputValue")
      67                            .dwattr $C$DW$9, DW_AT_type(*$C$DW$T$94)
      68                            .dwattr $C$DW$9, DW_AT_declaration
      69                            .dwattr $C$DW$9, DW_AT_external
      70                            .dwattr $C$DW$9, DW_AT_decl_file("C:/ti/simplelink_cc13x0_sdk_2_30_00_20/source/ti/drivers/PIN
      71                            .dwattr $C$DW$9, DW_AT_decl_line(0x367)
      72                            .dwattr $C$DW$9, DW_AT_decl_column(0x13)
      73                    $C$DW$10        .dwtag  DW_TAG_formal_parameter
      74                            .dwattr $C$DW$10, DW_AT_type(*$C$DW$T$86)
      75                    
      76                    $C$DW$11        .dwtag  DW_TAG_formal_parameter
      77                            .dwattr $C$DW$11, DW_AT_type(*$C$DW$T$87)
      78                    
      79                    $C$DW$12        .dwtag  DW_TAG_formal_parameter
      80                            .dwattr $C$DW$12, DW_AT_type(*$C$DW$T$23)
      81                    
      82                            .dwendtag $C$DW$9
      83                    
      84 00000000                   .sect   ".data:$O1$$", RW
      85                            .align  4
      86                            .elfsym ||$O1$$||,SYM_SIZE(32)
      87 00000000           ||$O1$$||:
      88 00000000                   .space  16
      89 00000010 80C0081C          .bits   -2134898660,32                  ; $O1$$.palnaPinTable[0] @ 128
      90 00000014 8080081D          .bits   -2139092963,32                  ; $O1$$.palnaPinTable[1] @ 160
      91 00000018 8080081E          .bits   -2139092962,32                  ; $O1$$.palnaPinTable[2] @ 192
      92 0000001c 000000FE          .bits   254,32                  ; $O1$$.palnaPinTable[3] @ 224
      93                    
      94                    
      95                    ;*********************************************************************
      96                    ;* GROUPED GLOBALS FOR $O1$$                                         *
      97                    ;*********************************************************************
      98          00000000! palnaPinHandle: .set    ||$O1$$||+0
      99                    $C$DW$13        .dwtag  DW_TAG_variable
     100                            .dwattr $C$DW$13, DW_AT_name("palnaPinHandle")
     101                            .dwattr $C$DW$13, DW_AT_TI_symbol_name("palnaPinHandle")
     102                            .dwattr $C$DW$13, DW_AT_type(*$C$DW$T$86)
     103                            .dwattr $C$DW$13, DW_AT_location[DW_OP_addr palnaPinHandle]
     104                            .dwattr $C$DW$13, DW_AT_decl_file("../Application/PALNA/board_palna.c")
     105                            .dwattr $C$DW$13, DW_AT_decl_line(0x5a)
     106                            .dwattr $C$DW$13, DW_AT_decl_column(0x13)
     107                    
     108          00000004! palnaPinState:  .set    ||$O1$$||+4
     109                    $C$DW$14        .dwtag  DW_TAG_variable
     110                            .dwattr $C$DW$14, DW_AT_name("palnaPinState")
TI ARM Assembler PC v18.1.3 Wed Nov 28 13:22:09 2018

Tools Copyright (c) 1996-2017 Texas Instruments Incorporated
C:\Users\Adrian\AppData\Local\Temp\{F87BBCDE-FD87-4EF2-8C66-DFD97B5C0FAE} PAGE    3

     111                            .dwattr $C$DW$14, DW_AT_TI_symbol_name("palnaPinState")
     112                            .dwattr $C$DW$14, DW_AT_type(*$C$DW$T$84)
     113                            .dwattr $C$DW$14, DW_AT_location[DW_OP_addr palnaPinState]
     114                            .dwattr $C$DW$14, DW_AT_decl_file("../Application/PALNA/board_palna.c")
     115                            .dwattr $C$DW$14, DW_AT_decl_line(0x57)
     116                            .dwattr $C$DW$14, DW_AT_decl_column(0x12)
     117                    
     118          00000010! palnaPinTable:  .set    ||$O1$$||+16
     119                    $C$DW$15        .dwtag  DW_TAG_variable
     120                            .dwattr $C$DW$15, DW_AT_name("palnaPinTable")
     121                            .dwattr $C$DW$15, DW_AT_TI_symbol_name("palnaPinTable")
     122                            .dwattr $C$DW$15, DW_AT_type(*$C$DW$T$268)
     123                            .dwattr $C$DW$15, DW_AT_location[DW_OP_addr palnaPinTable]
     124                            .dwattr $C$DW$15, DW_AT_decl_file("../Application/PALNA/board_palna.c")
     125                            .dwattr $C$DW$15, DW_AT_decl_line(0x4b)
     126                            .dwattr $C$DW$15, DW_AT_decl_column(0x13)
     127                    
     128                    ;       C:\ti\ccsv8\tools\compiler\ti-cgt-arm_18.1.3.LTS\bin\armopt.exe C:/Users/Adrian/workspace_v8/c
     129 00000000                   .sect   ".text:Board_Palna_initialize"
     130                            .clink
     131                            .thumbfunc Board_Palna_initialize
     132 00000000                   .thumb
     133                            .global Board_Palna_initialize
     134                    
     135                    $C$DW$16        .dwtag  DW_TAG_subprogram
     136                            .dwattr $C$DW$16, DW_AT_name("Board_Palna_initialize")
     137                            .dwattr $C$DW$16, DW_AT_low_pc(Board_Palna_initialize)
     138                            .dwattr $C$DW$16, DW_AT_high_pc(0x00)
     139                            .dwattr $C$DW$16, DW_AT_TI_symbol_name("Board_Palna_initialize")
     140                            .dwattr $C$DW$16, DW_AT_external
     141                            .dwattr $C$DW$16, DW_AT_TI_begin_file("../Application/PALNA/board_palna.c")
     142                            .dwattr $C$DW$16, DW_AT_TI_begin_line(0x69)
     143                            .dwattr $C$DW$16, DW_AT_TI_begin_column(0x06)
     144                            .dwattr $C$DW$16, DW_AT_decl_file("../Application/PALNA/board_palna.c")
     145                            .dwattr $C$DW$16, DW_AT_decl_line(0x69)
     146                            .dwattr $C$DW$16, DW_AT_decl_column(0x06)
     147                            .dwattr $C$DW$16, DW_AT_TI_max_frame_size(0x10)
     148                            .dwpsn  file "../Application/PALNA/board_palna.c",line 106,column 1,is_stmt,address Board_Paln
     149                    
     150                            .dwfde $C$DW$CIE, Board_Palna_initialize
     151                    $C$DW$17        .dwtag  DW_TAG_formal_parameter
     152                            .dwattr $C$DW$17, DW_AT_name("hgm")
     153                            .dwattr $C$DW$17, DW_AT_TI_symbol_name("hgm")
     154                            .dwattr $C$DW$17, DW_AT_type(*$C$DW$T$23)
     155                            .dwattr $C$DW$17, DW_AT_location[DW_OP_reg0]
     156                    
     157                    
     158                    ;*****************************************************************************
     159                    ;* FUNCTION NAME: Board_Palna_initialize                                     *
     160                    ;*                                                                           *
     161                    ;*   Regs Modified     : A1,A2,A3,A4,V1,V2,V9,SP,LR,SR                       *
     162                    ;*   Regs Used         : A1,A2,A3,A4,V1,V2,V9,SP,LR,SR                       *
     163                    ;*   Local Frame Size  : 0 Args + 0 Auto + 12 Save = 12 byte                 *
     164                    ;*****************************************************************************
     165                    Board_Palna_initialize:
TI ARM Assembler PC v18.1.3 Wed Nov 28 13:22:09 2018

Tools Copyright (c) 1996-2017 Texas Instruments Incorporated
C:\Users\Adrian\AppData\Local\Temp\{F87BBCDE-FD87-4EF2-8C66-DFD97B5C0FAE} PAGE    4

     166                    ;* --------------------------------------------------------------------------*
     167                    ;* V2    assigned to $O$C1
     168                    ;* A1    assigned to $O$v1
     169                    ;* A1    assigned to $O$v1
     170                    ;* V2    assigned to $O$K6
     171                    ;* V1    assigned to hgm
     172                    $C$DW$18        .dwtag  DW_TAG_variable
     173                            .dwattr $C$DW$18, DW_AT_name("hgm")
     174                            .dwattr $C$DW$18, DW_AT_TI_symbol_name("hgm")
     175                            .dwattr $C$DW$18, DW_AT_type(*$C$DW$T$269)
     176                            .dwattr $C$DW$18, DW_AT_location[DW_OP_reg4]
     177                    
     178                            .dwcfi  cfa_offset, 0
     179 00000000 B538              PUSH      {A4, V1, V2, LR}      ; [DPU_V7M3_PIPE]  ; [ORIG 16-BIT INS]
     180                            .dwcfi  cfa_offset, 16
     181                            .dwcfi  save_reg_to_mem, 14, -4
     182                            .dwcfi  save_reg_to_mem, 5, -8
     183                            .dwcfi  save_reg_to_mem, 4, -12
     184                            .dwcfi  save_reg_to_mem, 3, -16
     185                            .dwpsn  file "../Application/PALNA/board_palna.c",line 107,column 2,is_stmt,isa 1
     186 00000002 1C04              MOVS      V1, A1                ; [DPU_V7M3_PIPE] |107|  ; [ORIG 16-BIT INS]
     187 00000004 D019              BEQ       ||$C$L2||             ; [DPU_V7M3_PIPE] |107|  ; [ORIG 16-BIT INS]
     188                            ; BRANCHCC OCCURS {||$C$L2||}    ; [] |107| 
     189                    ;* --------------------------------------------------------------------------*
     190                            .dwpsn  file "../Application/PALNA/board_palna.c",line 109,column 6,is_stmt,isa 1
     191                    $C$DW$19        .dwtag  DW_TAG_TI_branch
     192                            .dwattr $C$DW$19, DW_AT_low_pc(0x00)
     193                            .dwattr $C$DW$19, DW_AT_name("CC13x0_LAUNCHXL_rfDisableCallback")
     194                            .dwattr $C$DW$19, DW_AT_TI_call
     195                    
     196 00000006 FFFEF7FF!         BL        CC13x0_LAUNCHXL_rfDisableCallback ; [DPU_V7M3_PIPE] |109|  ; [KEEP 32-BIT INS]
     197                            ; CALL OCCURS {CC13x0_LAUNCHXL_rfDisableCallback }  ; [] |109| 
     198                            .dwpsn  file "../Application/PALNA/board_palna.c",line 111,column 3,is_stmt,isa 1
     199 0000000a 4D0C              LDR       V2, $C$CON1           ; [DPU_V7M3_PIPE] |111|  ; [ORIG 16-BIT INS]
     200 0000000c 6828              LDR       A1, [V2, #0]          ; [DPU_V7M3_PIPE] |111|  ; [ORIG 16-BIT INS]
     201 0000000e B978              CBNZ      A1, ||$C$L1||         ; []  ; [ORIG 16-BIT INS]
     202                            ; BRANCHCC OCCURS {||$C$L1||}    ; [] |111| 
     203                    ;* --------------------------------------------------------------------------*
     204 00000010 1D28              ADDS      A1, V2, #4            ; [DPU_V7M3_PIPE]  ; [ORIG 16-BIT INS]
     205 00000012 0110F105          ADD       A2, V2, #16           ; [DPU_V7M3_PIPE]  ; [KEEP 32-BIT INS]
     206                            .dwpsn  file "../Application/PALNA/board_palna.c",line 114,column 4,is_stmt,isa 1
     207                    $C$DW$20        .dwtag  DW_TAG_TI_branch
     208                            .dwattr $C$DW$20, DW_AT_low_pc(0x00)
     209                            .dwattr $C$DW$20, DW_AT_name("PIN_open")
     210                            .dwattr $C$DW$20, DW_AT_TI_call
     211                    
     212 00000016 FFFEF7FF!         BL        PIN_open              ; [DPU_V7M3_PIPE] |114|  ; [KEEP 32-BIT INS]
     213                            ; CALL OCCURS {PIN_open }        ; [] |114| 
     214                            .dwpsn  file "../Application/PALNA/board_palna.c",line 117,column 4,is_stmt,isa 1
     215 0000001a 211D              MOVS      A2, #29               ; [DPU_V7M3_PIPE] |117|  ; [ORIG 16-BIT INS]
     216 0000001c 222F              MOVS      A3, #47               ; [DPU_V7M3_PIPE] |117|  ; [ORIG 16-BIT INS]
     217                            .dwpsn  file "../Application/PALNA/board_palna.c",line 114,column 4,is_stmt,isa 1
     218 0000001e 6028              STR       A1, [V2, #0]          ; [DPU_V7M3_PIPE] |114|  ; [ORIG 16-BIT INS]
     219                            .dwpsn  file "../Application/PALNA/board_palna.c",line 117,column 4,is_stmt,isa 1
     220                    $C$DW$21        .dwtag  DW_TAG_TI_branch
TI ARM Assembler PC v18.1.3 Wed Nov 28 13:22:09 2018

Tools Copyright (c) 1996-2017 Texas Instruments Incorporated
C:\Users\Adrian\AppData\Local\Temp\{F87BBCDE-FD87-4EF2-8C66-DFD97B5C0FAE} PAGE    5

     221                            .dwattr $C$DW$21, DW_AT_low_pc(0x00)
     222                            .dwattr $C$DW$21, DW_AT_name("PINCC26XX_setMux")
     223                            .dwattr $C$DW$21, DW_AT_TI_call
     224                    
     225 00000020 FFFEF7FF!         BL        PINCC26XX_setMux      ; [DPU_V7M3_PIPE] |117|  ; [KEEP 32-BIT INS]
     226                            ; CALL OCCURS {PINCC26XX_setMux }  ; [] |117| 
     227                            .dwpsn  file "../Application/PALNA/board_palna.c",line 118,column 4,is_stmt,isa 1
     228 00000024 6828              LDR       A1, [V2, #0]          ; [DPU_V7M3_PIPE] |118|  ; [ORIG 16-BIT INS]
     229 00000026 211E              MOVS      A2, #30               ; [DPU_V7M3_PIPE] |118|  ; [ORIG 16-BIT INS]
     230 00000028 2230              MOVS      A3, #48               ; [DPU_V7M3_PIPE] |118|  ; [ORIG 16-BIT INS]
     231                    $C$DW$22        .dwtag  DW_TAG_TI_branch
     232                            .dwattr $C$DW$22, DW_AT_low_pc(0x00)
     233                            .dwattr $C$DW$22, DW_AT_name("PINCC26XX_setMux")
     234                            .dwattr $C$DW$22, DW_AT_TI_call
     235                    
     236 0000002a FFFEF7FF!         BL        PINCC26XX_setMux      ; [DPU_V7M3_PIPE] |118|  ; [KEEP 32-BIT INS]
     237                            ; CALL OCCURS {PINCC26XX_setMux }  ; [] |118| 
     238 0000002e 6828              LDR       A1, [V2, #0]          ; [DPU_V7M3_PIPE] |118|  ; [ORIG 16-BIT INS]
     239                    ;* --------------------------------------------------------------------------*
     240 00000030           ||$C$L1||:    
     241                            .dwpsn  file "../Application/PALNA/board_palna.c",line 121,column 3,is_stmt,isa 1
     242 00000030 0201F004          AND       A3, V1, #1            ; [DPU_V7M3_PIPE] |121|  ; [KEEP 32-BIT INS]
     243 00000034 211C              MOVS      A2, #28               ; [DPU_V7M3_PIPE] |121|  ; [ORIG 16-BIT INS]
     244                    $C$DW$23        .dwtag  DW_TAG_TI_branch
     245                            .dwattr $C$DW$23, DW_AT_low_pc(0x00)
     246                            .dwattr $C$DW$23, DW_AT_name("PIN_setOutputValue")
     247                            .dwattr $C$DW$23, DW_AT_TI_call
     248                    
     249 00000036 FFFEF7FF!         BL        PIN_setOutputValue    ; [DPU_V7M3_PIPE] |121|  ; [KEEP 32-BIT INS]
     250                            ; CALL OCCURS {PIN_setOutputValue }  ; [] |121| 
     251                    ;* --------------------------------------------------------------------------*
     252                    ||$C$L2||:    
     253                    $C$DW$24        .dwtag  DW_TAG_TI_branch
     254                            .dwattr $C$DW$24, DW_AT_low_pc(0x00)
     255                            .dwattr $C$DW$24, DW_AT_TI_return
     256                    
     257 0000003a BD38              POP       {A4, V1, V2, PC}      ; [DPU_V7M3_PIPE]  ; [ORIG 16-BIT INS]
     258                            .dwcfi  cfa_offset, 0
     259                            .dwcfi  restore_reg, 5
     260                            .dwcfi  restore_reg, 4
     261                            .dwcfi  restore_reg, 3
     262                            ; BRANCH OCCURS                  ; [] 
     263                            .dwattr $C$DW$16, DW_AT_TI_end_file("../Application/PALNA/board_palna.c")
     264                            .dwattr $C$DW$16, DW_AT_TI_end_line(0x7c)
     265                            .dwattr $C$DW$16, DW_AT_TI_end_column(0x01)
     266                            .dwendentry
     267                            .dwendtag $C$DW$16
     268                    
     269                    ;******************************************************************************
     270                    ;* CONSTANT TABLE                                                             *
     271                    ;******************************************************************************
     272 0000003c                   .sect   ".text:Board_Palna_initialize"
     273                            .align  4
     274 0000003c 00000000! ||$C$CON1||:    .bits   ||$O1$$||,32
     275                    ;*****************************************************************************
TI ARM Assembler PC v18.1.3 Wed Nov 28 13:22:09 2018

Tools Copyright (c) 1996-2017 Texas Instruments Incorporated
C:\Users\Adrian\AppData\Local\Temp\{F87BBCDE-FD87-4EF2-8C66-DFD97B5C0FAE} PAGE    6

     276                    ;* UNDEFINED EXTERNAL REFERENCES                                             *
     277                    ;*****************************************************************************
     278                            .global CC13x0_LAUNCHXL_rfDisableCallback
     279                            .global PIN_open
     280                            .global PINCC26XX_setMux
     281                            .global PIN_setOutputValue
     282                    
     283                    ;******************************************************************************
     284                    ;* BUILD ATTRIBUTES                                                           *
     285                    ;******************************************************************************
     286                            .battr "aeabi", Tag_File, 1, Tag_ABI_PCS_wchar_t(2)
     287                            .battr "aeabi", Tag_File, 1, Tag_ABI_FP_rounding(0)
     288                            .battr "aeabi", Tag_File, 1, Tag_ABI_FP_denormal(0)
     289                            .battr "aeabi", Tag_File, 1, Tag_ABI_FP_exceptions(0)
     290                            .battr "aeabi", Tag_File, 1, Tag_ABI_FP_number_model(1)
     291                            .battr "aeabi", Tag_File, 1, Tag_ABI_enum_size(1)
     292                            .battr "aeabi", Tag_File, 1, Tag_ABI_optimization_goals(0)
     293                            .battr "aeabi", Tag_File, 1, Tag_ABI_FP_optimization_goals(0)
     294                            .battr "TI", Tag_File, 1, Tag_Bitfield_layout(2)
     295                            .battr "aeabi", Tag_File, 1, Tag_ABI_VFP_args(3)
     296                            .battr "TI", Tag_File, 1, Tag_FP_interface(1)
     297                    
     298                    ;******************************************************************************
     299                    ;* TYPE INFORMATION                                                           *
     300                    ;******************************************************************************
     301                    
     302                    $C$DW$T$93      .dwtag  DW_TAG_enumeration_type
     303                            .dwattr $C$DW$T$93, DW_AT_byte_size(0x01)
     304                    $C$DW$25        .dwtag  DW_TAG_enumerator
     305                            .dwattr $C$DW$25, DW_AT_name("PIN_SUCCESS")
     306                            .dwattr $C$DW$25, DW_AT_const_value(0x00)
     307                            .dwattr $C$DW$25, DW_AT_decl_file("C:/ti/simplelink_cc13x0_sdk_2_30_00_20/source/ti/drivers/PI
     308                            .dwattr $C$DW$25, DW_AT_decl_line(0x2cd)
     309                            .dwattr $C$DW$25, DW_AT_decl_column(0x05)
     310                    
     311                    $C$DW$26        .dwtag  DW_TAG_enumerator
     312                            .dwattr $C$DW$26, DW_AT_name("PIN_ALREADY_ALLOCATED")
     313                            .dwattr $C$DW$26, DW_AT_const_value(0x01)
     314                            .dwattr $C$DW$26, DW_AT_decl_file("C:/ti/simplelink_cc13x0_sdk_2_30_00_20/source/ti/drivers/PI
     315                            .dwattr $C$DW$26, DW_AT_decl_line(0x2ce)
     316                            .dwattr $C$DW$26, DW_AT_decl_column(0x05)
     317                    
     318                    $C$DW$27        .dwtag  DW_TAG_enumerator
     319                            .dwattr $C$DW$27, DW_AT_name("PIN_NO_ACCESS")
     320                            .dwattr $C$DW$27, DW_AT_const_value(0x02)
     321                            .dwattr $C$DW$27, DW_AT_decl_file("C:/ti/simplelink_cc13x0_sdk_2_30_00_20/source/ti/drivers/PI
     322                            .dwattr $C$DW$27, DW_AT_decl_line(0x2cf)
     323                            .dwattr $C$DW$27, DW_AT_decl_column(0x05)
     324                    
     325                    $C$DW$28        .dwtag  DW_TAG_enumerator
     326                            .dwattr $C$DW$28, DW_AT_name("PIN_UNSUPPORTED")
     327                            .dwattr $C$DW$28, DW_AT_const_value(0x03)
     328                            .dwattr $C$DW$28, DW_AT_decl_file("C:/ti/simplelink_cc13x0_sdk_2_30_00_20/source/ti/drivers/PI
     329                            .dwattr $C$DW$28, DW_AT_decl_line(0x2d0)
     330                            .dwattr $C$DW$28, DW_AT_decl_column(0x05)
TI ARM Assembler PC v18.1.3 Wed Nov 28 13:22:09 2018

Tools Copyright (c) 1996-2017 Texas Instruments Incorporated
C:\Users\Adrian\AppData\Local\Temp\{F87BBCDE-FD87-4EF2-8C66-DFD97B5C0FAE} PAGE    7

     331                    
     332                            .dwattr $C$DW$T$93, DW_AT_decl_file("C:/ti/simplelink_cc13x0_sdk_2_30_00_20/source/ti/drivers/
     333                            .dwattr $C$DW$T$93, DW_AT_decl_line(0x2cc)
     334                            .dwattr $C$DW$T$93, DW_AT_decl_column(0x0e)
     335                            .dwendtag $C$DW$T$93
     336                    
     337                    $C$DW$T$94      .dwtag  DW_TAG_typedef
     338                            .dwattr $C$DW$T$94, DW_AT_name("PIN_Status")
     339                            .dwattr $C$DW$T$94, DW_AT_type(*$C$DW$T$93)
     340                            .dwattr $C$DW$T$94, DW_AT_language(DW_LANG_C)
     341                            .dwattr $C$DW$T$94, DW_AT_decl_file("C:/ti/simplelink_cc13x0_sdk_2_30_00_20/source/ti/drivers/
     342                            .dwattr $C$DW$T$94, DW_AT_decl_line(0x2d1)
     343                            .dwattr $C$DW$T$94, DW_AT_decl_column(0x03)
     344                    
     345                    
     346                    $C$DW$T$21      .dwtag  DW_TAG_structure_type
     347                            .dwattr $C$DW$T$21, DW_AT_byte_size(0x10)
     348                    $C$DW$29        .dwtag  DW_TAG_member
     349                            .dwattr $C$DW$29, DW_AT_type(*$C$DW$T$14)
     350                            .dwattr $C$DW$29, DW_AT_name("__max_align1")
     351                            .dwattr $C$DW$29, DW_AT_TI_symbol_name("__max_align1")
     352                            .dwattr $C$DW$29, DW_AT_data_member_location[DW_OP_plus_uconst 0x0]
     353                            .dwattr $C$DW$29, DW_AT_accessibility(DW_ACCESS_public)
     354                            .dwattr $C$DW$29, DW_AT_decl_file("C:/ti/ccsv8/tools/compiler/ti-cgt-arm_18.1.3.LTS/include/sy
     355                            .dwattr $C$DW$29, DW_AT_decl_line(0x70)
     356                            .dwattr $C$DW$29, DW_AT_decl_column(0x0c)
     357                    
     358                    $C$DW$30        .dwtag  DW_TAG_member
     359                            .dwattr $C$DW$30, DW_AT_type(*$C$DW$T$18)
     360                            .dwattr $C$DW$30, DW_AT_name("__max_align2")
     361                            .dwattr $C$DW$30, DW_AT_TI_symbol_name("__max_align2")
     362                            .dwattr $C$DW$30, DW_AT_data_member_location[DW_OP_plus_uconst 0x8]
     363                            .dwattr $C$DW$30, DW_AT_accessibility(DW_ACCESS_public)
     364                            .dwattr $C$DW$30, DW_AT_decl_file("C:/ti/ccsv8/tools/compiler/ti-cgt-arm_18.1.3.LTS/include/sy
     365                            .dwattr $C$DW$30, DW_AT_decl_line(0x71)
     366                            .dwattr $C$DW$30, DW_AT_decl_column(0x0e)
     367                    
     368                            .dwattr $C$DW$T$21, DW_AT_decl_file("C:/ti/ccsv8/tools/compiler/ti-cgt-arm_18.1.3.LTS/include/
     369                            .dwattr $C$DW$T$21, DW_AT_decl_line(0x6f)
     370                            .dwattr $C$DW$T$21, DW_AT_decl_column(0x10)
     371                            .dwendtag $C$DW$T$21
     372                    
     373                    $C$DW$T$102     .dwtag  DW_TAG_typedef
     374                            .dwattr $C$DW$T$102, DW_AT_name("__max_align_t")
     375                            .dwattr $C$DW$T$102, DW_AT_type(*$C$DW$T$21)
     376                            .dwattr $C$DW$T$102, DW_AT_language(DW_LANG_C)
     377                            .dwattr $C$DW$T$102, DW_AT_decl_file("C:/ti/ccsv8/tools/compiler/ti-cgt-arm_18.1.3.LTS/include
     378                            .dwattr $C$DW$T$102, DW_AT_decl_line(0x72)
     379                            .dwattr $C$DW$T$102, DW_AT_decl_column(0x03)
     380                    
     381                    
     382                    $C$DW$T$66      .dwtag  DW_TAG_structure_type
     383                            .dwattr $C$DW$T$66, DW_AT_byte_size(0x4c)
     384                    $C$DW$31        .dwtag  DW_TAG_member
     385                            .dwattr $C$DW$31, DW_AT_type(*$C$DW$T$29)
TI ARM Assembler PC v18.1.3 Wed Nov 28 13:22:09 2018

Tools Copyright (c) 1996-2017 Texas Instruments Incorporated
C:\Users\Adrian\AppData\Local\Temp\{F87BBCDE-FD87-4EF2-8C66-DFD97B5C0FAE} PAGE    8

     386                            .dwattr $C$DW$31, DW_AT_name("Crc32")
     387                            .dwattr $C$DW$31, DW_AT_TI_symbol_name("Crc32")
     388                            .dwattr $C$DW$31, DW_AT_data_member_location[DW_OP_plus_uconst 0x0]
     389                            .dwattr $C$DW$31, DW_AT_accessibility(DW_ACCESS_public)
     390                            .dwattr $C$DW$31, DW_AT_decl_file("C:\ti\simplelink_cc13x0_sdk_2_30_00_20\source\ti\devices\cc
     391                            .dwattr $C$DW$31, DW_AT_decl_line(0x76)
     392                            .dwattr $C$DW$31, DW_AT_decl_column(0x25)
     393                    
     394                    $C$DW$32        .dwtag  DW_TAG_member
     395                            .dwattr $C$DW$32, DW_AT_type(*$C$DW$T$32)
     396                            .dwattr $C$DW$32, DW_AT_name("FlashGetSize")
     397                            .dwattr $C$DW$32, DW_AT_TI_symbol_name("FlashGetSize")
     398                            .dwattr $C$DW$32, DW_AT_data_member_location[DW_OP_plus_uconst 0x4]
     399                            .dwattr $C$DW$32, DW_AT_accessibility(DW_ACCESS_public)
     400                            .dwattr $C$DW$32, DW_AT_decl_file("C:\ti\simplelink_cc13x0_sdk_2_30_00_20\source\ti\devices\cc
     401                            .dwattr $C$DW$32, DW_AT_decl_line(0x77)
     402                            .dwattr $C$DW$32, DW_AT_decl_column(0x25)
     403                    
     404                    $C$DW$33        .dwtag  DW_TAG_member
     405                            .dwattr $C$DW$33, DW_AT_type(*$C$DW$T$33)
     406                            .dwattr $C$DW$33, DW_AT_name("GetChipId")
     407                            .dwattr $C$DW$33, DW_AT_TI_symbol_name("GetChipId")
     408                            .dwattr $C$DW$33, DW_AT_data_member_location[DW_OP_plus_uconst 0x8]
     409                            .dwattr $C$DW$33, DW_AT_accessibility(DW_ACCESS_public)
     410                            .dwattr $C$DW$33, DW_AT_decl_file("C:\ti\simplelink_cc13x0_sdk_2_30_00_20\source\ti\devices\cc
     411                            .dwattr $C$DW$33, DW_AT_decl_line(0x78)
     412                            .dwattr $C$DW$33, DW_AT_decl_column(0x25)
     413                    
     414                    $C$DW$34        .dwtag  DW_TAG_member
     415                            .dwattr $C$DW$34, DW_AT_type(*$C$DW$T$36)
     416                            .dwattr $C$DW$34, DW_AT_name("ReservedLocation1")
     417                            .dwattr $C$DW$34, DW_AT_TI_symbol_name("ReservedLocation1")
     418                            .dwattr $C$DW$34, DW_AT_data_member_location[DW_OP_plus_uconst 0xc]
     419                            .dwattr $C$DW$34, DW_AT_accessibility(DW_ACCESS_public)
     420                            .dwattr $C$DW$34, DW_AT_decl_file("C:\ti\simplelink_cc13x0_sdk_2_30_00_20\source\ti\devices\cc
     421                            .dwattr $C$DW$34, DW_AT_decl_line(0x79)
     422                            .dwattr $C$DW$34, DW_AT_decl_column(0x25)
     423                    
     424                    $C$DW$35        .dwtag  DW_TAG_member
     425                            .dwattr $C$DW$35, DW_AT_type(*$C$DW$T$37)
     426                            .dwattr $C$DW$35, DW_AT_name("ReservedLocation2")
     427                            .dwattr $C$DW$35, DW_AT_TI_symbol_name("ReservedLocation2")
     428                            .dwattr $C$DW$35, DW_AT_data_member_location[DW_OP_plus_uconst 0x10]
     429                            .dwattr $C$DW$35, DW_AT_accessibility(DW_ACCESS_public)
     430                            .dwattr $C$DW$35, DW_AT_decl_file("C:\ti\simplelink_cc13x0_sdk_2_30_00_20\source\ti\devices\cc
     431                            .dwattr $C$DW$35, DW_AT_decl_line(0x7a)
     432                            .dwattr $C$DW$35, DW_AT_decl_column(0x25)
     433                    
     434                    $C$DW$36        .dwtag  DW_TAG_member
     435                            .dwattr $C$DW$36, DW_AT_type(*$C$DW$T$38)
     436                            .dwattr $C$DW$36, DW_AT_name("ReservedLocation3")
     437                            .dwattr $C$DW$36, DW_AT_TI_symbol_name("ReservedLocation3")
     438                            .dwattr $C$DW$36, DW_AT_data_member_location[DW_OP_plus_uconst 0x14]
     439                            .dwattr $C$DW$36, DW_AT_accessibility(DW_ACCESS_public)
     440                            .dwattr $C$DW$36, DW_AT_decl_file("C:\ti\simplelink_cc13x0_sdk_2_30_00_20\source\ti\devices\cc
TI ARM Assembler PC v18.1.3 Wed Nov 28 13:22:09 2018

Tools Copyright (c) 1996-2017 Texas Instruments Incorporated
C:\Users\Adrian\AppData\Local\Temp\{F87BBCDE-FD87-4EF2-8C66-DFD97B5C0FAE} PAGE    9

     441                            .dwattr $C$DW$36, DW_AT_decl_line(0x7b)
     442                            .dwattr $C$DW$36, DW_AT_decl_column(0x25)
     443                    
     444                    $C$DW$37        .dwtag  DW_TAG_member
     445                            .dwattr $C$DW$37, DW_AT_type(*$C$DW$T$41)
     446                            .dwattr $C$DW$37, DW_AT_name("ResetDevice")
     447                            .dwattr $C$DW$37, DW_AT_TI_symbol_name("ResetDevice")
     448                            .dwattr $C$DW$37, DW_AT_data_member_location[DW_OP_plus_uconst 0x18]
     449                            .dwattr $C$DW$37, DW_AT_accessibility(DW_ACCESS_public)
     450                            .dwattr $C$DW$37, DW_AT_decl_file("C:\ti\simplelink_cc13x0_sdk_2_30_00_20\source\ti\devices\cc
     451                            .dwattr $C$DW$37, DW_AT_decl_line(0x7c)
     452                            .dwattr $C$DW$37, DW_AT_decl_column(0x25)
     453                    
     454                    $C$DW$38        .dwtag  DW_TAG_member
     455                            .dwattr $C$DW$38, DW_AT_type(*$C$DW$T$47)
     456                            .dwattr $C$DW$38, DW_AT_name("Fletcher32")
     457                            .dwattr $C$DW$38, DW_AT_TI_symbol_name("Fletcher32")
     458                            .dwattr $C$DW$38, DW_AT_data_member_location[DW_OP_plus_uconst 0x1c]
     459                            .dwattr $C$DW$38, DW_AT_accessibility(DW_ACCESS_public)
     460                            .dwattr $C$DW$38, DW_AT_decl_file("C:\ti\simplelink_cc13x0_sdk_2_30_00_20\source\ti\devices\cc
     461                            .dwattr $C$DW$38, DW_AT_decl_line(0x7d)
     462                            .dwattr $C$DW$38, DW_AT_decl_column(0x25)
     463                    
     464                    $C$DW$39        .dwtag  DW_TAG_member
     465                            .dwattr $C$DW$39, DW_AT_type(*$C$DW$T$51)
     466                            .dwattr $C$DW$39, DW_AT_name("MinValue")
     467                            .dwattr $C$DW$39, DW_AT_TI_symbol_name("MinValue")
     468                            .dwattr $C$DW$39, DW_AT_data_member_location[DW_OP_plus_uconst 0x20]
     469                            .dwattr $C$DW$39, DW_AT_accessibility(DW_ACCESS_public)
     470                            .dwattr $C$DW$39, DW_AT_decl_file("C:\ti\simplelink_cc13x0_sdk_2_30_00_20\source\ti\devices\cc
     471                            .dwattr $C$DW$39, DW_AT_decl_line(0x7e)
     472                            .dwattr $C$DW$39, DW_AT_decl_column(0x25)
     473                    
     474                    $C$DW$40        .dwtag  DW_TAG_member
     475                            .dwattr $C$DW$40, DW_AT_type(*$C$DW$T$52)
     476                            .dwattr $C$DW$40, DW_AT_name("MaxValue")
     477                            .dwattr $C$DW$40, DW_AT_TI_symbol_name("MaxValue")
     478                            .dwattr $C$DW$40, DW_AT_data_member_location[DW_OP_plus_uconst 0x24]
     479                            .dwattr $C$DW$40, DW_AT_accessibility(DW_ACCESS_public)
     480                            .dwattr $C$DW$40, DW_AT_decl_file("C:\ti\simplelink_cc13x0_sdk_2_30_00_20\source\ti\devices\cc
     481                            .dwattr $C$DW$40, DW_AT_decl_line(0x7f)
     482                            .dwattr $C$DW$40, DW_AT_decl_column(0x25)
     483                    
     484                    $C$DW$41        .dwtag  DW_TAG_member
     485                            .dwattr $C$DW$41, DW_AT_type(*$C$DW$T$53)
     486                            .dwattr $C$DW$41, DW_AT_name("MeanValue")
     487                            .dwattr $C$DW$41, DW_AT_TI_symbol_name("MeanValue")
     488                            .dwattr $C$DW$41, DW_AT_data_member_location[DW_OP_plus_uconst 0x28]
     489                            .dwattr $C$DW$41, DW_AT_accessibility(DW_ACCESS_public)
     490                            .dwattr $C$DW$41, DW_AT_decl_file("C:\ti\simplelink_cc13x0_sdk_2_30_00_20\source\ti\devices\cc
     491                            .dwattr $C$DW$41, DW_AT_decl_line(0x80)
     492                            .dwattr $C$DW$41, DW_AT_decl_column(0x25)
     493                    
     494                    $C$DW$42        .dwtag  DW_TAG_member
     495                            .dwattr $C$DW$42, DW_AT_type(*$C$DW$T$54)
TI ARM Assembler PC v18.1.3 Wed Nov 28 13:22:09 2018

Tools Copyright (c) 1996-2017 Texas Instruments Incorporated
C:\Users\Adrian\AppData\Local\Temp\{F87BBCDE-FD87-4EF2-8C66-DFD97B5C0FAE} PAGE   10

     496                            .dwattr $C$DW$42, DW_AT_name("StandDeviationValue")
     497                            .dwattr $C$DW$42, DW_AT_TI_symbol_name("StandDeviationValue")
     498                            .dwattr $C$DW$42, DW_AT_data_member_location[DW_OP_plus_uconst 0x2c]
     499                            .dwattr $C$DW$42, DW_AT_accessibility(DW_ACCESS_public)
     500                            .dwattr $C$DW$42, DW_AT_decl_file("C:\ti\simplelink_cc13x0_sdk_2_30_00_20\source\ti\devices\cc
     501                            .dwattr $C$DW$42, DW_AT_decl_line(0x81)
     502                            .dwattr $C$DW$42, DW_AT_decl_column(0x25)
     503                    
     504                    $C$DW$43        .dwtag  DW_TAG_member
     505                            .dwattr $C$DW$43, DW_AT_type(*$C$DW$T$57)
     506                            .dwattr $C$DW$43, DW_AT_name("ReservedLocation4")
     507                            .dwattr $C$DW$43, DW_AT_TI_symbol_name("ReservedLocation4")
     508                            .dwattr $C$DW$43, DW_AT_data_member_location[DW_OP_plus_uconst 0x30]
     509                            .dwattr $C$DW$43, DW_AT_accessibility(DW_ACCESS_public)
     510                            .dwattr $C$DW$43, DW_AT_decl_file("C:\ti\simplelink_cc13x0_sdk_2_30_00_20\source\ti\devices\cc
     511                            .dwattr $C$DW$43, DW_AT_decl_line(0x82)
     512                            .dwattr $C$DW$43, DW_AT_decl_column(0x25)
     513                    
     514                    $C$DW$44        .dwtag  DW_TAG_member
     515                            .dwattr $C$DW$44, DW_AT_type(*$C$DW$T$58)
     516                            .dwattr $C$DW$44, DW_AT_name("ReservedLocation5")
     517                            .dwattr $C$DW$44, DW_AT_TI_symbol_name("ReservedLocation5")
     518                            .dwattr $C$DW$44, DW_AT_data_member_location[DW_OP_plus_uconst 0x34]
     519                            .dwattr $C$DW$44, DW_AT_accessibility(DW_ACCESS_public)
     520                            .dwattr $C$DW$44, DW_AT_decl_file("C:\ti\simplelink_cc13x0_sdk_2_30_00_20\source\ti\devices\cc
     521                            .dwattr $C$DW$44, DW_AT_decl_line(0x83)
     522                            .dwattr $C$DW$44, DW_AT_decl_column(0x25)
     523                    
     524                    $C$DW$45        .dwtag  DW_TAG_member
     525                            .dwattr $C$DW$45, DW_AT_type(*$C$DW$T$59)
     526                            .dwattr $C$DW$45, DW_AT_name("HFSourceSafeSwitch")
     527                            .dwattr $C$DW$45, DW_AT_TI_symbol_name("HFSourceSafeSwitch")
     528                            .dwattr $C$DW$45, DW_AT_data_member_location[DW_OP_plus_uconst 0x38]
     529                            .dwattr $C$DW$45, DW_AT_accessibility(DW_ACCESS_public)
     530                            .dwattr $C$DW$45, DW_AT_decl_file("C:\ti\simplelink_cc13x0_sdk_2_30_00_20\source\ti\devices\cc
     531                            .dwattr $C$DW$45, DW_AT_decl_line(0x84)
     532                            .dwattr $C$DW$45, DW_AT_decl_column(0x25)
     533                    
     534                    $C$DW$46        .dwtag  DW_TAG_member
     535                            .dwattr $C$DW$46, DW_AT_type(*$C$DW$T$62)
     536                            .dwattr $C$DW$46, DW_AT_name("SelectCompAInput")
     537                            .dwattr $C$DW$46, DW_AT_TI_symbol_name("SelectCompAInput")
     538                            .dwattr $C$DW$46, DW_AT_data_member_location[DW_OP_plus_uconst 0x3c]
     539                            .dwattr $C$DW$46, DW_AT_accessibility(DW_ACCESS_public)
     540                            .dwattr $C$DW$46, DW_AT_decl_file("C:\ti\simplelink_cc13x0_sdk_2_30_00_20\source\ti\devices\cc
     541                            .dwattr $C$DW$46, DW_AT_decl_line(0x85)
     542                            .dwattr $C$DW$46, DW_AT_decl_column(0x25)
     543                    
     544                    $C$DW$47        .dwtag  DW_TAG_member
     545                            .dwattr $C$DW$47, DW_AT_type(*$C$DW$T$63)
     546                            .dwattr $C$DW$47, DW_AT_name("SelectCompARef")
     547                            .dwattr $C$DW$47, DW_AT_TI_symbol_name("SelectCompARef")
     548                            .dwattr $C$DW$47, DW_AT_data_member_location[DW_OP_plus_uconst 0x40]
     549                            .dwattr $C$DW$47, DW_AT_accessibility(DW_ACCESS_public)
     550                            .dwattr $C$DW$47, DW_AT_decl_file("C:\ti\simplelink_cc13x0_sdk_2_30_00_20\source\ti\devices\cc
TI ARM Assembler PC v18.1.3 Wed Nov 28 13:22:09 2018

Tools Copyright (c) 1996-2017 Texas Instruments Incorporated
C:\Users\Adrian\AppData\Local\Temp\{F87BBCDE-FD87-4EF2-8C66-DFD97B5C0FAE} PAGE   11

     551                            .dwattr $C$DW$47, DW_AT_decl_line(0x86)
     552                            .dwattr $C$DW$47, DW_AT_decl_column(0x25)
     553                    
     554                    $C$DW$48        .dwtag  DW_TAG_member
     555                            .dwattr $C$DW$48, DW_AT_type(*$C$DW$T$64)
     556                            .dwattr $C$DW$48, DW_AT_name("SelectADCCompBInput")
     557                            .dwattr $C$DW$48, DW_AT_TI_symbol_name("SelectADCCompBInput")
     558                            .dwattr $C$DW$48, DW_AT_data_member_location[DW_OP_plus_uconst 0x44]
     559                            .dwattr $C$DW$48, DW_AT_accessibility(DW_ACCESS_public)
     560                            .dwattr $C$DW$48, DW_AT_decl_file("C:\ti\simplelink_cc13x0_sdk_2_30_00_20\source\ti\devices\cc
     561                            .dwattr $C$DW$48, DW_AT_decl_line(0x87)
     562                            .dwattr $C$DW$48, DW_AT_decl_column(0x25)
     563                    
     564                    $C$DW$49        .dwtag  DW_TAG_member
     565                            .dwattr $C$DW$49, DW_AT_type(*$C$DW$T$65)
     566                            .dwattr $C$DW$49, DW_AT_name("SelectCompBRef")
     567                            .dwattr $C$DW$49, DW_AT_TI_symbol_name("SelectCompBRef")
     568                            .dwattr $C$DW$49, DW_AT_data_member_location[DW_OP_plus_uconst 0x48]
     569                            .dwattr $C$DW$49, DW_AT_accessibility(DW_ACCESS_public)
     570                            .dwattr $C$DW$49, DW_AT_decl_file("C:\ti\simplelink_cc13x0_sdk_2_30_00_20\source\ti\devices\cc
     571                            .dwattr $C$DW$49, DW_AT_decl_line(0x88)
     572                            .dwattr $C$DW$49, DW_AT_decl_column(0x25)
     573                    
     574                            .dwattr $C$DW$T$66, DW_AT_decl_file("C:\ti\simplelink_cc13x0_sdk_2_30_00_20\source\ti\devices\
     575                            .dwattr $C$DW$T$66, DW_AT_decl_line(0x75)
     576                            .dwattr $C$DW$T$66, DW_AT_decl_column(0x01)
     577                            .dwendtag $C$DW$T$66
     578                    
     579                    $C$DW$T$103     .dwtag  DW_TAG_typedef
     580                            .dwattr $C$DW$T$103, DW_AT_name("HARD_API_T")
     581                            .dwattr $C$DW$T$103, DW_AT_type(*$C$DW$T$66)
     582                            .dwattr $C$DW$T$103, DW_AT_language(DW_LANG_C)
     583                            .dwattr $C$DW$T$103, DW_AT_decl_file("C:\ti\simplelink_cc13x0_sdk_2_30_00_20\source\ti\devices
     584                            .dwattr $C$DW$T$103, DW_AT_decl_line(0x89)
     585                            .dwattr $C$DW$T$103, DW_AT_decl_column(0x03)
     586                    
     587                    
     588                    $C$DW$T$72      .dwtag  DW_TAG_union_type
     589                            .dwattr $C$DW$T$72, DW_AT_byte_size(0x04)
     590                    $C$DW$50        .dwtag  DW_TAG_member
     591                            .dwattr $C$DW$50, DW_AT_type(*$C$DW$T$67)
     592                            .dwattr $C$DW$50, DW_AT_name("f")
     593                            .dwattr $C$DW$50, DW_AT_TI_symbol_name("f")
     594                            .dwattr $C$DW$50, DW_AT_data_member_location[DW_OP_plus_uconst 0x0]
     595                            .dwattr $C$DW$50, DW_AT_accessibility(DW_ACCESS_public)
     596                            .dwattr $C$DW$50, DW_AT_decl_file("C:/ti/xdctools_3_50_08_24_core/packages/xdc/std.h")
     597                            .dwattr $C$DW$50, DW_AT_decl_line(0xb7)
     598                            .dwattr $C$DW$50, DW_AT_decl_column(0x0f)
     599                    
     600                    $C$DW$51        .dwtag  DW_TAG_member
     601                            .dwattr $C$DW$51, DW_AT_type(*$C$DW$T$71)
     602                            .dwattr $C$DW$51, DW_AT_name("a")
     603                            .dwattr $C$DW$51, DW_AT_TI_symbol_name("a")
     604                            .dwattr $C$DW$51, DW_AT_data_member_location[DW_OP_plus_uconst 0x0]
     605                            .dwattr $C$DW$51, DW_AT_accessibility(DW_ACCESS_public)
TI ARM Assembler PC v18.1.3 Wed Nov 28 13:22:09 2018

Tools Copyright (c) 1996-2017 Texas Instruments Incorporated
C:\Users\Adrian\AppData\Local\Temp\{F87BBCDE-FD87-4EF2-8C66-DFD97B5C0FAE} PAGE   12

     606                            .dwattr $C$DW$51, DW_AT_decl_file("C:/ti/xdctools_3_50_08_24_core/packages/xdc/std.h")
     607                            .dwattr $C$DW$51, DW_AT_decl_line(0xb8)
     608                            .dwattr $C$DW$51, DW_AT_decl_column(0x0f)
     609                    
     610                            .dwattr $C$DW$T$72, DW_AT_decl_file("C:/ti/xdctools_3_50_08_24_core/packages/xdc/std.h")
     611                            .dwattr $C$DW$T$72, DW_AT_decl_line(0xb6)
     612                            .dwattr $C$DW$T$72, DW_AT_decl_column(0x0f)
     613                            .dwendtag $C$DW$T$72
     614                    
     615                    $C$DW$T$104     .dwtag  DW_TAG_typedef
     616                            .dwattr $C$DW$T$104, DW_AT_name("xdc_FloatData")
     617                            .dwattr $C$DW$T$104, DW_AT_type(*$C$DW$T$72)
     618                            .dwattr $C$DW$T$104, DW_AT_language(DW_LANG_C)
     619                            .dwattr $C$DW$T$104, DW_AT_decl_file("C:/ti/xdctools_3_50_08_24_core/packages/xdc/std.h")
     620                            .dwattr $C$DW$T$104, DW_AT_decl_line(0xb9)
     621                            .dwattr $C$DW$T$104, DW_AT_decl_column(0x03)
     622                    
     623                    
     624                    $C$DW$T$75      .dwtag  DW_TAG_structure_type
     625                            .dwattr $C$DW$T$75, DW_AT_name(".ggroup1")
     626                            .dwattr $C$DW$T$75, DW_AT_byte_size(0x20)
     627                    $C$DW$52        .dwtag  DW_TAG_member
     628                            .dwattr $C$DW$52, DW_AT_type(*$C$DW$T$73)
     629                            .dwattr $C$DW$52, DW_AT_name("palnaPinHandle")
     630                            .dwattr $C$DW$52, DW_AT_TI_symbol_name("palnaPinHandle")
     631                            .dwattr $C$DW$52, DW_AT_data_member_location[DW_OP_plus_uconst 0x0]
     632                            .dwattr $C$DW$52, DW_AT_accessibility(DW_ACCESS_public)
     633                    
     634                    $C$DW$53        .dwtag  DW_TAG_member
     635                            .dwattr $C$DW$53, DW_AT_type(*$C$DW$T$91)
     636                            .dwattr $C$DW$53, DW_AT_name("palnaPinState")
     637                            .dwattr $C$DW$53, DW_AT_TI_symbol_name("palnaPinState")
     638                            .dwattr $C$DW$53, DW_AT_data_member_location[DW_OP_plus_uconst 0x4]
     639                            .dwattr $C$DW$53, DW_AT_accessibility(DW_ACCESS_public)
     640                    
     641                    $C$DW$54        .dwtag  DW_TAG_member
     642                            .dwattr $C$DW$54, DW_AT_type(*$C$DW$T$74)
     643                            .dwattr $C$DW$54, DW_AT_name("palnaPinTable")
     644                            .dwattr $C$DW$54, DW_AT_TI_symbol_name("palnaPinTable")
     645                            .dwattr $C$DW$54, DW_AT_data_member_location[DW_OP_plus_uconst 0x10]
     646                            .dwattr $C$DW$54, DW_AT_accessibility(DW_ACCESS_public)
     647                    
     648                            .dwendtag $C$DW$T$75
     649                    
     650                    
     651                    $C$DW$T$106     .dwtag  DW_TAG_enumeration_type
     652                            .dwattr $C$DW$T$106, DW_AT_name("CC1350_LAUNCHXL_ADCBuf0ChannelName")
     653                            .dwattr $C$DW$T$106, DW_AT_byte_size(0x01)
     654                    $C$DW$55        .dwtag  DW_TAG_enumerator
     655                            .dwattr $C$DW$55, DW_AT_name("CC1350_LAUNCHXL_ADCBUF0CHANNEL0")
     656                            .dwattr $C$DW$55, DW_AT_const_value(0x00)
     657                            .dwattr $C$DW$55, DW_AT_decl_file("C:\ti\simplelink_cc13x0_sdk_2_30_00_20\examples\rtos\CC1350
     658                            .dwattr $C$DW$55, DW_AT_decl_line(0xba)
     659                            .dwattr $C$DW$55, DW_AT_decl_column(0x05)
     660                    
TI ARM Assembler PC v18.1.3 Wed Nov 28 13:22:09 2018

Tools Copyright (c) 1996-2017 Texas Instruments Incorporated
C:\Users\Adrian\AppData\Local\Temp\{F87BBCDE-FD87-4EF2-8C66-DFD97B5C0FAE} PAGE   13

     661                    $C$DW$56        .dwtag  DW_TAG_enumerator
     662                            .dwattr $C$DW$56, DW_AT_name("CC1350_LAUNCHXL_ADCBUF0CHANNEL1")
     663                            .dwattr $C$DW$56, DW_AT_const_value(0x01)
     664                            .dwattr $C$DW$56, DW_AT_decl_file("C:\ti\simplelink_cc13x0_sdk_2_30_00_20\examples\rtos\CC1350
     665                            .dwattr $C$DW$56, DW_AT_decl_line(0xbb)
     666                            .dwattr $C$DW$56, DW_AT_decl_column(0x05)
     667                    
     668                    $C$DW$57        .dwtag  DW_TAG_enumerator
     669                            .dwattr $C$DW$57, DW_AT_name("CC1350_LAUNCHXL_ADCBUF0CHANNEL2")
     670                            .dwattr $C$DW$57, DW_AT_const_value(0x02)
     671                            .dwattr $C$DW$57, DW_AT_decl_file("C:\ti\simplelink_cc13x0_sdk_2_30_00_20\examples\rtos\CC1350
     672                            .dwattr $C$DW$57, DW_AT_decl_line(0xbc)
     673                            .dwattr $C$DW$57, DW_AT_decl_column(0x05)
     674                    
     675                    $C$DW$58        .dwtag  DW_TAG_enumerator
     676                            .dwattr $C$DW$58, DW_AT_name("CC1350_LAUNCHXL_ADCBUF0CHANNEL3")
     677                            .dwattr $C$DW$58, DW_AT_const_value(0x03)
     678                            .dwattr $C$DW$58, DW_AT_decl_file("C:\ti\simplelink_cc13x0_sdk_2_30_00_20\examples\rtos\CC1350
     679                            .dwattr $C$DW$58, DW_AT_decl_line(0xbd)
     680                            .dwattr $C$DW$58, DW_AT_decl_column(0x05)
     681                    
     682                    $C$DW$59        .dwtag  DW_TAG_enumerator
     683                            .dwattr $C$DW$59, DW_AT_name("CC1350_LAUNCHXL_ADCBUF0CHANNEL4")
     684                            .dwattr $C$DW$59, DW_AT_const_value(0x04)
     685                            .dwattr $C$DW$59, DW_AT_decl_file("C:\ti\simplelink_cc13x0_sdk_2_30_00_20\examples\rtos\CC1350
     686                            .dwattr $C$DW$59, DW_AT_decl_line(0xbe)
     687                            .dwattr $C$DW$59, DW_AT_decl_column(0x05)
     688                    
     689                    $C$DW$60        .dwtag  DW_TAG_enumerator
     690                            .dwattr $C$DW$60, DW_AT_name("CC1350_LAUNCHXL_ADCBUF0CHANNEL5")
     691                            .dwattr $C$DW$60, DW_AT_const_value(0x05)
     692                            .dwattr $C$DW$60, DW_AT_decl_file("C:\ti\simplelink_cc13x0_sdk_2_30_00_20\examples\rtos\CC1350
     693                            .dwattr $C$DW$60, DW_AT_decl_line(0xbf)
     694                            .dwattr $C$DW$60, DW_AT_decl_column(0x05)
     695                    
     696                    $C$DW$61        .dwtag  DW_TAG_enumerator
     697                            .dwattr $C$DW$61, DW_AT_name("CC1350_LAUNCHXL_ADCBUF0CHANNEL6")
     698                            .dwattr $C$DW$61, DW_AT_const_value(0x06)
     699                            .dwattr $C$DW$61, DW_AT_decl_file("C:\ti\simplelink_cc13x0_sdk_2_30_00_20\examples\rtos\CC1350
     700                            .dwattr $C$DW$61, DW_AT_decl_line(0xc0)
     701                            .dwattr $C$DW$61, DW_AT_decl_column(0x05)
     702                    
     703                    $C$DW$62        .dwtag  DW_TAG_enumerator
     704                            .dwattr $C$DW$62, DW_AT_name("CC1350_LAUNCHXL_ADCBUF0CHANNEL7")
     705                            .dwattr $C$DW$62, DW_AT_const_value(0x07)
     706                            .dwattr $C$DW$62, DW_AT_decl_file("C:\ti\simplelink_cc13x0_sdk_2_30_00_20\examples\rtos\CC1350
     707                            .dwattr $C$DW$62, DW_AT_decl_line(0xc1)
     708                            .dwattr $C$DW$62, DW_AT_decl_column(0x05)
     709                    
     710                    $C$DW$63        .dwtag  DW_TAG_enumerator
     711                            .dwattr $C$DW$63, DW_AT_name("CC1350_LAUNCHXL_ADCBUF0CHANNELVDDS")
     712                            .dwattr $C$DW$63, DW_AT_const_value(0x08)
     713                            .dwattr $C$DW$63, DW_AT_decl_file("C:\ti\simplelink_cc13x0_sdk_2_30_00_20\examples\rtos\CC1350
     714                            .dwattr $C$DW$63, DW_AT_decl_line(0xc2)
     715                            .dwattr $C$DW$63, DW_AT_decl_column(0x05)
TI ARM Assembler PC v18.1.3 Wed Nov 28 13:22:09 2018

Tools Copyright (c) 1996-2017 Texas Instruments Incorporated
C:\Users\Adrian\AppData\Local\Temp\{F87BBCDE-FD87-4EF2-8C66-DFD97B5C0FAE} PAGE   14

     716                    
     717                    $C$DW$64        .dwtag  DW_TAG_enumerator
     718                            .dwattr $C$DW$64, DW_AT_name("CC1350_LAUNCHXL_ADCBUF0CHANNELDCOUPL")
     719                            .dwattr $C$DW$64, DW_AT_const_value(0x09)
     720                            .dwattr $C$DW$64, DW_AT_decl_file("C:\ti\simplelink_cc13x0_sdk_2_30_00_20\examples\rtos\CC1350
     721                            .dwattr $C$DW$64, DW_AT_decl_line(0xc3)
     722                            .dwattr $C$DW$64, DW_AT_decl_column(0x05)
     723                    
     724                    $C$DW$65        .dwtag  DW_TAG_enumerator
     725                            .dwattr $C$DW$65, DW_AT_name("CC1350_LAUNCHXL_ADCBUF0CHANNELVSS")
     726                            .dwattr $C$DW$65, DW_AT_const_value(0x0a)
     727                            .dwattr $C$DW$65, DW_AT_decl_file("C:\ti\simplelink_cc13x0_sdk_2_30_00_20\examples\rtos\CC1350
     728                            .dwattr $C$DW$65, DW_AT_decl_line(0xc4)
     729                            .dwattr $C$DW$65, DW_AT_decl_column(0x05)
     730                    
     731                    $C$DW$66        .dwtag  DW_TAG_enumerator
     732                            .dwattr $C$DW$66, DW_AT_name("CC1350_LAUNCHXL_ADCBUF0CHANNELCOUNT")
     733                            .dwattr $C$DW$66, DW_AT_const_value(0x0b)
     734                            .dwattr $C$DW$66, DW_AT_decl_file("C:\ti\simplelink_cc13x0_sdk_2_30_00_20\examples\rtos\CC1350
     735                            .dwattr $C$DW$66, DW_AT_decl_line(0xc6)
     736                            .dwattr $C$DW$66, DW_AT_decl_column(0x05)
     737                    
     738                            .dwattr $C$DW$T$106, DW_AT_decl_file("C:\ti\simplelink_cc13x0_sdk_2_30_00_20\examples\rtos\CC1
     739                            .dwattr $C$DW$T$106, DW_AT_decl_line(0xb9)
     740                            .dwattr $C$DW$T$106, DW_AT_decl_column(0x0e)
     741                            .dwendtag $C$DW$T$106
     742                    
     743                    $C$DW$T$107     .dwtag  DW_TAG_typedef
     744                            .dwattr $C$DW$T$107, DW_AT_name("CC1350_LAUNCHXL_ADCBuf0ChannelName")
     745                            .dwattr $C$DW$T$107, DW_AT_type(*$C$DW$T$106)
     746                            .dwattr $C$DW$T$107, DW_AT_language(DW_LANG_C)
     747                            .dwattr $C$DW$T$107, DW_AT_decl_file("C:\ti\simplelink_cc13x0_sdk_2_30_00_20\examples\rtos\CC1
     748                            .dwattr $C$DW$T$107, DW_AT_decl_line(0xc7)
     749                            .dwattr $C$DW$T$107, DW_AT_decl_column(0x03)
     750                    
     751                    
     752                    $C$DW$T$108     .dwtag  DW_TAG_enumeration_type
     753                            .dwattr $C$DW$T$108, DW_AT_name("CC1350_LAUNCHXL_ADCBufName")
     754                            .dwattr $C$DW$T$108, DW_AT_byte_size(0x01)
     755                    $C$DW$67        .dwtag  DW_TAG_enumerator
     756                            .dwattr $C$DW$67, DW_AT_name("CC1350_LAUNCHXL_ADCBUF0")
     757                            .dwattr $C$DW$67, DW_AT_const_value(0x00)
     758                            .dwattr $C$DW$67, DW_AT_decl_file("C:\ti\simplelink_cc13x0_sdk_2_30_00_20\examples\rtos\CC1350
     759                            .dwattr $C$DW$67, DW_AT_decl_line(0xb0)
     760                            .dwattr $C$DW$67, DW_AT_decl_column(0x05)
     761                    
     762                    $C$DW$68        .dwtag  DW_TAG_enumerator
     763                            .dwattr $C$DW$68, DW_AT_name("CC1350_LAUNCHXL_ADCBUFCOUNT")
     764                            .dwattr $C$DW$68, DW_AT_const_value(0x01)
     765                            .dwattr $C$DW$68, DW_AT_decl_file("C:\ti\simplelink_cc13x0_sdk_2_30_00_20\examples\rtos\CC1350
     766                            .dwattr $C$DW$68, DW_AT_decl_line(0xb2)
     767                            .dwattr $C$DW$68, DW_AT_decl_column(0x05)
     768                    
     769                            .dwattr $C$DW$T$108, DW_AT_decl_file("C:\ti\simplelink_cc13x0_sdk_2_30_00_20\examples\rtos\CC1
     770                            .dwattr $C$DW$T$108, DW_AT_decl_line(0xaf)
TI ARM Assembler PC v18.1.3 Wed Nov 28 13:22:09 2018

Tools Copyright (c) 1996-2017 Texas Instruments Incorporated
C:\Users\Adrian\AppData\Local\Temp\{F87BBCDE-FD87-4EF2-8C66-DFD97B5C0FAE} PAGE   15

     771                            .dwattr $C$DW$T$108, DW_AT_decl_column(0x0e)
     772                            .dwendtag $C$DW$T$108
     773                    
     774                    $C$DW$T$109     .dwtag  DW_TAG_typedef
     775                            .dwattr $C$DW$T$109, DW_AT_name("CC1350_LAUNCHXL_ADCBufName")
     776                            .dwattr $C$DW$T$109, DW_AT_type(*$C$DW$T$108)
     777                            .dwattr $C$DW$T$109, DW_AT_language(DW_LANG_C)
     778                            .dwattr $C$DW$T$109, DW_AT_decl_file("C:\ti\simplelink_cc13x0_sdk_2_30_00_20\examples\rtos\CC1
     779                            .dwattr $C$DW$T$109, DW_AT_decl_line(0xb3)
     780                            .dwattr $C$DW$T$109, DW_AT_decl_column(0x03)
     781                    
     782                    
     783                    $C$DW$T$110     .dwtag  DW_TAG_enumeration_type
     784                            .dwattr $C$DW$T$110, DW_AT_name("CC1350_LAUNCHXL_ADCName")
     785                            .dwattr $C$DW$T$110, DW_AT_byte_size(0x01)
     786                    $C$DW$69        .dwtag  DW_TAG_enumerator
     787                            .dwattr $C$DW$69, DW_AT_name("CC1350_LAUNCHXL_ADC0")
     788                            .dwattr $C$DW$69, DW_AT_const_value(0x00)
     789                            .dwattr $C$DW$69, DW_AT_decl_file("C:\ti\simplelink_cc13x0_sdk_2_30_00_20\examples\rtos\CC1350
     790                            .dwattr $C$DW$69, DW_AT_decl_line(0xce)
     791                            .dwattr $C$DW$69, DW_AT_decl_column(0x05)
     792                    
     793                    $C$DW$70        .dwtag  DW_TAG_enumerator
     794                            .dwattr $C$DW$70, DW_AT_name("CC1350_LAUNCHXL_ADC1")
     795                            .dwattr $C$DW$70, DW_AT_const_value(0x01)
     796                            .dwattr $C$DW$70, DW_AT_decl_file("C:\ti\simplelink_cc13x0_sdk_2_30_00_20\examples\rtos\CC1350
     797                            .dwattr $C$DW$70, DW_AT_decl_line(0xcf)
     798                            .dwattr $C$DW$70, DW_AT_decl_column(0x05)
     799                    
     800                    $C$DW$71        .dwtag  DW_TAG_enumerator
     801                            .dwattr $C$DW$71, DW_AT_name("CC1350_LAUNCHXL_ADC2")
     802                            .dwattr $C$DW$71, DW_AT_const_value(0x02)
     803                            .dwattr $C$DW$71, DW_AT_decl_file("C:\ti\simplelink_cc13x0_sdk_2_30_00_20\examples\rtos\CC1350
     804                            .dwattr $C$DW$71, DW_AT_decl_line(0xd0)
     805                            .dwattr $C$DW$71, DW_AT_decl_column(0x05)
     806                    
     807                    $C$DW$72        .dwtag  DW_TAG_enumerator
     808                            .dwattr $C$DW$72, DW_AT_name("CC1350_LAUNCHXL_ADC3")
     809                            .dwattr $C$DW$72, DW_AT_const_value(0x03)
     810                            .dwattr $C$DW$72, DW_AT_decl_file("C:\ti\simplelink_cc13x0_sdk_2_30_00_20\examples\rtos\CC1350
     811                            .dwattr $C$DW$72, DW_AT_decl_line(0xd1)
     812                            .dwattr $C$DW$72, DW_AT_decl_column(0x05)
     813                    
     814                    $C$DW$73        .dwtag  DW_TAG_enumerator
     815                            .dwattr $C$DW$73, DW_AT_name("CC1350_LAUNCHXL_ADC4")
     816                            .dwattr $C$DW$73, DW_AT_const_value(0x04)
     817                            .dwattr $C$DW$73, DW_AT_decl_file("C:\ti\simplelink_cc13x0_sdk_2_30_00_20\examples\rtos\CC1350
     818                            .dwattr $C$DW$73, DW_AT_decl_line(0xd2)
     819                            .dwattr $C$DW$73, DW_AT_decl_column(0x05)
     820                    
     821                    $C$DW$74        .dwtag  DW_TAG_enumerator
     822                            .dwattr $C$DW$74, DW_AT_name("CC1350_LAUNCHXL_ADC5")
     823                            .dwattr $C$DW$74, DW_AT_const_value(0x05)
     824                            .dwattr $C$DW$74, DW_AT_decl_file("C:\ti\simplelink_cc13x0_sdk_2_30_00_20\examples\rtos\CC1350
     825                            .dwattr $C$DW$74, DW_AT_decl_line(0xd3)
TI ARM Assembler PC v18.1.3 Wed Nov 28 13:22:09 2018

Tools Copyright (c) 1996-2017 Texas Instruments Incorporated
C:\Users\Adrian\AppData\Local\Temp\{F87BBCDE-FD87-4EF2-8C66-DFD97B5C0FAE} PAGE   16

     826                            .dwattr $C$DW$74, DW_AT_decl_column(0x05)
     827                    
     828                    $C$DW$75        .dwtag  DW_TAG_enumerator
     829                            .dwattr $C$DW$75, DW_AT_name("CC1350_LAUNCHXL_ADC6")
     830                            .dwattr $C$DW$75, DW_AT_const_value(0x06)
     831                            .dwattr $C$DW$75, DW_AT_decl_file("C:\ti\simplelink_cc13x0_sdk_2_30_00_20\examples\rtos\CC1350
     832                            .dwattr $C$DW$75, DW_AT_decl_line(0xd4)
     833                            .dwattr $C$DW$75, DW_AT_decl_column(0x05)
     834                    
     835                    $C$DW$76        .dwtag  DW_TAG_enumerator
     836                            .dwattr $C$DW$76, DW_AT_name("CC1350_LAUNCHXL_ADC7")
     837                            .dwattr $C$DW$76, DW_AT_const_value(0x07)
     838                            .dwattr $C$DW$76, DW_AT_decl_file("C:\ti\simplelink_cc13x0_sdk_2_30_00_20\examples\rtos\CC1350
     839                            .dwattr $C$DW$76, DW_AT_decl_line(0xd5)
     840                            .dwattr $C$DW$76, DW_AT_decl_column(0x05)
     841                    
     842                    $C$DW$77        .dwtag  DW_TAG_enumerator
     843                            .dwattr $C$DW$77, DW_AT_name("CC1350_LAUNCHXL_ADCDCOUPL")
     844                            .dwattr $C$DW$77, DW_AT_const_value(0x08)
     845                            .dwattr $C$DW$77, DW_AT_decl_file("C:\ti\simplelink_cc13x0_sdk_2_30_00_20\examples\rtos\CC1350
     846                            .dwattr $C$DW$77, DW_AT_decl_line(0xd6)
     847                            .dwattr $C$DW$77, DW_AT_decl_column(0x05)
     848                    
     849                    $C$DW$78        .dwtag  DW_TAG_enumerator
     850                            .dwattr $C$DW$78, DW_AT_name("CC1350_LAUNCHXL_ADCVSS")
     851                            .dwattr $C$DW$78, DW_AT_const_value(0x09)
     852                            .dwattr $C$DW$78, DW_AT_decl_file("C:\ti\simplelink_cc13x0_sdk_2_30_00_20\examples\rtos\CC1350
     853                            .dwattr $C$DW$78, DW_AT_decl_line(0xd7)
     854                            .dwattr $C$DW$78, DW_AT_decl_column(0x05)
     855                    
     856                    $C$DW$79        .dwtag  DW_TAG_enumerator
     857                            .dwattr $C$DW$79, DW_AT_name("CC1350_LAUNCHXL_ADCVDDS")
     858                            .dwattr $C$DW$79, DW_AT_const_value(0x0a)
     859                            .dwattr $C$DW$79, DW_AT_decl_file("C:\ti\simplelink_cc13x0_sdk_2_30_00_20\examples\rtos\CC1350
     860                            .dwattr $C$DW$79, DW_AT_decl_line(0xd8)
     861                            .dwattr $C$DW$79, DW_AT_decl_column(0x05)
     862                    
     863                    $C$DW$80        .dwtag  DW_TAG_enumerator
     864                            .dwattr $C$DW$80, DW_AT_name("CC1350_LAUNCHXL_ADCCOUNT")
     865                            .dwattr $C$DW$80, DW_AT_const_value(0x0b)
     866                            .dwattr $C$DW$80, DW_AT_decl_file("C:\ti\simplelink_cc13x0_sdk_2_30_00_20\examples\rtos\CC1350
     867                            .dwattr $C$DW$80, DW_AT_decl_line(0xda)
     868                            .dwattr $C$DW$80, DW_AT_decl_column(0x05)
     869                    
     870                            .dwattr $C$DW$T$110, DW_AT_decl_file("C:\ti\simplelink_cc13x0_sdk_2_30_00_20\examples\rtos\CC1
     871                            .dwattr $C$DW$T$110, DW_AT_decl_line(0xcd)
     872                            .dwattr $C$DW$T$110, DW_AT_decl_column(0x0e)
     873                            .dwendtag $C$DW$T$110
     874                    
     875                    $C$DW$T$111     .dwtag  DW_TAG_typedef
     876                            .dwattr $C$DW$T$111, DW_AT_name("CC1350_LAUNCHXL_ADCName")
     877                            .dwattr $C$DW$T$111, DW_AT_type(*$C$DW$T$110)
     878                            .dwattr $C$DW$T$111, DW_AT_language(DW_LANG_C)
     879                            .dwattr $C$DW$T$111, DW_AT_decl_file("C:\ti\simplelink_cc13x0_sdk_2_30_00_20\examples\rtos\CC1
     880                            .dwattr $C$DW$T$111, DW_AT_decl_line(0xdb)
TI ARM Assembler PC v18.1.3 Wed Nov 28 13:22:09 2018

Tools Copyright (c) 1996-2017 Texas Instruments Incorporated
C:\Users\Adrian\AppData\Local\Temp\{F87BBCDE-FD87-4EF2-8C66-DFD97B5C0FAE} PAGE   17

     881                            .dwattr $C$DW$T$111, DW_AT_decl_column(0x03)
     882                    
     883                    
     884                    $C$DW$T$112     .dwtag  DW_TAG_enumeration_type
     885                            .dwattr $C$DW$T$112, DW_AT_name("CC1350_LAUNCHXL_CryptoName")
     886                            .dwattr $C$DW$T$112, DW_AT_byte_size(0x01)
     887                    $C$DW$81        .dwtag  DW_TAG_enumerator
     888                            .dwattr $C$DW$81, DW_AT_name("CC1350_LAUNCHXL_CRYPTO0")
     889                            .dwattr $C$DW$81, DW_AT_const_value(0x00)
     890                            .dwattr $C$DW$81, DW_AT_decl_file("C:\ti\simplelink_cc13x0_sdk_2_30_00_20\examples\rtos\CC1350
     891                            .dwattr $C$DW$81, DW_AT_decl_line(0xe2)
     892                            .dwattr $C$DW$81, DW_AT_decl_column(0x05)
     893                    
     894                    $C$DW$82        .dwtag  DW_TAG_enumerator
     895                            .dwattr $C$DW$82, DW_AT_name("CC1350_LAUNCHXL_CRYPTOCOUNT")
     896                            .dwattr $C$DW$82, DW_AT_const_value(0x01)
     897                            .dwattr $C$DW$82, DW_AT_decl_file("C:\ti\simplelink_cc13x0_sdk_2_30_00_20\examples\rtos\CC1350
     898                            .dwattr $C$DW$82, DW_AT_decl_line(0xe4)
     899                            .dwattr $C$DW$82, DW_AT_decl_column(0x05)
     900                    
     901                            .dwattr $C$DW$T$112, DW_AT_decl_file("C:\ti\simplelink_cc13x0_sdk_2_30_00_20\examples\rtos\CC1
     902                            .dwattr $C$DW$T$112, DW_AT_decl_line(0xe1)
     903                            .dwattr $C$DW$T$112, DW_AT_decl_column(0x0e)
     904                            .dwendtag $C$DW$T$112
     905                    
     906                    $C$DW$T$113     .dwtag  DW_TAG_typedef
     907                            .dwattr $C$DW$T$113, DW_AT_name("CC1350_LAUNCHXL_CryptoName")
     908                            .dwattr $C$DW$T$113, DW_AT_type(*$C$DW$T$112)
     909                            .dwattr $C$DW$T$113, DW_AT_language(DW_LANG_C)
     910                            .dwattr $C$DW$T$113, DW_AT_decl_file("C:\ti\simplelink_cc13x0_sdk_2_30_00_20\examples\rtos\CC1
     911                            .dwattr $C$DW$T$113, DW_AT_decl_line(0xe5)
     912                            .dwattr $C$DW$T$113, DW_AT_decl_column(0x03)
     913                    
     914                    
     915                    $C$DW$T$114     .dwtag  DW_TAG_enumeration_type
     916                            .dwattr $C$DW$T$114, DW_AT_name("CC1350_LAUNCHXL_GPIOName")
     917                            .dwattr $C$DW$T$114, DW_AT_byte_size(0x01)
     918                    $C$DW$83        .dwtag  DW_TAG_enumerator
     919                            .dwattr $C$DW$83, DW_AT_name("CC1350_LAUNCHXL_GPIO_S1")
     920                            .dwattr $C$DW$83, DW_AT_const_value(0x00)
     921                            .dwattr $C$DW$83, DW_AT_decl_file("C:\ti\simplelink_cc13x0_sdk_2_30_00_20\examples\rtos\CC1350
     922                            .dwattr $C$DW$83, DW_AT_decl_line(0xec)
     923                            .dwattr $C$DW$83, DW_AT_decl_column(0x05)
     924                    
     925                    $C$DW$84        .dwtag  DW_TAG_enumerator
     926                            .dwattr $C$DW$84, DW_AT_name("CC1350_LAUNCHXL_GPIO_S2")
     927                            .dwattr $C$DW$84, DW_AT_const_value(0x01)
     928                            .dwattr $C$DW$84, DW_AT_decl_file("C:\ti\simplelink_cc13x0_sdk_2_30_00_20\examples\rtos\CC1350
     929                            .dwattr $C$DW$84, DW_AT_decl_line(0xed)
     930                            .dwattr $C$DW$84, DW_AT_decl_column(0x05)
     931                    
     932                    $C$DW$85        .dwtag  DW_TAG_enumerator
     933                            .dwattr $C$DW$85, DW_AT_name("CC1350_LAUNCHXL_SPI_MASTER_READY")
     934                            .dwattr $C$DW$85, DW_AT_const_value(0x02)
     935                            .dwattr $C$DW$85, DW_AT_decl_file("C:\ti\simplelink_cc13x0_sdk_2_30_00_20\examples\rtos\CC1350
TI ARM Assembler PC v18.1.3 Wed Nov 28 13:22:09 2018

Tools Copyright (c) 1996-2017 Texas Instruments Incorporated
C:\Users\Adrian\AppData\Local\Temp\{F87BBCDE-FD87-4EF2-8C66-DFD97B5C0FAE} PAGE   18

     936                            .dwattr $C$DW$85, DW_AT_decl_line(0xee)
     937                            .dwattr $C$DW$85, DW_AT_decl_column(0x05)
     938                    
     939                    $C$DW$86        .dwtag  DW_TAG_enumerator
     940                            .dwattr $C$DW$86, DW_AT_name("CC1350_LAUNCHXL_SPI_SLAVE_READY")
     941                            .dwattr $C$DW$86, DW_AT_const_value(0x03)
     942                            .dwattr $C$DW$86, DW_AT_decl_file("C:\ti\simplelink_cc13x0_sdk_2_30_00_20\examples\rtos\CC1350
     943                            .dwattr $C$DW$86, DW_AT_decl_line(0xef)
     944                            .dwattr $C$DW$86, DW_AT_decl_column(0x05)
     945                    
     946                    $C$DW$87        .dwtag  DW_TAG_enumerator
     947                            .dwattr $C$DW$87, DW_AT_name("CC1350_LAUNCHXL_GPIO_LED_GREEN")
     948                            .dwattr $C$DW$87, DW_AT_const_value(0x04)
     949                            .dwattr $C$DW$87, DW_AT_decl_file("C:\ti\simplelink_cc13x0_sdk_2_30_00_20\examples\rtos\CC1350
     950                            .dwattr $C$DW$87, DW_AT_decl_line(0xf0)
     951                            .dwattr $C$DW$87, DW_AT_decl_column(0x05)
     952                    
     953                    $C$DW$88        .dwtag  DW_TAG_enumerator
     954                            .dwattr $C$DW$88, DW_AT_name("CC1350_LAUNCHXL_GPIO_LED_RED")
     955                            .dwattr $C$DW$88, DW_AT_const_value(0x05)
     956                            .dwattr $C$DW$88, DW_AT_decl_file("C:\ti\simplelink_cc13x0_sdk_2_30_00_20\examples\rtos\CC1350
     957                            .dwattr $C$DW$88, DW_AT_decl_line(0xf1)
     958                            .dwattr $C$DW$88, DW_AT_decl_column(0x05)
     959                    
     960                    $C$DW$89        .dwtag  DW_TAG_enumerator
     961                            .dwattr $C$DW$89, DW_AT_name("CC1350_LAUNCHXL_GPIO_SPI_FLASH_CS")
     962                            .dwattr $C$DW$89, DW_AT_const_value(0x06)
     963                            .dwattr $C$DW$89, DW_AT_decl_file("C:\ti\simplelink_cc13x0_sdk_2_30_00_20\examples\rtos\CC1350
     964                            .dwattr $C$DW$89, DW_AT_decl_line(0xf2)
     965                            .dwattr $C$DW$89, DW_AT_decl_column(0x05)
     966                    
     967                    $C$DW$90        .dwtag  DW_TAG_enumerator
     968                            .dwattr $C$DW$90, DW_AT_name("CC1350_LAUNCHXL_SDSPI_CS")
     969                            .dwattr $C$DW$90, DW_AT_const_value(0x07)
     970                            .dwattr $C$DW$90, DW_AT_decl_file("C:\ti\simplelink_cc13x0_sdk_2_30_00_20\examples\rtos\CC1350
     971                            .dwattr $C$DW$90, DW_AT_decl_line(0xf3)
     972                            .dwattr $C$DW$90, DW_AT_decl_column(0x05)
     973                    
     974                    $C$DW$91        .dwtag  DW_TAG_enumerator
     975                            .dwattr $C$DW$91, DW_AT_name("CC1350_LAUNCHXL_GPIO_LCD_CS")
     976                            .dwattr $C$DW$91, DW_AT_const_value(0x08)
     977                            .dwattr $C$DW$91, DW_AT_decl_file("C:\ti\simplelink_cc13x0_sdk_2_30_00_20\examples\rtos\CC1350
     978                            .dwattr $C$DW$91, DW_AT_decl_line(0xf4)
     979                            .dwattr $C$DW$91, DW_AT_decl_column(0x05)
     980                    
     981                    $C$DW$92        .dwtag  DW_TAG_enumerator
     982                            .dwattr $C$DW$92, DW_AT_name("CC1350_LAUNCHXL_GPIO_LCD_POWER")
     983                            .dwattr $C$DW$92, DW_AT_const_value(0x09)
     984                            .dwattr $C$DW$92, DW_AT_decl_file("C:\ti\simplelink_cc13x0_sdk_2_30_00_20\examples\rtos\CC1350
     985                            .dwattr $C$DW$92, DW_AT_decl_line(0xf5)
     986                            .dwattr $C$DW$92, DW_AT_decl_column(0x05)
     987                    
     988                    $C$DW$93        .dwtag  DW_TAG_enumerator
     989                            .dwattr $C$DW$93, DW_AT_name("CC1350_LAUNCHXL_GPIO_LCD_ENABLE")
     990                            .dwattr $C$DW$93, DW_AT_const_value(0x0a)
TI ARM Assembler PC v18.1.3 Wed Nov 28 13:22:09 2018

Tools Copyright (c) 1996-2017 Texas Instruments Incorporated
C:\Users\Adrian\AppData\Local\Temp\{F87BBCDE-FD87-4EF2-8C66-DFD97B5C0FAE} PAGE   19

     991                            .dwattr $C$DW$93, DW_AT_decl_file("C:\ti\simplelink_cc13x0_sdk_2_30_00_20\examples\rtos\CC1350
     992                            .dwattr $C$DW$93, DW_AT_decl_line(0xf6)
     993                            .dwattr $C$DW$93, DW_AT_decl_column(0x05)
     994                    
     995                    $C$DW$94        .dwtag  DW_TAG_enumerator
     996                            .dwattr $C$DW$94, DW_AT_name("CC1350_LAUNCHXL_GPIOCOUNT")
     997                            .dwattr $C$DW$94, DW_AT_const_value(0x0b)
     998                            .dwattr $C$DW$94, DW_AT_decl_file("C:\ti\simplelink_cc13x0_sdk_2_30_00_20\examples\rtos\CC1350
     999                            .dwattr $C$DW$94, DW_AT_decl_line(0xf7)
    1000                            .dwattr $C$DW$94, DW_AT_decl_column(0x05)
    1001                    
    1002                            .dwattr $C$DW$T$114, DW_AT_decl_file("C:\ti\simplelink_cc13x0_sdk_2_30_00_20\examples\rtos\CC1
    1003                            .dwattr $C$DW$T$114, DW_AT_decl_line(0xeb)
    1004                            .dwattr $C$DW$T$114, DW_AT_decl_column(0x0e)
    1005                            .dwendtag $C$DW$T$114
    1006                    
    1007                    $C$DW$T$115     .dwtag  DW_TAG_typedef
    1008                            .dwattr $C$DW$T$115, DW_AT_name("CC1350_LAUNCHXL_GPIOName")
    1009                            .dwattr $C$DW$T$115, DW_AT_type(*$C$DW$T$114)
    1010                            .dwattr $C$DW$T$115, DW_AT_language(DW_LANG_C)
    1011                            .dwattr $C$DW$T$115, DW_AT_decl_file("C:\ti\simplelink_cc13x0_sdk_2_30_00_20\examples\rtos\CC1
    1012                            .dwattr $C$DW$T$115, DW_AT_decl_line(0xf8)
    1013                            .dwattr $C$DW$T$115, DW_AT_decl_column(0x03)
    1014                    
    1015                    
    1016                    $C$DW$T$116     .dwtag  DW_TAG_enumeration_type
    1017                            .dwattr $C$DW$T$116, DW_AT_name("CC1350_LAUNCHXL_GPTimerName")
    1018                            .dwattr $C$DW$T$116, DW_AT_byte_size(0x01)
    1019                    $C$DW$95        .dwtag  DW_TAG_enumerator
    1020                            .dwattr $C$DW$95, DW_AT_name("CC1350_LAUNCHXL_GPTIMER0A")
    1021                            .dwattr $C$DW$95, DW_AT_const_value(0x00)
    1022                            .dwattr $C$DW$95, DW_AT_decl_file("C:\ti\simplelink_cc13x0_sdk_2_30_00_20\examples\rtos\CC1350
    1023                            .dwattr $C$DW$95, DW_AT_decl_line(0xff)
    1024                            .dwattr $C$DW$95, DW_AT_decl_column(0x05)
    1025                    
    1026                    $C$DW$96        .dwtag  DW_TAG_enumerator
    1027                            .dwattr $C$DW$96, DW_AT_name("CC1350_LAUNCHXL_GPTIMER0B")
    1028                            .dwattr $C$DW$96, DW_AT_const_value(0x01)
    1029                            .dwattr $C$DW$96, DW_AT_decl_file("C:\ti\simplelink_cc13x0_sdk_2_30_00_20\examples\rtos\CC1350
    1030                            .dwattr $C$DW$96, DW_AT_decl_line(0x100)
    1031                            .dwattr $C$DW$96, DW_AT_decl_column(0x05)
    1032                    
    1033                    $C$DW$97        .dwtag  DW_TAG_enumerator
    1034                            .dwattr $C$DW$97, DW_AT_name("CC1350_LAUNCHXL_GPTIMER1A")
    1035                            .dwattr $C$DW$97, DW_AT_const_value(0x02)
    1036                            .dwattr $C$DW$97, DW_AT_decl_file("C:\ti\simplelink_cc13x0_sdk_2_30_00_20\examples\rtos\CC1350
    1037                            .dwattr $C$DW$97, DW_AT_decl_line(0x101)
    1038                            .dwattr $C$DW$97, DW_AT_decl_column(0x05)
    1039                    
    1040                    $C$DW$98        .dwtag  DW_TAG_enumerator
    1041                            .dwattr $C$DW$98, DW_AT_name("CC1350_LAUNCHXL_GPTIMER1B")
    1042                            .dwattr $C$DW$98, DW_AT_const_value(0x03)
    1043                            .dwattr $C$DW$98, DW_AT_decl_file("C:\ti\simplelink_cc13x0_sdk_2_30_00_20\examples\rtos\CC1350
    1044                            .dwattr $C$DW$98, DW_AT_decl_line(0x102)
    1045                            .dwattr $C$DW$98, DW_AT_decl_column(0x05)
TI ARM Assembler PC v18.1.3 Wed Nov 28 13:22:09 2018

Tools Copyright (c) 1996-2017 Texas Instruments Incorporated
C:\Users\Adrian\AppData\Local\Temp\{F87BBCDE-FD87-4EF2-8C66-DFD97B5C0FAE} PAGE   20

    1046                    
    1047                    $C$DW$99        .dwtag  DW_TAG_enumerator
    1048                            .dwattr $C$DW$99, DW_AT_name("CC1350_LAUNCHXL_GPTIMER2A")
    1049                            .dwattr $C$DW$99, DW_AT_const_value(0x04)
    1050                            .dwattr $C$DW$99, DW_AT_decl_file("C:\ti\simplelink_cc13x0_sdk_2_30_00_20\examples\rtos\CC1350
    1051                            .dwattr $C$DW$99, DW_AT_decl_line(0x103)
    1052                            .dwattr $C$DW$99, DW_AT_decl_column(0x05)
    1053                    
    1054                    $C$DW$100       .dwtag  DW_TAG_enumerator
    1055                            .dwattr $C$DW$100, DW_AT_name("CC1350_LAUNCHXL_GPTIMER2B")
    1056                            .dwattr $C$DW$100, DW_AT_const_value(0x05)
    1057                            .dwattr $C$DW$100, DW_AT_decl_file("C:\ti\simplelink_cc13x0_sdk_2_30_00_20\examples\rtos\CC135
    1058                            .dwattr $C$DW$100, DW_AT_decl_line(0x104)
    1059                            .dwattr $C$DW$100, DW_AT_decl_column(0x05)
    1060                    
    1061                    $C$DW$101       .dwtag  DW_TAG_enumerator
    1062                            .dwattr $C$DW$101, DW_AT_name("CC1350_LAUNCHXL_GPTIMER3A")
    1063                            .dwattr $C$DW$101, DW_AT_const_value(0x06)
    1064                            .dwattr $C$DW$101, DW_AT_decl_file("C:\ti\simplelink_cc13x0_sdk_2_30_00_20\examples\rtos\CC135
    1065                            .dwattr $C$DW$101, DW_AT_decl_line(0x105)
    1066                            .dwattr $C$DW$101, DW_AT_decl_column(0x05)
    1067                    
    1068                    $C$DW$102       .dwtag  DW_TAG_enumerator
    1069                            .dwattr $C$DW$102, DW_AT_name("CC1350_LAUNCHXL_GPTIMER3B")
    1070                            .dwattr $C$DW$102, DW_AT_const_value(0x07)
    1071                            .dwattr $C$DW$102, DW_AT_decl_file("C:\ti\simplelink_cc13x0_sdk_2_30_00_20\examples\rtos\CC135
    1072                            .dwattr $C$DW$102, DW_AT_decl_line(0x106)
    1073                            .dwattr $C$DW$102, DW_AT_decl_column(0x05)
    1074                    
    1075                    $C$DW$103       .dwtag  DW_TAG_enumerator
    1076                            .dwattr $C$DW$103, DW_AT_name("CC1350_LAUNCHXL_GPTIMERPARTSCOUNT")
    1077                            .dwattr $C$DW$103, DW_AT_const_value(0x08)
    1078                            .dwattr $C$DW$103, DW_AT_decl_file("C:\ti\simplelink_cc13x0_sdk_2_30_00_20\examples\rtos\CC135
    1079                            .dwattr $C$DW$103, DW_AT_decl_line(0x108)
    1080                            .dwattr $C$DW$103, DW_AT_decl_column(0x05)
    1081                    
    1082                            .dwattr $C$DW$T$116, DW_AT_decl_file("C:\ti\simplelink_cc13x0_sdk_2_30_00_20\examples\rtos\CC1
    1083                            .dwattr $C$DW$T$116, DW_AT_decl_line(0xfe)
    1084                            .dwattr $C$DW$T$116, DW_AT_decl_column(0x0e)
    1085                            .dwendtag $C$DW$T$116
    1086                    
    1087                    $C$DW$T$117     .dwtag  DW_TAG_typedef
    1088                            .dwattr $C$DW$T$117, DW_AT_name("CC1350_LAUNCHXL_GPTimerName")
    1089                            .dwattr $C$DW$T$117, DW_AT_type(*$C$DW$T$116)
    1090                            .dwattr $C$DW$T$117, DW_AT_language(DW_LANG_C)
    1091                            .dwattr $C$DW$T$117, DW_AT_decl_file("C:\ti\simplelink_cc13x0_sdk_2_30_00_20\examples\rtos\CC1
    1092                            .dwattr $C$DW$T$117, DW_AT_decl_line(0x109)
    1093                            .dwattr $C$DW$T$117, DW_AT_decl_column(0x03)
    1094                    
    1095                    
    1096                    $C$DW$T$118     .dwtag  DW_TAG_enumeration_type
    1097                            .dwattr $C$DW$T$118, DW_AT_name("CC1350_LAUNCHXL_GPTimers")
    1098                            .dwattr $C$DW$T$118, DW_AT_byte_size(0x01)
    1099                    $C$DW$104       .dwtag  DW_TAG_enumerator
    1100                            .dwattr $C$DW$104, DW_AT_name("CC1350_LAUNCHXL_GPTIMER0")
TI ARM Assembler PC v18.1.3 Wed Nov 28 13:22:09 2018

Tools Copyright (c) 1996-2017 Texas Instruments Incorporated
C:\Users\Adrian\AppData\Local\Temp\{F87BBCDE-FD87-4EF2-8C66-DFD97B5C0FAE} PAGE   21

    1101                            .dwattr $C$DW$104, DW_AT_const_value(0x00)
    1102                            .dwattr $C$DW$104, DW_AT_decl_file("C:\ti\simplelink_cc13x0_sdk_2_30_00_20\examples\rtos\CC135
    1103                            .dwattr $C$DW$104, DW_AT_decl_line(0x110)
    1104                            .dwattr $C$DW$104, DW_AT_decl_column(0x05)
    1105                    
    1106                    $C$DW$105       .dwtag  DW_TAG_enumerator
    1107                            .dwattr $C$DW$105, DW_AT_name("CC1350_LAUNCHXL_GPTIMER1")
    1108                            .dwattr $C$DW$105, DW_AT_const_value(0x01)
    1109                            .dwattr $C$DW$105, DW_AT_decl_file("C:\ti\simplelink_cc13x0_sdk_2_30_00_20\examples\rtos\CC135
    1110                            .dwattr $C$DW$105, DW_AT_decl_line(0x111)
    1111                            .dwattr $C$DW$105, DW_AT_decl_column(0x05)
    1112                    
    1113                    $C$DW$106       .dwtag  DW_TAG_enumerator
    1114                            .dwattr $C$DW$106, DW_AT_name("CC1350_LAUNCHXL_GPTIMER2")
    1115                            .dwattr $C$DW$106, DW_AT_const_value(0x02)
    1116                            .dwattr $C$DW$106, DW_AT_decl_file("C:\ti\simplelink_cc13x0_sdk_2_30_00_20\examples\rtos\CC135
    1117                            .dwattr $C$DW$106, DW_AT_decl_line(0x112)
    1118                            .dwattr $C$DW$106, DW_AT_decl_column(0x05)
    1119                    
    1120                    $C$DW$107       .dwtag  DW_TAG_enumerator
    1121                            .dwattr $C$DW$107, DW_AT_name("CC1350_LAUNCHXL_GPTIMER3")
    1122                            .dwattr $C$DW$107, DW_AT_const_value(0x03)
    1123                            .dwattr $C$DW$107, DW_AT_decl_file("C:\ti\simplelink_cc13x0_sdk_2_30_00_20\examples\rtos\CC135
    1124                            .dwattr $C$DW$107, DW_AT_decl_line(0x113)
    1125                            .dwattr $C$DW$107, DW_AT_decl_column(0x05)
    1126                    
    1127                    $C$DW$108       .dwtag  DW_TAG_enumerator
    1128                            .dwattr $C$DW$108, DW_AT_name("CC1350_LAUNCHXL_GPTIMERCOUNT")
    1129                            .dwattr $C$DW$108, DW_AT_const_value(0x04)
    1130                            .dwattr $C$DW$108, DW_AT_decl_file("C:\ti\simplelink_cc13x0_sdk_2_30_00_20\examples\rtos\CC135
    1131                            .dwattr $C$DW$108, DW_AT_decl_line(0x115)
    1132                            .dwattr $C$DW$108, DW_AT_decl_column(0x05)
    1133                    
    1134                            .dwattr $C$DW$T$118, DW_AT_decl_file("C:\ti\simplelink_cc13x0_sdk_2_30_00_20\examples\rtos\CC1
    1135                            .dwattr $C$DW$T$118, DW_AT_decl_line(0x10f)
    1136                            .dwattr $C$DW$T$118, DW_AT_decl_column(0x0e)
    1137                            .dwendtag $C$DW$T$118
    1138                    
    1139                    $C$DW$T$119     .dwtag  DW_TAG_typedef
    1140                            .dwattr $C$DW$T$119, DW_AT_name("CC1350_LAUNCHXL_GPTimers")
    1141                            .dwattr $C$DW$T$119, DW_AT_type(*$C$DW$T$118)
    1142                            .dwattr $C$DW$T$119, DW_AT_language(DW_LANG_C)
    1143                            .dwattr $C$DW$T$119, DW_AT_decl_file("C:\ti\simplelink_cc13x0_sdk_2_30_00_20\examples\rtos\CC1
    1144                            .dwattr $C$DW$T$119, DW_AT_decl_line(0x116)
    1145                            .dwattr $C$DW$T$119, DW_AT_decl_column(0x03)
    1146                    
    1147                    
    1148                    $C$DW$T$120     .dwtag  DW_TAG_enumeration_type
    1149                            .dwattr $C$DW$T$120, DW_AT_name("CC1350_LAUNCHXL_I2CName")
    1150                            .dwattr $C$DW$T$120, DW_AT_byte_size(0x01)
    1151                    $C$DW$109       .dwtag  DW_TAG_enumerator
    1152                            .dwattr $C$DW$109, DW_AT_name("CC1350_LAUNCHXL_I2C0")
    1153                            .dwattr $C$DW$109, DW_AT_const_value(0x00)
    1154                            .dwattr $C$DW$109, DW_AT_decl_file("C:\ti\simplelink_cc13x0_sdk_2_30_00_20\examples\rtos\CC135
    1155                            .dwattr $C$DW$109, DW_AT_decl_line(0x11d)
TI ARM Assembler PC v18.1.3 Wed Nov 28 13:22:09 2018

Tools Copyright (c) 1996-2017 Texas Instruments Incorporated
C:\Users\Adrian\AppData\Local\Temp\{F87BBCDE-FD87-4EF2-8C66-DFD97B5C0FAE} PAGE   22

    1156                            .dwattr $C$DW$109, DW_AT_decl_column(0x05)
    1157                    
    1158                    $C$DW$110       .dwtag  DW_TAG_enumerator
    1159                            .dwattr $C$DW$110, DW_AT_name("CC1350_LAUNCHXL_I2CCOUNT")
    1160                            .dwattr $C$DW$110, DW_AT_const_value(0x01)
    1161                            .dwattr $C$DW$110, DW_AT_decl_file("C:\ti\simplelink_cc13x0_sdk_2_30_00_20\examples\rtos\CC135
    1162                            .dwattr $C$DW$110, DW_AT_decl_line(0x11f)
    1163                            .dwattr $C$DW$110, DW_AT_decl_column(0x05)
    1164                    
    1165                            .dwattr $C$DW$T$120, DW_AT_decl_file("C:\ti\simplelink_cc13x0_sdk_2_30_00_20\examples\rtos\CC1
    1166                            .dwattr $C$DW$T$120, DW_AT_decl_line(0x11c)
    1167                            .dwattr $C$DW$T$120, DW_AT_decl_column(0x0e)
    1168                            .dwendtag $C$DW$T$120
    1169                    
    1170                    $C$DW$T$121     .dwtag  DW_TAG_typedef
    1171                            .dwattr $C$DW$T$121, DW_AT_name("CC1350_LAUNCHXL_I2CName")
    1172                            .dwattr $C$DW$T$121, DW_AT_type(*$C$DW$T$120)
    1173                            .dwattr $C$DW$T$121, DW_AT_language(DW_LANG_C)
    1174                            .dwattr $C$DW$T$121, DW_AT_decl_file("C:\ti\simplelink_cc13x0_sdk_2_30_00_20\examples\rtos\CC1
    1175                            .dwattr $C$DW$T$121, DW_AT_decl_line(0x120)
    1176                            .dwattr $C$DW$T$121, DW_AT_decl_column(0x03)
    1177                    
    1178                    
    1179                    $C$DW$T$122     .dwtag  DW_TAG_enumeration_type
    1180                            .dwattr $C$DW$T$122, DW_AT_name("CC1350_LAUNCHXL_NVSName")
    1181                            .dwattr $C$DW$T$122, DW_AT_byte_size(0x01)
    1182                    $C$DW$111       .dwtag  DW_TAG_enumerator
    1183                            .dwattr $C$DW$111, DW_AT_name("CC1350_LAUNCHXL_NVSCC26XX0")
    1184                            .dwattr $C$DW$111, DW_AT_const_value(0x00)
    1185                            .dwattr $C$DW$111, DW_AT_decl_file("C:\ti\simplelink_cc13x0_sdk_2_30_00_20\examples\rtos\CC135
    1186                            .dwattr $C$DW$111, DW_AT_decl_line(0x128)
    1187                            .dwattr $C$DW$111, DW_AT_decl_column(0x05)
    1188                    
    1189                    $C$DW$112       .dwtag  DW_TAG_enumerator
    1190                            .dwattr $C$DW$112, DW_AT_name("CC1350_LAUNCHXL_NVSCOUNT")
    1191                            .dwattr $C$DW$112, DW_AT_const_value(0x01)
    1192                            .dwattr $C$DW$112, DW_AT_decl_file("C:\ti\simplelink_cc13x0_sdk_2_30_00_20\examples\rtos\CC135
    1193                            .dwattr $C$DW$112, DW_AT_decl_line(0x12e)
    1194                            .dwattr $C$DW$112, DW_AT_decl_column(0x05)
    1195                    
    1196                            .dwattr $C$DW$T$122, DW_AT_decl_file("C:\ti\simplelink_cc13x0_sdk_2_30_00_20\examples\rtos\CC1
    1197                            .dwattr $C$DW$T$122, DW_AT_decl_line(0x126)
    1198                            .dwattr $C$DW$T$122, DW_AT_decl_column(0x0e)
    1199                            .dwendtag $C$DW$T$122
    1200                    
    1201                    $C$DW$T$123     .dwtag  DW_TAG_typedef
    1202                            .dwattr $C$DW$T$123, DW_AT_name("CC1350_LAUNCHXL_NVSName")
    1203                            .dwattr $C$DW$T$123, DW_AT_type(*$C$DW$T$122)
    1204                            .dwattr $C$DW$T$123, DW_AT_language(DW_LANG_C)
    1205                            .dwattr $C$DW$T$123, DW_AT_decl_file("C:\ti\simplelink_cc13x0_sdk_2_30_00_20\examples\rtos\CC1
    1206                            .dwattr $C$DW$T$123, DW_AT_decl_line(0x12f)
    1207                            .dwattr $C$DW$T$123, DW_AT_decl_column(0x03)
    1208                    
    1209                    
    1210                    $C$DW$T$124     .dwtag  DW_TAG_enumeration_type
TI ARM Assembler PC v18.1.3 Wed Nov 28 13:22:09 2018

Tools Copyright (c) 1996-2017 Texas Instruments Incorporated
C:\Users\Adrian\AppData\Local\Temp\{F87BBCDE-FD87-4EF2-8C66-DFD97B5C0FAE} PAGE   23

    1211                            .dwattr $C$DW$T$124, DW_AT_name("CC1350_LAUNCHXL_PWMName")
    1212                            .dwattr $C$DW$T$124, DW_AT_byte_size(0x01)
    1213                    $C$DW$113       .dwtag  DW_TAG_enumerator
    1214                            .dwattr $C$DW$113, DW_AT_name("CC1350_LAUNCHXL_PWM0")
    1215                            .dwattr $C$DW$113, DW_AT_const_value(0x00)
    1216                            .dwattr $C$DW$113, DW_AT_decl_file("C:\ti\simplelink_cc13x0_sdk_2_30_00_20\examples\rtos\CC135
    1217                            .dwattr $C$DW$113, DW_AT_decl_line(0x136)
    1218                            .dwattr $C$DW$113, DW_AT_decl_column(0x05)
    1219                    
    1220                    $C$DW$114       .dwtag  DW_TAG_enumerator
    1221                            .dwattr $C$DW$114, DW_AT_name("CC1350_LAUNCHXL_PWM1")
    1222                            .dwattr $C$DW$114, DW_AT_const_value(0x01)
    1223                            .dwattr $C$DW$114, DW_AT_decl_file("C:\ti\simplelink_cc13x0_sdk_2_30_00_20\examples\rtos\CC135
    1224                            .dwattr $C$DW$114, DW_AT_decl_line(0x137)
    1225                            .dwattr $C$DW$114, DW_AT_decl_column(0x05)
    1226                    
    1227                    $C$DW$115       .dwtag  DW_TAG_enumerator
    1228                            .dwattr $C$DW$115, DW_AT_name("CC1350_LAUNCHXL_PWM2")
    1229                            .dwattr $C$DW$115, DW_AT_const_value(0x02)
    1230                            .dwattr $C$DW$115, DW_AT_decl_file("C:\ti\simplelink_cc13x0_sdk_2_30_00_20\examples\rtos\CC135
    1231                            .dwattr $C$DW$115, DW_AT_decl_line(0x138)
    1232                            .dwattr $C$DW$115, DW_AT_decl_column(0x05)
    1233                    
    1234                    $C$DW$116       .dwtag  DW_TAG_enumerator
    1235                            .dwattr $C$DW$116, DW_AT_name("CC1350_LAUNCHXL_PWM3")
    1236                            .dwattr $C$DW$116, DW_AT_const_value(0x03)
    1237                            .dwattr $C$DW$116, DW_AT_decl_file("C:\ti\simplelink_cc13x0_sdk_2_30_00_20\examples\rtos\CC135
    1238                            .dwattr $C$DW$116, DW_AT_decl_line(0x139)
    1239                            .dwattr $C$DW$116, DW_AT_decl_column(0x05)
    1240                    
    1241                    $C$DW$117       .dwtag  DW_TAG_enumerator
    1242                            .dwattr $C$DW$117, DW_AT_name("CC1350_LAUNCHXL_PWM4")
    1243                            .dwattr $C$DW$117, DW_AT_const_value(0x04)
    1244                            .dwattr $C$DW$117, DW_AT_decl_file("C:\ti\simplelink_cc13x0_sdk_2_30_00_20\examples\rtos\CC135
    1245                            .dwattr $C$DW$117, DW_AT_decl_line(0x13a)
    1246                            .dwattr $C$DW$117, DW_AT_decl_column(0x05)
    1247                    
    1248                    $C$DW$118       .dwtag  DW_TAG_enumerator
    1249                            .dwattr $C$DW$118, DW_AT_name("CC1350_LAUNCHXL_PWM5")
    1250                            .dwattr $C$DW$118, DW_AT_const_value(0x05)
    1251                            .dwattr $C$DW$118, DW_AT_decl_file("C:\ti\simplelink_cc13x0_sdk_2_30_00_20\examples\rtos\CC135
    1252                            .dwattr $C$DW$118, DW_AT_decl_line(0x13b)
    1253                            .dwattr $C$DW$118, DW_AT_decl_column(0x05)
    1254                    
    1255                    $C$DW$119       .dwtag  DW_TAG_enumerator
    1256                            .dwattr $C$DW$119, DW_AT_name("CC1350_LAUNCHXL_PWM6")
    1257                            .dwattr $C$DW$119, DW_AT_const_value(0x06)
    1258                            .dwattr $C$DW$119, DW_AT_decl_file("C:\ti\simplelink_cc13x0_sdk_2_30_00_20\examples\rtos\CC135
    1259                            .dwattr $C$DW$119, DW_AT_decl_line(0x13c)
    1260                            .dwattr $C$DW$119, DW_AT_decl_column(0x05)
    1261                    
    1262                    $C$DW$120       .dwtag  DW_TAG_enumerator
    1263                            .dwattr $C$DW$120, DW_AT_name("CC1350_LAUNCHXL_PWM7")
    1264                            .dwattr $C$DW$120, DW_AT_const_value(0x07)
    1265                            .dwattr $C$DW$120, DW_AT_decl_file("C:\ti\simplelink_cc13x0_sdk_2_30_00_20\examples\rtos\CC135
TI ARM Assembler PC v18.1.3 Wed Nov 28 13:22:09 2018

Tools Copyright (c) 1996-2017 Texas Instruments Incorporated
C:\Users\Adrian\AppData\Local\Temp\{F87BBCDE-FD87-4EF2-8C66-DFD97B5C0FAE} PAGE   24

    1266                            .dwattr $C$DW$120, DW_AT_decl_line(0x13d)
    1267                            .dwattr $C$DW$120, DW_AT_decl_column(0x05)
    1268                    
    1269                    $C$DW$121       .dwtag  DW_TAG_enumerator
    1270                            .dwattr $C$DW$121, DW_AT_name("CC1350_LAUNCHXL_PWMCOUNT")
    1271                            .dwattr $C$DW$121, DW_AT_const_value(0x08)
    1272                            .dwattr $C$DW$121, DW_AT_decl_file("C:\ti\simplelink_cc13x0_sdk_2_30_00_20\examples\rtos\CC135
    1273                            .dwattr $C$DW$121, DW_AT_decl_line(0x13f)
    1274                            .dwattr $C$DW$121, DW_AT_decl_column(0x05)
    1275                    
    1276                            .dwattr $C$DW$T$124, DW_AT_decl_file("C:\ti\simplelink_cc13x0_sdk_2_30_00_20\examples\rtos\CC1
    1277                            .dwattr $C$DW$T$124, DW_AT_decl_line(0x135)
    1278                            .dwattr $C$DW$T$124, DW_AT_decl_column(0x0e)
    1279                            .dwendtag $C$DW$T$124
    1280                    
    1281                    $C$DW$T$125     .dwtag  DW_TAG_typedef
    1282                            .dwattr $C$DW$T$125, DW_AT_name("CC1350_LAUNCHXL_PWMName")
    1283                            .dwattr $C$DW$T$125, DW_AT_type(*$C$DW$T$124)
    1284                            .dwattr $C$DW$T$125, DW_AT_language(DW_LANG_C)
    1285                            .dwattr $C$DW$T$125, DW_AT_decl_file("C:\ti\simplelink_cc13x0_sdk_2_30_00_20\examples\rtos\CC1
    1286                            .dwattr $C$DW$T$125, DW_AT_decl_line(0x140)
    1287                            .dwattr $C$DW$T$125, DW_AT_decl_column(0x03)
    1288                    
    1289                    
    1290                    $C$DW$T$126     .dwtag  DW_TAG_enumeration_type
    1291                            .dwattr $C$DW$T$126, DW_AT_name("CC1350_LAUNCHXL_SDName")
    1292                            .dwattr $C$DW$T$126, DW_AT_byte_size(0x01)
    1293                    $C$DW$122       .dwtag  DW_TAG_enumerator
    1294                            .dwattr $C$DW$122, DW_AT_name("CC1350_LAUNCHXL_SDSPI0")
    1295                            .dwattr $C$DW$122, DW_AT_const_value(0x00)
    1296                            .dwattr $C$DW$122, DW_AT_decl_file("C:\ti\simplelink_cc13x0_sdk_2_30_00_20\examples\rtos\CC135
    1297                            .dwattr $C$DW$122, DW_AT_decl_line(0x147)
    1298                            .dwattr $C$DW$122, DW_AT_decl_column(0x05)
    1299                    
    1300                    $C$DW$123       .dwtag  DW_TAG_enumerator
    1301                            .dwattr $C$DW$123, DW_AT_name("CC1350_LAUNCHXL_SDCOUNT")
    1302                            .dwattr $C$DW$123, DW_AT_const_value(0x01)
    1303                            .dwattr $C$DW$123, DW_AT_decl_file("C:\ti\simplelink_cc13x0_sdk_2_30_00_20\examples\rtos\CC135
    1304                            .dwattr $C$DW$123, DW_AT_decl_line(0x149)
    1305                            .dwattr $C$DW$123, DW_AT_decl_column(0x05)
    1306                    
    1307                            .dwattr $C$DW$T$126, DW_AT_decl_file("C:\ti\simplelink_cc13x0_sdk_2_30_00_20\examples\rtos\CC1
    1308                            .dwattr $C$DW$T$126, DW_AT_decl_line(0x146)
    1309                            .dwattr $C$DW$T$126, DW_AT_decl_column(0x0e)
    1310                            .dwendtag $C$DW$T$126
    1311                    
    1312                    $C$DW$T$127     .dwtag  DW_TAG_typedef
    1313                            .dwattr $C$DW$T$127, DW_AT_name("CC1350_LAUNCHXL_SDName")
    1314                            .dwattr $C$DW$T$127, DW_AT_type(*$C$DW$T$126)
    1315                            .dwattr $C$DW$T$127, DW_AT_language(DW_LANG_C)
    1316                            .dwattr $C$DW$T$127, DW_AT_decl_file("C:\ti\simplelink_cc13x0_sdk_2_30_00_20\examples\rtos\CC1
    1317                            .dwattr $C$DW$T$127, DW_AT_decl_line(0x14a)
    1318                            .dwattr $C$DW$T$127, DW_AT_decl_column(0x03)
    1319                    
    1320                    
TI ARM Assembler PC v18.1.3 Wed Nov 28 13:22:09 2018

Tools Copyright (c) 1996-2017 Texas Instruments Incorporated
C:\Users\Adrian\AppData\Local\Temp\{F87BBCDE-FD87-4EF2-8C66-DFD97B5C0FAE} PAGE   25

    1321                    $C$DW$T$128     .dwtag  DW_TAG_enumeration_type
    1322                            .dwattr $C$DW$T$128, DW_AT_name("CC1350_LAUNCHXL_SPIName")
    1323                            .dwattr $C$DW$T$128, DW_AT_byte_size(0x01)
    1324                    $C$DW$124       .dwtag  DW_TAG_enumerator
    1325                            .dwattr $C$DW$124, DW_AT_name("CC1350_LAUNCHXL_SPI0")
    1326                            .dwattr $C$DW$124, DW_AT_const_value(0x00)
    1327                            .dwattr $C$DW$124, DW_AT_decl_file("C:\ti\simplelink_cc13x0_sdk_2_30_00_20\examples\rtos\CC135
    1328                            .dwattr $C$DW$124, DW_AT_decl_line(0x151)
    1329                            .dwattr $C$DW$124, DW_AT_decl_column(0x05)
    1330                    
    1331                    $C$DW$125       .dwtag  DW_TAG_enumerator
    1332                            .dwattr $C$DW$125, DW_AT_name("CC1350_LAUNCHXL_SPI1")
    1333                            .dwattr $C$DW$125, DW_AT_const_value(0x01)
    1334                            .dwattr $C$DW$125, DW_AT_decl_file("C:\ti\simplelink_cc13x0_sdk_2_30_00_20\examples\rtos\CC135
    1335                            .dwattr $C$DW$125, DW_AT_decl_line(0x152)
    1336                            .dwattr $C$DW$125, DW_AT_decl_column(0x05)
    1337                    
    1338                    $C$DW$126       .dwtag  DW_TAG_enumerator
    1339                            .dwattr $C$DW$126, DW_AT_name("CC1350_LAUNCHXL_SPICOUNT")
    1340                            .dwattr $C$DW$126, DW_AT_const_value(0x02)
    1341                            .dwattr $C$DW$126, DW_AT_decl_file("C:\ti\simplelink_cc13x0_sdk_2_30_00_20\examples\rtos\CC135
    1342                            .dwattr $C$DW$126, DW_AT_decl_line(0x154)
    1343                            .dwattr $C$DW$126, DW_AT_decl_column(0x05)
    1344                    
    1345                            .dwattr $C$DW$T$128, DW_AT_decl_file("C:\ti\simplelink_cc13x0_sdk_2_30_00_20\examples\rtos\CC1
    1346                            .dwattr $C$DW$T$128, DW_AT_decl_line(0x150)
    1347                            .dwattr $C$DW$T$128, DW_AT_decl_column(0x0e)
    1348                            .dwendtag $C$DW$T$128
    1349                    
    1350                    $C$DW$T$129     .dwtag  DW_TAG_typedef
    1351                            .dwattr $C$DW$T$129, DW_AT_name("CC1350_LAUNCHXL_SPIName")
    1352                            .dwattr $C$DW$T$129, DW_AT_type(*$C$DW$T$128)
    1353                            .dwattr $C$DW$T$129, DW_AT_language(DW_LANG_C)
    1354                            .dwattr $C$DW$T$129, DW_AT_decl_file("C:\ti\simplelink_cc13x0_sdk_2_30_00_20\examples\rtos\CC1
    1355                            .dwattr $C$DW$T$129, DW_AT_decl_line(0x155)
    1356                            .dwattr $C$DW$T$129, DW_AT_decl_column(0x03)
    1357                    
    1358                    
    1359                    $C$DW$T$130     .dwtag  DW_TAG_enumeration_type
    1360                            .dwattr $C$DW$T$130, DW_AT_name("CC1350_LAUNCHXL_UARTName")
    1361                            .dwattr $C$DW$T$130, DW_AT_byte_size(0x01)
    1362                    $C$DW$127       .dwtag  DW_TAG_enumerator
    1363                            .dwattr $C$DW$127, DW_AT_name("CC1350_LAUNCHXL_UART0")
    1364                            .dwattr $C$DW$127, DW_AT_const_value(0x00)
    1365                            .dwattr $C$DW$127, DW_AT_decl_file("C:\ti\simplelink_cc13x0_sdk_2_30_00_20\examples\rtos\CC135
    1366                            .dwattr $C$DW$127, DW_AT_decl_line(0x15c)
    1367                            .dwattr $C$DW$127, DW_AT_decl_column(0x05)
    1368                    
    1369                    $C$DW$128       .dwtag  DW_TAG_enumerator
    1370                            .dwattr $C$DW$128, DW_AT_name("CC1350_LAUNCHXL_UARTCOUNT")
    1371                            .dwattr $C$DW$128, DW_AT_const_value(0x01)
    1372                            .dwattr $C$DW$128, DW_AT_decl_file("C:\ti\simplelink_cc13x0_sdk_2_30_00_20\examples\rtos\CC135
    1373                            .dwattr $C$DW$128, DW_AT_decl_line(0x15e)
    1374                            .dwattr $C$DW$128, DW_AT_decl_column(0x05)
    1375                    
TI ARM Assembler PC v18.1.3 Wed Nov 28 13:22:09 2018

Tools Copyright (c) 1996-2017 Texas Instruments Incorporated
C:\Users\Adrian\AppData\Local\Temp\{F87BBCDE-FD87-4EF2-8C66-DFD97B5C0FAE} PAGE   26

    1376                            .dwattr $C$DW$T$130, DW_AT_decl_file("C:\ti\simplelink_cc13x0_sdk_2_30_00_20\examples\rtos\CC1
    1377                            .dwattr $C$DW$T$130, DW_AT_decl_line(0x15b)
    1378                            .dwattr $C$DW$T$130, DW_AT_decl_column(0x0e)
    1379                            .dwendtag $C$DW$T$130
    1380                    
    1381                    $C$DW$T$131     .dwtag  DW_TAG_typedef
    1382                            .dwattr $C$DW$T$131, DW_AT_name("CC1350_LAUNCHXL_UARTName")
    1383                            .dwattr $C$DW$T$131, DW_AT_type(*$C$DW$T$130)
    1384                            .dwattr $C$DW$T$131, DW_AT_language(DW_LANG_C)
    1385                            .dwattr $C$DW$T$131, DW_AT_decl_file("C:\ti\simplelink_cc13x0_sdk_2_30_00_20\examples\rtos\CC1
    1386                            .dwattr $C$DW$T$131, DW_AT_decl_line(0x15f)
    1387                            .dwattr $C$DW$T$131, DW_AT_decl_column(0x03)
    1388                    
    1389                    
    1390                    $C$DW$T$132     .dwtag  DW_TAG_enumeration_type
    1391                            .dwattr $C$DW$T$132, DW_AT_name("CC1350_LAUNCHXL_UDMAName")
    1392                            .dwattr $C$DW$T$132, DW_AT_byte_size(0x01)
    1393                    $C$DW$129       .dwtag  DW_TAG_enumerator
    1394                            .dwattr $C$DW$129, DW_AT_name("CC1350_LAUNCHXL_UDMA0")
    1395                            .dwattr $C$DW$129, DW_AT_const_value(0x00)
    1396                            .dwattr $C$DW$129, DW_AT_decl_file("C:\ti\simplelink_cc13x0_sdk_2_30_00_20\examples\rtos\CC135
    1397                            .dwattr $C$DW$129, DW_AT_decl_line(0x166)
    1398                            .dwattr $C$DW$129, DW_AT_decl_column(0x05)
    1399                    
    1400                    $C$DW$130       .dwtag  DW_TAG_enumerator
    1401                            .dwattr $C$DW$130, DW_AT_name("CC1350_LAUNCHXL_UDMACOUNT")
    1402                            .dwattr $C$DW$130, DW_AT_const_value(0x01)
    1403                            .dwattr $C$DW$130, DW_AT_decl_file("C:\ti\simplelink_cc13x0_sdk_2_30_00_20\examples\rtos\CC135
    1404                            .dwattr $C$DW$130, DW_AT_decl_line(0x168)
    1405                            .dwattr $C$DW$130, DW_AT_decl_column(0x05)
    1406                    
    1407                            .dwattr $C$DW$T$132, DW_AT_decl_file("C:\ti\simplelink_cc13x0_sdk_2_30_00_20\examples\rtos\CC1
    1408                            .dwattr $C$DW$T$132, DW_AT_decl_line(0x165)
    1409                            .dwattr $C$DW$T$132, DW_AT_decl_column(0x0e)
    1410                            .dwendtag $C$DW$T$132
    1411                    
    1412                    $C$DW$T$133     .dwtag  DW_TAG_typedef
    1413                            .dwattr $C$DW$T$133, DW_AT_name("CC1350_LAUNCHXL_UDMAName")
    1414                            .dwattr $C$DW$T$133, DW_AT_type(*$C$DW$T$132)
    1415                            .dwattr $C$DW$T$133, DW_AT_language(DW_LANG_C)
    1416                            .dwattr $C$DW$T$133, DW_AT_decl_file("C:\ti\simplelink_cc13x0_sdk_2_30_00_20\examples\rtos\CC1
    1417                            .dwattr $C$DW$T$133, DW_AT_decl_line(0x169)
    1418                            .dwattr $C$DW$T$133, DW_AT_decl_column(0x03)
    1419                    
    1420                    
    1421                    $C$DW$T$134     .dwtag  DW_TAG_enumeration_type
    1422                            .dwattr $C$DW$T$134, DW_AT_name("CC1350_LAUNCHXL_WatchdogName")
    1423                            .dwattr $C$DW$T$134, DW_AT_byte_size(0x01)
    1424                    $C$DW$131       .dwtag  DW_TAG_enumerator
    1425                            .dwattr $C$DW$131, DW_AT_name("CC1350_LAUNCHXL_WATCHDOG0")
    1426                            .dwattr $C$DW$131, DW_AT_const_value(0x00)
    1427                            .dwattr $C$DW$131, DW_AT_decl_file("C:\ti\simplelink_cc13x0_sdk_2_30_00_20\examples\rtos\CC135
    1428                            .dwattr $C$DW$131, DW_AT_decl_line(0x170)
    1429                            .dwattr $C$DW$131, DW_AT_decl_column(0x05)
    1430                    
TI ARM Assembler PC v18.1.3 Wed Nov 28 13:22:09 2018

Tools Copyright (c) 1996-2017 Texas Instruments Incorporated
C:\Users\Adrian\AppData\Local\Temp\{F87BBCDE-FD87-4EF2-8C66-DFD97B5C0FAE} PAGE   27

    1431                    $C$DW$132       .dwtag  DW_TAG_enumerator
    1432                            .dwattr $C$DW$132, DW_AT_name("CC1350_LAUNCHXL_WATCHDOGCOUNT")
    1433                            .dwattr $C$DW$132, DW_AT_const_value(0x01)
    1434                            .dwattr $C$DW$132, DW_AT_decl_file("C:\ti\simplelink_cc13x0_sdk_2_30_00_20\examples\rtos\CC135
    1435                            .dwattr $C$DW$132, DW_AT_decl_line(0x172)
    1436                            .dwattr $C$DW$132, DW_AT_decl_column(0x05)
    1437                    
    1438                            .dwattr $C$DW$T$134, DW_AT_decl_file("C:\ti\simplelink_cc13x0_sdk_2_30_00_20\examples\rtos\CC1
    1439                            .dwattr $C$DW$T$134, DW_AT_decl_line(0x16f)
    1440                            .dwattr $C$DW$T$134, DW_AT_decl_column(0x0e)
    1441                            .dwendtag $C$DW$T$134
    1442                    
    1443                    $C$DW$T$135     .dwtag  DW_TAG_typedef
    1444                            .dwattr $C$DW$T$135, DW_AT_name("CC1350_LAUNCHXL_WatchdogName")
    1445                            .dwattr $C$DW$T$135, DW_AT_type(*$C$DW$T$134)
    1446                            .dwattr $C$DW$T$135, DW_AT_language(DW_LANG_C)
    1447                            .dwattr $C$DW$T$135, DW_AT_decl_file("C:\ti\simplelink_cc13x0_sdk_2_30_00_20\examples\rtos\CC1
    1448                            .dwattr $C$DW$T$135, DW_AT_decl_line(0x173)
    1449                            .dwattr $C$DW$T$135, DW_AT_decl_column(0x03)
    1450                    
    1451                    
    1452                    $C$DW$T$79      .dwtag  DW_TAG_structure_type
    1453                            .dwattr $C$DW$T$79, DW_AT_name("HwiP_Params")
    1454                            .dwattr $C$DW$T$79, DW_AT_byte_size(0x0c)
    1455                    $C$DW$133       .dwtag  DW_TAG_member
    1456                            .dwattr $C$DW$133, DW_AT_type(*$C$DW$T$77)
    1457                            .dwattr $C$DW$133, DW_AT_name("arg")
    1458                            .dwattr $C$DW$133, DW_AT_TI_symbol_name("arg")
    1459                            .dwattr $C$DW$133, DW_AT_data_member_location[DW_OP_plus_uconst 0x0]
    1460                            .dwattr $C$DW$133, DW_AT_accessibility(DW_ACCESS_public)
    1461                            .dwattr $C$DW$133, DW_AT_decl_file("C:/ti/simplelink_cc13x0_sdk_2_30_00_20/source/ti/drivers/d
    1462                            .dwattr $C$DW$133, DW_AT_decl_line(0x72)
    1463                            .dwattr $C$DW$133, DW_AT_decl_column(0x10)
    1464                    
    1465                    $C$DW$134       .dwtag  DW_TAG_member
    1466                            .dwattr $C$DW$134, DW_AT_type(*$C$DW$T$23)
    1467                            .dwattr $C$DW$134, DW_AT_name("priority")
    1468                            .dwattr $C$DW$134, DW_AT_TI_symbol_name("priority")
    1469                            .dwattr $C$DW$134, DW_AT_data_member_location[DW_OP_plus_uconst 0x4]
    1470                            .dwattr $C$DW$134, DW_AT_accessibility(DW_ACCESS_public)
    1471                            .dwattr $C$DW$134, DW_AT_decl_file("C:/ti/simplelink_cc13x0_sdk_2_30_00_20/source/ti/drivers/d
    1472                            .dwattr $C$DW$134, DW_AT_decl_line(0x73)
    1473                            .dwattr $C$DW$134, DW_AT_decl_column(0x10)
    1474                    
    1475                    $C$DW$135       .dwtag  DW_TAG_member
    1476                            .dwattr $C$DW$135, DW_AT_type(*$C$DW$T$78)
    1477                            .dwattr $C$DW$135, DW_AT_name("enableInt")
    1478                            .dwattr $C$DW$135, DW_AT_TI_symbol_name("enableInt")
    1479                            .dwattr $C$DW$135, DW_AT_data_member_location[DW_OP_plus_uconst 0x8]
    1480                            .dwattr $C$DW$135, DW_AT_accessibility(DW_ACCESS_public)
    1481                            .dwattr $C$DW$135, DW_AT_decl_file("C:/ti/simplelink_cc13x0_sdk_2_30_00_20/source/ti/drivers/d
    1482                            .dwattr $C$DW$135, DW_AT_decl_line(0x74)
    1483                            .dwattr $C$DW$135, DW_AT_decl_column(0x10)
    1484                    
    1485                            .dwattr $C$DW$T$79, DW_AT_decl_file("C:/ti/simplelink_cc13x0_sdk_2_30_00_20/source/ti/drivers/
TI ARM Assembler PC v18.1.3 Wed Nov 28 13:22:09 2018

Tools Copyright (c) 1996-2017 Texas Instruments Incorporated
C:\Users\Adrian\AppData\Local\Temp\{F87BBCDE-FD87-4EF2-8C66-DFD97B5C0FAE} PAGE   28

    1486                            .dwattr $C$DW$T$79, DW_AT_decl_line(0x71)
    1487                            .dwattr $C$DW$T$79, DW_AT_decl_column(0x10)
    1488                            .dwendtag $C$DW$T$79
    1489                    
    1490                    $C$DW$T$136     .dwtag  DW_TAG_typedef
    1491                            .dwattr $C$DW$T$136, DW_AT_name("HwiP_Params")
    1492                            .dwattr $C$DW$T$136, DW_AT_type(*$C$DW$T$79)
    1493                            .dwattr $C$DW$T$136, DW_AT_language(DW_LANG_C)
    1494                            .dwattr $C$DW$T$136, DW_AT_decl_file("C:/ti/simplelink_cc13x0_sdk_2_30_00_20/source/ti/drivers
    1495                            .dwattr $C$DW$T$136, DW_AT_decl_line(0x75)
    1496                            .dwattr $C$DW$T$136, DW_AT_decl_column(0x03)
    1497                    
    1498                    
    1499                    $C$DW$T$137     .dwtag  DW_TAG_enumeration_type
    1500                            .dwattr $C$DW$T$137, DW_AT_name("HwiP_Status")
    1501                            .dwattr $C$DW$T$137, DW_AT_byte_size(0x01)
    1502                    $C$DW$136       .dwtag  DW_TAG_enumerator
    1503                            .dwattr $C$DW$136, DW_AT_name("HwiP_OK")
    1504                            .dwattr $C$DW$136, DW_AT_const_value(0x00)
    1505                            .dwattr $C$DW$136, DW_AT_decl_file("C:/ti/simplelink_cc13x0_sdk_2_30_00_20/source/ti/drivers/d
    1506                            .dwattr $C$DW$136, DW_AT_decl_line(0x5c)
    1507                            .dwattr $C$DW$136, DW_AT_decl_column(0x05)
    1508                    
    1509                    $C$DW$137       .dwtag  DW_TAG_enumerator
    1510                            .dwattr $C$DW$137, DW_AT_name("HwiP_FAILURE")
    1511                            .dwattr $C$DW$137, DW_AT_const_value(-1)
    1512                            .dwattr $C$DW$137, DW_AT_decl_file("C:/ti/simplelink_cc13x0_sdk_2_30_00_20/source/ti/drivers/d
    1513                            .dwattr $C$DW$137, DW_AT_decl_line(0x5d)
    1514                            .dwattr $C$DW$137, DW_AT_decl_column(0x05)
    1515                    
    1516                            .dwattr $C$DW$T$137, DW_AT_decl_file("C:/ti/simplelink_cc13x0_sdk_2_30_00_20/source/ti/drivers
    1517                            .dwattr $C$DW$T$137, DW_AT_decl_line(0x5b)
    1518                            .dwattr $C$DW$T$137, DW_AT_decl_column(0x0e)
    1519                            .dwendtag $C$DW$T$137
    1520                    
    1521                    $C$DW$T$138     .dwtag  DW_TAG_typedef
    1522                            .dwattr $C$DW$T$138, DW_AT_name("HwiP_Status")
    1523                            .dwattr $C$DW$T$138, DW_AT_type(*$C$DW$T$137)
    1524                            .dwattr $C$DW$T$138, DW_AT_language(DW_LANG_C)
    1525                            .dwattr $C$DW$T$138, DW_AT_decl_file("C:/ti/simplelink_cc13x0_sdk_2_30_00_20/source/ti/drivers
    1526                            .dwattr $C$DW$T$138, DW_AT_decl_line(0x5e)
    1527                            .dwattr $C$DW$T$138, DW_AT_decl_column(0x03)
    1528                    
    1529                    
    1530                    $C$DW$T$82      .dwtag  DW_TAG_union_type
    1531                            .dwattr $C$DW$T$82, DW_AT_name("HwiP_Struct")
    1532                            .dwattr $C$DW$T$82, DW_AT_byte_size(0x1c)
    1533                    $C$DW$138       .dwtag  DW_TAG_member
    1534                            .dwattr $C$DW$138, DW_AT_type(*$C$DW$T$23)
    1535                            .dwattr $C$DW$138, DW_AT_name("dummy")
    1536                            .dwattr $C$DW$138, DW_AT_TI_symbol_name("dummy")
    1537                            .dwattr $C$DW$138, DW_AT_data_member_location[DW_OP_plus_uconst 0x0]
    1538                            .dwattr $C$DW$138, DW_AT_accessibility(DW_ACCESS_public)
    1539                            .dwattr $C$DW$138, DW_AT_decl_file("C:/ti/simplelink_cc13x0_sdk_2_30_00_20/source/ti/drivers/d
    1540                            .dwattr $C$DW$138, DW_AT_decl_line(0x4d)
TI ARM Assembler PC v18.1.3 Wed Nov 28 13:22:09 2018

Tools Copyright (c) 1996-2017 Texas Instruments Incorporated
C:\Users\Adrian\AppData\Local\Temp\{F87BBCDE-FD87-4EF2-8C66-DFD97B5C0FAE} PAGE   29

    1541                            .dwattr $C$DW$138, DW_AT_decl_column(0x0e)
    1542                    
    1543                    $C$DW$139       .dwtag  DW_TAG_member
    1544                            .dwattr $C$DW$139, DW_AT_type(*$C$DW$T$81)
    1545                            .dwattr $C$DW$139, DW_AT_name("data")
    1546                            .dwattr $C$DW$139, DW_AT_TI_symbol_name("data")
    1547                            .dwattr $C$DW$139, DW_AT_data_member_location[DW_OP_plus_uconst 0x0]
    1548                            .dwattr $C$DW$139, DW_AT_accessibility(DW_ACCESS_public)
    1549                            .dwattr $C$DW$139, DW_AT_decl_file("C:/ti/simplelink_cc13x0_sdk_2_30_00_20/source/ti/drivers/d
    1550                            .dwattr $C$DW$139, DW_AT_decl_line(0x4e)
    1551                            .dwattr $C$DW$139, DW_AT_decl_column(0x0e)
    1552                    
    1553                            .dwattr $C$DW$T$82, DW_AT_decl_file("C:/ti/simplelink_cc13x0_sdk_2_30_00_20/source/ti/drivers/
    1554                            .dwattr $C$DW$T$82, DW_AT_decl_line(0x4c)
    1555                            .dwattr $C$DW$T$82, DW_AT_decl_column(0x0f)
    1556                            .dwendtag $C$DW$T$82
    1557                    
    1558                    $C$DW$T$139     .dwtag  DW_TAG_typedef
    1559                            .dwattr $C$DW$T$139, DW_AT_name("HwiP_Struct")
    1560                            .dwattr $C$DW$T$139, DW_AT_type(*$C$DW$T$82)
    1561                            .dwattr $C$DW$T$139, DW_AT_language(DW_LANG_C)
    1562                            .dwattr $C$DW$T$139, DW_AT_decl_file("C:/ti/simplelink_cc13x0_sdk_2_30_00_20/source/ti/drivers
    1563                            .dwattr $C$DW$T$139, DW_AT_decl_line(0x4f)
    1564                            .dwattr $C$DW$T$139, DW_AT_decl_column(0x03)
    1565                    
    1566                    
    1567                    $C$DW$T$83      .dwtag  DW_TAG_structure_type
    1568                            .dwattr $C$DW$T$83, DW_AT_name("PINCC26XX_HWAttrs")
    1569                            .dwattr $C$DW$T$83, DW_AT_byte_size(0x08)
    1570                    $C$DW$140       .dwtag  DW_TAG_member
    1571                            .dwattr $C$DW$140, DW_AT_type(*$C$DW$T$25)
    1572                            .dwattr $C$DW$140, DW_AT_name("intPriority")
    1573                            .dwattr $C$DW$140, DW_AT_TI_symbol_name("intPriority")
    1574                            .dwattr $C$DW$140, DW_AT_data_member_location[DW_OP_plus_uconst 0x0]
    1575                            .dwattr $C$DW$140, DW_AT_accessibility(DW_ACCESS_public)
    1576                            .dwattr $C$DW$140, DW_AT_decl_file("C:/ti/simplelink_cc13x0_sdk_2_30_00_20/source/ti/drivers/p
    1577                            .dwattr $C$DW$140, DW_AT_decl_line(0x175)
    1578                            .dwattr $C$DW$140, DW_AT_decl_column(0x16)
    1579                    
    1580                    $C$DW$141       .dwtag  DW_TAG_member
    1581                            .dwattr $C$DW$141, DW_AT_type(*$C$DW$T$23)
    1582                            .dwattr $C$DW$141, DW_AT_name("swiPriority")
    1583                            .dwattr $C$DW$141, DW_AT_TI_symbol_name("swiPriority")
    1584                            .dwattr $C$DW$141, DW_AT_data_member_location[DW_OP_plus_uconst 0x4]
    1585                            .dwattr $C$DW$141, DW_AT_accessibility(DW_ACCESS_public)
    1586                            .dwattr $C$DW$141, DW_AT_decl_file("C:/ti/simplelink_cc13x0_sdk_2_30_00_20/source/ti/drivers/p
    1587                            .dwattr $C$DW$141, DW_AT_decl_line(0x17b)
    1588                            .dwattr $C$DW$141, DW_AT_decl_column(0x16)
    1589                    
    1590                            .dwattr $C$DW$T$83, DW_AT_decl_file("C:/ti/simplelink_cc13x0_sdk_2_30_00_20/source/ti/drivers/
    1591                            .dwattr $C$DW$T$83, DW_AT_decl_line(0x167)
    1592                            .dwattr $C$DW$T$83, DW_AT_decl_column(0x10)
    1593                            .dwendtag $C$DW$T$83
    1594                    
    1595                    $C$DW$T$140     .dwtag  DW_TAG_typedef
TI ARM Assembler PC v18.1.3 Wed Nov 28 13:22:09 2018

Tools Copyright (c) 1996-2017 Texas Instruments Incorporated
C:\Users\Adrian\AppData\Local\Temp\{F87BBCDE-FD87-4EF2-8C66-DFD97B5C0FAE} PAGE   30

    1596                            .dwattr $C$DW$T$140, DW_AT_name("PINCC26XX_HWAttrs")
    1597                            .dwattr $C$DW$T$140, DW_AT_type(*$C$DW$T$83)
    1598                            .dwattr $C$DW$T$140, DW_AT_language(DW_LANG_C)
    1599                            .dwattr $C$DW$T$140, DW_AT_decl_file("C:/ti/simplelink_cc13x0_sdk_2_30_00_20/source/ti/drivers
    1600                            .dwattr $C$DW$T$140, DW_AT_decl_line(0x17c)
    1601                            .dwattr $C$DW$T$140, DW_AT_decl_column(0x03)
    1602                    
    1603                    
    1604                    $C$DW$T$91      .dwtag  DW_TAG_structure_type
    1605                            .dwattr $C$DW$T$91, DW_AT_name("PIN_State_s")
    1606                            .dwattr $C$DW$T$91, DW_AT_byte_size(0x0c)
    1607                    $C$DW$142       .dwtag  DW_TAG_member
    1608                            .dwattr $C$DW$142, DW_AT_type(*$C$DW$T$90)
    1609                            .dwattr $C$DW$142, DW_AT_name("callbackFxn")
    1610                            .dwattr $C$DW$142, DW_AT_TI_symbol_name("callbackFxn")
    1611                            .dwattr $C$DW$142, DW_AT_data_member_location[DW_OP_plus_uconst 0x0]
    1612                            .dwattr $C$DW$142, DW_AT_accessibility(DW_ACCESS_public)
    1613                            .dwattr $C$DW$142, DW_AT_decl_file("C:/ti/simplelink_cc13x0_sdk_2_30_00_20/source/ti/drivers/P
    1614                            .dwattr $C$DW$142, DW_AT_decl_line(0x2c5)
    1615                            .dwattr $C$DW$142, DW_AT_decl_column(0x11)
    1616                    
    1617                    $C$DW$143       .dwtag  DW_TAG_member
    1618                            .dwattr $C$DW$143, DW_AT_type(*$C$DW$T$23)
    1619                            .dwattr $C$DW$143, DW_AT_name("portMask")
    1620                            .dwattr $C$DW$143, DW_AT_TI_symbol_name("portMask")
    1621                            .dwattr $C$DW$143, DW_AT_data_member_location[DW_OP_plus_uconst 0x4]
    1622                            .dwattr $C$DW$143, DW_AT_accessibility(DW_ACCESS_public)
    1623                            .dwattr $C$DW$143, DW_AT_decl_file("C:/ti/simplelink_cc13x0_sdk_2_30_00_20/source/ti/drivers/P
    1624                            .dwattr $C$DW$143, DW_AT_decl_line(0x2c6)
    1625                            .dwattr $C$DW$143, DW_AT_decl_column(0x11)
    1626                    
    1627                    $C$DW$144       .dwtag  DW_TAG_member
    1628                            .dwattr $C$DW$144, DW_AT_type(*$C$DW$T$77)
    1629                            .dwattr $C$DW$144, DW_AT_name("userArg")
    1630                            .dwattr $C$DW$144, DW_AT_TI_symbol_name("userArg")
    1631                            .dwattr $C$DW$144, DW_AT_data_member_location[DW_OP_plus_uconst 0x8]
    1632                            .dwattr $C$DW$144, DW_AT_accessibility(DW_ACCESS_public)
    1633                            .dwattr $C$DW$144, DW_AT_decl_file("C:/ti/simplelink_cc13x0_sdk_2_30_00_20/source/ti/drivers/P
    1634                            .dwattr $C$DW$144, DW_AT_decl_line(0x2c7)
    1635                            .dwattr $C$DW$144, DW_AT_decl_column(0x11)
    1636                    
    1637                            .dwattr $C$DW$T$91, DW_AT_decl_file("C:/ti/simplelink_cc13x0_sdk_2_30_00_20/source/ti/drivers/
    1638                            .dwattr $C$DW$T$91, DW_AT_decl_line(0x2c4)
    1639                            .dwattr $C$DW$T$91, DW_AT_decl_column(0x08)
    1640                            .dwendtag $C$DW$T$91
    1641                    
    1642                    $C$DW$T$84      .dwtag  DW_TAG_typedef
    1643                            .dwattr $C$DW$T$84, DW_AT_name("PIN_State")
    1644                            .dwattr $C$DW$T$84, DW_AT_type(*$C$DW$T$91)
    1645                            .dwattr $C$DW$T$84, DW_AT_language(DW_LANG_C)
    1646                            .dwattr $C$DW$T$84, DW_AT_decl_file("C:/ti/simplelink_cc13x0_sdk_2_30_00_20/source/ti/drivers/
    1647                            .dwattr $C$DW$T$84, DW_AT_decl_line(0x2ad)
    1648                            .dwattr $C$DW$T$84, DW_AT_decl_column(0x1c)
    1649                    
    1650                    $C$DW$T$85      .dwtag  DW_TAG_pointer_type
TI ARM Assembler PC v18.1.3 Wed Nov 28 13:22:09 2018

Tools Copyright (c) 1996-2017 Texas Instruments Incorporated
C:\Users\Adrian\AppData\Local\Temp\{F87BBCDE-FD87-4EF2-8C66-DFD97B5C0FAE} PAGE   31

    1651                            .dwattr $C$DW$T$85, DW_AT_type(*$C$DW$T$84)
    1652                            .dwattr $C$DW$T$85, DW_AT_address_class(0x20)
    1653                    
    1654                    $C$DW$T$86      .dwtag  DW_TAG_typedef
    1655                            .dwattr $C$DW$T$86, DW_AT_name("PIN_Handle")
    1656                            .dwattr $C$DW$T$86, DW_AT_type(*$C$DW$T$85)
    1657                            .dwattr $C$DW$T$86, DW_AT_language(DW_LANG_C)
    1658                            .dwattr $C$DW$T$86, DW_AT_decl_file("C:/ti/simplelink_cc13x0_sdk_2_30_00_20/source/ti/drivers/
    1659                            .dwattr $C$DW$T$86, DW_AT_decl_line(0x2b3)
    1660                            .dwattr $C$DW$T$86, DW_AT_decl_column(0x14)
    1661                    
    1662                    $C$DW$T$73      .dwtag  DW_TAG_pointer_type
    1663                            .dwattr $C$DW$T$73, DW_AT_type(*$C$DW$T$91)
    1664                            .dwattr $C$DW$T$73, DW_AT_address_class(0x20)
    1665                    
    1666                    $C$DW$T$2       .dwtag  DW_TAG_unspecified_type
    1667                            .dwattr $C$DW$T$2, DW_AT_name("void")
    1668                    
    1669                    $C$DW$T$3       .dwtag  DW_TAG_pointer_type
    1670                            .dwattr $C$DW$T$3, DW_AT_type(*$C$DW$T$2)
    1671                            .dwattr $C$DW$T$3, DW_AT_address_class(0x20)
    1672                    
    1673                    $C$DW$T$148     .dwtag  DW_TAG_typedef
    1674                            .dwattr $C$DW$T$148, DW_AT_name("HwiP_Handle")
    1675                            .dwattr $C$DW$T$148, DW_AT_type(*$C$DW$T$3)
    1676                            .dwattr $C$DW$T$148, DW_AT_language(DW_LANG_C)
    1677                            .dwattr $C$DW$T$148, DW_AT_decl_file("C:/ti/simplelink_cc13x0_sdk_2_30_00_20/source/ti/drivers
    1678                            .dwattr $C$DW$T$148, DW_AT_decl_line(0x56)
    1679                            .dwattr $C$DW$T$148, DW_AT_decl_column(0x10)
    1680                    
    1681                    $C$DW$T$149     .dwtag  DW_TAG_typedef
    1682                            .dwattr $C$DW$T$149, DW_AT_name("xdc_Ptr")
    1683                            .dwattr $C$DW$T$149, DW_AT_type(*$C$DW$T$3)
    1684                            .dwattr $C$DW$T$149, DW_AT_language(DW_LANG_C)
    1685                            .dwattr $C$DW$T$149, DW_AT_decl_file("C:/ti/xdctools_3_50_08_24_core/packages/xdc/std.h")
    1686                            .dwattr $C$DW$T$149, DW_AT_decl_line(0x2e)
    1687                            .dwattr $C$DW$T$149, DW_AT_decl_column(0x1a)
    1688                    
    1689                    $C$DW$T$150     .dwtag  DW_TAG_typedef
    1690                            .dwattr $C$DW$T$150, DW_AT_name("Ptr")
    1691                            .dwattr $C$DW$T$150, DW_AT_type(*$C$DW$T$149)
    1692                            .dwattr $C$DW$T$150, DW_AT_language(DW_LANG_C)
    1693                            .dwattr $C$DW$T$150, DW_AT_decl_file("C:/ti/xdctools_3_50_08_24_core/packages/xdc/std.h")
    1694                            .dwattr $C$DW$T$150, DW_AT_decl_line(0xf7)
    1695                            .dwattr $C$DW$T$150, DW_AT_decl_column(0x19)
    1696                    
    1697                    
    1698                    $C$DW$T$39      .dwtag  DW_TAG_subroutine_type
    1699                            .dwattr $C$DW$T$39, DW_AT_language(DW_LANG_C)
    1700                            .dwendtag $C$DW$T$39
    1701                    
    1702                    $C$DW$T$40      .dwtag  DW_TAG_pointer_type
    1703                            .dwattr $C$DW$T$40, DW_AT_type(*$C$DW$T$39)
    1704                            .dwattr $C$DW$T$40, DW_AT_address_class(0x20)
    1705                    
TI ARM Assembler PC v18.1.3 Wed Nov 28 13:22:09 2018

Tools Copyright (c) 1996-2017 Texas Instruments Incorporated
C:\Users\Adrian\AppData\Local\Temp\{F87BBCDE-FD87-4EF2-8C66-DFD97B5C0FAE} PAGE   32

    1706                    $C$DW$T$59      .dwtag  DW_TAG_typedef
    1707                            .dwattr $C$DW$T$59, DW_AT_name("FPTR_HFSOURCESAFESWITCH_T")
    1708                            .dwattr $C$DW$T$59, DW_AT_type(*$C$DW$T$40)
    1709                            .dwattr $C$DW$T$59, DW_AT_language(DW_LANG_C)
    1710                            .dwattr $C$DW$T$59, DW_AT_decl_file("C:\ti\simplelink_cc13x0_sdk_2_30_00_20\source\ti\devices\
    1711                            .dwattr $C$DW$T$59, DW_AT_decl_line(0x5f)
    1712                            .dwattr $C$DW$T$59, DW_AT_decl_column(0x19)
    1713                    
    1714                    $C$DW$T$41      .dwtag  DW_TAG_typedef
    1715                            .dwattr $C$DW$T$41, DW_AT_name("FPTR_RESETDEV_T")
    1716                            .dwattr $C$DW$T$41, DW_AT_type(*$C$DW$T$40)
    1717                            .dwattr $C$DW$T$41, DW_AT_language(DW_LANG_C)
    1718                            .dwattr $C$DW$T$41, DW_AT_decl_file("C:\ti\simplelink_cc13x0_sdk_2_30_00_20\source\ti\devices\
    1719                            .dwattr $C$DW$T$41, DW_AT_decl_line(0x4d)
    1720                            .dwattr $C$DW$T$41, DW_AT_decl_column(0x19)
    1721                    
    1722                    $C$DW$T$151     .dwtag  DW_TAG_typedef
    1723                            .dwattr $C$DW$T$151, DW_AT_name("FPTR_VOID_VOID_T")
    1724                            .dwattr $C$DW$T$151, DW_AT_type(*$C$DW$T$40)
    1725                            .dwattr $C$DW$T$151, DW_AT_language(DW_LANG_C)
    1726                            .dwattr $C$DW$T$151, DW_AT_decl_file("C:\ti\simplelink_cc13x0_sdk_2_30_00_20\source\ti\devices
    1727                            .dwattr $C$DW$T$151, DW_AT_decl_line(0x33)
    1728                            .dwattr $C$DW$T$151, DW_AT_decl_column(0x11)
    1729                    
    1730                    
    1731                    $C$DW$T$55      .dwtag  DW_TAG_subroutine_type
    1732                            .dwattr $C$DW$T$55, DW_AT_language(DW_LANG_C)
    1733                    $C$DW$145       .dwtag  DW_TAG_formal_parameter
    1734                            .dwattr $C$DW$145, DW_AT_type(*$C$DW$T$23)
    1735                    
    1736                            .dwendtag $C$DW$T$55
    1737                    
    1738                    $C$DW$T$56      .dwtag  DW_TAG_pointer_type
    1739                            .dwattr $C$DW$T$56, DW_AT_type(*$C$DW$T$55)
    1740                            .dwattr $C$DW$T$56, DW_AT_address_class(0x20)
    1741                    
    1742                    $C$DW$T$57      .dwtag  DW_TAG_typedef
    1743                            .dwattr $C$DW$T$57, DW_AT_name("FPTR_RESERVED4_T")
    1744                            .dwattr $C$DW$T$57, DW_AT_type(*$C$DW$T$56)
    1745                            .dwattr $C$DW$T$57, DW_AT_language(DW_LANG_C)
    1746                            .dwattr $C$DW$T$57, DW_AT_decl_file("C:\ti\simplelink_cc13x0_sdk_2_30_00_20\source\ti\devices\
    1747                            .dwattr $C$DW$T$57, DW_AT_decl_line(0x61)
    1748                            .dwattr $C$DW$T$57, DW_AT_decl_column(0x19)
    1749                    
    1750                    $C$DW$T$58      .dwtag  DW_TAG_typedef
    1751                            .dwattr $C$DW$T$58, DW_AT_name("FPTR_RESERVED5_T")
    1752                            .dwattr $C$DW$T$58, DW_AT_type(*$C$DW$T$56)
    1753                            .dwattr $C$DW$T$58, DW_AT_language(DW_LANG_C)
    1754                            .dwattr $C$DW$T$58, DW_AT_decl_file("C:\ti\simplelink_cc13x0_sdk_2_30_00_20\source\ti\devices\
    1755                            .dwattr $C$DW$T$58, DW_AT_decl_line(0x63)
    1756                            .dwattr $C$DW$T$58, DW_AT_decl_column(0x19)
    1757                    
    1758                    
    1759                    $C$DW$T$60      .dwtag  DW_TAG_subroutine_type
    1760                            .dwattr $C$DW$T$60, DW_AT_language(DW_LANG_C)
TI ARM Assembler PC v18.1.3 Wed Nov 28 13:22:09 2018

Tools Copyright (c) 1996-2017 Texas Instruments Incorporated
C:\Users\Adrian\AppData\Local\Temp\{F87BBCDE-FD87-4EF2-8C66-DFD97B5C0FAE} PAGE   33

    1761                    $C$DW$146       .dwtag  DW_TAG_formal_parameter
    1762                            .dwattr $C$DW$146, DW_AT_type(*$C$DW$T$25)
    1763                    
    1764                            .dwendtag $C$DW$T$60
    1765                    
    1766                    $C$DW$T$61      .dwtag  DW_TAG_pointer_type
    1767                            .dwattr $C$DW$T$61, DW_AT_type(*$C$DW$T$60)
    1768                            .dwattr $C$DW$T$61, DW_AT_address_class(0x20)
    1769                    
    1770                    $C$DW$T$64      .dwtag  DW_TAG_typedef
    1771                            .dwattr $C$DW$T$64, DW_AT_name("FPTR_ADCCOMPBIN_T")
    1772                            .dwattr $C$DW$T$64, DW_AT_type(*$C$DW$T$61)
    1773                            .dwattr $C$DW$T$64, DW_AT_language(DW_LANG_C)
    1774                            .dwattr $C$DW$T$64, DW_AT_decl_file("C:\ti\simplelink_cc13x0_sdk_2_30_00_20\source\ti\devices\
    1775                            .dwattr $C$DW$T$64, DW_AT_decl_line(0x69)
    1776                            .dwattr $C$DW$T$64, DW_AT_decl_column(0x19)
    1777                    
    1778                    $C$DW$T$62      .dwtag  DW_TAG_typedef
    1779                            .dwattr $C$DW$T$62, DW_AT_name("FPTR_COMPAIN_T")
    1780                            .dwattr $C$DW$T$62, DW_AT_type(*$C$DW$T$61)
    1781                            .dwattr $C$DW$T$62, DW_AT_language(DW_LANG_C)
    1782                            .dwattr $C$DW$T$62, DW_AT_decl_file("C:\ti\simplelink_cc13x0_sdk_2_30_00_20\source\ti\devices\
    1783                            .dwattr $C$DW$T$62, DW_AT_decl_line(0x65)
    1784                            .dwattr $C$DW$T$62, DW_AT_decl_column(0x19)
    1785                    
    1786                    $C$DW$T$63      .dwtag  DW_TAG_typedef
    1787                            .dwattr $C$DW$T$63, DW_AT_name("FPTR_COMPAREF_T")
    1788                            .dwattr $C$DW$T$63, DW_AT_type(*$C$DW$T$61)
    1789                            .dwattr $C$DW$T$63, DW_AT_language(DW_LANG_C)
    1790                            .dwattr $C$DW$T$63, DW_AT_decl_file("C:\ti\simplelink_cc13x0_sdk_2_30_00_20\source\ti\devices\
    1791                            .dwattr $C$DW$T$63, DW_AT_decl_line(0x67)
    1792                            .dwattr $C$DW$T$63, DW_AT_decl_column(0x19)
    1793                    
    1794                    $C$DW$T$65      .dwtag  DW_TAG_typedef
    1795                            .dwattr $C$DW$T$65, DW_AT_name("FPTR_COMPBREF_T")
    1796                            .dwattr $C$DW$T$65, DW_AT_type(*$C$DW$T$61)
    1797                            .dwattr $C$DW$T$65, DW_AT_language(DW_LANG_C)
    1798                            .dwattr $C$DW$T$65, DW_AT_decl_file("C:\ti\simplelink_cc13x0_sdk_2_30_00_20\source\ti\devices\
    1799                            .dwattr $C$DW$T$65, DW_AT_decl_line(0x6b)
    1800                            .dwattr $C$DW$T$65, DW_AT_decl_column(0x19)
    1801                    
    1802                    $C$DW$T$152     .dwtag  DW_TAG_typedef
    1803                            .dwattr $C$DW$T$152, DW_AT_name("FPTR_VOID_UINT8_T")
    1804                            .dwattr $C$DW$T$152, DW_AT_type(*$C$DW$T$61)
    1805                            .dwattr $C$DW$T$152, DW_AT_language(DW_LANG_C)
    1806                            .dwattr $C$DW$T$152, DW_AT_decl_file("C:\ti\simplelink_cc13x0_sdk_2_30_00_20\source\ti\devices
    1807                            .dwattr $C$DW$T$152, DW_AT_decl_line(0x34)
    1808                            .dwattr $C$DW$T$152, DW_AT_decl_column(0x11)
    1809                    
    1810                    
    1811                    $C$DW$T$88      .dwtag  DW_TAG_subroutine_type
    1812                            .dwattr $C$DW$T$88, DW_AT_language(DW_LANG_C)
    1813                    $C$DW$147       .dwtag  DW_TAG_formal_parameter
    1814                            .dwattr $C$DW$147, DW_AT_type(*$C$DW$T$86)
    1815                    
TI ARM Assembler PC v18.1.3 Wed Nov 28 13:22:09 2018

Tools Copyright (c) 1996-2017 Texas Instruments Incorporated
C:\Users\Adrian\AppData\Local\Temp\{F87BBCDE-FD87-4EF2-8C66-DFD97B5C0FAE} PAGE   34

    1816                    $C$DW$148       .dwtag  DW_TAG_formal_parameter
    1817                            .dwattr $C$DW$148, DW_AT_type(*$C$DW$T$87)
    1818                    
    1819                            .dwendtag $C$DW$T$88
    1820                    
    1821                    $C$DW$T$89      .dwtag  DW_TAG_pointer_type
    1822                            .dwattr $C$DW$T$89, DW_AT_type(*$C$DW$T$88)
    1823                            .dwattr $C$DW$T$89, DW_AT_address_class(0x20)
    1824                    
    1825                    $C$DW$T$90      .dwtag  DW_TAG_typedef
    1826                            .dwattr $C$DW$T$90, DW_AT_name("PIN_IntCb")
    1827                            .dwattr $C$DW$T$90, DW_AT_type(*$C$DW$T$89)
    1828                            .dwattr $C$DW$T$90, DW_AT_language(DW_LANG_C)
    1829                            .dwattr $C$DW$T$90, DW_AT_decl_file("C:/ti/simplelink_cc13x0_sdk_2_30_00_20/source/ti/drivers/
    1830                            .dwattr $C$DW$T$90, DW_AT_decl_line(0x2bf)
    1831                            .dwattr $C$DW$T$90, DW_AT_decl_column(0x10)
    1832                    
    1833                    $C$DW$T$153     .dwtag  DW_TAG_const_type
    1834                            .dwattr $C$DW$T$153, DW_AT_type(*$C$DW$T$2)
    1835                    
    1836                    $C$DW$T$154     .dwtag  DW_TAG_pointer_type
    1837                            .dwattr $C$DW$T$154, DW_AT_type(*$C$DW$T$153)
    1838                            .dwattr $C$DW$T$154, DW_AT_address_class(0x20)
    1839                    
    1840                    $C$DW$T$155     .dwtag  DW_TAG_typedef
    1841                            .dwattr $C$DW$T$155, DW_AT_name("xdc_CPtr")
    1842                            .dwattr $C$DW$T$155, DW_AT_type(*$C$DW$T$154)
    1843                            .dwattr $C$DW$T$155, DW_AT_language(DW_LANG_C)
    1844                            .dwattr $C$DW$T$155, DW_AT_decl_file("C:/ti/xdctools_3_50_08_24_core/packages/xdc/std.h")
    1845                            .dwattr $C$DW$T$155, DW_AT_decl_line(0x2f)
    1846                            .dwattr $C$DW$T$155, DW_AT_decl_column(0x1a)
    1847                    
    1848                    $C$DW$T$156     .dwtag  DW_TAG_typedef
    1849                            .dwattr $C$DW$T$156, DW_AT_name("CPtr")
    1850                            .dwattr $C$DW$T$156, DW_AT_type(*$C$DW$T$155)
    1851                            .dwattr $C$DW$T$156, DW_AT_language(DW_LANG_C)
    1852                            .dwattr $C$DW$T$156, DW_AT_decl_file("C:/ti/xdctools_3_50_08_24_core/packages/xdc/std.h")
    1853                            .dwattr $C$DW$T$156, DW_AT_decl_line(0xf8)
    1854                            .dwattr $C$DW$T$156, DW_AT_decl_column(0x19)
    1855                    
    1856                    
    1857                    $C$DW$T$157     .dwtag  DW_TAG_subroutine_type
    1858                            .dwattr $C$DW$T$157, DW_AT_language(DW_LANG_C)
    1859                    $C$DW$149       .dwtag  DW_TAG_formal_parameter
    1860                            .dwattr $C$DW$149, DW_AT_type(*$C$DW$T$77)
    1861                    
    1862                            .dwendtag $C$DW$T$157
    1863                    
    1864                    $C$DW$T$158     .dwtag  DW_TAG_pointer_type
    1865                            .dwattr $C$DW$T$158, DW_AT_type(*$C$DW$T$157)
    1866                            .dwattr $C$DW$T$158, DW_AT_address_class(0x20)
    1867                    
    1868                    $C$DW$T$159     .dwtag  DW_TAG_typedef
    1869                            .dwattr $C$DW$T$159, DW_AT_name("HwiP_Fxn")
    1870                            .dwattr $C$DW$T$159, DW_AT_type(*$C$DW$T$158)
TI ARM Assembler PC v18.1.3 Wed Nov 28 13:22:09 2018

Tools Copyright (c) 1996-2017 Texas Instruments Incorporated
C:\Users\Adrian\AppData\Local\Temp\{F87BBCDE-FD87-4EF2-8C66-DFD97B5C0FAE} PAGE   35

    1871                            .dwattr $C$DW$T$159, DW_AT_language(DW_LANG_C)
    1872                            .dwattr $C$DW$T$159, DW_AT_decl_file("C:/ti/simplelink_cc13x0_sdk_2_30_00_20/source/ti/drivers
    1873                            .dwattr $C$DW$T$159, DW_AT_decl_line(0x63)
    1874                            .dwattr $C$DW$T$159, DW_AT_decl_column(0x10)
    1875                    
    1876                    $C$DW$T$4       .dwtag  DW_TAG_base_type
    1877                            .dwattr $C$DW$T$4, DW_AT_encoding(DW_ATE_boolean)
    1878                            .dwattr $C$DW$T$4, DW_AT_name("bool")
    1879                            .dwattr $C$DW$T$4, DW_AT_byte_size(0x01)
    1880                    
    1881                    $C$DW$T$5       .dwtag  DW_TAG_base_type
    1882                            .dwattr $C$DW$T$5, DW_AT_encoding(DW_ATE_signed_char)
    1883                            .dwattr $C$DW$T$5, DW_AT_name("signed char")
    1884                            .dwattr $C$DW$T$5, DW_AT_byte_size(0x01)
    1885                    
    1886                    $C$DW$T$160     .dwtag  DW_TAG_typedef
    1887                            .dwattr $C$DW$T$160, DW_AT_name("__int8_t")
    1888                            .dwattr $C$DW$T$160, DW_AT_type(*$C$DW$T$5)
    1889                            .dwattr $C$DW$T$160, DW_AT_language(DW_LANG_C)
    1890                            .dwattr $C$DW$T$160, DW_AT_decl_file("C:/ti/ccsv8/tools/compiler/ti-cgt-arm_18.1.3.LTS/include
    1891                            .dwattr $C$DW$T$160, DW_AT_decl_line(0x39)
    1892                            .dwattr $C$DW$T$160, DW_AT_decl_column(0x16)
    1893                    
    1894                    $C$DW$T$161     .dwtag  DW_TAG_typedef
    1895                            .dwattr $C$DW$T$161, DW_AT_name("__int_least8_t")
    1896                            .dwattr $C$DW$T$161, DW_AT_type(*$C$DW$T$160)
    1897                            .dwattr $C$DW$T$161, DW_AT_language(DW_LANG_C)
    1898                            .dwattr $C$DW$T$161, DW_AT_decl_file("C:/ti/ccsv8/tools/compiler/ti-cgt-arm_18.1.3.LTS/include
    1899                            .dwattr $C$DW$T$161, DW_AT_decl_line(0x58)
    1900                            .dwattr $C$DW$T$161, DW_AT_decl_column(0x12)
    1901                    
    1902                    $C$DW$T$162     .dwtag  DW_TAG_typedef
    1903                            .dwattr $C$DW$T$162, DW_AT_name("int_least8_t")
    1904                            .dwattr $C$DW$T$162, DW_AT_type(*$C$DW$T$161)
    1905                            .dwattr $C$DW$T$162, DW_AT_language(DW_LANG_C)
    1906                            .dwattr $C$DW$T$162, DW_AT_decl_file("C:/ti/ccsv8/tools/compiler/ti-cgt-arm_18.1.3.LTS/include
    1907                            .dwattr $C$DW$T$162, DW_AT_decl_line(0x28)
    1908                            .dwattr $C$DW$T$162, DW_AT_decl_column(0x19)
    1909                    
    1910                    $C$DW$T$163     .dwtag  DW_TAG_typedef
    1911                            .dwattr $C$DW$T$163, DW_AT_name("xdc_Int8")
    1912                            .dwattr $C$DW$T$163, DW_AT_type(*$C$DW$T$162)
    1913                            .dwattr $C$DW$T$163, DW_AT_language(DW_LANG_C)
    1914                            .dwattr $C$DW$T$163, DW_AT_decl_file("C:/ti/simplelink_cc13x0_sdk_2_30_00_20/kernel/tirtos/pac
    1915                            .dwattr $C$DW$T$163, DW_AT_decl_line(0x6c)
    1916                            .dwattr $C$DW$T$163, DW_AT_decl_column(0x19)
    1917                    
    1918                    $C$DW$T$164     .dwtag  DW_TAG_typedef
    1919                            .dwattr $C$DW$T$164, DW_AT_name("Int8")
    1920                            .dwattr $C$DW$T$164, DW_AT_type(*$C$DW$T$163)
    1921                            .dwattr $C$DW$T$164, DW_AT_language(DW_LANG_C)
    1922                            .dwattr $C$DW$T$164, DW_AT_decl_file("C:/ti/xdctools_3_50_08_24_core/packages/xdc/std.h")
    1923                            .dwattr $C$DW$T$164, DW_AT_decl_line(0xf3)
    1924                            .dwattr $C$DW$T$164, DW_AT_decl_column(0x19)
    1925                    
TI ARM Assembler PC v18.1.3 Wed Nov 28 13:22:09 2018

Tools Copyright (c) 1996-2017 Texas Instruments Incorporated
C:\Users\Adrian\AppData\Local\Temp\{F87BBCDE-FD87-4EF2-8C66-DFD97B5C0FAE} PAGE   36

    1926                    $C$DW$T$165     .dwtag  DW_TAG_typedef
    1927                            .dwattr $C$DW$T$165, DW_AT_name("int8_t")
    1928                            .dwattr $C$DW$T$165, DW_AT_type(*$C$DW$T$160)
    1929                            .dwattr $C$DW$T$165, DW_AT_language(DW_LANG_C)
    1930                            .dwattr $C$DW$T$165, DW_AT_decl_file("C:/ti/ccsv8/tools/compiler/ti-cgt-arm_18.1.3.LTS/include
    1931                            .dwattr $C$DW$T$165, DW_AT_decl_line(0x24)
    1932                            .dwattr $C$DW$T$165, DW_AT_decl_column(0x13)
    1933                    
    1934                    $C$DW$T$6       .dwtag  DW_TAG_base_type
    1935                            .dwattr $C$DW$T$6, DW_AT_encoding(DW_ATE_unsigned_char)
    1936                            .dwattr $C$DW$T$6, DW_AT_name("unsigned char")
    1937                            .dwattr $C$DW$T$6, DW_AT_byte_size(0x01)
    1938                    
    1939                    $C$DW$T$24      .dwtag  DW_TAG_typedef
    1940                            .dwattr $C$DW$T$24, DW_AT_name("__uint8_t")
    1941                            .dwattr $C$DW$T$24, DW_AT_type(*$C$DW$T$6)
    1942                            .dwattr $C$DW$T$24, DW_AT_language(DW_LANG_C)
    1943                            .dwattr $C$DW$T$24, DW_AT_decl_file("C:/ti/ccsv8/tools/compiler/ti-cgt-arm_18.1.3.LTS/include/
    1944                            .dwattr $C$DW$T$24, DW_AT_decl_line(0x3a)
    1945                            .dwattr $C$DW$T$24, DW_AT_decl_column(0x18)
    1946                    
    1947                    $C$DW$T$166     .dwtag  DW_TAG_typedef
    1948                            .dwattr $C$DW$T$166, DW_AT_name("__sa_family_t")
    1949                            .dwattr $C$DW$T$166, DW_AT_type(*$C$DW$T$24)
    1950                            .dwattr $C$DW$T$166, DW_AT_language(DW_LANG_C)
    1951                            .dwattr $C$DW$T$166, DW_AT_decl_file("C:/ti/ccsv8/tools/compiler/ti-cgt-arm_18.1.3.LTS/include
    1952                            .dwattr $C$DW$T$166, DW_AT_decl_line(0x43)
    1953                            .dwattr $C$DW$T$166, DW_AT_decl_column(0x13)
    1954                    
    1955                    $C$DW$T$167     .dwtag  DW_TAG_typedef
    1956                            .dwattr $C$DW$T$167, DW_AT_name("__uint_least8_t")
    1957                            .dwattr $C$DW$T$167, DW_AT_type(*$C$DW$T$24)
    1958                            .dwattr $C$DW$T$167, DW_AT_language(DW_LANG_C)
    1959                            .dwattr $C$DW$T$167, DW_AT_decl_file("C:/ti/ccsv8/tools/compiler/ti-cgt-arm_18.1.3.LTS/include
    1960                            .dwattr $C$DW$T$167, DW_AT_decl_line(0x6d)
    1961                            .dwattr $C$DW$T$167, DW_AT_decl_column(0x13)
    1962                    
    1963                    $C$DW$T$168     .dwtag  DW_TAG_typedef
    1964                            .dwattr $C$DW$T$168, DW_AT_name("uint_least8_t")
    1965                            .dwattr $C$DW$T$168, DW_AT_type(*$C$DW$T$167)
    1966                            .dwattr $C$DW$T$168, DW_AT_language(DW_LANG_C)
    1967                            .dwattr $C$DW$T$168, DW_AT_decl_file("C:/ti/ccsv8/tools/compiler/ti-cgt-arm_18.1.3.LTS/include
    1968                            .dwattr $C$DW$T$168, DW_AT_decl_line(0x2d)
    1969                            .dwattr $C$DW$T$168, DW_AT_decl_column(0x1a)
    1970                    
    1971                    $C$DW$T$169     .dwtag  DW_TAG_typedef
    1972                            .dwattr $C$DW$T$169, DW_AT_name("xdc_UInt8")
    1973                            .dwattr $C$DW$T$169, DW_AT_type(*$C$DW$T$168)
    1974                            .dwattr $C$DW$T$169, DW_AT_language(DW_LANG_C)
    1975                            .dwattr $C$DW$T$169, DW_AT_decl_file("C:/ti/simplelink_cc13x0_sdk_2_30_00_20/kernel/tirtos/pac
    1976                            .dwattr $C$DW$T$169, DW_AT_decl_line(0x6d)
    1977                            .dwattr $C$DW$T$169, DW_AT_decl_column(0x19)
    1978                    
    1979                    $C$DW$T$170     .dwtag  DW_TAG_typedef
    1980                            .dwattr $C$DW$T$170, DW_AT_name("UInt8")
TI ARM Assembler PC v18.1.3 Wed Nov 28 13:22:09 2018

Tools Copyright (c) 1996-2017 Texas Instruments Incorporated
C:\Users\Adrian\AppData\Local\Temp\{F87BBCDE-FD87-4EF2-8C66-DFD97B5C0FAE} PAGE   37

    1981                            .dwattr $C$DW$T$170, DW_AT_type(*$C$DW$T$169)
    1982                            .dwattr $C$DW$T$170, DW_AT_language(DW_LANG_C)
    1983                            .dwattr $C$DW$T$170, DW_AT_decl_file("C:/ti/xdctools_3_50_08_24_core/packages/xdc/std.h")
    1984                            .dwattr $C$DW$T$170, DW_AT_decl_line(0xfe)
    1985                            .dwattr $C$DW$T$170, DW_AT_decl_column(0x19)
    1986                    
    1987                    $C$DW$T$171     .dwtag  DW_TAG_typedef
    1988                            .dwattr $C$DW$T$171, DW_AT_name("Uint8")
    1989                            .dwattr $C$DW$T$171, DW_AT_type(*$C$DW$T$169)
    1990                            .dwattr $C$DW$T$171, DW_AT_language(DW_LANG_C)
    1991                            .dwattr $C$DW$T$171, DW_AT_decl_file("C:/ti/xdctools_3_50_08_24_core/packages/xdc/std.h")
    1992                            .dwattr $C$DW$T$171, DW_AT_decl_line(0x10b)
    1993                            .dwattr $C$DW$T$171, DW_AT_decl_column(0x19)
    1994                    
    1995                    $C$DW$T$25      .dwtag  DW_TAG_typedef
    1996                            .dwattr $C$DW$T$25, DW_AT_name("uint8_t")
    1997                            .dwattr $C$DW$T$25, DW_AT_type(*$C$DW$T$24)
    1998                            .dwattr $C$DW$T$25, DW_AT_language(DW_LANG_C)
    1999                            .dwattr $C$DW$T$25, DW_AT_decl_file("C:/ti/ccsv8/tools/compiler/ti-cgt-arm_18.1.3.LTS/include/
    2000                            .dwattr $C$DW$T$25, DW_AT_decl_line(0x38)
    2001                            .dwattr $C$DW$T$25, DW_AT_decl_column(0x14)
    2002                    
    2003                    $C$DW$T$87      .dwtag  DW_TAG_typedef
    2004                            .dwattr $C$DW$T$87, DW_AT_name("PIN_Id")
    2005                            .dwattr $C$DW$T$87, DW_AT_type(*$C$DW$T$25)
    2006                            .dwattr $C$DW$T$87, DW_AT_language(DW_LANG_C)
    2007                            .dwattr $C$DW$T$87, DW_AT_decl_file("C:/ti/simplelink_cc13x0_sdk_2_30_00_20/source/ti/drivers/
    2008                            .dwattr $C$DW$T$87, DW_AT_decl_line(0x241)
    2009                            .dwattr $C$DW$T$87, DW_AT_decl_column(0x11)
    2010                    
    2011                    $C$DW$T$26      .dwtag  DW_TAG_pointer_type
    2012                            .dwattr $C$DW$T$26, DW_AT_type(*$C$DW$T$25)
    2013                            .dwattr $C$DW$T$26, DW_AT_address_class(0x20)
    2014                    
    2015                    $C$DW$T$172     .dwtag  DW_TAG_typedef
    2016                            .dwattr $C$DW$T$172, DW_AT_name("xdc_Bits8")
    2017                            .dwattr $C$DW$T$172, DW_AT_type(*$C$DW$T$25)
    2018                            .dwattr $C$DW$T$172, DW_AT_language(DW_LANG_C)
    2019                            .dwattr $C$DW$T$172, DW_AT_decl_file("C:/ti/simplelink_cc13x0_sdk_2_30_00_20/kernel/tirtos/pac
    2020                            .dwattr $C$DW$T$172, DW_AT_decl_line(0x89)
    2021                            .dwattr $C$DW$T$172, DW_AT_decl_column(0x19)
    2022                    
    2023                    $C$DW$T$173     .dwtag  DW_TAG_typedef
    2024                            .dwattr $C$DW$T$173, DW_AT_name("Bits8")
    2025                            .dwattr $C$DW$T$173, DW_AT_type(*$C$DW$T$172)
    2026                            .dwattr $C$DW$T$173, DW_AT_language(DW_LANG_C)
    2027                            .dwattr $C$DW$T$173, DW_AT_decl_file("C:/ti/xdctools_3_50_08_24_core/packages/xdc/std.h")
    2028                            .dwattr $C$DW$T$173, DW_AT_decl_line(0x11f)
    2029                            .dwattr $C$DW$T$173, DW_AT_decl_column(0x19)
    2030                    
    2031                    $C$DW$T$174     .dwtag  DW_TAG_typedef
    2032                            .dwattr $C$DW$T$174, DW_AT_name("xdc_UChar")
    2033                            .dwattr $C$DW$T$174, DW_AT_type(*$C$DW$T$6)
    2034                            .dwattr $C$DW$T$174, DW_AT_language(DW_LANG_C)
    2035                            .dwattr $C$DW$T$174, DW_AT_decl_file("C:/ti/xdctools_3_50_08_24_core/packages/xdc/std.h")
TI ARM Assembler PC v18.1.3 Wed Nov 28 13:22:09 2018

Tools Copyright (c) 1996-2017 Texas Instruments Incorporated
C:\Users\Adrian\AppData\Local\Temp\{F87BBCDE-FD87-4EF2-8C66-DFD97B5C0FAE} PAGE   38

    2036                            .dwattr $C$DW$T$174, DW_AT_decl_line(0x1e)
    2037                            .dwattr $C$DW$T$174, DW_AT_decl_column(0x19)
    2038                    
    2039                    $C$DW$T$175     .dwtag  DW_TAG_typedef
    2040                            .dwattr $C$DW$T$175, DW_AT_name("UChar")
    2041                            .dwattr $C$DW$T$175, DW_AT_type(*$C$DW$T$174)
    2042                            .dwattr $C$DW$T$175, DW_AT_language(DW_LANG_C)
    2043                            .dwattr $C$DW$T$175, DW_AT_decl_file("C:/ti/xdctools_3_50_08_24_core/packages/xdc/std.h")
    2044                            .dwattr $C$DW$T$175, DW_AT_decl_line(0xe1)
    2045                            .dwattr $C$DW$T$175, DW_AT_decl_column(0x19)
    2046                    
    2047                    $C$DW$T$7       .dwtag  DW_TAG_base_type
    2048                            .dwattr $C$DW$T$7, DW_AT_encoding(DW_ATE_signed_char)
    2049                            .dwattr $C$DW$T$7, DW_AT_name("wchar_t")
    2050                            .dwattr $C$DW$T$7, DW_AT_byte_size(0x02)
    2051                    
    2052                    $C$DW$T$8       .dwtag  DW_TAG_base_type
    2053                            .dwattr $C$DW$T$8, DW_AT_encoding(DW_ATE_signed)
    2054                            .dwattr $C$DW$T$8, DW_AT_name("short")
    2055                            .dwattr $C$DW$T$8, DW_AT_byte_size(0x02)
    2056                    
    2057                    $C$DW$T$176     .dwtag  DW_TAG_typedef
    2058                            .dwattr $C$DW$T$176, DW_AT_name("__int16_t")
    2059                            .dwattr $C$DW$T$176, DW_AT_type(*$C$DW$T$8)
    2060                            .dwattr $C$DW$T$176, DW_AT_language(DW_LANG_C)
    2061                            .dwattr $C$DW$T$176, DW_AT_decl_file("C:/ti/ccsv8/tools/compiler/ti-cgt-arm_18.1.3.LTS/include
    2062                            .dwattr $C$DW$T$176, DW_AT_decl_line(0x3b)
    2063                            .dwattr $C$DW$T$176, DW_AT_decl_column(0x11)
    2064                    
    2065                    $C$DW$T$177     .dwtag  DW_TAG_typedef
    2066                            .dwattr $C$DW$T$177, DW_AT_name("__int_least16_t")
    2067                            .dwattr $C$DW$T$177, DW_AT_type(*$C$DW$T$176)
    2068                            .dwattr $C$DW$T$177, DW_AT_language(DW_LANG_C)
    2069                            .dwattr $C$DW$T$177, DW_AT_decl_file("C:/ti/ccsv8/tools/compiler/ti-cgt-arm_18.1.3.LTS/include
    2070                            .dwattr $C$DW$T$177, DW_AT_decl_line(0x59)
    2071                            .dwattr $C$DW$T$177, DW_AT_decl_column(0x13)
    2072                    
    2073                    $C$DW$T$178     .dwtag  DW_TAG_typedef
    2074                            .dwattr $C$DW$T$178, DW_AT_name("int_least16_t")
    2075                            .dwattr $C$DW$T$178, DW_AT_type(*$C$DW$T$177)
    2076                            .dwattr $C$DW$T$178, DW_AT_language(DW_LANG_C)
    2077                            .dwattr $C$DW$T$178, DW_AT_decl_file("C:/ti/ccsv8/tools/compiler/ti-cgt-arm_18.1.3.LTS/include
    2078                            .dwattr $C$DW$T$178, DW_AT_decl_line(0x29)
    2079                            .dwattr $C$DW$T$178, DW_AT_decl_column(0x1a)
    2080                    
    2081                    $C$DW$T$179     .dwtag  DW_TAG_typedef
    2082                            .dwattr $C$DW$T$179, DW_AT_name("xdc_Int16")
    2083                            .dwattr $C$DW$T$179, DW_AT_type(*$C$DW$T$178)
    2084                            .dwattr $C$DW$T$179, DW_AT_language(DW_LANG_C)
    2085                            .dwattr $C$DW$T$179, DW_AT_decl_file("C:/ti/simplelink_cc13x0_sdk_2_30_00_20/kernel/tirtos/pac
    2086                            .dwattr $C$DW$T$179, DW_AT_decl_line(0x6e)
    2087                            .dwattr $C$DW$T$179, DW_AT_decl_column(0x19)
    2088                    
    2089                    $C$DW$T$180     .dwtag  DW_TAG_typedef
    2090                            .dwattr $C$DW$T$180, DW_AT_name("Int16")
TI ARM Assembler PC v18.1.3 Wed Nov 28 13:22:09 2018

Tools Copyright (c) 1996-2017 Texas Instruments Incorporated
C:\Users\Adrian\AppData\Local\Temp\{F87BBCDE-FD87-4EF2-8C66-DFD97B5C0FAE} PAGE   39

    2091                            .dwattr $C$DW$T$180, DW_AT_type(*$C$DW$T$179)
    2092                            .dwattr $C$DW$T$180, DW_AT_language(DW_LANG_C)
    2093                            .dwattr $C$DW$T$180, DW_AT_decl_file("C:/ti/xdctools_3_50_08_24_core/packages/xdc/std.h")
    2094                            .dwattr $C$DW$T$180, DW_AT_decl_line(0xf4)
    2095                            .dwattr $C$DW$T$180, DW_AT_decl_column(0x19)
    2096                    
    2097                    $C$DW$T$181     .dwtag  DW_TAG_typedef
    2098                            .dwattr $C$DW$T$181, DW_AT_name("int16_t")
    2099                            .dwattr $C$DW$T$181, DW_AT_type(*$C$DW$T$176)
    2100                            .dwattr $C$DW$T$181, DW_AT_language(DW_LANG_C)
    2101                            .dwattr $C$DW$T$181, DW_AT_decl_file("C:/ti/ccsv8/tools/compiler/ti-cgt-arm_18.1.3.LTS/include
    2102                            .dwattr $C$DW$T$181, DW_AT_decl_line(0x29)
    2103                            .dwattr $C$DW$T$181, DW_AT_decl_column(0x14)
    2104                    
    2105                    $C$DW$T$182     .dwtag  DW_TAG_typedef
    2106                            .dwattr $C$DW$T$182, DW_AT_name("xdc_Short")
    2107                            .dwattr $C$DW$T$182, DW_AT_type(*$C$DW$T$8)
    2108                            .dwattr $C$DW$T$182, DW_AT_language(DW_LANG_C)
    2109                            .dwattr $C$DW$T$182, DW_AT_decl_file("C:/ti/xdctools_3_50_08_24_core/packages/xdc/std.h")
    2110                            .dwattr $C$DW$T$182, DW_AT_decl_line(0x1f)
    2111                            .dwattr $C$DW$T$182, DW_AT_decl_column(0x19)
    2112                    
    2113                    $C$DW$T$183     .dwtag  DW_TAG_typedef
    2114                            .dwattr $C$DW$T$183, DW_AT_name("Short")
    2115                            .dwattr $C$DW$T$183, DW_AT_type(*$C$DW$T$182)
    2116                            .dwattr $C$DW$T$183, DW_AT_language(DW_LANG_C)
    2117                            .dwattr $C$DW$T$183, DW_AT_decl_file("C:/ti/xdctools_3_50_08_24_core/packages/xdc/std.h")
    2118                            .dwattr $C$DW$T$183, DW_AT_decl_line(0xe2)
    2119                            .dwattr $C$DW$T$183, DW_AT_decl_column(0x19)
    2120                    
    2121                    $C$DW$T$9       .dwtag  DW_TAG_base_type
    2122                            .dwattr $C$DW$T$9, DW_AT_encoding(DW_ATE_unsigned)
    2123                            .dwattr $C$DW$T$9, DW_AT_name("unsigned short")
    2124                            .dwattr $C$DW$T$9, DW_AT_byte_size(0x02)
    2125                    
    2126                    $C$DW$T$184     .dwtag  DW_TAG_typedef
    2127                            .dwattr $C$DW$T$184, DW_AT_name("___wchar_t")
    2128                            .dwattr $C$DW$T$184, DW_AT_type(*$C$DW$T$9)
    2129                            .dwattr $C$DW$T$184, DW_AT_language(DW_LANG_C)
    2130                            .dwattr $C$DW$T$184, DW_AT_decl_file("C:/ti/ccsv8/tools/compiler/ti-cgt-arm_18.1.3.LTS/include
    2131                            .dwattr $C$DW$T$184, DW_AT_decl_line(0x76)
    2132                            .dwattr $C$DW$T$184, DW_AT_decl_column(0x1a)
    2133                    
    2134                    $C$DW$T$42      .dwtag  DW_TAG_typedef
    2135                            .dwattr $C$DW$T$42, DW_AT_name("__uint16_t")
    2136                            .dwattr $C$DW$T$42, DW_AT_type(*$C$DW$T$9)
    2137                            .dwattr $C$DW$T$42, DW_AT_language(DW_LANG_C)
    2138                            .dwattr $C$DW$T$42, DW_AT_decl_file("C:/ti/ccsv8/tools/compiler/ti-cgt-arm_18.1.3.LTS/include/
    2139                            .dwattr $C$DW$T$42, DW_AT_decl_line(0x3c)
    2140                            .dwattr $C$DW$T$42, DW_AT_decl_column(0x19)
    2141                    
    2142                    $C$DW$T$185     .dwtag  DW_TAG_typedef
    2143                            .dwattr $C$DW$T$185, DW_AT_name("__mode_t")
    2144                            .dwattr $C$DW$T$185, DW_AT_type(*$C$DW$T$42)
    2145                            .dwattr $C$DW$T$185, DW_AT_language(DW_LANG_C)
TI ARM Assembler PC v18.1.3 Wed Nov 28 13:22:09 2018

Tools Copyright (c) 1996-2017 Texas Instruments Incorporated
C:\Users\Adrian\AppData\Local\Temp\{F87BBCDE-FD87-4EF2-8C66-DFD97B5C0FAE} PAGE   40

    2146                            .dwattr $C$DW$T$185, DW_AT_decl_file("C:/ti/ccsv8/tools/compiler/ti-cgt-arm_18.1.3.LTS/include
    2147                            .dwattr $C$DW$T$185, DW_AT_decl_line(0x39)
    2148                            .dwattr $C$DW$T$185, DW_AT_decl_column(0x14)
    2149                    
    2150                    $C$DW$T$186     .dwtag  DW_TAG_typedef
    2151                            .dwattr $C$DW$T$186, DW_AT_name("__uint_least16_t")
    2152                            .dwattr $C$DW$T$186, DW_AT_type(*$C$DW$T$42)
    2153                            .dwattr $C$DW$T$186, DW_AT_language(DW_LANG_C)
    2154                            .dwattr $C$DW$T$186, DW_AT_decl_file("C:/ti/ccsv8/tools/compiler/ti-cgt-arm_18.1.3.LTS/include
    2155                            .dwattr $C$DW$T$186, DW_AT_decl_line(0x6e)
    2156                            .dwattr $C$DW$T$186, DW_AT_decl_column(0x14)
    2157                    
    2158                    $C$DW$T$187     .dwtag  DW_TAG_typedef
    2159                            .dwattr $C$DW$T$187, DW_AT_name("__char16_t")
    2160                            .dwattr $C$DW$T$187, DW_AT_type(*$C$DW$T$186)
    2161                            .dwattr $C$DW$T$187, DW_AT_language(DW_LANG_C)
    2162                            .dwattr $C$DW$T$187, DW_AT_decl_file("C:/ti/ccsv8/tools/compiler/ti-cgt-arm_18.1.3.LTS/include
    2163                            .dwattr $C$DW$T$187, DW_AT_decl_line(0x66)
    2164                            .dwattr $C$DW$T$187, DW_AT_decl_column(0x1a)
    2165                    
    2166                    $C$DW$T$188     .dwtag  DW_TAG_typedef
    2167                            .dwattr $C$DW$T$188, DW_AT_name("uint_least16_t")
    2168                            .dwattr $C$DW$T$188, DW_AT_type(*$C$DW$T$186)
    2169                            .dwattr $C$DW$T$188, DW_AT_language(DW_LANG_C)
    2170                            .dwattr $C$DW$T$188, DW_AT_decl_file("C:/ti/ccsv8/tools/compiler/ti-cgt-arm_18.1.3.LTS/include
    2171                            .dwattr $C$DW$T$188, DW_AT_decl_line(0x2e)
    2172                            .dwattr $C$DW$T$188, DW_AT_decl_column(0x1a)
    2173                    
    2174                    $C$DW$T$189     .dwtag  DW_TAG_typedef
    2175                            .dwattr $C$DW$T$189, DW_AT_name("xdc_UInt16")
    2176                            .dwattr $C$DW$T$189, DW_AT_type(*$C$DW$T$188)
    2177                            .dwattr $C$DW$T$189, DW_AT_language(DW_LANG_C)
    2178                            .dwattr $C$DW$T$189, DW_AT_decl_file("C:/ti/simplelink_cc13x0_sdk_2_30_00_20/kernel/tirtos/pac
    2179                            .dwattr $C$DW$T$189, DW_AT_decl_line(0x6f)
    2180                            .dwattr $C$DW$T$189, DW_AT_decl_column(0x19)
    2181                    
    2182                    $C$DW$T$190     .dwtag  DW_TAG_typedef
    2183                            .dwattr $C$DW$T$190, DW_AT_name("UInt16")
    2184                            .dwattr $C$DW$T$190, DW_AT_type(*$C$DW$T$189)
    2185                            .dwattr $C$DW$T$190, DW_AT_language(DW_LANG_C)
    2186                            .dwattr $C$DW$T$190, DW_AT_decl_file("C:/ti/xdctools_3_50_08_24_core/packages/xdc/std.h")
    2187                            .dwattr $C$DW$T$190, DW_AT_decl_line(0xff)
    2188                            .dwattr $C$DW$T$190, DW_AT_decl_column(0x19)
    2189                    
    2190                    $C$DW$T$191     .dwtag  DW_TAG_typedef
    2191                            .dwattr $C$DW$T$191, DW_AT_name("Uint16")
    2192                            .dwattr $C$DW$T$191, DW_AT_type(*$C$DW$T$189)
    2193                            .dwattr $C$DW$T$191, DW_AT_language(DW_LANG_C)
    2194                            .dwattr $C$DW$T$191, DW_AT_decl_file("C:/ti/xdctools_3_50_08_24_core/packages/xdc/std.h")
    2195                            .dwattr $C$DW$T$191, DW_AT_decl_line(0x10c)
    2196                            .dwattr $C$DW$T$191, DW_AT_decl_column(0x19)
    2197                    
    2198                    $C$DW$T$43      .dwtag  DW_TAG_typedef
    2199                            .dwattr $C$DW$T$43, DW_AT_name("uint16_t")
    2200                            .dwattr $C$DW$T$43, DW_AT_type(*$C$DW$T$42)
TI ARM Assembler PC v18.1.3 Wed Nov 28 13:22:09 2018

Tools Copyright (c) 1996-2017 Texas Instruments Incorporated
C:\Users\Adrian\AppData\Local\Temp\{F87BBCDE-FD87-4EF2-8C66-DFD97B5C0FAE} PAGE   41

    2201                            .dwattr $C$DW$T$43, DW_AT_language(DW_LANG_C)
    2202                            .dwattr $C$DW$T$43, DW_AT_decl_file("C:/ti/ccsv8/tools/compiler/ti-cgt-arm_18.1.3.LTS/include/
    2203                            .dwattr $C$DW$T$43, DW_AT_decl_line(0x3d)
    2204                            .dwattr $C$DW$T$43, DW_AT_decl_column(0x15)
    2205                    
    2206                    $C$DW$T$44      .dwtag  DW_TAG_pointer_type
    2207                            .dwattr $C$DW$T$44, DW_AT_type(*$C$DW$T$43)
    2208                            .dwattr $C$DW$T$44, DW_AT_address_class(0x20)
    2209                    
    2210                    $C$DW$T$192     .dwtag  DW_TAG_typedef
    2211                            .dwattr $C$DW$T$192, DW_AT_name("xdc_Bits16")
    2212                            .dwattr $C$DW$T$192, DW_AT_type(*$C$DW$T$43)
    2213                            .dwattr $C$DW$T$192, DW_AT_language(DW_LANG_C)
    2214                            .dwattr $C$DW$T$192, DW_AT_decl_file("C:/ti/simplelink_cc13x0_sdk_2_30_00_20/kernel/tirtos/pac
    2215                            .dwattr $C$DW$T$192, DW_AT_decl_line(0x8c)
    2216                            .dwattr $C$DW$T$192, DW_AT_decl_column(0x19)
    2217                    
    2218                    $C$DW$T$193     .dwtag  DW_TAG_typedef
    2219                            .dwattr $C$DW$T$193, DW_AT_name("Bits16")
    2220                            .dwattr $C$DW$T$193, DW_AT_type(*$C$DW$T$192)
    2221                            .dwattr $C$DW$T$193, DW_AT_language(DW_LANG_C)
    2222                            .dwattr $C$DW$T$193, DW_AT_decl_file("C:/ti/xdctools_3_50_08_24_core/packages/xdc/std.h")
    2223                            .dwattr $C$DW$T$193, DW_AT_decl_line(0x123)
    2224                            .dwattr $C$DW$T$193, DW_AT_decl_column(0x19)
    2225                    
    2226                    $C$DW$T$194     .dwtag  DW_TAG_typedef
    2227                            .dwattr $C$DW$T$194, DW_AT_name("wchar_t")
    2228                            .dwattr $C$DW$T$194, DW_AT_type(*$C$DW$T$9)
    2229                            .dwattr $C$DW$T$194, DW_AT_language(DW_LANG_C)
    2230                            .dwattr $C$DW$T$194, DW_AT_decl_file("C:/ti/ccsv8/tools/compiler/ti-cgt-arm_18.1.3.LTS/include
    2231                            .dwattr $C$DW$T$194, DW_AT_decl_line(0x41)
    2232                            .dwattr $C$DW$T$194, DW_AT_decl_column(0x1a)
    2233                    
    2234                    $C$DW$T$195     .dwtag  DW_TAG_typedef
    2235                            .dwattr $C$DW$T$195, DW_AT_name("xdc_Bool")
    2236                            .dwattr $C$DW$T$195, DW_AT_type(*$C$DW$T$9)
    2237                            .dwattr $C$DW$T$195, DW_AT_language(DW_LANG_C)
    2238                            .dwattr $C$DW$T$195, DW_AT_decl_file("C:/ti/xdctools_3_50_08_24_core/packages/xdc/std.h")
    2239                            .dwattr $C$DW$T$195, DW_AT_decl_line(0x2d)
    2240                            .dwattr $C$DW$T$195, DW_AT_decl_column(0x19)
    2241                    
    2242                    $C$DW$T$196     .dwtag  DW_TAG_typedef
    2243                            .dwattr $C$DW$T$196, DW_AT_name("Bool")
    2244                            .dwattr $C$DW$T$196, DW_AT_type(*$C$DW$T$195)
    2245                            .dwattr $C$DW$T$196, DW_AT_language(DW_LANG_C)
    2246                            .dwattr $C$DW$T$196, DW_AT_decl_file("C:/ti/xdctools_3_50_08_24_core/packages/xdc/std.h")
    2247                            .dwattr $C$DW$T$196, DW_AT_decl_line(0xf2)
    2248                            .dwattr $C$DW$T$196, DW_AT_decl_column(0x19)
    2249                    
    2250                    $C$DW$T$197     .dwtag  DW_TAG_typedef
    2251                            .dwattr $C$DW$T$197, DW_AT_name("xdc_UShort")
    2252                            .dwattr $C$DW$T$197, DW_AT_type(*$C$DW$T$9)
    2253                            .dwattr $C$DW$T$197, DW_AT_language(DW_LANG_C)
    2254                            .dwattr $C$DW$T$197, DW_AT_decl_file("C:/ti/xdctools_3_50_08_24_core/packages/xdc/std.h")
    2255                            .dwattr $C$DW$T$197, DW_AT_decl_line(0x20)
TI ARM Assembler PC v18.1.3 Wed Nov 28 13:22:09 2018

Tools Copyright (c) 1996-2017 Texas Instruments Incorporated
C:\Users\Adrian\AppData\Local\Temp\{F87BBCDE-FD87-4EF2-8C66-DFD97B5C0FAE} PAGE   42

    2256                            .dwattr $C$DW$T$197, DW_AT_decl_column(0x19)
    2257                    
    2258                    $C$DW$T$198     .dwtag  DW_TAG_typedef
    2259                            .dwattr $C$DW$T$198, DW_AT_name("UShort")
    2260                            .dwattr $C$DW$T$198, DW_AT_type(*$C$DW$T$197)
    2261                            .dwattr $C$DW$T$198, DW_AT_language(DW_LANG_C)
    2262                            .dwattr $C$DW$T$198, DW_AT_decl_file("C:/ti/xdctools_3_50_08_24_core/packages/xdc/std.h")
    2263                            .dwattr $C$DW$T$198, DW_AT_decl_line(0xe3)
    2264                            .dwattr $C$DW$T$198, DW_AT_decl_column(0x19)
    2265                    
    2266                    $C$DW$T$10      .dwtag  DW_TAG_base_type
    2267                            .dwattr $C$DW$T$10, DW_AT_encoding(DW_ATE_signed)
    2268                            .dwattr $C$DW$T$10, DW_AT_name("int")
    2269                            .dwattr $C$DW$T$10, DW_AT_byte_size(0x04)
    2270                    
    2271                    $C$DW$T$199     .dwtag  DW_TAG_typedef
    2272                            .dwattr $C$DW$T$199, DW_AT_name("_Mbstatet")
    2273                            .dwattr $C$DW$T$199, DW_AT_type(*$C$DW$T$10)
    2274                            .dwattr $C$DW$T$199, DW_AT_language(DW_LANG_C)
    2275                            .dwattr $C$DW$T$199, DW_AT_decl_file("C:/ti/ccsv8/tools/compiler/ti-cgt-arm_18.1.3.LTS/include
    2276                            .dwattr $C$DW$T$199, DW_AT_decl_line(0x84)
    2277                            .dwattr $C$DW$T$199, DW_AT_decl_column(0x0d)
    2278                    
    2279                    $C$DW$T$200     .dwtag  DW_TAG_typedef
    2280                            .dwattr $C$DW$T$200, DW_AT_name("__mbstate_t")
    2281                            .dwattr $C$DW$T$200, DW_AT_type(*$C$DW$T$199)
    2282                            .dwattr $C$DW$T$200, DW_AT_language(DW_LANG_C)
    2283                            .dwattr $C$DW$T$200, DW_AT_decl_file("C:/ti/ccsv8/tools/compiler/ti-cgt-arm_18.1.3.LTS/include
    2284                            .dwattr $C$DW$T$200, DW_AT_decl_line(0x87)
    2285                            .dwattr $C$DW$T$200, DW_AT_decl_column(0x13)
    2286                    
    2287                    $C$DW$T$201     .dwtag  DW_TAG_typedef
    2288                            .dwattr $C$DW$T$201, DW_AT_name("__accmode_t")
    2289                            .dwattr $C$DW$T$201, DW_AT_type(*$C$DW$T$10)
    2290                            .dwattr $C$DW$T$201, DW_AT_language(DW_LANG_C)
    2291                            .dwattr $C$DW$T$201, DW_AT_decl_file("C:/ti/ccsv8/tools/compiler/ti-cgt-arm_18.1.3.LTS/include
    2292                            .dwattr $C$DW$T$201, DW_AT_decl_line(0x3a)
    2293                            .dwattr $C$DW$T$201, DW_AT_decl_column(0x0e)
    2294                    
    2295                    
    2296                    $C$DW$T$202     .dwtag  DW_TAG_subroutine_type
    2297                            .dwattr $C$DW$T$202, DW_AT_type(*$C$DW$T$10)
    2298                            .dwattr $C$DW$T$202, DW_AT_language(DW_LANG_C)
    2299                            .dwendtag $C$DW$T$202
    2300                    
    2301                    $C$DW$T$203     .dwtag  DW_TAG_pointer_type
    2302                            .dwattr $C$DW$T$203, DW_AT_type(*$C$DW$T$202)
    2303                            .dwattr $C$DW$T$203, DW_AT_address_class(0x20)
    2304                    
    2305                    $C$DW$T$204     .dwtag  DW_TAG_typedef
    2306                            .dwattr $C$DW$T$204, DW_AT_name("xdc_Fxn")
    2307                            .dwattr $C$DW$T$204, DW_AT_type(*$C$DW$T$203)
    2308                            .dwattr $C$DW$T$204, DW_AT_language(DW_LANG_C)
    2309                            .dwattr $C$DW$T$204, DW_AT_decl_file("C:/ti/xdctools_3_50_08_24_core/packages/xdc/std.h")
    2310                            .dwattr $C$DW$T$204, DW_AT_decl_line(0x47)
TI ARM Assembler PC v18.1.3 Wed Nov 28 13:22:09 2018

Tools Copyright (c) 1996-2017 Texas Instruments Incorporated
C:\Users\Adrian\AppData\Local\Temp\{F87BBCDE-FD87-4EF2-8C66-DFD97B5C0FAE} PAGE   43

    2311                            .dwattr $C$DW$T$204, DW_AT_decl_column(0x1d)
    2312                    
    2313                    $C$DW$T$205     .dwtag  DW_TAG_typedef
    2314                            .dwattr $C$DW$T$205, DW_AT_name("Fxn")
    2315                            .dwattr $C$DW$T$205, DW_AT_type(*$C$DW$T$204)
    2316                            .dwattr $C$DW$T$205, DW_AT_language(DW_LANG_C)
    2317                            .dwattr $C$DW$T$205, DW_AT_decl_file("C:/ti/xdctools_3_50_08_24_core/packages/xdc/std.h")
    2318                            .dwattr $C$DW$T$205, DW_AT_decl_line(0xf6)
    2319                            .dwattr $C$DW$T$205, DW_AT_decl_column(0x19)
    2320                    
    2321                    $C$DW$T$206     .dwtag  DW_TAG_typedef
    2322                            .dwattr $C$DW$T$206, DW_AT_name("__cpulevel_t")
    2323                            .dwattr $C$DW$T$206, DW_AT_type(*$C$DW$T$10)
    2324                            .dwattr $C$DW$T$206, DW_AT_language(DW_LANG_C)
    2325                            .dwattr $C$DW$T$206, DW_AT_decl_file("C:/ti/ccsv8/tools/compiler/ti-cgt-arm_18.1.3.LTS/include
    2326                            .dwattr $C$DW$T$206, DW_AT_decl_line(0x4b)
    2327                            .dwattr $C$DW$T$206, DW_AT_decl_column(0x0e)
    2328                    
    2329                    $C$DW$T$207     .dwtag  DW_TAG_typedef
    2330                            .dwattr $C$DW$T$207, DW_AT_name("__cpusetid_t")
    2331                            .dwattr $C$DW$T$207, DW_AT_type(*$C$DW$T$10)
    2332                            .dwattr $C$DW$T$207, DW_AT_language(DW_LANG_C)
    2333                            .dwattr $C$DW$T$207, DW_AT_decl_file("C:/ti/ccsv8/tools/compiler/ti-cgt-arm_18.1.3.LTS/include
    2334                            .dwattr $C$DW$T$207, DW_AT_decl_line(0x4c)
    2335                            .dwattr $C$DW$T$207, DW_AT_decl_column(0x0e)
    2336                    
    2337                    $C$DW$T$208     .dwtag  DW_TAG_typedef
    2338                            .dwattr $C$DW$T$208, DW_AT_name("__cpuwhich_t")
    2339                            .dwattr $C$DW$T$208, DW_AT_type(*$C$DW$T$10)
    2340                            .dwattr $C$DW$T$208, DW_AT_language(DW_LANG_C)
    2341                            .dwattr $C$DW$T$208, DW_AT_decl_file("C:/ti/ccsv8/tools/compiler/ti-cgt-arm_18.1.3.LTS/include
    2342                            .dwattr $C$DW$T$208, DW_AT_decl_line(0x4a)
    2343                            .dwattr $C$DW$T$208, DW_AT_decl_column(0x0e)
    2344                    
    2345                    $C$DW$T$209     .dwtag  DW_TAG_typedef
    2346                            .dwattr $C$DW$T$209, DW_AT_name("__ct_rune_t")
    2347                            .dwattr $C$DW$T$209, DW_AT_type(*$C$DW$T$10)
    2348                            .dwattr $C$DW$T$209, DW_AT_language(DW_LANG_C)
    2349                            .dwattr $C$DW$T$209, DW_AT_decl_file("C:/ti/ccsv8/tools/compiler/ti-cgt-arm_18.1.3.LTS/include
    2350                            .dwattr $C$DW$T$209, DW_AT_decl_line(0x60)
    2351                            .dwattr $C$DW$T$209, DW_AT_decl_column(0x0e)
    2352                    
    2353                    $C$DW$T$210     .dwtag  DW_TAG_typedef
    2354                            .dwattr $C$DW$T$210, DW_AT_name("__rune_t")
    2355                            .dwattr $C$DW$T$210, DW_AT_type(*$C$DW$T$209)
    2356                            .dwattr $C$DW$T$210, DW_AT_language(DW_LANG_C)
    2357                            .dwattr $C$DW$T$210, DW_AT_decl_file("C:/ti/ccsv8/tools/compiler/ti-cgt-arm_18.1.3.LTS/include
    2358                            .dwattr $C$DW$T$210, DW_AT_decl_line(0x61)
    2359                            .dwattr $C$DW$T$210, DW_AT_decl_column(0x15)
    2360                    
    2361                    $C$DW$T$211     .dwtag  DW_TAG_typedef
    2362                            .dwattr $C$DW$T$211, DW_AT_name("__wint_t")
    2363                            .dwattr $C$DW$T$211, DW_AT_type(*$C$DW$T$209)
    2364                            .dwattr $C$DW$T$211, DW_AT_language(DW_LANG_C)
    2365                            .dwattr $C$DW$T$211, DW_AT_decl_file("C:/ti/ccsv8/tools/compiler/ti-cgt-arm_18.1.3.LTS/include
TI ARM Assembler PC v18.1.3 Wed Nov 28 13:22:09 2018

Tools Copyright (c) 1996-2017 Texas Instruments Incorporated
C:\Users\Adrian\AppData\Local\Temp\{F87BBCDE-FD87-4EF2-8C66-DFD97B5C0FAE} PAGE   44

    2366                            .dwattr $C$DW$T$211, DW_AT_decl_line(0x62)
    2367                            .dwattr $C$DW$T$211, DW_AT_decl_column(0x15)
    2368                    
    2369                    $C$DW$T$68      .dwtag  DW_TAG_typedef
    2370                            .dwattr $C$DW$T$68, DW_AT_name("__int32_t")
    2371                            .dwattr $C$DW$T$68, DW_AT_type(*$C$DW$T$10)
    2372                            .dwattr $C$DW$T$68, DW_AT_language(DW_LANG_C)
    2373                            .dwattr $C$DW$T$68, DW_AT_decl_file("C:/ti/ccsv8/tools/compiler/ti-cgt-arm_18.1.3.LTS/include/
    2374                            .dwattr $C$DW$T$68, DW_AT_decl_line(0x3d)
    2375                            .dwattr $C$DW$T$68, DW_AT_decl_column(0x0f)
    2376                    
    2377                    $C$DW$T$212     .dwtag  DW_TAG_typedef
    2378                            .dwattr $C$DW$T$212, DW_AT_name("__blksize_t")
    2379                            .dwattr $C$DW$T$212, DW_AT_type(*$C$DW$T$68)
    2380                            .dwattr $C$DW$T$212, DW_AT_language(DW_LANG_C)
    2381                            .dwattr $C$DW$T$212, DW_AT_decl_file("C:/ti/ccsv8/tools/compiler/ti-cgt-arm_18.1.3.LTS/include
    2382                            .dwattr $C$DW$T$212, DW_AT_decl_line(0x2e)
    2383                            .dwattr $C$DW$T$212, DW_AT_decl_column(0x13)
    2384                    
    2385                    $C$DW$T$213     .dwtag  DW_TAG_typedef
    2386                            .dwattr $C$DW$T$213, DW_AT_name("__clockid_t")
    2387                            .dwattr $C$DW$T$213, DW_AT_type(*$C$DW$T$68)
    2388                            .dwattr $C$DW$T$213, DW_AT_language(DW_LANG_C)
    2389                            .dwattr $C$DW$T$213, DW_AT_decl_file("C:/ti/ccsv8/tools/compiler/ti-cgt-arm_18.1.3.LTS/include
    2390                            .dwattr $C$DW$T$213, DW_AT_decl_line(0x30)
    2391                            .dwattr $C$DW$T$213, DW_AT_decl_column(0x13)
    2392                    
    2393                    $C$DW$T$214     .dwtag  DW_TAG_typedef
    2394                            .dwattr $C$DW$T$214, DW_AT_name("__critical_t")
    2395                            .dwattr $C$DW$T$214, DW_AT_type(*$C$DW$T$68)
    2396                            .dwattr $C$DW$T$214, DW_AT_language(DW_LANG_C)
    2397                            .dwattr $C$DW$T$214, DW_AT_decl_file("C:/ti/ccsv8/tools/compiler/ti-cgt-arm_18.1.3.LTS/include
    2398                            .dwattr $C$DW$T$214, DW_AT_decl_line(0x4e)
    2399                            .dwattr $C$DW$T$214, DW_AT_decl_column(0x13)
    2400                    
    2401                    $C$DW$T$215     .dwtag  DW_TAG_typedef
    2402                            .dwattr $C$DW$T$215, DW_AT_name("__int_fast16_t")
    2403                            .dwattr $C$DW$T$215, DW_AT_type(*$C$DW$T$68)
    2404                            .dwattr $C$DW$T$215, DW_AT_language(DW_LANG_C)
    2405                            .dwattr $C$DW$T$215, DW_AT_decl_file("C:/ti/ccsv8/tools/compiler/ti-cgt-arm_18.1.3.LTS/include
    2406                            .dwattr $C$DW$T$215, DW_AT_decl_line(0x55)
    2407                            .dwattr $C$DW$T$215, DW_AT_decl_column(0x13)
    2408                    
    2409                    $C$DW$T$216     .dwtag  DW_TAG_typedef
    2410                            .dwattr $C$DW$T$216, DW_AT_name("int_fast16_t")
    2411                            .dwattr $C$DW$T$216, DW_AT_type(*$C$DW$T$215)
    2412                            .dwattr $C$DW$T$216, DW_AT_language(DW_LANG_C)
    2413                            .dwattr $C$DW$T$216, DW_AT_decl_file("C:/ti/ccsv8/tools/compiler/ti-cgt-arm_18.1.3.LTS/include
    2414                            .dwattr $C$DW$T$216, DW_AT_decl_line(0x33)
    2415                            .dwattr $C$DW$T$216, DW_AT_decl_column(0x19)
    2416                    
    2417                    $C$DW$T$217     .dwtag  DW_TAG_typedef
    2418                            .dwattr $C$DW$T$217, DW_AT_name("__int_fast32_t")
    2419                            .dwattr $C$DW$T$217, DW_AT_type(*$C$DW$T$68)
    2420                            .dwattr $C$DW$T$217, DW_AT_language(DW_LANG_C)
TI ARM Assembler PC v18.1.3 Wed Nov 28 13:22:09 2018

Tools Copyright (c) 1996-2017 Texas Instruments Incorporated
C:\Users\Adrian\AppData\Local\Temp\{F87BBCDE-FD87-4EF2-8C66-DFD97B5C0FAE} PAGE   45

    2421                            .dwattr $C$DW$T$217, DW_AT_decl_file("C:/ti/ccsv8/tools/compiler/ti-cgt-arm_18.1.3.LTS/include
    2422                            .dwattr $C$DW$T$217, DW_AT_decl_line(0x56)
    2423                            .dwattr $C$DW$T$217, DW_AT_decl_column(0x13)
    2424                    
    2425                    $C$DW$T$218     .dwtag  DW_TAG_typedef
    2426                            .dwattr $C$DW$T$218, DW_AT_name("int_fast32_t")
    2427                            .dwattr $C$DW$T$218, DW_AT_type(*$C$DW$T$217)
    2428                            .dwattr $C$DW$T$218, DW_AT_language(DW_LANG_C)
    2429                            .dwattr $C$DW$T$218, DW_AT_decl_file("C:/ti/ccsv8/tools/compiler/ti-cgt-arm_18.1.3.LTS/include
    2430                            .dwattr $C$DW$T$218, DW_AT_decl_line(0x34)
    2431                            .dwattr $C$DW$T$218, DW_AT_decl_column(0x19)
    2432                    
    2433                    $C$DW$T$219     .dwtag  DW_TAG_typedef
    2434                            .dwattr $C$DW$T$219, DW_AT_name("__int_fast8_t")
    2435                            .dwattr $C$DW$T$219, DW_AT_type(*$C$DW$T$68)
    2436                            .dwattr $C$DW$T$219, DW_AT_language(DW_LANG_C)
    2437                            .dwattr $C$DW$T$219, DW_AT_decl_file("C:/ti/ccsv8/tools/compiler/ti-cgt-arm_18.1.3.LTS/include
    2438                            .dwattr $C$DW$T$219, DW_AT_decl_line(0x54)
    2439                            .dwattr $C$DW$T$219, DW_AT_decl_column(0x13)
    2440                    
    2441                    $C$DW$T$220     .dwtag  DW_TAG_typedef
    2442                            .dwattr $C$DW$T$220, DW_AT_name("int_fast8_t")
    2443                            .dwattr $C$DW$T$220, DW_AT_type(*$C$DW$T$219)
    2444                            .dwattr $C$DW$T$220, DW_AT_language(DW_LANG_C)
    2445                            .dwattr $C$DW$T$220, DW_AT_decl_file("C:/ti/ccsv8/tools/compiler/ti-cgt-arm_18.1.3.LTS/include
    2446                            .dwattr $C$DW$T$220, DW_AT_decl_line(0x32)
    2447                            .dwattr $C$DW$T$220, DW_AT_decl_column(0x18)
    2448                    
    2449                    $C$DW$T$221     .dwtag  DW_TAG_typedef
    2450                            .dwattr $C$DW$T$221, DW_AT_name("__int_least32_t")
    2451                            .dwattr $C$DW$T$221, DW_AT_type(*$C$DW$T$68)
    2452                            .dwattr $C$DW$T$221, DW_AT_language(DW_LANG_C)
    2453                            .dwattr $C$DW$T$221, DW_AT_decl_file("C:/ti/ccsv8/tools/compiler/ti-cgt-arm_18.1.3.LTS/include
    2454                            .dwattr $C$DW$T$221, DW_AT_decl_line(0x5a)
    2455                            .dwattr $C$DW$T$221, DW_AT_decl_column(0x13)
    2456                    
    2457                    $C$DW$T$222     .dwtag  DW_TAG_typedef
    2458                            .dwattr $C$DW$T$222, DW_AT_name("int_least32_t")
    2459                            .dwattr $C$DW$T$222, DW_AT_type(*$C$DW$T$221)
    2460                            .dwattr $C$DW$T$222, DW_AT_language(DW_LANG_C)
    2461                            .dwattr $C$DW$T$222, DW_AT_decl_file("C:/ti/ccsv8/tools/compiler/ti-cgt-arm_18.1.3.LTS/include
    2462                            .dwattr $C$DW$T$222, DW_AT_decl_line(0x2a)
    2463                            .dwattr $C$DW$T$222, DW_AT_decl_column(0x1a)
    2464                    
    2465                    $C$DW$T$223     .dwtag  DW_TAG_typedef
    2466                            .dwattr $C$DW$T$223, DW_AT_name("xdc_Int32")
    2467                            .dwattr $C$DW$T$223, DW_AT_type(*$C$DW$T$222)
    2468                            .dwattr $C$DW$T$223, DW_AT_language(DW_LANG_C)
    2469                            .dwattr $C$DW$T$223, DW_AT_decl_file("C:/ti/simplelink_cc13x0_sdk_2_30_00_20/kernel/tirtos/pac
    2470                            .dwattr $C$DW$T$223, DW_AT_decl_line(0x70)
    2471                            .dwattr $C$DW$T$223, DW_AT_decl_column(0x19)
    2472                    
    2473                    $C$DW$T$224     .dwtag  DW_TAG_typedef
    2474                            .dwattr $C$DW$T$224, DW_AT_name("Int32")
    2475                            .dwattr $C$DW$T$224, DW_AT_type(*$C$DW$T$223)
TI ARM Assembler PC v18.1.3 Wed Nov 28 13:22:09 2018

Tools Copyright (c) 1996-2017 Texas Instruments Incorporated
C:\Users\Adrian\AppData\Local\Temp\{F87BBCDE-FD87-4EF2-8C66-DFD97B5C0FAE} PAGE   46

    2476                            .dwattr $C$DW$T$224, DW_AT_language(DW_LANG_C)
    2477                            .dwattr $C$DW$T$224, DW_AT_decl_file("C:/ti/xdctools_3_50_08_24_core/packages/xdc/std.h")
    2478                            .dwattr $C$DW$T$224, DW_AT_decl_line(0xf5)
    2479                            .dwattr $C$DW$T$224, DW_AT_decl_column(0x19)
    2480                    
    2481                    $C$DW$T$225     .dwtag  DW_TAG_typedef
    2482                            .dwattr $C$DW$T$225, DW_AT_name("__intfptr_t")
    2483                            .dwattr $C$DW$T$225, DW_AT_type(*$C$DW$T$68)
    2484                            .dwattr $C$DW$T$225, DW_AT_language(DW_LANG_C)
    2485                            .dwattr $C$DW$T$225, DW_AT_decl_file("C:/ti/ccsv8/tools/compiler/ti-cgt-arm_18.1.3.LTS/include
    2486                            .dwattr $C$DW$T$225, DW_AT_decl_line(0x51)
    2487                            .dwattr $C$DW$T$225, DW_AT_decl_column(0x13)
    2488                    
    2489                    $C$DW$T$69      .dwtag  DW_TAG_typedef
    2490                            .dwattr $C$DW$T$69, DW_AT_name("__intptr_t")
    2491                            .dwattr $C$DW$T$69, DW_AT_type(*$C$DW$T$68)
    2492                            .dwattr $C$DW$T$69, DW_AT_language(DW_LANG_C)
    2493                            .dwattr $C$DW$T$69, DW_AT_decl_file("C:/ti/ccsv8/tools/compiler/ti-cgt-arm_18.1.3.LTS/include/
    2494                            .dwattr $C$DW$T$69, DW_AT_decl_line(0x53)
    2495                            .dwattr $C$DW$T$69, DW_AT_decl_column(0x13)
    2496                    
    2497                    $C$DW$T$70      .dwtag  DW_TAG_typedef
    2498                            .dwattr $C$DW$T$70, DW_AT_name("intptr_t")
    2499                            .dwattr $C$DW$T$70, DW_AT_type(*$C$DW$T$69)
    2500                            .dwattr $C$DW$T$70, DW_AT_language(DW_LANG_C)
    2501                            .dwattr $C$DW$T$70, DW_AT_decl_file("C:/ti/ccsv8/tools/compiler/ti-cgt-arm_18.1.3.LTS/include/
    2502                            .dwattr $C$DW$T$70, DW_AT_decl_line(0x4c)
    2503                            .dwattr $C$DW$T$70, DW_AT_decl_column(0x15)
    2504                    
    2505                    $C$DW$T$71      .dwtag  DW_TAG_typedef
    2506                            .dwattr $C$DW$T$71, DW_AT_name("xdc_IArg")
    2507                            .dwattr $C$DW$T$71, DW_AT_type(*$C$DW$T$70)
    2508                            .dwattr $C$DW$T$71, DW_AT_language(DW_LANG_C)
    2509                            .dwattr $C$DW$T$71, DW_AT_decl_file("C:/ti/simplelink_cc13x0_sdk_2_30_00_20/kernel/tirtos/pack
    2510                            .dwattr $C$DW$T$71, DW_AT_decl_line(0x98)
    2511                            .dwattr $C$DW$T$71, DW_AT_decl_column(0x19)
    2512                    
    2513                    $C$DW$T$226     .dwtag  DW_TAG_typedef
    2514                            .dwattr $C$DW$T$226, DW_AT_name("IArg")
    2515                            .dwattr $C$DW$T$226, DW_AT_type(*$C$DW$T$71)
    2516                            .dwattr $C$DW$T$226, DW_AT_language(DW_LANG_C)
    2517                            .dwattr $C$DW$T$226, DW_AT_decl_file("C:/ti/xdctools_3_50_08_24_core/packages/xdc/std.h")
    2518                            .dwattr $C$DW$T$226, DW_AT_decl_line(0xf0)
    2519                            .dwattr $C$DW$T$226, DW_AT_decl_column(0x19)
    2520                    
    2521                    $C$DW$T$227     .dwtag  DW_TAG_typedef
    2522                            .dwattr $C$DW$T$227, DW_AT_name("__lwpid_t")
    2523                            .dwattr $C$DW$T$227, DW_AT_type(*$C$DW$T$68)
    2524                            .dwattr $C$DW$T$227, DW_AT_language(DW_LANG_C)
    2525                            .dwattr $C$DW$T$227, DW_AT_decl_file("C:/ti/ccsv8/tools/compiler/ti-cgt-arm_18.1.3.LTS/include
    2526                            .dwattr $C$DW$T$227, DW_AT_decl_line(0x38)
    2527                            .dwattr $C$DW$T$227, DW_AT_decl_column(0x13)
    2528                    
    2529                    $C$DW$T$228     .dwtag  DW_TAG_typedef
    2530                            .dwattr $C$DW$T$228, DW_AT_name("__pid_t")
TI ARM Assembler PC v18.1.3 Wed Nov 28 13:22:09 2018

Tools Copyright (c) 1996-2017 Texas Instruments Incorporated
C:\Users\Adrian\AppData\Local\Temp\{F87BBCDE-FD87-4EF2-8C66-DFD97B5C0FAE} PAGE   47

    2531                            .dwattr $C$DW$T$228, DW_AT_type(*$C$DW$T$68)
    2532                            .dwattr $C$DW$T$228, DW_AT_language(DW_LANG_C)
    2533                            .dwattr $C$DW$T$228, DW_AT_decl_file("C:/ti/ccsv8/tools/compiler/ti-cgt-arm_18.1.3.LTS/include
    2534                            .dwattr $C$DW$T$228, DW_AT_decl_line(0x3f)
    2535                            .dwattr $C$DW$T$228, DW_AT_decl_column(0x13)
    2536                    
    2537                    $C$DW$T$229     .dwtag  DW_TAG_typedef
    2538                            .dwattr $C$DW$T$229, DW_AT_name("__ptrdiff_t")
    2539                            .dwattr $C$DW$T$229, DW_AT_type(*$C$DW$T$68)
    2540                            .dwattr $C$DW$T$229, DW_AT_language(DW_LANG_C)
    2541                            .dwattr $C$DW$T$229, DW_AT_decl_file("C:/ti/ccsv8/tools/compiler/ti-cgt-arm_18.1.3.LTS/include
    2542                            .dwattr $C$DW$T$229, DW_AT_decl_line(0x5c)
    2543                            .dwattr $C$DW$T$229, DW_AT_decl_column(0x13)
    2544                    
    2545                    $C$DW$T$230     .dwtag  DW_TAG_typedef
    2546                            .dwattr $C$DW$T$230, DW_AT_name("__register_t")
    2547                            .dwattr $C$DW$T$230, DW_AT_type(*$C$DW$T$68)
    2548                            .dwattr $C$DW$T$230, DW_AT_language(DW_LANG_C)
    2549                            .dwattr $C$DW$T$230, DW_AT_decl_file("C:/ti/ccsv8/tools/compiler/ti-cgt-arm_18.1.3.LTS/include
    2550                            .dwattr $C$DW$T$230, DW_AT_decl_line(0x5d)
    2551                            .dwattr $C$DW$T$230, DW_AT_decl_column(0x13)
    2552                    
    2553                    $C$DW$T$231     .dwtag  DW_TAG_typedef
    2554                            .dwattr $C$DW$T$231, DW_AT_name("__segsz_t")
    2555                            .dwattr $C$DW$T$231, DW_AT_type(*$C$DW$T$68)
    2556                            .dwattr $C$DW$T$231, DW_AT_language(DW_LANG_C)
    2557                            .dwattr $C$DW$T$231, DW_AT_decl_file("C:/ti/ccsv8/tools/compiler/ti-cgt-arm_18.1.3.LTS/include
    2558                            .dwattr $C$DW$T$231, DW_AT_decl_line(0x5e)
    2559                            .dwattr $C$DW$T$231, DW_AT_decl_column(0x13)
    2560                    
    2561                    $C$DW$T$232     .dwtag  DW_TAG_typedef
    2562                            .dwattr $C$DW$T$232, DW_AT_name("__ssize_t")
    2563                            .dwattr $C$DW$T$232, DW_AT_type(*$C$DW$T$68)
    2564                            .dwattr $C$DW$T$232, DW_AT_language(DW_LANG_C)
    2565                            .dwattr $C$DW$T$232, DW_AT_decl_file("C:/ti/ccsv8/tools/compiler/ti-cgt-arm_18.1.3.LTS/include
    2566                            .dwattr $C$DW$T$232, DW_AT_decl_line(0x60)
    2567                            .dwattr $C$DW$T$232, DW_AT_decl_column(0x13)
    2568                    
    2569                    $C$DW$T$96      .dwtag  DW_TAG_typedef
    2570                            .dwattr $C$DW$T$96, DW_AT_name("int32_t")
    2571                            .dwattr $C$DW$T$96, DW_AT_type(*$C$DW$T$68)
    2572                            .dwattr $C$DW$T$96, DW_AT_language(DW_LANG_C)
    2573                            .dwattr $C$DW$T$96, DW_AT_decl_file("C:/ti/ccsv8/tools/compiler/ti-cgt-arm_18.1.3.LTS/include/
    2574                            .dwattr $C$DW$T$96, DW_AT_decl_line(0x2e)
    2575                            .dwattr $C$DW$T$96, DW_AT_decl_column(0x14)
    2576                    
    2577                    $C$DW$T$233     .dwtag  DW_TAG_typedef
    2578                            .dwattr $C$DW$T$233, DW_AT_name("__nl_item")
    2579                            .dwattr $C$DW$T$233, DW_AT_type(*$C$DW$T$10)
    2580                            .dwattr $C$DW$T$233, DW_AT_language(DW_LANG_C)
    2581                            .dwattr $C$DW$T$233, DW_AT_decl_file("C:/ti/ccsv8/tools/compiler/ti-cgt-arm_18.1.3.LTS/include
    2582                            .dwattr $C$DW$T$233, DW_AT_decl_line(0x3b)
    2583                            .dwattr $C$DW$T$233, DW_AT_decl_column(0x0e)
    2584                    
    2585                    $C$DW$T$234     .dwtag  DW_TAG_typedef
TI ARM Assembler PC v18.1.3 Wed Nov 28 13:22:09 2018

Tools Copyright (c) 1996-2017 Texas Instruments Incorporated
C:\Users\Adrian\AppData\Local\Temp\{F87BBCDE-FD87-4EF2-8C66-DFD97B5C0FAE} PAGE   48

    2586                            .dwattr $C$DW$T$234, DW_AT_name("ptrdiff_t")
    2587                            .dwattr $C$DW$T$234, DW_AT_type(*$C$DW$T$10)
    2588                            .dwattr $C$DW$T$234, DW_AT_language(DW_LANG_C)
    2589                            .dwattr $C$DW$T$234, DW_AT_decl_file("C:/ti/ccsv8/tools/compiler/ti-cgt-arm_18.1.3.LTS/include
    2590                            .dwattr $C$DW$T$234, DW_AT_decl_line(0x36)
    2591                            .dwattr $C$DW$T$234, DW_AT_decl_column(0x1c)
    2592                    
    2593                    $C$DW$T$235     .dwtag  DW_TAG_typedef
    2594                            .dwattr $C$DW$T$235, DW_AT_name("xdc_Int")
    2595                            .dwattr $C$DW$T$235, DW_AT_type(*$C$DW$T$10)
    2596                            .dwattr $C$DW$T$235, DW_AT_language(DW_LANG_C)
    2597                            .dwattr $C$DW$T$235, DW_AT_decl_file("C:/ti/xdctools_3_50_08_24_core/packages/xdc/std.h")
    2598                            .dwattr $C$DW$T$235, DW_AT_decl_line(0x21)
    2599                            .dwattr $C$DW$T$235, DW_AT_decl_column(0x19)
    2600                    
    2601                    $C$DW$T$236     .dwtag  DW_TAG_typedef
    2602                            .dwattr $C$DW$T$236, DW_AT_name("Int")
    2603                            .dwattr $C$DW$T$236, DW_AT_type(*$C$DW$T$235)
    2604                            .dwattr $C$DW$T$236, DW_AT_language(DW_LANG_C)
    2605                            .dwattr $C$DW$T$236, DW_AT_decl_file("C:/ti/xdctools_3_50_08_24_core/packages/xdc/std.h")
    2606                            .dwattr $C$DW$T$236, DW_AT_decl_line(0xe4)
    2607                            .dwattr $C$DW$T$236, DW_AT_decl_column(0x19)
    2608                    
    2609                    $C$DW$T$11      .dwtag  DW_TAG_base_type
    2610                            .dwattr $C$DW$T$11, DW_AT_encoding(DW_ATE_unsigned)
    2611                            .dwattr $C$DW$T$11, DW_AT_name("unsigned int")
    2612                            .dwattr $C$DW$T$11, DW_AT_byte_size(0x04)
    2613                    
    2614                    $C$DW$T$237     .dwtag  DW_TAG_typedef
    2615                            .dwattr $C$DW$T$237, DW_AT_name("__UINT32")
    2616                            .dwattr $C$DW$T$237, DW_AT_type(*$C$DW$T$11)
    2617                            .dwattr $C$DW$T$237, DW_AT_language(DW_LANG_C)
    2618                            .dwattr $C$DW$T$237, DW_AT_decl_file("C:\ti\simplelink_cc13x0_sdk_2_30_00_20\source\ti\devices
    2619                            .dwattr $C$DW$T$237, DW_AT_decl_line(0x45)
    2620                            .dwattr $C$DW$T$237, DW_AT_decl_column(0x17)
    2621                    
    2622                    
    2623                    $C$DW$T$74      .dwtag  DW_TAG_array_type
    2624                            .dwattr $C$DW$T$74, DW_AT_type(*$C$DW$T$11)
    2625                            .dwattr $C$DW$T$74, DW_AT_language(DW_LANG_C)
    2626                            .dwattr $C$DW$T$74, DW_AT_byte_size(0x10)
    2627                    $C$DW$150       .dwtag  DW_TAG_subrange_type
    2628                            .dwattr $C$DW$150, DW_AT_upper_bound(0x03)
    2629                    
    2630                            .dwendtag $C$DW$T$74
    2631                    
    2632                    $C$DW$T$22      .dwtag  DW_TAG_typedef
    2633                            .dwattr $C$DW$T$22, DW_AT_name("__uint32_t")
    2634                            .dwattr $C$DW$T$22, DW_AT_type(*$C$DW$T$11)
    2635                            .dwattr $C$DW$T$22, DW_AT_language(DW_LANG_C)
    2636                            .dwattr $C$DW$T$22, DW_AT_decl_file("C:/ti/ccsv8/tools/compiler/ti-cgt-arm_18.1.3.LTS/include/
    2637                            .dwattr $C$DW$T$22, DW_AT_decl_line(0x3e)
    2638                            .dwattr $C$DW$T$22, DW_AT_decl_column(0x17)
    2639                    
    2640                    $C$DW$T$241     .dwtag  DW_TAG_typedef
TI ARM Assembler PC v18.1.3 Wed Nov 28 13:22:09 2018

Tools Copyright (c) 1996-2017 Texas Instruments Incorporated
C:\Users\Adrian\AppData\Local\Temp\{F87BBCDE-FD87-4EF2-8C66-DFD97B5C0FAE} PAGE   49

    2641                            .dwattr $C$DW$T$241, DW_AT_name("__clock_t")
    2642                            .dwattr $C$DW$T$241, DW_AT_type(*$C$DW$T$22)
    2643                            .dwattr $C$DW$T$241, DW_AT_language(DW_LANG_C)
    2644                            .dwattr $C$DW$T$241, DW_AT_decl_file("C:/ti/ccsv8/tools/compiler/ti-cgt-arm_18.1.3.LTS/include
    2645                            .dwattr $C$DW$T$241, DW_AT_decl_line(0x4d)
    2646                            .dwattr $C$DW$T$241, DW_AT_decl_column(0x14)
    2647                    
    2648                    $C$DW$T$242     .dwtag  DW_TAG_typedef
    2649                            .dwattr $C$DW$T$242, DW_AT_name("__fflags_t")
    2650                            .dwattr $C$DW$T$242, DW_AT_type(*$C$DW$T$22)
    2651                            .dwattr $C$DW$T$242, DW_AT_language(DW_LANG_C)
    2652                            .dwattr $C$DW$T$242, DW_AT_decl_file("C:/ti/ccsv8/tools/compiler/ti-cgt-arm_18.1.3.LTS/include
    2653                            .dwattr $C$DW$T$242, DW_AT_decl_line(0x31)
    2654                            .dwattr $C$DW$T$242, DW_AT_decl_column(0x14)
    2655                    
    2656                    $C$DW$T$243     .dwtag  DW_TAG_typedef
    2657                            .dwattr $C$DW$T$243, DW_AT_name("__fixpt_t")
    2658                            .dwattr $C$DW$T$243, DW_AT_type(*$C$DW$T$22)
    2659                            .dwattr $C$DW$T$243, DW_AT_language(DW_LANG_C)
    2660                            .dwattr $C$DW$T$243, DW_AT_decl_file("C:/ti/ccsv8/tools/compiler/ti-cgt-arm_18.1.3.LTS/include
    2661                            .dwattr $C$DW$T$243, DW_AT_decl_line(0x76)
    2662                            .dwattr $C$DW$T$243, DW_AT_decl_column(0x14)
    2663                    
    2664                    $C$DW$T$244     .dwtag  DW_TAG_typedef
    2665                            .dwattr $C$DW$T$244, DW_AT_name("__gid_t")
    2666                            .dwattr $C$DW$T$244, DW_AT_type(*$C$DW$T$22)
    2667                            .dwattr $C$DW$T$244, DW_AT_language(DW_LANG_C)
    2668                            .dwattr $C$DW$T$244, DW_AT_decl_file("C:/ti/ccsv8/tools/compiler/ti-cgt-arm_18.1.3.LTS/include
    2669                            .dwattr $C$DW$T$244, DW_AT_decl_line(0x34)
    2670                            .dwattr $C$DW$T$244, DW_AT_decl_column(0x14)
    2671                    
    2672                    $C$DW$T$245     .dwtag  DW_TAG_typedef
    2673                            .dwattr $C$DW$T$245, DW_AT_name("__size_t")
    2674                            .dwattr $C$DW$T$245, DW_AT_type(*$C$DW$T$22)
    2675                            .dwattr $C$DW$T$245, DW_AT_language(DW_LANG_C)
    2676                            .dwattr $C$DW$T$245, DW_AT_decl_file("C:/ti/ccsv8/tools/compiler/ti-cgt-arm_18.1.3.LTS/include
    2677                            .dwattr $C$DW$T$245, DW_AT_decl_line(0x5f)
    2678                            .dwattr $C$DW$T$245, DW_AT_decl_column(0x14)
    2679                    
    2680                    $C$DW$T$246     .dwtag  DW_TAG_typedef
    2681                            .dwattr $C$DW$T$246, DW_AT_name("__socklen_t")
    2682                            .dwattr $C$DW$T$246, DW_AT_type(*$C$DW$T$22)
    2683                            .dwattr $C$DW$T$246, DW_AT_language(DW_LANG_C)
    2684                            .dwattr $C$DW$T$246, DW_AT_decl_file("C:/ti/ccsv8/tools/compiler/ti-cgt-arm_18.1.3.LTS/include
    2685                            .dwattr $C$DW$T$246, DW_AT_decl_line(0x44)
    2686                            .dwattr $C$DW$T$246, DW_AT_decl_column(0x14)
    2687                    
    2688                    $C$DW$T$247     .dwtag  DW_TAG_typedef
    2689                            .dwattr $C$DW$T$247, DW_AT_name("__time_t")
    2690                            .dwattr $C$DW$T$247, DW_AT_type(*$C$DW$T$22)
    2691                            .dwattr $C$DW$T$247, DW_AT_language(DW_LANG_C)
    2692                            .dwattr $C$DW$T$247, DW_AT_decl_file("C:/ti/ccsv8/tools/compiler/ti-cgt-arm_18.1.3.LTS/include
    2693                            .dwattr $C$DW$T$247, DW_AT_decl_line(0x64)
    2694                            .dwattr $C$DW$T$247, DW_AT_decl_column(0x19)
    2695                    
TI ARM Assembler PC v18.1.3 Wed Nov 28 13:22:09 2018

Tools Copyright (c) 1996-2017 Texas Instruments Incorporated
C:\Users\Adrian\AppData\Local\Temp\{F87BBCDE-FD87-4EF2-8C66-DFD97B5C0FAE} PAGE   50

    2696                    $C$DW$T$248     .dwtag  DW_TAG_typedef
    2697                            .dwattr $C$DW$T$248, DW_AT_name("__u_register_t")
    2698                            .dwattr $C$DW$T$248, DW_AT_type(*$C$DW$T$22)
    2699                            .dwattr $C$DW$T$248, DW_AT_language(DW_LANG_C)
    2700                            .dwattr $C$DW$T$248, DW_AT_decl_file("C:/ti/ccsv8/tools/compiler/ti-cgt-arm_18.1.3.LTS/include
    2701                            .dwattr $C$DW$T$248, DW_AT_decl_line(0x71)
    2702                            .dwattr $C$DW$T$248, DW_AT_decl_column(0x14)
    2703                    
    2704                    $C$DW$T$249     .dwtag  DW_TAG_typedef
    2705                            .dwattr $C$DW$T$249, DW_AT_name("__uid_t")
    2706                            .dwattr $C$DW$T$249, DW_AT_type(*$C$DW$T$22)
    2707                            .dwattr $C$DW$T$249, DW_AT_language(DW_LANG_C)
    2708                            .dwattr $C$DW$T$249, DW_AT_decl_file("C:/ti/ccsv8/tools/compiler/ti-cgt-arm_18.1.3.LTS/include
    2709                            .dwattr $C$DW$T$249, DW_AT_decl_line(0x48)
    2710                            .dwattr $C$DW$T$249, DW_AT_decl_column(0x14)
    2711                    
    2712                    $C$DW$T$250     .dwtag  DW_TAG_typedef
    2713                            .dwattr $C$DW$T$250, DW_AT_name("__uint_fast16_t")
    2714                            .dwattr $C$DW$T$250, DW_AT_type(*$C$DW$T$22)
    2715                            .dwattr $C$DW$T$250, DW_AT_language(DW_LANG_C)
    2716                            .dwattr $C$DW$T$250, DW_AT_decl_file("C:/ti/ccsv8/tools/compiler/ti-cgt-arm_18.1.3.LTS/include
    2717                            .dwattr $C$DW$T$250, DW_AT_decl_line(0x6a)
    2718                            .dwattr $C$DW$T$250, DW_AT_decl_column(0x14)
    2719                    
    2720                    $C$DW$T$251     .dwtag  DW_TAG_typedef
    2721                            .dwattr $C$DW$T$251, DW_AT_name("uint_fast16_t")
    2722                            .dwattr $C$DW$T$251, DW_AT_type(*$C$DW$T$250)
    2723                            .dwattr $C$DW$T$251, DW_AT_language(DW_LANG_C)
    2724                            .dwattr $C$DW$T$251, DW_AT_decl_file("C:/ti/ccsv8/tools/compiler/ti-cgt-arm_18.1.3.LTS/include
    2725                            .dwattr $C$DW$T$251, DW_AT_decl_line(0x38)
    2726                            .dwattr $C$DW$T$251, DW_AT_decl_column(0x1a)
    2727                    
    2728                    $C$DW$T$252     .dwtag  DW_TAG_typedef
    2729                            .dwattr $C$DW$T$252, DW_AT_name("__uint_fast32_t")
    2730                            .dwattr $C$DW$T$252, DW_AT_type(*$C$DW$T$22)
    2731                            .dwattr $C$DW$T$252, DW_AT_language(DW_LANG_C)
    2732                            .dwattr $C$DW$T$252, DW_AT_decl_file("C:/ti/ccsv8/tools/compiler/ti-cgt-arm_18.1.3.LTS/include
    2733                            .dwattr $C$DW$T$252, DW_AT_decl_line(0x6b)
    2734                            .dwattr $C$DW$T$252, DW_AT_decl_column(0x14)
    2735                    
    2736                    $C$DW$T$253     .dwtag  DW_TAG_typedef
    2737                            .dwattr $C$DW$T$253, DW_AT_name("uint_fast32_t")
    2738                            .dwattr $C$DW$T$253, DW_AT_type(*$C$DW$T$252)
    2739                            .dwattr $C$DW$T$253, DW_AT_language(DW_LANG_C)
    2740                            .dwattr $C$DW$T$253, DW_AT_decl_file("C:/ti/ccsv8/tools/compiler/ti-cgt-arm_18.1.3.LTS/include
    2741                            .dwattr $C$DW$T$253, DW_AT_decl_line(0x39)
    2742                            .dwattr $C$DW$T$253, DW_AT_decl_column(0x1a)
    2743                    
    2744                    $C$DW$T$254     .dwtag  DW_TAG_typedef
    2745                            .dwattr $C$DW$T$254, DW_AT_name("__uint_fast8_t")
    2746                            .dwattr $C$DW$T$254, DW_AT_type(*$C$DW$T$22)
    2747                            .dwattr $C$DW$T$254, DW_AT_language(DW_LANG_C)
    2748                            .dwattr $C$DW$T$254, DW_AT_decl_file("C:/ti/ccsv8/tools/compiler/ti-cgt-arm_18.1.3.LTS/include
    2749                            .dwattr $C$DW$T$254, DW_AT_decl_line(0x69)
    2750                            .dwattr $C$DW$T$254, DW_AT_decl_column(0x14)
TI ARM Assembler PC v18.1.3 Wed Nov 28 13:22:09 2018

Tools Copyright (c) 1996-2017 Texas Instruments Incorporated
C:\Users\Adrian\AppData\Local\Temp\{F87BBCDE-FD87-4EF2-8C66-DFD97B5C0FAE} PAGE   51

    2751                    
    2752                    $C$DW$T$255     .dwtag  DW_TAG_typedef
    2753                            .dwattr $C$DW$T$255, DW_AT_name("uint_fast8_t")
    2754                            .dwattr $C$DW$T$255, DW_AT_type(*$C$DW$T$254)
    2755                            .dwattr $C$DW$T$255, DW_AT_language(DW_LANG_C)
    2756                            .dwattr $C$DW$T$255, DW_AT_decl_file("C:/ti/ccsv8/tools/compiler/ti-cgt-arm_18.1.3.LTS/include
    2757                            .dwattr $C$DW$T$255, DW_AT_decl_line(0x37)
    2758                            .dwattr $C$DW$T$255, DW_AT_decl_column(0x19)
    2759                    
    2760                    $C$DW$T$256     .dwtag  DW_TAG_typedef
    2761                            .dwattr $C$DW$T$256, DW_AT_name("__uint_least32_t")
    2762                            .dwattr $C$DW$T$256, DW_AT_type(*$C$DW$T$22)
    2763                            .dwattr $C$DW$T$256, DW_AT_language(DW_LANG_C)
    2764                            .dwattr $C$DW$T$256, DW_AT_decl_file("C:/ti/ccsv8/tools/compiler/ti-cgt-arm_18.1.3.LTS/include
    2765                            .dwattr $C$DW$T$256, DW_AT_decl_line(0x6f)
    2766                            .dwattr $C$DW$T$256, DW_AT_decl_column(0x14)
    2767                    
    2768                    $C$DW$T$257     .dwtag  DW_TAG_typedef
    2769                            .dwattr $C$DW$T$257, DW_AT_name("__char32_t")
    2770                            .dwattr $C$DW$T$257, DW_AT_type(*$C$DW$T$256)
    2771                            .dwattr $C$DW$T$257, DW_AT_language(DW_LANG_C)
    2772                            .dwattr $C$DW$T$257, DW_AT_decl_file("C:/ti/ccsv8/tools/compiler/ti-cgt-arm_18.1.3.LTS/include
    2773                            .dwattr $C$DW$T$257, DW_AT_decl_line(0x67)
    2774                            .dwattr $C$DW$T$257, DW_AT_decl_column(0x1a)
    2775                    
    2776                    $C$DW$T$258     .dwtag  DW_TAG_typedef
    2777                            .dwattr $C$DW$T$258, DW_AT_name("uint_least32_t")
    2778                            .dwattr $C$DW$T$258, DW_AT_type(*$C$DW$T$256)
    2779                            .dwattr $C$DW$T$258, DW_AT_language(DW_LANG_C)
    2780                            .dwattr $C$DW$T$258, DW_AT_decl_file("C:/ti/ccsv8/tools/compiler/ti-cgt-arm_18.1.3.LTS/include
    2781                            .dwattr $C$DW$T$258, DW_AT_decl_line(0x2f)
    2782                            .dwattr $C$DW$T$258, DW_AT_decl_column(0x1a)
    2783                    
    2784                    $C$DW$T$259     .dwtag  DW_TAG_typedef
    2785                            .dwattr $C$DW$T$259, DW_AT_name("xdc_UInt32")
    2786                            .dwattr $C$DW$T$259, DW_AT_type(*$C$DW$T$258)
    2787                            .dwattr $C$DW$T$259, DW_AT_language(DW_LANG_C)
    2788                            .dwattr $C$DW$T$259, DW_AT_decl_file("C:/ti/simplelink_cc13x0_sdk_2_30_00_20/kernel/tirtos/pac
    2789                            .dwattr $C$DW$T$259, DW_AT_decl_line(0x71)
    2790                            .dwattr $C$DW$T$259, DW_AT_decl_column(0x19)
    2791                    
    2792                    $C$DW$T$260     .dwtag  DW_TAG_typedef
    2793                            .dwattr $C$DW$T$260, DW_AT_name("UInt32")
    2794                            .dwattr $C$DW$T$260, DW_AT_type(*$C$DW$T$259)
    2795                            .dwattr $C$DW$T$260, DW_AT_language(DW_LANG_C)
    2796                            .dwattr $C$DW$T$260, DW_AT_decl_file("C:/ti/xdctools_3_50_08_24_core/packages/xdc/std.h")
    2797                            .dwattr $C$DW$T$260, DW_AT_decl_line(0x100)
    2798                            .dwattr $C$DW$T$260, DW_AT_decl_column(0x19)
    2799                    
    2800                    $C$DW$T$261     .dwtag  DW_TAG_typedef
    2801                            .dwattr $C$DW$T$261, DW_AT_name("Uint32")
    2802                            .dwattr $C$DW$T$261, DW_AT_type(*$C$DW$T$259)
    2803                            .dwattr $C$DW$T$261, DW_AT_language(DW_LANG_C)
    2804                            .dwattr $C$DW$T$261, DW_AT_decl_file("C:/ti/xdctools_3_50_08_24_core/packages/xdc/std.h")
    2805                            .dwattr $C$DW$T$261, DW_AT_decl_line(0x10d)
TI ARM Assembler PC v18.1.3 Wed Nov 28 13:22:09 2018

Tools Copyright (c) 1996-2017 Texas Instruments Incorporated
C:\Users\Adrian\AppData\Local\Temp\{F87BBCDE-FD87-4EF2-8C66-DFD97B5C0FAE} PAGE   52

    2806                            .dwattr $C$DW$T$261, DW_AT_decl_column(0x19)
    2807                    
    2808                    $C$DW$T$262     .dwtag  DW_TAG_typedef
    2809                            .dwattr $C$DW$T$262, DW_AT_name("__uintfptr_t")
    2810                            .dwattr $C$DW$T$262, DW_AT_type(*$C$DW$T$22)
    2811                            .dwattr $C$DW$T$262, DW_AT_language(DW_LANG_C)
    2812                            .dwattr $C$DW$T$262, DW_AT_decl_file("C:/ti/ccsv8/tools/compiler/ti-cgt-arm_18.1.3.LTS/include
    2813                            .dwattr $C$DW$T$262, DW_AT_decl_line(0x66)
    2814                            .dwattr $C$DW$T$262, DW_AT_decl_column(0x14)
    2815                    
    2816                    $C$DW$T$76      .dwtag  DW_TAG_typedef
    2817                            .dwattr $C$DW$T$76, DW_AT_name("__uintptr_t")
    2818                            .dwattr $C$DW$T$76, DW_AT_type(*$C$DW$T$22)
    2819                            .dwattr $C$DW$T$76, DW_AT_language(DW_LANG_C)
    2820                            .dwattr $C$DW$T$76, DW_AT_decl_file("C:/ti/ccsv8/tools/compiler/ti-cgt-arm_18.1.3.LTS/include/
    2821                            .dwattr $C$DW$T$76, DW_AT_decl_line(0x68)
    2822                            .dwattr $C$DW$T$76, DW_AT_decl_column(0x14)
    2823                    
    2824                    $C$DW$T$77      .dwtag  DW_TAG_typedef
    2825                            .dwattr $C$DW$T$77, DW_AT_name("uintptr_t")
    2826                            .dwattr $C$DW$T$77, DW_AT_type(*$C$DW$T$76)
    2827                            .dwattr $C$DW$T$77, DW_AT_language(DW_LANG_C)
    2828                            .dwattr $C$DW$T$77, DW_AT_decl_file("C:/ti/ccsv8/tools/compiler/ti-cgt-arm_18.1.3.LTS/include/
    2829                            .dwattr $C$DW$T$77, DW_AT_decl_line(0x50)
    2830                            .dwattr $C$DW$T$77, DW_AT_decl_column(0x16)
    2831                    
    2832                    $C$DW$T$263     .dwtag  DW_TAG_typedef
    2833                            .dwattr $C$DW$T$263, DW_AT_name("xdc_UArg")
    2834                            .dwattr $C$DW$T$263, DW_AT_type(*$C$DW$T$77)
    2835                            .dwattr $C$DW$T$263, DW_AT_language(DW_LANG_C)
    2836                            .dwattr $C$DW$T$263, DW_AT_decl_file("C:/ti/simplelink_cc13x0_sdk_2_30_00_20/kernel/tirtos/pac
    2837                            .dwattr $C$DW$T$263, DW_AT_decl_line(0x99)
    2838                            .dwattr $C$DW$T$263, DW_AT_decl_column(0x19)
    2839                    
    2840                    $C$DW$T$264     .dwtag  DW_TAG_typedef
    2841                            .dwattr $C$DW$T$264, DW_AT_name("UArg")
    2842                            .dwattr $C$DW$T$264, DW_AT_type(*$C$DW$T$263)
    2843                            .dwattr $C$DW$T$264, DW_AT_language(DW_LANG_C)
    2844                            .dwattr $C$DW$T$264, DW_AT_decl_file("C:/ti/xdctools_3_50_08_24_core/packages/xdc/std.h")
    2845                            .dwattr $C$DW$T$264, DW_AT_decl_line(0xf1)
    2846                            .dwattr $C$DW$T$264, DW_AT_decl_column(0x19)
    2847                    
    2848                    $C$DW$T$265     .dwtag  DW_TAG_typedef
    2849                            .dwattr $C$DW$T$265, DW_AT_name("__vm_offset_t")
    2850                            .dwattr $C$DW$T$265, DW_AT_type(*$C$DW$T$22)
    2851                            .dwattr $C$DW$T$265, DW_AT_language(DW_LANG_C)
    2852                            .dwattr $C$DW$T$265, DW_AT_decl_file("C:/ti/ccsv8/tools/compiler/ti-cgt-arm_18.1.3.LTS/include
    2853                            .dwattr $C$DW$T$265, DW_AT_decl_line(0x72)
    2854                            .dwattr $C$DW$T$265, DW_AT_decl_column(0x14)
    2855                    
    2856                    $C$DW$T$266     .dwtag  DW_TAG_typedef
    2857                            .dwattr $C$DW$T$266, DW_AT_name("__vm_paddr_t")
    2858                            .dwattr $C$DW$T$266, DW_AT_type(*$C$DW$T$22)
    2859                            .dwattr $C$DW$T$266, DW_AT_language(DW_LANG_C)
    2860                            .dwattr $C$DW$T$266, DW_AT_decl_file("C:/ti/ccsv8/tools/compiler/ti-cgt-arm_18.1.3.LTS/include
TI ARM Assembler PC v18.1.3 Wed Nov 28 13:22:09 2018

Tools Copyright (c) 1996-2017 Texas Instruments Incorporated
C:\Users\Adrian\AppData\Local\Temp\{F87BBCDE-FD87-4EF2-8C66-DFD97B5C0FAE} PAGE   53

    2861                            .dwattr $C$DW$T$266, DW_AT_decl_line(0x73)
    2862                            .dwattr $C$DW$T$266, DW_AT_decl_column(0x14)
    2863                    
    2864                    $C$DW$T$267     .dwtag  DW_TAG_typedef
    2865                            .dwattr $C$DW$T$267, DW_AT_name("__vm_size_t")
    2866                            .dwattr $C$DW$T$267, DW_AT_type(*$C$DW$T$22)
    2867                            .dwattr $C$DW$T$267, DW_AT_language(DW_LANG_C)
    2868                            .dwattr $C$DW$T$267, DW_AT_decl_file("C:/ti/ccsv8/tools/compiler/ti-cgt-arm_18.1.3.LTS/include
    2869                            .dwattr $C$DW$T$267, DW_AT_decl_line(0x74)
    2870                            .dwattr $C$DW$T$267, DW_AT_decl_column(0x14)
    2871                    
    2872                    $C$DW$T$23      .dwtag  DW_TAG_typedef
    2873                            .dwattr $C$DW$T$23, DW_AT_name("uint32_t")
    2874                            .dwattr $C$DW$T$23, DW_AT_type(*$C$DW$T$22)
    2875                            .dwattr $C$DW$T$23, DW_AT_language(DW_LANG_C)
    2876                            .dwattr $C$DW$T$23, DW_AT_decl_file("C:/ti/ccsv8/tools/compiler/ti-cgt-arm_18.1.3.LTS/include/
    2877                            .dwattr $C$DW$T$23, DW_AT_decl_line(0x42)
    2878                            .dwattr $C$DW$T$23, DW_AT_decl_column(0x15)
    2879                    
    2880                    $C$DW$T$141     .dwtag  DW_TAG_typedef
    2881                            .dwattr $C$DW$T$141, DW_AT_name("PIN_Config")
    2882                            .dwattr $C$DW$T$141, DW_AT_type(*$C$DW$T$23)
    2883                            .dwattr $C$DW$T$141, DW_AT_language(DW_LANG_C)
    2884                            .dwattr $C$DW$T$141, DW_AT_decl_file("C:/ti/simplelink_cc13x0_sdk_2_30_00_20/source/ti/drivers
    2885                            .dwattr $C$DW$T$141, DW_AT_decl_line(0x255)
    2886                            .dwattr $C$DW$T$141, DW_AT_decl_column(0x12)
    2887                    
    2888                    $C$DW$T$142     .dwtag  DW_TAG_const_type
    2889                            .dwattr $C$DW$T$142, DW_AT_type(*$C$DW$T$141)
    2890                    
    2891                    $C$DW$T$143     .dwtag  DW_TAG_pointer_type
    2892                            .dwattr $C$DW$T$143, DW_AT_type(*$C$DW$T$142)
    2893                            .dwattr $C$DW$T$143, DW_AT_address_class(0x20)
    2894                    
    2895                    
    2896                    $C$DW$T$268     .dwtag  DW_TAG_array_type
    2897                            .dwattr $C$DW$T$268, DW_AT_type(*$C$DW$T$141)
    2898                            .dwattr $C$DW$T$268, DW_AT_language(DW_LANG_C)
    2899                            .dwattr $C$DW$T$268, DW_AT_byte_size(0x10)
    2900                    $C$DW$151       .dwtag  DW_TAG_subrange_type
    2901                            .dwattr $C$DW$151, DW_AT_upper_bound(0x03)
    2902                    
    2903                            .dwendtag $C$DW$T$268
    2904                    
    2905                    
    2906                    $C$DW$T$27      .dwtag  DW_TAG_subroutine_type
    2907                            .dwattr $C$DW$T$27, DW_AT_type(*$C$DW$T$23)
    2908                            .dwattr $C$DW$T$27, DW_AT_language(DW_LANG_C)
    2909                    $C$DW$152       .dwtag  DW_TAG_formal_parameter
    2910                            .dwattr $C$DW$152, DW_AT_type(*$C$DW$T$26)
    2911                    
    2912                    $C$DW$153       .dwtag  DW_TAG_formal_parameter
    2913                            .dwattr $C$DW$153, DW_AT_type(*$C$DW$T$23)
    2914                    
    2915                    $C$DW$154       .dwtag  DW_TAG_formal_parameter
TI ARM Assembler PC v18.1.3 Wed Nov 28 13:22:09 2018

Tools Copyright (c) 1996-2017 Texas Instruments Incorporated
C:\Users\Adrian\AppData\Local\Temp\{F87BBCDE-FD87-4EF2-8C66-DFD97B5C0FAE} PAGE   54

    2916                            .dwattr $C$DW$154, DW_AT_type(*$C$DW$T$23)
    2917                    
    2918                            .dwendtag $C$DW$T$27
    2919                    
    2920                    $C$DW$T$28      .dwtag  DW_TAG_pointer_type
    2921                            .dwattr $C$DW$T$28, DW_AT_type(*$C$DW$T$27)
    2922                            .dwattr $C$DW$T$28, DW_AT_address_class(0x20)
    2923                    
    2924                    $C$DW$T$29      .dwtag  DW_TAG_typedef
    2925                            .dwattr $C$DW$T$29, DW_AT_name("FPTR_CRC32_T")
    2926                            .dwattr $C$DW$T$29, DW_AT_type(*$C$DW$T$28)
    2927                            .dwattr $C$DW$T$29, DW_AT_language(DW_LANG_C)
    2928                            .dwattr $C$DW$T$29, DW_AT_decl_file("C:\ti\simplelink_cc13x0_sdk_2_30_00_20\source\ti\devices\
    2929                            .dwattr $C$DW$T$29, DW_AT_decl_line(0x3e)
    2930                            .dwattr $C$DW$T$29, DW_AT_decl_column(0x19)
    2931                    
    2932                    $C$DW$T$38      .dwtag  DW_TAG_typedef
    2933                            .dwattr $C$DW$T$38, DW_AT_name("FPTR_RESERVED3_T")
    2934                            .dwattr $C$DW$T$38, DW_AT_type(*$C$DW$T$28)
    2935                            .dwattr $C$DW$T$38, DW_AT_language(DW_LANG_C)
    2936                            .dwattr $C$DW$T$38, DW_AT_decl_file("C:\ti\simplelink_cc13x0_sdk_2_30_00_20\source\ti\devices\
    2937                            .dwattr $C$DW$T$38, DW_AT_decl_line(0x4a)
    2938                            .dwattr $C$DW$T$38, DW_AT_decl_column(0x19)
    2939                    
    2940                    
    2941                    $C$DW$T$30      .dwtag  DW_TAG_subroutine_type
    2942                            .dwattr $C$DW$T$30, DW_AT_type(*$C$DW$T$23)
    2943                            .dwattr $C$DW$T$30, DW_AT_language(DW_LANG_C)
    2944                            .dwendtag $C$DW$T$30
    2945                    
    2946                    $C$DW$T$31      .dwtag  DW_TAG_pointer_type
    2947                            .dwattr $C$DW$T$31, DW_AT_type(*$C$DW$T$30)
    2948                            .dwattr $C$DW$T$31, DW_AT_address_class(0x20)
    2949                    
    2950                    $C$DW$T$33      .dwtag  DW_TAG_typedef
    2951                            .dwattr $C$DW$T$33, DW_AT_name("FPTR_GETCHIPID_T")
    2952                            .dwattr $C$DW$T$33, DW_AT_type(*$C$DW$T$31)
    2953                            .dwattr $C$DW$T$33, DW_AT_language(DW_LANG_C)
    2954                            .dwattr $C$DW$T$33, DW_AT_decl_file("C:\ti\simplelink_cc13x0_sdk_2_30_00_20\source\ti\devices\
    2955                            .dwattr $C$DW$T$33, DW_AT_decl_line(0x44)
    2956                            .dwattr $C$DW$T$33, DW_AT_decl_column(0x19)
    2957                    
    2958                    $C$DW$T$32      .dwtag  DW_TAG_typedef
    2959                            .dwattr $C$DW$T$32, DW_AT_name("FPTR_GETFLSIZE_T")
    2960                            .dwattr $C$DW$T$32, DW_AT_type(*$C$DW$T$31)
    2961                            .dwattr $C$DW$T$32, DW_AT_language(DW_LANG_C)
    2962                            .dwattr $C$DW$T$32, DW_AT_decl_file("C:\ti\simplelink_cc13x0_sdk_2_30_00_20\source\ti\devices\
    2963                            .dwattr $C$DW$T$32, DW_AT_decl_line(0x42)
    2964                            .dwattr $C$DW$T$32, DW_AT_decl_column(0x19)
    2965                    
    2966                    $C$DW$T$37      .dwtag  DW_TAG_typedef
    2967                            .dwattr $C$DW$T$37, DW_AT_name("FPTR_RESERVED2_T")
    2968                            .dwattr $C$DW$T$37, DW_AT_type(*$C$DW$T$31)
    2969                            .dwattr $C$DW$T$37, DW_AT_language(DW_LANG_C)
    2970                            .dwattr $C$DW$T$37, DW_AT_decl_file("C:\ti\simplelink_cc13x0_sdk_2_30_00_20\source\ti\devices\
TI ARM Assembler PC v18.1.3 Wed Nov 28 13:22:09 2018

Tools Copyright (c) 1996-2017 Texas Instruments Incorporated
C:\Users\Adrian\AppData\Local\Temp\{F87BBCDE-FD87-4EF2-8C66-DFD97B5C0FAE} PAGE   55

    2971                            .dwattr $C$DW$T$37, DW_AT_decl_line(0x48)
    2972                            .dwattr $C$DW$T$37, DW_AT_decl_column(0x19)
    2973                    
    2974                    
    2975                    $C$DW$T$34      .dwtag  DW_TAG_subroutine_type
    2976                            .dwattr $C$DW$T$34, DW_AT_type(*$C$DW$T$23)
    2977                            .dwattr $C$DW$T$34, DW_AT_language(DW_LANG_C)
    2978                    $C$DW$155       .dwtag  DW_TAG_formal_parameter
    2979                            .dwattr $C$DW$155, DW_AT_type(*$C$DW$T$23)
    2980                    
    2981                            .dwendtag $C$DW$T$34
    2982                    
    2983                    $C$DW$T$35      .dwtag  DW_TAG_pointer_type
    2984                            .dwattr $C$DW$T$35, DW_AT_type(*$C$DW$T$34)
    2985                            .dwattr $C$DW$T$35, DW_AT_address_class(0x20)
    2986                    
    2987                    $C$DW$T$36      .dwtag  DW_TAG_typedef
    2988                            .dwattr $C$DW$T$36, DW_AT_name("FPTR_RESERVED1_T")
    2989                            .dwattr $C$DW$T$36, DW_AT_type(*$C$DW$T$35)
    2990                            .dwattr $C$DW$T$36, DW_AT_language(DW_LANG_C)
    2991                            .dwattr $C$DW$T$36, DW_AT_decl_file("C:\ti\simplelink_cc13x0_sdk_2_30_00_20\source\ti\devices\
    2992                            .dwattr $C$DW$T$36, DW_AT_decl_line(0x46)
    2993                            .dwattr $C$DW$T$36, DW_AT_decl_column(0x19)
    2994                    
    2995                    
    2996                    $C$DW$T$45      .dwtag  DW_TAG_subroutine_type
    2997                            .dwattr $C$DW$T$45, DW_AT_type(*$C$DW$T$23)
    2998                            .dwattr $C$DW$T$45, DW_AT_language(DW_LANG_C)
    2999                    $C$DW$156       .dwtag  DW_TAG_formal_parameter
    3000                            .dwattr $C$DW$156, DW_AT_type(*$C$DW$T$44)
    3001                    
    3002                    $C$DW$157       .dwtag  DW_TAG_formal_parameter
    3003                            .dwattr $C$DW$157, DW_AT_type(*$C$DW$T$43)
    3004                    
    3005                    $C$DW$158       .dwtag  DW_TAG_formal_parameter
    3006                            .dwattr $C$DW$158, DW_AT_type(*$C$DW$T$43)
    3007                    
    3008                            .dwendtag $C$DW$T$45
    3009                    
    3010                    $C$DW$T$46      .dwtag  DW_TAG_pointer_type
    3011                            .dwattr $C$DW$T$46, DW_AT_type(*$C$DW$T$45)
    3012                            .dwattr $C$DW$T$46, DW_AT_address_class(0x20)
    3013                    
    3014                    $C$DW$T$47      .dwtag  DW_TAG_typedef
    3015                            .dwattr $C$DW$T$47, DW_AT_name("FPTR_FLETCHER32_T")
    3016                            .dwattr $C$DW$T$47, DW_AT_type(*$C$DW$T$46)
    3017                            .dwattr $C$DW$T$47, DW_AT_language(DW_LANG_C)
    3018                            .dwattr $C$DW$T$47, DW_AT_decl_file("C:\ti\simplelink_cc13x0_sdk_2_30_00_20\source\ti\devices\
    3019                            .dwattr $C$DW$T$47, DW_AT_decl_line(0x4f)
    3020                            .dwattr $C$DW$T$47, DW_AT_decl_column(0x19)
    3021                    
    3022                    $C$DW$T$48      .dwtag  DW_TAG_pointer_type
    3023                            .dwattr $C$DW$T$48, DW_AT_type(*$C$DW$T$23)
    3024                            .dwattr $C$DW$T$48, DW_AT_address_class(0x20)
    3025                    
TI ARM Assembler PC v18.1.3 Wed Nov 28 13:22:09 2018

Tools Copyright (c) 1996-2017 Texas Instruments Incorporated
C:\Users\Adrian\AppData\Local\Temp\{F87BBCDE-FD87-4EF2-8C66-DFD97B5C0FAE} PAGE   56

    3026                    
    3027                    $C$DW$T$49      .dwtag  DW_TAG_subroutine_type
    3028                            .dwattr $C$DW$T$49, DW_AT_type(*$C$DW$T$23)
    3029                            .dwattr $C$DW$T$49, DW_AT_language(DW_LANG_C)
    3030                    $C$DW$159       .dwtag  DW_TAG_formal_parameter
    3031                            .dwattr $C$DW$159, DW_AT_type(*$C$DW$T$48)
    3032                    
    3033                    $C$DW$160       .dwtag  DW_TAG_formal_parameter
    3034                            .dwattr $C$DW$160, DW_AT_type(*$C$DW$T$23)
    3035                    
    3036                            .dwendtag $C$DW$T$49
    3037                    
    3038                    $C$DW$T$50      .dwtag  DW_TAG_pointer_type
    3039                            .dwattr $C$DW$T$50, DW_AT_type(*$C$DW$T$49)
    3040                            .dwattr $C$DW$T$50, DW_AT_address_class(0x20)
    3041                    
    3042                    $C$DW$T$52      .dwtag  DW_TAG_typedef
    3043                            .dwattr $C$DW$T$52, DW_AT_name("FPTR_MAXVAL_T")
    3044                            .dwattr $C$DW$T$52, DW_AT_type(*$C$DW$T$50)
    3045                            .dwattr $C$DW$T$52, DW_AT_language(DW_LANG_C)
    3046                            .dwattr $C$DW$T$52, DW_AT_decl_file("C:\ti\simplelink_cc13x0_sdk_2_30_00_20\source\ti\devices\
    3047                            .dwattr $C$DW$T$52, DW_AT_decl_line(0x56)
    3048                            .dwattr $C$DW$T$52, DW_AT_decl_column(0x19)
    3049                    
    3050                    $C$DW$T$53      .dwtag  DW_TAG_typedef
    3051                            .dwattr $C$DW$T$53, DW_AT_name("FPTR_MEANVAL_T")
    3052                            .dwattr $C$DW$T$53, DW_AT_type(*$C$DW$T$50)
    3053                            .dwattr $C$DW$T$53, DW_AT_language(DW_LANG_C)
    3054                            .dwattr $C$DW$T$53, DW_AT_decl_file("C:\ti\simplelink_cc13x0_sdk_2_30_00_20\source\ti\devices\
    3055                            .dwattr $C$DW$T$53, DW_AT_decl_line(0x59)
    3056                            .dwattr $C$DW$T$53, DW_AT_decl_column(0x19)
    3057                    
    3058                    $C$DW$T$51      .dwtag  DW_TAG_typedef
    3059                            .dwattr $C$DW$T$51, DW_AT_name("FPTR_MINVAL_T")
    3060                            .dwattr $C$DW$T$51, DW_AT_type(*$C$DW$T$50)
    3061                            .dwattr $C$DW$T$51, DW_AT_language(DW_LANG_C)
    3062                            .dwattr $C$DW$T$51, DW_AT_decl_file("C:\ti\simplelink_cc13x0_sdk_2_30_00_20\source\ti\devices\
    3063                            .dwattr $C$DW$T$51, DW_AT_decl_line(0x53)
    3064                            .dwattr $C$DW$T$51, DW_AT_decl_column(0x19)
    3065                    
    3066                    $C$DW$T$54      .dwtag  DW_TAG_typedef
    3067                            .dwattr $C$DW$T$54, DW_AT_name("FPTR_STDDVAL_T")
    3068                            .dwattr $C$DW$T$54, DW_AT_type(*$C$DW$T$50)
    3069                            .dwattr $C$DW$T$54, DW_AT_language(DW_LANG_C)
    3070                            .dwattr $C$DW$T$54, DW_AT_decl_file("C:\ti\simplelink_cc13x0_sdk_2_30_00_20\source\ti\devices\
    3071                            .dwattr $C$DW$T$54, DW_AT_decl_line(0x5c)
