TI ARM Assembler PC v18.1.3 Wed Nov 28 13:22:11 2018

Tools Copyright (c) 1996-2017 Texas Instruments Incorporated
C:\Users\Adrian\AppData\Local\Temp\{54D4664F-6A53-4525-80FB-24266563E3CC} PAGE    1

       1                    ;******************************************************************************
       2                    ;* TI ARM C/C++ Codegen                                        PC v18.1.3.LTS *
       3                    ;* Date/Time created: Wed Nov 28 13:22:10 2018                                *
       4                    ;******************************************************************************
       5                            .compiler_opts --abi=eabi --arm_vmrs_si_workaround=off --code_state=16 --diag_wrap=off --embed
       6 00000000                   .thumb
       7                    
       8                    $C$DW$CU        .dwtag  DW_TAG_compile_unit
       9                            .dwattr $C$DW$CU, DW_AT_name("../Application/collector.c")
      10                            .dwattr $C$DW$CU, DW_AT_producer("TI TI ARM C/C++ Codegen PC v18.1.3.LTS Copyright (c) 1996-20
      11                            .dwattr $C$DW$CU, DW_AT_TI_version(0x01)
      12                            .dwattr $C$DW$CU, DW_AT_comp_dir("C:\Users\Adrian\workspace_v8\collector_cc1350lp\collector_cc
      13                    
      14                    $C$DW$1 .dwtag  DW_TAG_subprogram
      15                            .dwattr $C$DW$1, DW_AT_name("initializeClocks")
      16                            .dwattr $C$DW$1, DW_AT_TI_symbol_name("initializeClocks")
      17                            .dwattr $C$DW$1, DW_AT_declaration
      18                            .dwattr $C$DW$1, DW_AT_external
      19                            .dwattr $C$DW$1, DW_AT_decl_file("../Application/collector.c")
      20                            .dwattr $C$DW$1, DW_AT_decl_line(0x21c)
      21                            .dwattr $C$DW$1, DW_AT_decl_column(0x0d)
      22                            .dwendtag $C$DW$1
      23                    
      24                    
      25                    $C$DW$2 .dwtag  DW_TAG_subprogram
      26                            .dwattr $C$DW$2, DW_AT_name("processStartEvent")
      27                            .dwattr $C$DW$2, DW_AT_TI_symbol_name("processStartEvent")
      28                            .dwattr $C$DW$2, DW_AT_declaration
      29                            .dwattr $C$DW$2, DW_AT_external
      30                            .dwattr $C$DW$2, DW_AT_decl_file("../Application/collector.c")
      31                            .dwattr $C$DW$2, DW_AT_decl_line(0x336)
      32                            .dwattr $C$DW$2, DW_AT_decl_column(0x0d)
      33                            .dwendtag $C$DW$2
      34                    
      35                    
      36                    $C$DW$3 .dwtag  DW_TAG_subprogram
      37                            .dwattr $C$DW$3, DW_AT_name("processConfigResponse")
      38                            .dwattr $C$DW$3, DW_AT_TI_symbol_name("processConfigResponse")
      39                            .dwattr $C$DW$3, DW_AT_declaration
      40                            .dwattr $C$DW$3, DW_AT_external
      41                            .dwattr $C$DW$3, DW_AT_decl_file("../Application/collector.c")
      42                            .dwattr $C$DW$3, DW_AT_decl_line(0x361)
      43                            .dwattr $C$DW$3, DW_AT_decl_column(0x0d)
      44                    $C$DW$4 .dwtag  DW_TAG_formal_parameter
      45                            .dwattr $C$DW$4, DW_AT_type(*$C$DW$T$198)
      46                    
      47                            .dwendtag $C$DW$3
      48                    
      49                    
      50                    $C$DW$5 .dwtag  DW_TAG_subprogram
      51                            .dwattr $C$DW$5, DW_AT_name("processTrackingResponse")
      52                            .dwattr $C$DW$5, DW_AT_TI_symbol_name("processTrackingResponse")
      53                            .dwattr $C$DW$5, DW_AT_declaration
      54                            .dwattr $C$DW$5, DW_AT_external
      55                            .dwattr $C$DW$5, DW_AT_decl_file("../Application/collector.c")
TI ARM Assembler PC v18.1.3 Wed Nov 28 13:22:11 2018

Tools Copyright (c) 1996-2017 Texas Instruments Incorporated
C:\Users\Adrian\AppData\Local\Temp\{54D4664F-6A53-4525-80FB-24266563E3CC} PAGE    2

      56                            .dwattr $C$DW$5, DW_AT_decl_line(0x393)
      57                            .dwattr $C$DW$5, DW_AT_decl_column(0x0d)
      58                    $C$DW$6 .dwtag  DW_TAG_formal_parameter
      59                            .dwattr $C$DW$6, DW_AT_type(*$C$DW$T$198)
      60                    
      61                            .dwendtag $C$DW$5
      62                    
      63                    
      64                    $C$DW$7 .dwtag  DW_TAG_subprogram
      65                            .dwattr $C$DW$7, DW_AT_name("processToggleLedResponse")
      66                            .dwattr $C$DW$7, DW_AT_TI_symbol_name("processToggleLedResponse")
      67                            .dwattr $C$DW$7, DW_AT_declaration
      68                            .dwattr $C$DW$7, DW_AT_external
      69                            .dwattr $C$DW$7, DW_AT_decl_file("../Application/collector.c")
      70                            .dwattr $C$DW$7, DW_AT_decl_line(0x3d2)
      71                            .dwattr $C$DW$7, DW_AT_decl_column(0x0d)
      72                    $C$DW$8 .dwtag  DW_TAG_formal_parameter
      73                            .dwattr $C$DW$8, DW_AT_type(*$C$DW$T$198)
      74                    
      75                            .dwendtag $C$DW$7
      76                    
      77                    
      78                    $C$DW$9 .dwtag  DW_TAG_subprogram
      79                            .dwattr $C$DW$9, DW_AT_name("generateConfigRequests")
      80                            .dwattr $C$DW$9, DW_AT_TI_symbol_name("generateConfigRequests")
      81                            .dwattr $C$DW$9, DW_AT_declaration
      82                            .dwattr $C$DW$9, DW_AT_external
      83                            .dwattr $C$DW$9, DW_AT_decl_file("../Application/collector.c")
      84                            .dwattr $C$DW$9, DW_AT_decl_line(0x57d)
      85                            .dwattr $C$DW$9, DW_AT_decl_column(0x0d)
      86                            .dwendtag $C$DW$9
      87                    
      88                    
      89                    $C$DW$10        .dwtag  DW_TAG_subprogram
      90                            .dwattr $C$DW$10, DW_AT_name("generateBroadcastCmd")
      91                            .dwattr $C$DW$10, DW_AT_TI_symbol_name("generateBroadcastCmd")
      92                            .dwattr $C$DW$10, DW_AT_declaration
      93                            .dwattr $C$DW$10, DW_AT_external
      94                            .dwattr $C$DW$10, DW_AT_decl_file("../Application/collector.c")
      95                            .dwattr $C$DW$10, DW_AT_decl_line(0x65c)
      96                            .dwattr $C$DW$10, DW_AT_decl_column(0x0d)
      97                            .dwendtag $C$DW$10
      98                    
      99                    $C$DW$11        .dwtag  DW_TAG_variable
     100                            .dwattr $C$DW$11, DW_AT_name("Cllc_associatedDevList")
     101                            .dwattr $C$DW$11, DW_AT_TI_symbol_name("Cllc_associatedDevList")
     102                            .dwattr $C$DW$11, DW_AT_type(*$C$DW$T$393)
     103                            .dwattr $C$DW$11, DW_AT_declaration
     104                            .dwattr $C$DW$11, DW_AT_external
     105                            .dwattr $C$DW$11, DW_AT_decl_file("..\Application\cllc.h")
     106                            .dwattr $C$DW$11, DW_AT_decl_line(0x94)
     107                            .dwattr $C$DW$11, DW_AT_decl_column(0x22)
     108                    
     109                    
     110                    $C$DW$12        .dwtag  DW_TAG_subprogram
TI ARM Assembler PC v18.1.3 Wed Nov 28 13:22:11 2018

Tools Copyright (c) 1996-2017 Texas Instruments Incorporated
C:\Users\Adrian\AppData\Local\Temp\{54D4664F-6A53-4525-80FB-24266563E3CC} PAGE    3

     111                            .dwattr $C$DW$12, DW_AT_name("memset")
     112                            .dwattr $C$DW$12, DW_AT_TI_symbol_name("memset")
     113                            .dwattr $C$DW$12, DW_AT_type(*$C$DW$T$3)
     114                            .dwattr $C$DW$12, DW_AT_declaration
     115                            .dwattr $C$DW$12, DW_AT_external
     116                            .dwattr $C$DW$12, DW_AT_decl_file("C:/ti/ccsv8/tools/compiler/ti-cgt-arm_18.1.3.LTS/include/st
     117                            .dwattr $C$DW$12, DW_AT_decl_line(0x7a)
     118                            .dwattr $C$DW$12, DW_AT_decl_column(0x16)
     119                    $C$DW$13        .dwtag  DW_TAG_formal_parameter
     120                            .dwattr $C$DW$13, DW_AT_type(*$C$DW$T$3)
     121                    
     122                    $C$DW$14        .dwtag  DW_TAG_formal_parameter
     123                            .dwattr $C$DW$14, DW_AT_type(*$C$DW$T$10)
     124                    
     125                    $C$DW$15        .dwtag  DW_TAG_formal_parameter
     126                            .dwattr $C$DW$15, DW_AT_type(*$C$DW$T$427)
     127                    
     128                            .dwendtag $C$DW$12
     129                    
     130                    
     131                    $C$DW$16        .dwtag  DW_TAG_subprogram
     132                            .dwattr $C$DW$16, DW_AT_name("ApiMac_init")
     133                            .dwattr $C$DW$16, DW_AT_TI_symbol_name("ApiMac_init")
     134                            .dwattr $C$DW$16, DW_AT_type(*$C$DW$T$3)
     135                            .dwattr $C$DW$16, DW_AT_declaration
     136                            .dwattr $C$DW$16, DW_AT_external
     137                            .dwattr $C$DW$16, DW_AT_decl_file("..\Application\api_mac.h")
     138                            .dwattr $C$DW$16, DW_AT_decl_line(0x9b1)
     139                            .dwattr $C$DW$16, DW_AT_decl_column(0x0e)
     140                    $C$DW$17        .dwtag  DW_TAG_formal_parameter
     141                            .dwattr $C$DW$17, DW_AT_type(*$C$DW$T$31)
     142                    
     143                            .dwendtag $C$DW$16
     144                    
     145                    
     146                    $C$DW$18        .dwtag  DW_TAG_subprogram
     147                            .dwattr $C$DW$18, DW_AT_name("ApiMac_mlmeSetReqUint8")
     148                            .dwattr $C$DW$18, DW_AT_TI_symbol_name("ApiMac_mlmeSetReqUint8")
     149                            .dwattr $C$DW$18, DW_AT_type(*$C$DW$T$242)
     150                            .dwattr $C$DW$18, DW_AT_declaration
     151                            .dwattr $C$DW$18, DW_AT_external
     152                            .dwattr $C$DW$18, DW_AT_decl_file("..\Application\api_mac.h")
     153                            .dwattr $C$DW$18, DW_AT_decl_line(0xb6d)
     154                            .dwattr $C$DW$18, DW_AT_decl_column(0x18)
     155                    $C$DW$19        .dwtag  DW_TAG_formal_parameter
     156                            .dwattr $C$DW$19, DW_AT_type(*$C$DW$T$323)
     157                    
     158                    $C$DW$20        .dwtag  DW_TAG_formal_parameter
     159                            .dwattr $C$DW$20, DW_AT_type(*$C$DW$T$27)
     160                    
     161                            .dwendtag $C$DW$18
     162                    
     163                    
     164                    $C$DW$21        .dwtag  DW_TAG_subprogram
     165                            .dwattr $C$DW$21, DW_AT_name("Cllc_init")
TI ARM Assembler PC v18.1.3 Wed Nov 28 13:22:11 2018

Tools Copyright (c) 1996-2017 Texas Instruments Incorporated
C:\Users\Adrian\AppData\Local\Temp\{54D4664F-6A53-4525-80FB-24266563E3CC} PAGE    4

     166                            .dwattr $C$DW$21, DW_AT_TI_symbol_name("Cllc_init")
     167                            .dwattr $C$DW$21, DW_AT_declaration
     168                            .dwattr $C$DW$21, DW_AT_external
     169                            .dwattr $C$DW$21, DW_AT_decl_file("..\Application\cllc.h")
     170                            .dwattr $C$DW$21, DW_AT_decl_line(0xd5)
     171                            .dwattr $C$DW$21, DW_AT_decl_column(0x0d)
     172                    $C$DW$22        .dwtag  DW_TAG_formal_parameter
     173                            .dwattr $C$DW$22, DW_AT_type(*$C$DW$T$438)
     174                    
     175                    $C$DW$23        .dwtag  DW_TAG_formal_parameter
     176                            .dwattr $C$DW$23, DW_AT_type(*$C$DW$T$411)
     177                    
     178                            .dwendtag $C$DW$21
     179                    
     180                    
     181                    $C$DW$24        .dwtag  DW_TAG_subprogram
     182                            .dwattr $C$DW$24, DW_AT_name("ApiMac_registerCallbacks")
     183                            .dwattr $C$DW$24, DW_AT_TI_symbol_name("ApiMac_registerCallbacks")
     184                            .dwattr $C$DW$24, DW_AT_declaration
     185                            .dwattr $C$DW$24, DW_AT_external
     186                            .dwattr $C$DW$24, DW_AT_decl_file("..\Application\api_mac.h")
     187                            .dwattr $C$DW$24, DW_AT_decl_line(0x9b8)
     188                            .dwattr $C$DW$24, DW_AT_decl_column(0x0d)
     189                    $C$DW$25        .dwtag  DW_TAG_formal_parameter
     190                            .dwattr $C$DW$25, DW_AT_type(*$C$DW$T$438)
     191                    
     192                            .dwendtag $C$DW$24
     193                    
     194                    
     195                    $C$DW$26        .dwtag  DW_TAG_subprogram
     196                            .dwattr $C$DW$26, DW_AT_name("Csf_init")
     197                            .dwattr $C$DW$26, DW_AT_TI_symbol_name("Csf_init")
     198                            .dwattr $C$DW$26, DW_AT_declaration
     199                            .dwattr $C$DW$26, DW_AT_external
     200                            .dwattr $C$DW$26, DW_AT_decl_file("..\Application\csf.h")
     201                            .dwattr $C$DW$26, DW_AT_decl_line(0x58)
     202                            .dwattr $C$DW$26, DW_AT_decl_column(0x0d)
     203                    $C$DW$27        .dwtag  DW_TAG_formal_parameter
     204                            .dwattr $C$DW$27, DW_AT_type(*$C$DW$T$3)
     205                    
     206                            .dwendtag $C$DW$26
     207                    
     208                    
     209                    $C$DW$28        .dwtag  DW_TAG_subprogram
     210                            .dwattr $C$DW$28, DW_AT_name("ApiMac_mlmeSetReqUint16")
     211                            .dwattr $C$DW$28, DW_AT_TI_symbol_name("ApiMac_mlmeSetReqUint16")
     212                            .dwattr $C$DW$28, DW_AT_type(*$C$DW$T$242)
     213                            .dwattr $C$DW$28, DW_AT_declaration
     214                            .dwattr $C$DW$28, DW_AT_external
     215                            .dwattr $C$DW$28, DW_AT_decl_file("..\Application\api_mac.h")
     216                            .dwattr $C$DW$28, DW_AT_decl_line(0xb7a)
     217                            .dwattr $C$DW$28, DW_AT_decl_column(0x18)
     218                    $C$DW$29        .dwtag  DW_TAG_formal_parameter
     219                            .dwattr $C$DW$29, DW_AT_type(*$C$DW$T$326)
     220                    
TI ARM Assembler PC v18.1.3 Wed Nov 28 13:22:11 2018

Tools Copyright (c) 1996-2017 Texas Instruments Incorporated
C:\Users\Adrian\AppData\Local\Temp\{54D4664F-6A53-4525-80FB-24266563E3CC} PAGE    5

     221                    $C$DW$30        .dwtag  DW_TAG_formal_parameter
     222                            .dwattr $C$DW$30, DW_AT_type(*$C$DW$T$34)
     223                    
     224                            .dwendtag $C$DW$28
     225                    
     226                    
     227                    $C$DW$31        .dwtag  DW_TAG_subprogram
     228                            .dwattr $C$DW$31, DW_AT_name("Csf_setBroadcastClock")
     229                            .dwattr $C$DW$31, DW_AT_TI_symbol_name("Csf_setBroadcastClock")
     230                            .dwattr $C$DW$31, DW_AT_declaration
     231                            .dwattr $C$DW$31, DW_AT_external
     232                            .dwattr $C$DW$31, DW_AT_decl_file("..\Application\csf.h")
     233                            .dwattr $C$DW$31, DW_AT_decl_line(0xf2)
     234                            .dwattr $C$DW$31, DW_AT_decl_column(0x0d)
     235                    $C$DW$32        .dwtag  DW_TAG_formal_parameter
     236                            .dwattr $C$DW$32, DW_AT_type(*$C$DW$T$40)
     237                    
     238                            .dwendtag $C$DW$31
     239                    
     240                    
     241                    $C$DW$33        .dwtag  DW_TAG_subprogram
     242                            .dwattr $C$DW$33, DW_AT_name("Util_setEvent")
     243                            .dwattr $C$DW$33, DW_AT_TI_symbol_name("Util_setEvent")
     244                            .dwattr $C$DW$33, DW_AT_declaration
     245                            .dwattr $C$DW$33, DW_AT_external
     246                            .dwattr $C$DW$33, DW_AT_decl_file("..\Application\util.h")
     247                            .dwattr $C$DW$33, DW_AT_decl_line(0x101)
     248                            .dwattr $C$DW$33, DW_AT_decl_column(0x0d)
     249                    $C$DW$34        .dwtag  DW_TAG_formal_parameter
     250                            .dwattr $C$DW$34, DW_AT_type(*$C$DW$T$130)
     251                    
     252                    $C$DW$35        .dwtag  DW_TAG_formal_parameter
     253                            .dwattr $C$DW$35, DW_AT_type(*$C$DW$T$34)
     254                    
     255                            .dwendtag $C$DW$33
     256                    
     257                    
     258                    $C$DW$36        .dwtag  DW_TAG_subprogram
     259                            .dwattr $C$DW$36, DW_AT_name("Util_clearEvent")
     260                            .dwattr $C$DW$36, DW_AT_TI_symbol_name("Util_clearEvent")
     261                            .dwattr $C$DW$36, DW_AT_declaration
     262                            .dwattr $C$DW$36, DW_AT_external
     263                            .dwattr $C$DW$36, DW_AT_decl_file("..\Application\util.h")
     264                            .dwattr $C$DW$36, DW_AT_decl_line(0xf9)
     265                            .dwattr $C$DW$36, DW_AT_decl_column(0x0d)
     266                    $C$DW$37        .dwtag  DW_TAG_formal_parameter
     267                            .dwattr $C$DW$37, DW_AT_type(*$C$DW$T$130)
     268                    
     269                    $C$DW$38        .dwtag  DW_TAG_formal_parameter
     270                            .dwattr $C$DW$38, DW_AT_type(*$C$DW$T$34)
     271                    
     272                            .dwendtag $C$DW$36
     273                    
     274                    
     275                    $C$DW$39        .dwtag  DW_TAG_subprogram
TI ARM Assembler PC v18.1.3 Wed Nov 28 13:22:11 2018

Tools Copyright (c) 1996-2017 Texas Instruments Incorporated
C:\Users\Adrian\AppData\Local\Temp\{54D4664F-6A53-4525-80FB-24266563E3CC} PAGE    6

     276                            .dwattr $C$DW$39, DW_AT_name("Cllc_process")
     277                            .dwattr $C$DW$39, DW_AT_TI_symbol_name("Cllc_process")
     278                            .dwattr $C$DW$39, DW_AT_declaration
     279                            .dwattr $C$DW$39, DW_AT_external
     280                            .dwattr $C$DW$39, DW_AT_decl_file("..\Application\cllc.h")
     281                            .dwattr $C$DW$39, DW_AT_decl_line(0xde)
     282                            .dwattr $C$DW$39, DW_AT_decl_column(0x0d)
     283                            .dwendtag $C$DW$39
     284                    
     285                    
     286                    $C$DW$40        .dwtag  DW_TAG_subprogram
     287                            .dwattr $C$DW$40, DW_AT_name("Csf_processEvents")
     288                            .dwattr $C$DW$40, DW_AT_TI_symbol_name("Csf_processEvents")
     289                            .dwattr $C$DW$40, DW_AT_declaration
     290                            .dwattr $C$DW$40, DW_AT_external
     291                            .dwattr $C$DW$40, DW_AT_decl_file("..\Application\csf.h")
     292                            .dwattr $C$DW$40, DW_AT_decl_line(0x5e)
     293                            .dwattr $C$DW$40, DW_AT_decl_column(0x0d)
     294                            .dwendtag $C$DW$40
     295                    
     296                    
     297                    $C$DW$41        .dwtag  DW_TAG_subprogram
     298                            .dwattr $C$DW$41, DW_AT_name("ApiMac_processIncoming")
     299                            .dwattr $C$DW$41, DW_AT_TI_symbol_name("ApiMac_processIncoming")
     300                            .dwattr $C$DW$41, DW_AT_declaration
     301                            .dwattr $C$DW$41, DW_AT_external
     302                            .dwattr $C$DW$41, DW_AT_decl_file("..\Application\api_mac.h")
     303                            .dwattr $C$DW$41, DW_AT_decl_line(0x9bd)
     304                            .dwattr $C$DW$41, DW_AT_decl_column(0x0d)
     305                            .dwendtag $C$DW$41
     306                    
     307                    
     308                    $C$DW$42        .dwtag  DW_TAG_subprogram
     309                            .dwattr $C$DW$42, DW_AT_name("Csf_getDevice")
     310                            .dwattr $C$DW$42, DW_AT_TI_symbol_name("Csf_getDevice")
     311                            .dwattr $C$DW$42, DW_AT_type(*$C$DW$T$31)
     312                            .dwattr $C$DW$42, DW_AT_declaration
     313                            .dwattr $C$DW$42, DW_AT_external
     314                            .dwattr $C$DW$42, DW_AT_decl_file("..\Application\csf.h")
     315                            .dwattr $C$DW$42, DW_AT_decl_line(0x131)
     316                            .dwattr $C$DW$42, DW_AT_decl_column(0x0d)
     317                    $C$DW$43        .dwtag  DW_TAG_formal_parameter
     318                            .dwattr $C$DW$43, DW_AT_type(*$C$DW$T$342)
     319                    
     320                    $C$DW$44        .dwtag  DW_TAG_formal_parameter
     321                            .dwattr $C$DW$44, DW_AT_type(*$C$DW$T$447)
     322                    
     323                            .dwendtag $C$DW$42
     324                    
     325                    
     326                    $C$DW$45        .dwtag  DW_TAG_subprogram
     327                            .dwattr $C$DW$45, DW_AT_name("Util_loUint16")
     328                            .dwattr $C$DW$45, DW_AT_TI_symbol_name("Util_loUint16")
     329                            .dwattr $C$DW$45, DW_AT_type(*$C$DW$T$27)
     330                            .dwattr $C$DW$45, DW_AT_declaration
TI ARM Assembler PC v18.1.3 Wed Nov 28 13:22:11 2018

Tools Copyright (c) 1996-2017 Texas Instruments Incorporated
C:\Users\Adrian\AppData\Local\Temp\{54D4664F-6A53-4525-80FB-24266563E3CC} PAGE    7

     331                            .dwattr $C$DW$45, DW_AT_external
     332                            .dwattr $C$DW$45, DW_AT_decl_file("..\Application\util.h")
     333                            .dwattr $C$DW$45, DW_AT_decl_line(0xa9)
     334                            .dwattr $C$DW$45, DW_AT_decl_column(0x10)
     335                    $C$DW$46        .dwtag  DW_TAG_formal_parameter
     336                            .dwattr $C$DW$46, DW_AT_type(*$C$DW$T$34)
     337                    
     338                            .dwendtag $C$DW$45
     339                    
     340                    
     341                    $C$DW$47        .dwtag  DW_TAG_subprogram
     342                            .dwattr $C$DW$47, DW_AT_name("Util_hiUint16")
     343                            .dwattr $C$DW$47, DW_AT_TI_symbol_name("Util_hiUint16")
     344                            .dwattr $C$DW$47, DW_AT_type(*$C$DW$T$27)
     345                            .dwattr $C$DW$47, DW_AT_declaration
     346                            .dwattr $C$DW$47, DW_AT_external
     347                            .dwattr $C$DW$47, DW_AT_decl_file("..\Application\util.h")
     348                            .dwattr $C$DW$47, DW_AT_decl_line(0xa0)
     349                            .dwattr $C$DW$47, DW_AT_decl_column(0x10)
     350                    $C$DW$48        .dwtag  DW_TAG_formal_parameter
     351                            .dwattr $C$DW$48, DW_AT_type(*$C$DW$T$34)
     352                    
     353                            .dwendtag $C$DW$47
     354                    
     355                    
     356                    $C$DW$49        .dwtag  DW_TAG_subprogram
     357                            .dwattr $C$DW$49, DW_AT_name("Util_breakUint32")
     358                            .dwattr $C$DW$49, DW_AT_TI_symbol_name("Util_breakUint32")
     359                            .dwattr $C$DW$49, DW_AT_type(*$C$DW$T$27)
     360                            .dwattr $C$DW$49, DW_AT_declaration
     361                            .dwattr $C$DW$49, DW_AT_external
     362                            .dwattr $C$DW$49, DW_AT_decl_file("..\Application\util.h")
     363                            .dwattr $C$DW$49, DW_AT_decl_line(0xca)
     364                            .dwattr $C$DW$49, DW_AT_decl_column(0x10)
     365                    $C$DW$50        .dwtag  DW_TAG_formal_parameter
     366                            .dwattr $C$DW$50, DW_AT_type(*$C$DW$T$40)
     367                    
     368                    $C$DW$51        .dwtag  DW_TAG_formal_parameter
     369                            .dwattr $C$DW$51, DW_AT_type(*$C$DW$T$10)
     370                    
     371                            .dwendtag $C$DW$49
     372                    
     373                    
     374                    $C$DW$52        .dwtag  DW_TAG_subprogram
     375                            .dwattr $C$DW$52, DW_AT_name("Csf_setConfigClock")
     376                            .dwattr $C$DW$52, DW_AT_TI_symbol_name("Csf_setConfigClock")
     377                            .dwattr $C$DW$52, DW_AT_declaration
     378                            .dwattr $C$DW$52, DW_AT_external
     379                            .dwattr $C$DW$52, DW_AT_decl_file("..\Application\csf.h")
     380                            .dwattr $C$DW$52, DW_AT_decl_line(0x117)
     381                            .dwattr $C$DW$52, DW_AT_decl_column(0x0d)
     382                    $C$DW$53        .dwtag  DW_TAG_formal_parameter
     383                            .dwattr $C$DW$53, DW_AT_type(*$C$DW$T$40)
     384                    
     385                            .dwendtag $C$DW$52
TI ARM Assembler PC v18.1.3 Wed Nov 28 13:22:11 2018

Tools Copyright (c) 1996-2017 Texas Instruments Incorporated
C:\Users\Adrian\AppData\Local\Temp\{54D4664F-6A53-4525-80FB-24266563E3CC} PAGE    8

     386                    
     387                    
     388                    $C$DW$54        .dwtag  DW_TAG_subprogram
     389                            .dwattr $C$DW$54, DW_AT_name("ApiMac_mlmeGetReqUint32")
     390                            .dwattr $C$DW$54, DW_AT_TI_symbol_name("ApiMac_mlmeGetReqUint32")
     391                            .dwattr $C$DW$54, DW_AT_type(*$C$DW$T$242)
     392                            .dwattr $C$DW$54, DW_AT_declaration
     393                            .dwattr $C$DW$54, DW_AT_external
     394                            .dwattr $C$DW$54, DW_AT_decl_file("..\Application\api_mac.h")
     395                            .dwattr $C$DW$54, DW_AT_decl_line(0xa58)
     396                            .dwattr $C$DW$54, DW_AT_decl_column(0x18)
     397                    $C$DW$55        .dwtag  DW_TAG_formal_parameter
     398                            .dwattr $C$DW$55, DW_AT_type(*$C$DW$T$319)
     399                    
     400                    $C$DW$56        .dwtag  DW_TAG_formal_parameter
     401                            .dwattr $C$DW$56, DW_AT_type(*$C$DW$T$320)
     402                    
     403                            .dwendtag $C$DW$54
     404                    
     405                    
     406                    $C$DW$57        .dwtag  DW_TAG_subprogram
     407                            .dwattr $C$DW$57, DW_AT_name("Csf_initializeTrackingClock")
     408                            .dwattr $C$DW$57, DW_AT_TI_symbol_name("Csf_initializeTrackingClock")
     409                            .dwattr $C$DW$57, DW_AT_declaration
     410                            .dwattr $C$DW$57, DW_AT_external
     411                            .dwattr $C$DW$57, DW_AT_decl_file("..\Application\csf.h")
     412                            .dwattr $C$DW$57, DW_AT_decl_line(0xda)
     413                            .dwattr $C$DW$57, DW_AT_decl_column(0x0d)
     414                            .dwendtag $C$DW$57
     415                    
     416                    
     417                    $C$DW$58        .dwtag  DW_TAG_subprogram
     418                            .dwattr $C$DW$58, DW_AT_name("Csf_initializeConfigClock")
     419                            .dwattr $C$DW$58, DW_AT_TI_symbol_name("Csf_initializeConfigClock")
     420                            .dwattr $C$DW$58, DW_AT_declaration
     421                            .dwattr $C$DW$58, DW_AT_external
     422                            .dwattr $C$DW$58, DW_AT_decl_file("..\Application\csf.h")
     423                            .dwattr $C$DW$58, DW_AT_decl_line(0x101)
     424                            .dwattr $C$DW$58, DW_AT_decl_column(0x0d)
     425                            .dwendtag $C$DW$58
     426                    
     427                    
     428                    $C$DW$59        .dwtag  DW_TAG_subprogram
     429                            .dwattr $C$DW$59, DW_AT_name("Csf_initializeBroadcastClock")
     430                            .dwattr $C$DW$59, DW_AT_TI_symbol_name("Csf_initializeBroadcastClock")
     431                            .dwattr $C$DW$59, DW_AT_declaration
     432                            .dwattr $C$DW$59, DW_AT_external
     433                            .dwattr $C$DW$59, DW_AT_decl_file("..\Application\csf.h")
     434                            .dwattr $C$DW$59, DW_AT_decl_line(0xeb)
     435                            .dwattr $C$DW$59, DW_AT_decl_column(0x0d)
     436                            .dwendtag $C$DW$59
     437                    
     438                    
     439                    $C$DW$60        .dwtag  DW_TAG_subprogram
     440                            .dwattr $C$DW$60, DW_AT_name("Csf_initializeIdentifyClock")
TI ARM Assembler PC v18.1.3 Wed Nov 28 13:22:11 2018

Tools Copyright (c) 1996-2017 Texas Instruments Incorporated
C:\Users\Adrian\AppData\Local\Temp\{54D4664F-6A53-4525-80FB-24266563E3CC} PAGE    9

     441                            .dwattr $C$DW$60, DW_AT_TI_symbol_name("Csf_initializeIdentifyClock")
     442                            .dwattr $C$DW$60, DW_AT_declaration
     443                            .dwattr $C$DW$60, DW_AT_external
     444                            .dwattr $C$DW$60, DW_AT_decl_file("..\Application\csf.h")
     445                            .dwattr $C$DW$60, DW_AT_decl_line(0xdf)
     446                            .dwattr $C$DW$60, DW_AT_decl_column(0x0d)
     447                            .dwendtag $C$DW$60
     448                    
     449                    
     450                    $C$DW$61        .dwtag  DW_TAG_subprogram
     451                            .dwattr $C$DW$61, DW_AT_name("Csf_networkUpdate")
     452                            .dwattr $C$DW$61, DW_AT_TI_symbol_name("Csf_networkUpdate")
     453                            .dwattr $C$DW$61, DW_AT_declaration
     454                            .dwattr $C$DW$61, DW_AT_external
     455                            .dwattr $C$DW$61, DW_AT_decl_file("..\Application\csf.h")
     456                            .dwattr $C$DW$61, DW_AT_decl_line(0x7b)
     457                            .dwattr $C$DW$61, DW_AT_decl_column(0x0d)
     458                    $C$DW$62        .dwtag  DW_TAG_formal_parameter
     459                            .dwattr $C$DW$62, DW_AT_type(*$C$DW$T$31)
     460                    
     461                    $C$DW$63        .dwtag  DW_TAG_formal_parameter
     462                            .dwattr $C$DW$63, DW_AT_type(*$C$DW$T$86)
     463                    
     464                            .dwendtag $C$DW$61
     465                    
     466                    
     467                    $C$DW$64        .dwtag  DW_TAG_subprogram
     468                            .dwattr $C$DW$64, DW_AT_name("Csf_setTrackingClock")
     469                            .dwattr $C$DW$64, DW_AT_TI_symbol_name("Csf_setTrackingClock")
     470                            .dwattr $C$DW$64, DW_AT_declaration
     471                            .dwattr $C$DW$64, DW_AT_external
     472                            .dwattr $C$DW$64, DW_AT_decl_file("..\Application\csf.h")
     473                            .dwattr $C$DW$64, DW_AT_decl_line(0xe6)
     474                            .dwattr $C$DW$64, DW_AT_decl_column(0x0d)
     475                    $C$DW$65        .dwtag  DW_TAG_formal_parameter
     476                            .dwattr $C$DW$65, DW_AT_type(*$C$DW$T$40)
     477                    
     478                            .dwendtag $C$DW$64
     479                    
     480                    
     481                    $C$DW$66        .dwtag  DW_TAG_subprogram
     482                            .dwattr $C$DW$66, DW_AT_name("Csf_deviceUpdate")
     483                            .dwattr $C$DW$66, DW_AT_TI_symbol_name("Csf_deviceUpdate")
     484                            .dwattr $C$DW$66, DW_AT_type(*$C$DW$T$91)
     485                            .dwattr $C$DW$66, DW_AT_declaration
     486                            .dwattr $C$DW$66, DW_AT_external
     487                            .dwattr $C$DW$66, DW_AT_decl_file("..\Application\csf.h")
     488                            .dwattr $C$DW$66, DW_AT_decl_line(0x89)
     489                            .dwattr $C$DW$66, DW_AT_decl_column(0x1d)
     490                    $C$DW$67        .dwtag  DW_TAG_formal_parameter
     491                            .dwattr $C$DW$67, DW_AT_type(*$C$DW$T$92)
     492                    
     493                    $C$DW$68        .dwtag  DW_TAG_formal_parameter
     494                            .dwattr $C$DW$68, DW_AT_type(*$C$DW$T$93)
     495                    
TI ARM Assembler PC v18.1.3 Wed Nov 28 13:22:11 2018

Tools Copyright (c) 1996-2017 Texas Instruments Incorporated
C:\Users\Adrian\AppData\Local\Temp\{54D4664F-6A53-4525-80FB-24266563E3CC} PAGE   10

     496                            .dwendtag $C$DW$66
     497                    
     498                    
     499                    $C$DW$69        .dwtag  DW_TAG_subprogram
     500                            .dwattr $C$DW$69, DW_AT_name("Cllc_addSecDevice")
     501                            .dwattr $C$DW$69, DW_AT_TI_symbol_name("Cllc_addSecDevice")
     502                            .dwattr $C$DW$69, DW_AT_type(*$C$DW$T$242)
     503                            .dwattr $C$DW$69, DW_AT_declaration
     504                            .dwattr $C$DW$69, DW_AT_external
     505                            .dwattr $C$DW$69, DW_AT_decl_file("..\Application\cllc.h")
     506                            .dwattr $C$DW$69, DW_AT_decl_line(0x140)
     507                            .dwattr $C$DW$69, DW_AT_decl_column(0x18)
     508                    $C$DW$70        .dwtag  DW_TAG_formal_parameter
     509                            .dwattr $C$DW$70, DW_AT_type(*$C$DW$T$34)
     510                    
     511                    $C$DW$71        .dwtag  DW_TAG_formal_parameter
     512                            .dwattr $C$DW$71, DW_AT_type(*$C$DW$T$34)
     513                    
     514                    $C$DW$72        .dwtag  DW_TAG_formal_parameter
     515                            .dwattr $C$DW$72, DW_AT_type(*$C$DW$T$328)
     516                    
     517                    $C$DW$73        .dwtag  DW_TAG_formal_parameter
     518                            .dwattr $C$DW$73, DW_AT_type(*$C$DW$T$40)
     519                    
     520                            .dwendtag $C$DW$69
     521                    
     522                    
     523                    $C$DW$74        .dwtag  DW_TAG_subprogram
     524                            .dwattr $C$DW$74, DW_AT_name("Csf_stateChangeUpdate")
     525                            .dwattr $C$DW$74, DW_AT_TI_symbol_name("Csf_stateChangeUpdate")
     526                            .dwattr $C$DW$74, DW_AT_declaration
     527                            .dwattr $C$DW$74, DW_AT_external
     528                            .dwattr $C$DW$74, DW_AT_decl_file("..\Application\csf.h")
     529                            .dwattr $C$DW$74, DW_AT_decl_line(0xd5)
     530                            .dwattr $C$DW$74, DW_AT_decl_column(0x0d)
     531                    $C$DW$75        .dwtag  DW_TAG_formal_parameter
     532                            .dwattr $C$DW$75, DW_AT_type(*$C$DW$T$98)
     533                    
     534                            .dwendtag $C$DW$74
     535                    
     536                    
     537                    $C$DW$76        .dwtag  DW_TAG_subprogram
     538                            .dwattr $C$DW$76, DW_AT_name("Csf_updateFrameCounter")
     539                            .dwattr $C$DW$76, DW_AT_TI_symbol_name("Csf_updateFrameCounter")
     540                            .dwattr $C$DW$76, DW_AT_declaration
     541                            .dwattr $C$DW$76, DW_AT_external
     542                            .dwattr $C$DW$76, DW_AT_decl_file("..\Application\csf.h")
     543                            .dwattr $C$DW$76, DW_AT_decl_line(0x155)
     544                            .dwattr $C$DW$76, DW_AT_decl_column(0x0d)
     545                    $C$DW$77        .dwtag  DW_TAG_formal_parameter
     546                            .dwattr $C$DW$77, DW_AT_type(*$C$DW$T$342)
     547                    
     548                    $C$DW$78        .dwtag  DW_TAG_formal_parameter
     549                            .dwattr $C$DW$78, DW_AT_type(*$C$DW$T$40)
     550                    
TI ARM Assembler PC v18.1.3 Wed Nov 28 13:22:11 2018

Tools Copyright (c) 1996-2017 Texas Instruments Incorporated
C:\Users\Adrian\AppData\Local\Temp\{54D4664F-6A53-4525-80FB-24266563E3CC} PAGE   11

     551                            .dwendtag $C$DW$76
     552                    
     553                    
     554                    $C$DW$79        .dwtag  DW_TAG_subprogram
     555                            .dwattr $C$DW$79, DW_AT_name("Cllc_securityCheck")
     556                            .dwattr $C$DW$79, DW_AT_TI_symbol_name("Cllc_securityCheck")
     557                            .dwattr $C$DW$79, DW_AT_type(*$C$DW$T$31)
     558                            .dwattr $C$DW$79, DW_AT_declaration
     559                            .dwattr $C$DW$79, DW_AT_external
     560                            .dwattr $C$DW$79, DW_AT_decl_file("..\Application\cllc.h")
     561                            .dwattr $C$DW$79, DW_AT_decl_line(0x134)
     562                            .dwattr $C$DW$79, DW_AT_decl_column(0x0d)
     563                    $C$DW$80        .dwtag  DW_TAG_formal_parameter
     564                            .dwattr $C$DW$80, DW_AT_type(*$C$DW$T$452)
     565                    
     566                            .dwendtag $C$DW$79
     567                    
     568                    
     569                    $C$DW$81        .dwtag  DW_TAG_subprogram
     570                            .dwattr $C$DW$81, DW_AT_name("Csf_getDeviceShort")
     571                            .dwattr $C$DW$81, DW_AT_TI_symbol_name("Csf_getDeviceShort")
     572                            .dwattr $C$DW$81, DW_AT_type(*$C$DW$T$34)
     573                            .dwattr $C$DW$81, DW_AT_declaration
     574                            .dwattr $C$DW$81, DW_AT_external
     575                            .dwattr $C$DW$81, DW_AT_decl_file("..\Application\csf.h")
     576                            .dwattr $C$DW$81, DW_AT_decl_line(0x127)
     577                            .dwattr $C$DW$81, DW_AT_decl_column(0x11)
     578                    $C$DW$82        .dwtag  DW_TAG_formal_parameter
     579                            .dwattr $C$DW$82, DW_AT_type(*$C$DW$T$328)
     580                    
     581                            .dwendtag $C$DW$81
     582                    
     583                    
     584                    $C$DW$83        .dwtag  DW_TAG_subprogram
     585                            .dwattr $C$DW$83, DW_AT_name("Csf_getFrameCounter")
     586                            .dwattr $C$DW$83, DW_AT_TI_symbol_name("Csf_getFrameCounter")
     587                            .dwattr $C$DW$83, DW_AT_type(*$C$DW$T$31)
     588                            .dwattr $C$DW$83, DW_AT_declaration
     589                            .dwattr $C$DW$83, DW_AT_external
     590                            .dwattr $C$DW$83, DW_AT_decl_file("..\Application\csf.h")
     591                            .dwattr $C$DW$83, DW_AT_decl_line(0x162)
     592                            .dwattr $C$DW$83, DW_AT_decl_column(0x0d)
     593                    $C$DW$84        .dwtag  DW_TAG_formal_parameter
     594                            .dwattr $C$DW$84, DW_AT_type(*$C$DW$T$342)
     595                    
     596                    $C$DW$85        .dwtag  DW_TAG_formal_parameter
     597                            .dwattr $C$DW$85, DW_AT_type(*$C$DW$T$320)
     598                    
     599                            .dwendtag $C$DW$83
     600                    
     601                    
     602                    $C$DW$86        .dwtag  DW_TAG_subprogram
     603                            .dwattr $C$DW$86, DW_AT_name("Csf_getNetworkInformation")
     604                            .dwattr $C$DW$86, DW_AT_TI_symbol_name("Csf_getNetworkInformation")
     605                            .dwattr $C$DW$86, DW_AT_type(*$C$DW$T$31)
TI ARM Assembler PC v18.1.3 Wed Nov 28 13:22:11 2018

Tools Copyright (c) 1996-2017 Texas Instruments Incorporated
C:\Users\Adrian\AppData\Local\Temp\{54D4664F-6A53-4525-80FB-24266563E3CC} PAGE   12

     606                            .dwattr $C$DW$86, DW_AT_declaration
     607                            .dwattr $C$DW$86, DW_AT_external
     608                            .dwattr $C$DW$86, DW_AT_decl_file("..\Application\csf.h")
     609                            .dwattr $C$DW$86, DW_AT_decl_line(0x6e)
     610                            .dwattr $C$DW$86, DW_AT_decl_column(0x0d)
     611                    $C$DW$87        .dwtag  DW_TAG_formal_parameter
     612                            .dwattr $C$DW$87, DW_AT_type(*$C$DW$T$86)
     613                    
     614                            .dwendtag $C$DW$86
     615                    
     616                    
     617                    $C$DW$88        .dwtag  DW_TAG_subprogram
     618                            .dwattr $C$DW$88, DW_AT_name("Cllc_securityInit")
     619                            .dwattr $C$DW$88, DW_AT_TI_symbol_name("Cllc_securityInit")
     620                            .dwattr $C$DW$88, DW_AT_declaration
     621                            .dwattr $C$DW$88, DW_AT_external
     622                            .dwattr $C$DW$88, DW_AT_decl_file("..\Application\cllc.h")
     623                            .dwattr $C$DW$88, DW_AT_decl_line(0x124)
     624                            .dwattr $C$DW$88, DW_AT_decl_column(0x0d)
     625                    $C$DW$89        .dwtag  DW_TAG_formal_parameter
     626                            .dwattr $C$DW$89, DW_AT_type(*$C$DW$T$40)
     627                    
     628                            .dwendtag $C$DW$88
     629                    
     630                    
     631                    $C$DW$90        .dwtag  DW_TAG_subprogram
     632                            .dwattr $C$DW$90, DW_AT_name("Csf_getNumDeviceListEntries")
     633                            .dwattr $C$DW$90, DW_AT_TI_symbol_name("Csf_getNumDeviceListEntries")
     634                            .dwattr $C$DW$90, DW_AT_type(*$C$DW$T$34)
     635                            .dwattr $C$DW$90, DW_AT_declaration
     636                            .dwattr $C$DW$90, DW_AT_external
     637                            .dwattr $C$DW$90, DW_AT_decl_file("..\Application\csf.h")
     638                            .dwattr $C$DW$90, DW_AT_decl_line(0x11e)
     639                            .dwattr $C$DW$90, DW_AT_decl_column(0x11)
     640                            .dwendtag $C$DW$90
     641                    
     642                    
     643                    $C$DW$91        .dwtag  DW_TAG_subprogram
     644                            .dwattr $C$DW$91, DW_AT_name("Cllc_restoreNetwork")
     645                            .dwattr $C$DW$91, DW_AT_TI_symbol_name("Cllc_restoreNetwork")
     646                            .dwattr $C$DW$91, DW_AT_declaration
     647                            .dwattr $C$DW$91, DW_AT_external
     648                            .dwattr $C$DW$91, DW_AT_decl_file("..\Application\cllc.h")
     649                            .dwattr $C$DW$91, DW_AT_decl_line(0xf9)
     650                            .dwattr $C$DW$91, DW_AT_decl_column(0x0d)
     651                    $C$DW$92        .dwtag  DW_TAG_formal_parameter
     652                            .dwattr $C$DW$92, DW_AT_type(*$C$DW$T$86)
     653                    
     654                    $C$DW$93        .dwtag  DW_TAG_formal_parameter
     655                            .dwattr $C$DW$93, DW_AT_type(*$C$DW$T$27)
     656                    
     657                    $C$DW$94        .dwtag  DW_TAG_formal_parameter
     658                            .dwattr $C$DW$94, DW_AT_type(*$C$DW$T$447)
     659                    
     660                            .dwendtag $C$DW$91
TI ARM Assembler PC v18.1.3 Wed Nov 28 13:22:11 2018

Tools Copyright (c) 1996-2017 Texas Instruments Incorporated
C:\Users\Adrian\AppData\Local\Temp\{54D4664F-6A53-4525-80FB-24266563E3CC} PAGE   13

     661                    
     662                    
     663                    $C$DW$95        .dwtag  DW_TAG_subprogram
     664                            .dwattr $C$DW$95, DW_AT_name("Cllc_startNetwork")
     665                            .dwattr $C$DW$95, DW_AT_TI_symbol_name("Cllc_startNetwork")
     666                            .dwattr $C$DW$95, DW_AT_declaration
     667                            .dwattr $C$DW$95, DW_AT_external
     668                            .dwattr $C$DW$95, DW_AT_decl_file("..\Application\cllc.h")
     669                            .dwattr $C$DW$95, DW_AT_decl_line(0xe9)
     670                            .dwattr $C$DW$95, DW_AT_decl_column(0x0d)
     671                            .dwendtag $C$DW$95
     672                    
     673                    
     674                    $C$DW$96        .dwtag  DW_TAG_subprogram
     675                            .dwattr $C$DW$96, DW_AT_name("Util_buildUint16")
     676                            .dwattr $C$DW$96, DW_AT_TI_symbol_name("Util_buildUint16")
     677                            .dwattr $C$DW$96, DW_AT_type(*$C$DW$T$34)
     678                            .dwattr $C$DW$96, DW_AT_declaration
     679                            .dwattr $C$DW$96, DW_AT_external
     680                            .dwattr $C$DW$96, DW_AT_decl_file("..\Application\util.h")
     681                            .dwattr $C$DW$96, DW_AT_decl_line(0xb3)
     682                            .dwattr $C$DW$96, DW_AT_decl_column(0x11)
     683                    $C$DW$97        .dwtag  DW_TAG_formal_parameter
     684                            .dwattr $C$DW$97, DW_AT_type(*$C$DW$T$27)
     685                    
     686                    $C$DW$98        .dwtag  DW_TAG_formal_parameter
     687                            .dwattr $C$DW$98, DW_AT_type(*$C$DW$T$27)
     688                    
     689                            .dwendtag $C$DW$96
     690                    
     691                    
     692                    $C$DW$99        .dwtag  DW_TAG_subprogram
     693                            .dwattr $C$DW$99, DW_AT_name("Util_buildUint32")
     694                            .dwattr $C$DW$99, DW_AT_TI_symbol_name("Util_buildUint32")
     695                            .dwattr $C$DW$99, DW_AT_type(*$C$DW$T$40)
     696                            .dwattr $C$DW$99, DW_AT_declaration
     697                            .dwattr $C$DW$99, DW_AT_external
     698                            .dwattr $C$DW$99, DW_AT_decl_file("..\Application\util.h")
     699                            .dwattr $C$DW$99, DW_AT_decl_line(0xbf)
     700                            .dwattr $C$DW$99, DW_AT_decl_column(0x11)
     701                    $C$DW$100       .dwtag  DW_TAG_formal_parameter
     702                            .dwattr $C$DW$100, DW_AT_type(*$C$DW$T$27)
     703                    
     704                    $C$DW$101       .dwtag  DW_TAG_formal_parameter
     705                            .dwattr $C$DW$101, DW_AT_type(*$C$DW$T$27)
     706                    
     707                    $C$DW$102       .dwtag  DW_TAG_formal_parameter
     708                            .dwattr $C$DW$102, DW_AT_type(*$C$DW$T$27)
     709                    
     710                    $C$DW$103       .dwtag  DW_TAG_formal_parameter
     711                            .dwattr $C$DW$103, DW_AT_type(*$C$DW$T$27)
     712                    
     713                            .dwendtag $C$DW$99
     714                    
     715                    
TI ARM Assembler PC v18.1.3 Wed Nov 28 13:22:11 2018

Tools Copyright (c) 1996-2017 Texas Instruments Incorporated
C:\Users\Adrian\AppData\Local\Temp\{54D4664F-6A53-4525-80FB-24266563E3CC} PAGE   14

     716                    $C$DW$104       .dwtag  DW_TAG_subprogram
     717                            .dwattr $C$DW$104, DW_AT_name("Csf_deviceConfigUpdate")
     718                            .dwattr $C$DW$104, DW_AT_TI_symbol_name("Csf_deviceConfigUpdate")
     719                            .dwattr $C$DW$104, DW_AT_declaration
     720                            .dwattr $C$DW$104, DW_AT_external
     721                            .dwattr $C$DW$104, DW_AT_decl_file("..\Application\csf.h")
     722                            .dwattr $C$DW$104, DW_AT_decl_line(0xa6)
     723                            .dwattr $C$DW$104, DW_AT_decl_column(0x0d)
     724                    $C$DW$105       .dwtag  DW_TAG_formal_parameter
     725                            .dwattr $C$DW$105, DW_AT_type(*$C$DW$T$342)
     726                    
     727                    $C$DW$106       .dwtag  DW_TAG_formal_parameter
     728                            .dwattr $C$DW$106, DW_AT_type(*$C$DW$T$37)
     729                    
     730                    $C$DW$107       .dwtag  DW_TAG_formal_parameter
     731                            .dwattr $C$DW$107, DW_AT_type(*$C$DW$T$416)
     732                    
     733                            .dwendtag $C$DW$104
     734                    
     735                    
     736                    $C$DW$108       .dwtag  DW_TAG_subprogram
     737                            .dwattr $C$DW$108, DW_AT_name("Csf_identifyLED")
     738                            .dwattr $C$DW$108, DW_AT_TI_symbol_name("Csf_identifyLED")
     739                            .dwattr $C$DW$108, DW_AT_declaration
     740                            .dwattr $C$DW$108, DW_AT_external
     741                            .dwattr $C$DW$108, DW_AT_decl_file("..\Application\csf.h")
     742                            .dwattr $C$DW$108, DW_AT_decl_line(0xcd)
     743                            .dwattr $C$DW$108, DW_AT_decl_column(0x0d)
     744                    $C$DW$109       .dwtag  DW_TAG_formal_parameter
     745                            .dwattr $C$DW$109, DW_AT_type(*$C$DW$T$34)
     746                    
     747                            .dwendtag $C$DW$108
     748                    
     749                    
     750                    $C$DW$110       .dwtag  DW_TAG_subprogram
     751                            .dwattr $C$DW$110, DW_AT_name("Csf_toggleResponseReceived")
     752                            .dwattr $C$DW$110, DW_AT_TI_symbol_name("Csf_toggleResponseReceived")
     753                            .dwattr $C$DW$110, DW_AT_declaration
     754                            .dwattr $C$DW$110, DW_AT_external
     755                            .dwattr $C$DW$110, DW_AT_decl_file("..\Application\csf.h")
     756                            .dwattr $C$DW$110, DW_AT_decl_line(0xbd)
     757                            .dwattr $C$DW$110, DW_AT_decl_column(0x0d)
     758                    $C$DW$111       .dwtag  DW_TAG_formal_parameter
     759                            .dwattr $C$DW$111, DW_AT_type(*$C$DW$T$342)
     760                    
     761                    $C$DW$112       .dwtag  DW_TAG_formal_parameter
     762                            .dwattr $C$DW$112, DW_AT_type(*$C$DW$T$31)
     763                    
     764                            .dwendtag $C$DW$110
     765                    
     766                    
     767                    $C$DW$113       .dwtag  DW_TAG_subprogram
     768                            .dwattr $C$DW$113, DW_AT_name("Csf_deviceSensorDataUpdate")
     769                            .dwattr $C$DW$113, DW_AT_TI_symbol_name("Csf_deviceSensorDataUpdate")
     770                            .dwattr $C$DW$113, DW_AT_declaration
TI ARM Assembler PC v18.1.3 Wed Nov 28 13:22:11 2018

Tools Copyright (c) 1996-2017 Texas Instruments Incorporated
C:\Users\Adrian\AppData\Local\Temp\{54D4664F-6A53-4525-80FB-24266563E3CC} PAGE   15

     771                            .dwattr $C$DW$113, DW_AT_external
     772                            .dwattr $C$DW$113, DW_AT_decl_file("..\Application\csf.h")
     773                            .dwattr $C$DW$113, DW_AT_decl_line(0xb3)
     774                            .dwattr $C$DW$113, DW_AT_decl_column(0x0d)
     775                    $C$DW$114       .dwtag  DW_TAG_formal_parameter
     776                            .dwattr $C$DW$114, DW_AT_type(*$C$DW$T$342)
     777                    
     778                    $C$DW$115       .dwtag  DW_TAG_formal_parameter
     779                            .dwattr $C$DW$115, DW_AT_type(*$C$DW$T$37)
     780                    
     781                    $C$DW$116       .dwtag  DW_TAG_formal_parameter
     782                            .dwattr $C$DW$116, DW_AT_type(*$C$DW$T$421)
     783                    
     784                            .dwendtag $C$DW$113
     785                    
     786                    
     787                    $C$DW$117       .dwtag  DW_TAG_subprogram
     788                            .dwattr $C$DW$117, DW_AT_name("Cllc_securityFill")
     789                            .dwattr $C$DW$117, DW_AT_TI_symbol_name("Cllc_securityFill")
     790                            .dwattr $C$DW$117, DW_AT_declaration
     791                            .dwattr $C$DW$117, DW_AT_external
     792                            .dwattr $C$DW$117, DW_AT_decl_file("..\Application\cllc.h")
     793                            .dwattr $C$DW$117, DW_AT_decl_line(0x12b)
     794                            .dwattr $C$DW$117, DW_AT_decl_column(0x0d)
     795                    $C$DW$118       .dwtag  DW_TAG_formal_parameter
     796                            .dwattr $C$DW$118, DW_AT_type(*$C$DW$T$452)
     797                    
     798                            .dwendtag $C$DW$117
     799                    
     800                    
     801                    $C$DW$119       .dwtag  DW_TAG_subprogram
     802                            .dwattr $C$DW$119, DW_AT_name("ApiMac_mcpsDataReq")
     803                            .dwattr $C$DW$119, DW_AT_TI_symbol_name("ApiMac_mcpsDataReq")
     804                            .dwattr $C$DW$119, DW_AT_type(*$C$DW$T$242)
     805                            .dwattr $C$DW$119, DW_AT_declaration
     806                            .dwattr $C$DW$119, DW_AT_external
     807                            .dwattr $C$DW$119, DW_AT_decl_file("..\Application\api_mac.h")
     808                            .dwattr $C$DW$119, DW_AT_decl_line(0x9d8)
     809                            .dwattr $C$DW$119, DW_AT_decl_column(0x18)
     810                    $C$DW$120       .dwtag  DW_TAG_formal_parameter
     811                            .dwattr $C$DW$120, DW_AT_type(*$C$DW$T$316)
     812                    
     813                            .dwendtag $C$DW$119
     814                    
     815                    
     816                    $C$DW$121       .dwtag  DW_TAG_subprogram
     817                            .dwattr $C$DW$121, DW_AT_name("Csf_deviceNotActiveUpdate")
     818                            .dwattr $C$DW$121, DW_AT_TI_symbol_name("Csf_deviceNotActiveUpdate")
     819                            .dwattr $C$DW$121, DW_AT_declaration
     820                            .dwattr $C$DW$121, DW_AT_external
     821                            .dwattr $C$DW$121, DW_AT_decl_file("..\Application\csf.h")
     822                            .dwattr $C$DW$121, DW_AT_decl_line(0x99)
     823                            .dwattr $C$DW$121, DW_AT_decl_column(0x0d)
     824                    $C$DW$122       .dwtag  DW_TAG_formal_parameter
     825                            .dwattr $C$DW$122, DW_AT_type(*$C$DW$T$92)
TI ARM Assembler PC v18.1.3 Wed Nov 28 13:22:11 2018

Tools Copyright (c) 1996-2017 Texas Instruments Incorporated
C:\Users\Adrian\AppData\Local\Temp\{54D4664F-6A53-4525-80FB-24266563E3CC} PAGE   16

     826                    
     827                    $C$DW$123       .dwtag  DW_TAG_formal_parameter
     828                            .dwattr $C$DW$123, DW_AT_type(*$C$DW$T$31)
     829                    
     830                            .dwendtag $C$DW$121
     831                    
     832                    
     833                    $C$DW$124       .dwtag  DW_TAG_subprogram
     834                            .dwattr $C$DW$124, DW_AT_name("Csf_isTrackingTimerActive")
     835                            .dwattr $C$DW$124, DW_AT_TI_symbol_name("Csf_isTrackingTimerActive")
     836                            .dwattr $C$DW$124, DW_AT_type(*$C$DW$T$31)
     837                            .dwattr $C$DW$124, DW_AT_declaration
     838                            .dwattr $C$DW$124, DW_AT_external
     839                            .dwattr $C$DW$124, DW_AT_decl_file("..\Application\csf.h")
     840                            .dwattr $C$DW$124, DW_AT_decl_line(0x191)
     841                            .dwattr $C$DW$124, DW_AT_decl_column(0x0d)
     842                            .dwendtag $C$DW$124
     843                    
     844                    
     845                    $C$DW$125       .dwtag  DW_TAG_subprogram
     846                            .dwattr $C$DW$125, DW_AT_name("Csf_isConfigTimerActive")
     847                            .dwattr $C$DW$125, DW_AT_TI_symbol_name("Csf_isConfigTimerActive")
     848                            .dwattr $C$DW$125, DW_AT_type(*$C$DW$T$31)
     849                            .dwattr $C$DW$125, DW_AT_declaration
     850                            .dwattr $C$DW$125, DW_AT_external
     851                            .dwattr $C$DW$125, DW_AT_decl_file("..\Application\csf.h")
     852                            .dwattr $C$DW$125, DW_AT_decl_line(0x18a)
     853                            .dwattr $C$DW$125, DW_AT_decl_column(0x0d)
     854                            .dwendtag $C$DW$125
     855                    
     856 00000000                   .sect   ".data:$O1$$", RW
     857                            .align  4
     858                            .elfsym ||$O1$$||,SYM_SIZE(156)
     859 00000000           ||$O1$$||:
     860 00000000 00000000          .bits   0,8                     ; $O1$$.restarted @ 0
     861 00000000 00000000          .bits   0,8                     ; $O1$$.cllcState @ 8
     862 00000000 00000000          .bits   0,8                     ; $O1$$.deviceTxMsduHandle @ 16
     863 00000000 00000000          .bits   0,8                     ; $O1$$.fhEnabled @ 24
     864 00000004 00000000          .bits   0,16                    ; $O1$$.Collector_events @ 32
     865 00000004 FFFF0000          .bits   65535,16                        ; $O1$$.devicePanId @ 48
     866 00000008 00000000          .bits   0,32
     867 0000000c 00000000!         .bits   cllcStartedCB,32                ; $O1$$.cllcCallbacks.pStartedCb @ 96
     868 00000010 00000000!         .bits   cllcDeviceJoiningCB,32          ; $O1$$.cllcCallbacks.pDeviceJoiningCb @ 128
     869 00000014 00000000!         .bits   cllcStateChangedCB,32           ; $O1$$.cllcCallbacks.pStateChangeCb @ 160
     870 00000018                   .space  60
     871 00000054 00000000          .bits   0,32                    ; $O1$$.Collector_macCallbacks.pAssocIndCb @ 672
     872 00000058 00000000          .bits   0,32                    ; $O1$$.Collector_macCallbacks.pAssocCnfCb @ 704
     873 0000005c 00000000          .bits   0,32                    ; $O1$$.Collector_macCallbacks.pDisassociateIndCb @ 736
     874 00000060 00000000          .bits   0,32                    ; $O1$$.Collector_macCallbacks.pDisassociateCnfCb @ 768
     875 00000064 00000000          .bits   0,32                    ; $O1$$.Collector_macCallbacks.pBeaconNotifyIndCb @ 800
     876 00000068 00000000          .bits   0,32                    ; $O1$$.Collector_macCallbacks.pOrphanIndCb @ 832
     877 0000006c 00000000          .bits   0,32                    ; $O1$$.Collector_macCallbacks.pScanCnfCb @ 864
     878 00000070 00000000          .bits   0,32                    ; $O1$$.Collector_macCallbacks.pStartCnfCb @ 896
     879 00000074 00000000          .bits   0,32                    ; $O1$$.Collector_macCallbacks.pSyncLossIndCb @ 928
     880 00000078 00000000          .bits   0,32                    ; $O1$$.Collector_macCallbacks.pPollCnfCb @ 960
TI ARM Assembler PC v18.1.3 Wed Nov 28 13:22:11 2018

Tools Copyright (c) 1996-2017 Texas Instruments Incorporated
C:\Users\Adrian\AppData\Local\Temp\{54D4664F-6A53-4525-80FB-24266563E3CC} PAGE   17

     881 0000007c 00000000!         .bits   commStatusIndCB,32              ; $O1$$.Collector_macCallbacks.pCommStatusCb @ 992
     882 00000080 00000000!         .bits   pollIndCB,32            ; $O1$$.Collector_macCallbacks.pPollIndCb @ 1024
     883 00000084 00000000!         .bits   dataCnfCB,32            ; $O1$$.Collector_macCallbacks.pDataCnfCb @ 1056
     884 00000088 00000000!         .bits   dataIndCB,32            ; $O1$$.Collector_macCallbacks.pDataIndCb @ 1088
     885 0000008c 00000000          .bits   0,32                    ; $O1$$.Collector_macCallbacks.pPurgeCnfCb @ 1120
     886 00000090 00000000          .bits   0,32                    ; $O1$$.Collector_macCallbacks.pWsAsyncIndCb @ 1152
     887 00000094 00000000          .bits   0,32                    ; $O1$$.Collector_macCallbacks.pWsAsyncCnfCb @ 1184
     888 00000098 00000000          .bits   0,32                    ; $O1$$.Collector_macCallbacks.pUnprocessedCb @ 1216
     889                    
     890                    
     891                    ;*********************************************************************
     892                    ;* GROUPED GLOBALS FOR $O1$$                                         *
     893                    ;*********************************************************************
     894          00000000! restarted:      .set    ||$O1$$||+0
     895                    $C$DW$126       .dwtag  DW_TAG_variable
     896                            .dwattr $C$DW$126, DW_AT_name("restarted")
     897                            .dwattr $C$DW$126, DW_AT_TI_symbol_name("restarted")
     898                            .dwattr $C$DW$126, DW_AT_type(*$C$DW$T$31)
     899                            .dwattr $C$DW$126, DW_AT_location[DW_OP_addr restarted]
     900                            .dwattr $C$DW$126, DW_AT_decl_file("../Application/collector.c")
     901                            .dwattr $C$DW$126, DW_AT_decl_line(0xac)
     902                            .dwattr $C$DW$126, DW_AT_decl_column(0x0d)
     903                    
     904          00000001! cllcState:      .set    ||$O1$$||+1
     905                    $C$DW$127       .dwtag  DW_TAG_variable
     906                            .dwattr $C$DW$127, DW_AT_name("cllcState")
     907                            .dwattr $C$DW$127, DW_AT_TI_symbol_name("cllcState")
     908                            .dwattr $C$DW$127, DW_AT_type(*$C$DW$T$98)
     909                            .dwattr $C$DW$127, DW_AT_location[DW_OP_addr cllcState]
     910                            .dwattr $C$DW$127, DW_AT_decl_file("../Application/collector.c")
     911                            .dwattr $C$DW$127, DW_AT_decl_line(0xaf)
     912                            .dwattr $C$DW$127, DW_AT_decl_column(0x16)
     913                    
     914          00000002! deviceTxMsduHandle:     .set    ||$O1$$||+2
     915                    $C$DW$128       .dwtag  DW_TAG_variable
     916                            .dwattr $C$DW$128, DW_AT_name("deviceTxMsduHandle")
     917                            .dwattr $C$DW$128, DW_AT_TI_symbol_name("deviceTxMsduHandle")
     918                            .dwattr $C$DW$128, DW_AT_type(*$C$DW$T$27)
     919                            .dwattr $C$DW$128, DW_AT_location[DW_OP_addr deviceTxMsduHandle]
     920                            .dwattr $C$DW$128, DW_AT_decl_file("../Application/collector.c")
     921                            .dwattr $C$DW$128, DW_AT_decl_line(0xb5)
     922                            .dwattr $C$DW$128, DW_AT_decl_column(0x10)
     923                    
     924          00000003! fhEnabled:      .set    ||$O1$$||+3
     925                    $C$DW$129       .dwtag  DW_TAG_variable
     926                            .dwattr $C$DW$129, DW_AT_name("fhEnabled")
     927                            .dwattr $C$DW$129, DW_AT_TI_symbol_name("fhEnabled")
     928                            .dwattr $C$DW$129, DW_AT_type(*$C$DW$T$31)
     929                            .dwattr $C$DW$129, DW_AT_location[DW_OP_addr fhEnabled]
     930                            .dwattr $C$DW$129, DW_AT_decl_file("../Application/collector.c")
     931                            .dwattr $C$DW$129, DW_AT_decl_line(0xb7)
     932                            .dwattr $C$DW$129, DW_AT_decl_column(0x0d)
     933                    
     934          00000004! Collector_events:       .set    ||$O1$$||+4
     935                            .global Collector_events
TI ARM Assembler PC v18.1.3 Wed Nov 28 13:22:11 2018

Tools Copyright (c) 1996-2017 Texas Instruments Incorporated
C:\Users\Adrian\AppData\Local\Temp\{54D4664F-6A53-4525-80FB-24266563E3CC} PAGE   18

     936                    $C$DW$130       .dwtag  DW_TAG_variable
     937                            .dwattr $C$DW$130, DW_AT_name("Collector_events")
     938                            .dwattr $C$DW$130, DW_AT_TI_symbol_name("Collector_events")
     939                            .dwattr $C$DW$130, DW_AT_location[DW_OP_addr Collector_events]
     940                            .dwattr $C$DW$130, DW_AT_type(*$C$DW$T$34)
     941                            .dwattr $C$DW$130, DW_AT_external
     942                            .dwattr $C$DW$130, DW_AT_decl_file("../Application/collector.c")
     943                            .dwattr $C$DW$130, DW_AT_decl_line(0xa0)
     944                            .dwattr $C$DW$130, DW_AT_decl_column(0x0a)
     945                    
     946          00000006! devicePanId:    .set    ||$O1$$||+6
     947                    $C$DW$131       .dwtag  DW_TAG_variable
     948                            .dwattr $C$DW$131, DW_AT_name("devicePanId")
     949                            .dwattr $C$DW$131, DW_AT_TI_symbol_name("devicePanId")
     950                            .dwattr $C$DW$131, DW_AT_type(*$C$DW$T$34)
     951                            .dwattr $C$DW$131, DW_AT_location[DW_OP_addr devicePanId]
     952                            .dwattr $C$DW$131, DW_AT_decl_file("../Application/collector.c")
     953                            .dwattr $C$DW$131, DW_AT_decl_line(0xb2)
     954                            .dwattr $C$DW$131, DW_AT_decl_column(0x11)
     955                    
     956          00000008! sem:    .set    ||$O1$$||+8
     957                    $C$DW$132       .dwtag  DW_TAG_variable
     958                            .dwattr $C$DW$132, DW_AT_name("sem")
     959                            .dwattr $C$DW$132, DW_AT_TI_symbol_name("sem")
     960                            .dwattr $C$DW$132, DW_AT_type(*$C$DW$T$3)
     961                            .dwattr $C$DW$132, DW_AT_location[DW_OP_addr sem]
     962                            .dwattr $C$DW$132, DW_AT_decl_file("../Application/collector.c")
     963                            .dwattr $C$DW$132, DW_AT_decl_line(0xa9)
     964                            .dwattr $C$DW$132, DW_AT_decl_column(0x0e)
     965                    
     966          0000000C! cllcCallbacks:  .set    ||$O1$$||+12
     967                    $C$DW$133       .dwtag  DW_TAG_variable
     968                            .dwattr $C$DW$133, DW_AT_name("cllcCallbacks")
     969                            .dwattr $C$DW$133, DW_AT_TI_symbol_name("cllcCallbacks")
     970                            .dwattr $C$DW$133, DW_AT_type(*$C$DW$T$410)
     971                            .dwattr $C$DW$133, DW_AT_location[DW_OP_addr cllcCallbacks]
     972                            .dwattr $C$DW$133, DW_AT_decl_file("../Application/collector.c")
     973                            .dwattr $C$DW$133, DW_AT_decl_line(0x10a)
     974                            .dwattr $C$DW$133, DW_AT_decl_column(0x19)
     975                    
     976          00000018! Collector_statistics:   .set    ||$O1$$||+24
     977                            .global Collector_statistics
     978                    $C$DW$134       .dwtag  DW_TAG_variable
     979                            .dwattr $C$DW$134, DW_AT_name("Collector_statistics")
     980                            .dwattr $C$DW$134, DW_AT_TI_symbol_name("Collector_statistics")
     981                            .dwattr $C$DW$134, DW_AT_location[DW_OP_addr Collector_statistics]
     982                            .dwattr $C$DW$134, DW_AT_type(*$C$DW$T$401)
     983                            .dwattr $C$DW$134, DW_AT_external
     984                            .dwattr $C$DW$134, DW_AT_decl_file("../Application/collector.c")
     985                            .dwattr $C$DW$134, DW_AT_decl_line(0xa3)
     986                            .dwattr $C$DW$134, DW_AT_decl_column(0x18)
     987                    
     988          00000054! Collector_macCallbacks: .set    ||$O1$$||+84
     989                            .global Collector_macCallbacks
     990                    $C$DW$135       .dwtag  DW_TAG_variable
TI ARM Assembler PC v18.1.3 Wed Nov 28 13:22:11 2018

Tools Copyright (c) 1996-2017 Texas Instruments Incorporated
C:\Users\Adrian\AppData\Local\Temp\{54D4664F-6A53-4525-80FB-24266563E3CC} PAGE   19

     991                            .dwattr $C$DW$135, DW_AT_name("Collector_macCallbacks")
     992                            .dwattr $C$DW$135, DW_AT_TI_symbol_name("Collector_macCallbacks")
     993                            .dwattr $C$DW$135, DW_AT_location[DW_OP_addr Collector_macCallbacks]
     994                            .dwattr $C$DW$135, DW_AT_type(*$C$DW$T$437)
     995                            .dwattr $C$DW$135, DW_AT_external
     996                            .dwattr $C$DW$135, DW_AT_decl_file("../Application/collector.c")
     997                            .dwattr $C$DW$135, DW_AT_decl_line(0xe2)
     998                            .dwattr $C$DW$135, DW_AT_decl_column(0x14)
     999                    
    1000                    ;       C:\ti\ccsv8\tools\compiler\ti-cgt-arm_18.1.3.LTS\bin\armopt.exe C:/Users/Adrian/workspace_v8/c
    1001 00000000                   .sect   ".text:findDevice"
    1002                            .clink
    1003                            .thumbfunc findDevice
    1004 00000000                   .thumb
    1005                    
    1006                    $C$DW$136       .dwtag  DW_TAG_subprogram
    1007                            .dwattr $C$DW$136, DW_AT_name("findDevice")
    1008                            .dwattr $C$DW$136, DW_AT_low_pc(findDevice)
    1009                            .dwattr $C$DW$136, DW_AT_high_pc(0x00)
    1010                            .dwattr $C$DW$136, DW_AT_TI_symbol_name("findDevice")
    1011                            .dwattr $C$DW$136, DW_AT_type(*$C$DW$T$389)
    1012                            .dwattr $C$DW$136, DW_AT_TI_begin_file("../Application/collector.c")
    1013                            .dwattr $C$DW$136, DW_AT_TI_begin_line(0x476)
    1014                            .dwattr $C$DW$136, DW_AT_TI_begin_column(0x23)
    1015                            .dwattr $C$DW$136, DW_AT_decl_file("../Application/collector.c")
    1016                            .dwattr $C$DW$136, DW_AT_decl_line(0x476)
    1017                            .dwattr $C$DW$136, DW_AT_decl_column(0x23)
    1018                            .dwattr $C$DW$136, DW_AT_TI_max_frame_size(0x18)
    1019                            .dwpsn  file "../Application/collector.c",line 1143,column 1,is_stmt,address findDevice,isa 1
    1020                    
    1021                            .dwfde $C$DW$CIE, findDevice
    1022                    $C$DW$137       .dwtag  DW_TAG_formal_parameter
    1023                            .dwattr $C$DW$137, DW_AT_name("pAddr")
    1024                            .dwattr $C$DW$137, DW_AT_TI_symbol_name("pAddr")
    1025                            .dwattr $C$DW$137, DW_AT_type(*$C$DW$T$342)
    1026                            .dwattr $C$DW$137, DW_AT_location[DW_OP_reg0]
    1027                    
    1028                    
    1029                    ;*****************************************************************************
    1030                    ;* FUNCTION NAME: findDevice                                                 *
    1031                    ;*                                                                           *
    1032                    ;*   Regs Modified     : A1,A2,A3,A4,V1,V2,V3,V4,SP,SR                       *
    1033                    ;*   Regs Used         : A1,A2,A3,A4,V1,V2,V3,V4,SP,LR,SR                    *
    1034                    ;*   Local Frame Size  : 0 Args + 0 Auto + 20 Save = 20 byte                 *
    1035                    ;*****************************************************************************
    1036                    findDevice:
    1037                    ;* --------------------------------------------------------------------------*
    1038                    ;* A4    assigned to $O$C16
    1039                    ;* A1    assigned to $O$U17
    1040                    ;* V3    assigned to $O$U7
    1041                    ;* A3    assigned to $O$L1
    1042                    ;* V4    assigned to pAddr
    1043                    $C$DW$138       .dwtag  DW_TAG_variable
    1044                            .dwattr $C$DW$138, DW_AT_name("pAddr")
    1045                            .dwattr $C$DW$138, DW_AT_TI_symbol_name("pAddr")
TI ARM Assembler PC v18.1.3 Wed Nov 28 13:22:11 2018

Tools Copyright (c) 1996-2017 Texas Instruments Incorporated
C:\Users\Adrian\AppData\Local\Temp\{54D4664F-6A53-4525-80FB-24266563E3CC} PAGE   20

    1046                            .dwattr $C$DW$138, DW_AT_type(*$C$DW$T$382)
    1047                            .dwattr $C$DW$138, DW_AT_location[DW_OP_reg7]
    1048                    
    1049                    ;* A2    assigned to pItem
    1050                    $C$DW$139       .dwtag  DW_TAG_variable
    1051                            .dwattr $C$DW$139, DW_AT_name("pItem")
    1052                            .dwattr $C$DW$139, DW_AT_TI_symbol_name("pItem")
    1053                            .dwattr $C$DW$139, DW_AT_type(*$C$DW$T$389)
    1054                            .dwattr $C$DW$139, DW_AT_location[DW_OP_reg1]
    1055                    
    1056                            .dwcfi  cfa_offset, 0
    1057 00000000 B5F8              PUSH      {A4, V1, V2, V3, V4, LR} ; [DPU_V7M3_PIPE]  ; [ORIG 16-BIT INS]
    1058                            .dwcfi  cfa_offset, 24
    1059                            .dwcfi  save_reg_to_mem, 14, -4
    1060                            .dwcfi  save_reg_to_mem, 7, -8
    1061                            .dwcfi  save_reg_to_mem, 6, -12
    1062                            .dwcfi  save_reg_to_mem, 5, -16
    1063                            .dwcfi  save_reg_to_mem, 4, -20
    1064                            .dwcfi  save_reg_to_mem, 3, -24
    1065                            .dwpsn  file "../Application/collector.c",line 1148,column 5,is_stmt,isa 1
    1066 00000002 1C07              MOVS      V4, A1                ; [DPU_V7M3_PIPE] |1148|  ; [ORIG 16-BIT INS]
    1067 00000004 D001              BEQ       ||$C$L1||             ; [DPU_V7M3_PIPE] |1148|  ; [ORIG 16-BIT INS]
    1068                            ; BRANCHCC OCCURS {||$C$L1||}    ; [] |1148| 
    1069                    ;* --------------------------------------------------------------------------*
    1070 00000006 7A3E              LDRB      V3, [V4, #8]          ; [DPU_V7M3_PIPE] |1148|  ; [ORIG 16-BIT INS]
    1071 00000008 B90E              CBNZ      V3, ||$C$L2||         ; []  ; [ORIG 16-BIT INS]
    1072                            ; BRANCHCC OCCURS {||$C$L2||}    ; [] |1148| 
    1073                    ;* --------------------------------------------------------------------------*
    1074 0000000a           ||$C$L1||:    
    1075                            .dwcfi  remember_state
    1076                            .dwpsn  file "../Application/collector.c",line 1150,column 9,is_stmt,isa 1
    1077 0000000a 2000              MOVS      A1, #0                ; [DPU_V7M3_PIPE] |1150|  ; [ORIG 16-BIT INS]
    1078                    $C$DW$140       .dwtag  DW_TAG_TI_branch
    1079                            .dwattr $C$DW$140, DW_AT_low_pc(0x00)
    1080                            .dwattr $C$DW$140, DW_AT_TI_return
    1081                    
    1082 0000000c BDF8              POP       {A4, V1, V2, V3, V4, PC} ; [DPU_V7M3_PIPE]  ; [ORIG 16-BIT INS]
    1083                            .dwcfi  cfa_offset, 0
    1084                            .dwcfi  restore_reg, 7
    1085                            .dwcfi  restore_reg, 6
    1086                            .dwcfi  restore_reg, 5
    1087                            .dwcfi  restore_reg, 4
    1088                            .dwcfi  restore_reg, 3
    1089                            ; BRANCH OCCURS                  ; [] 
    1090                            .dwcfi  restore_state
    1091                    ;* --------------------------------------------------------------------------*
    1092 0000000e           ||$C$L2||:    
    1093 0000000e 480A              LDR       A1, $C$CON1           ; [DPU_V7M3_PIPE]  ; [ORIG 16-BIT INS]
    1094                            .dwpsn  file "../Application/collector.c",line 1153,column 16,is_stmt,isa 1
    1095 00000010 2232              MOVS      A3, #50               ; [DPU_V7M3_PIPE] |1153|  ; [ORIG 16-BIT INS]
    1096                            .dwpsn  file "../Application/collector.c",line 1145,column 38,is_stmt,isa 1
    1097 00000012 2100              MOVS      A2, #0                ; [DPU_V7M3_PIPE] |1145|  ; [ORIG 16-BIT INS]
    1098                            .dwpsn  file "../Application/collector.c",line 1156,column 9,is_stmt,isa 1
    1099 00000014 75FFF64F          MOV       V2, #65535            ; [DPU_V7M3_PIPE] |1156|  ; [KEEP 32-BIT INS]
    1100 00000018 380C              SUBS      A1, A1, #12           ; [DPU_V7M3_PIPE]  ; [ORIG 16-BIT INS]
TI ARM Assembler PC v18.1.3 Wed Nov 28 13:22:11 2018

Tools Copyright (c) 1996-2017 Texas Instruments Incorporated
C:\Users\Adrian\AppData\Local\Temp\{54D4664F-6A53-4525-80FB-24266563E3CC} PAGE   21

    1101                    ;* --------------------------------------------------------------------------*
    1102                    ;*   BEGIN LOOP ||$C$L3||
    1103                    ;*
    1104                    ;*   Loop source line                : 1153
    1105                    ;*   Loop closing brace source line  : 1167
    1106                    ;*   Known Minimum Trip Count        : 1
    1107                    ;*   Known Maximum Trip Count        : 50
    1108                    ;*   Known Max Trip Count Factor     : 1
    1109                    ;* --------------------------------------------------------------------------*
    1110 0000001a           ||$C$L3||:    
    1111 0000001a 3F0CF830          LDRH      A4, [A1, #12]!        ; [DPU_V7M3_PIPE] |1156|  ; [KEEP 32-BIT INS]
    1112 0000001e 429D              CMP       V2, A4                ; [DPU_V7M3_PIPE] |1156|  ; [ORIG 16-BIT INS]
    1113 00000020 D004              BEQ       ||$C$L4||             ; [DPU_V7M3_PIPE] |1156|  ; [ORIG 16-BIT INS]
    1114                            ; BRANCHCC OCCURS {||$C$L4||}    ; [] |1156| 
    1115                    ;* --------------------------------------------------------------------------*
    1116                            .dwpsn  file "../Application/collector.c",line 1158,column 13,is_stmt,isa 1
    1117 00000022 2E02              CMP       V3, #2                ; [DPU_V7M3_PIPE] |1158|  ; [ORIG 16-BIT INS]
    1118 00000024 D102              BNE       ||$C$L4||             ; [DPU_V7M3_PIPE] |1158|  ; [ORIG 16-BIT INS]
    1119                            ; BRANCHCC OCCURS {||$C$L4||}    ; [] |1158| 
    1120                    ;* --------------------------------------------------------------------------*
    1121                            .dwpsn  file "../Application/collector.c",line 1160,column 17,is_stmt,isa 1
    1122 00000026 883C              LDRH      V1, [V4, #0]          ; [DPU_V7M3_PIPE] |1160|  ; [ORIG 16-BIT INS]
    1123 00000028 42A3              CMP       A4, V1                ; [DPU_V7M3_PIPE] |1160|  ; [ORIG 16-BIT INS]
    1124 0000002a D002              BEQ       ||$C$L5||             ; [DPU_V7M3_PIPE] |1160|  ; [ORIG 16-BIT INS]
    1125                            ; BRANCHCC OCCURS {||$C$L5||}    ; [] |1160| 
    1126                    ;* --------------------------------------------------------------------------*
    1127 0000002c           ||$C$L4||:    
    1128                            .dwpsn  file "../Application/collector.c",line 1153,column 16,is_stmt,isa 1
    1129 0000002c 1E52              SUBS      A3, A3, #1            ; [DPU_V7M3_PIPE] |1153|  ; [ORIG 16-BIT INS]
    1130 0000002e D1F4              BNE       ||$C$L3||             ; [DPU_V7M3_PIPE] |1153|  ; [ORIG 16-BIT INS]
    1131                            ; BRANCHCC OCCURS {||$C$L3||}    ; [] |1153| 
    1132                    ;* --------------------------------------------------------------------------*
    1133 00000030 E000              B         ||$C$L6||             ; [DPU_V7M3_PIPE] |1153|  ; [ORIG 16-BIT INS]
    1134                            ; BRANCH OCCURS {||$C$L6||}      ; [] |1153| 
    1135                    ;* --------------------------------------------------------------------------*
    1136 00000032           ||$C$L5||:    
    1137                            .dwpsn  file "../Application/collector.c",line 1162,column 21,is_stmt,isa 1
    1138 00000032 4601              MOV       A2, A1                ; [DPU_V7M3_PIPE] |1162|  ; [ORIG 16-BIT INS]
    1139                    ;* --------------------------------------------------------------------------*
    1140 00000034           ||$C$L6||:    
    1141                            .dwpsn  file "../Application/collector.c",line 1169,column 5,is_stmt,isa 1
    1142 00000034 4608              MOV       A1, A2                ; [DPU_V7M3_PIPE] |1169|  ; [ORIG 16-BIT INS]
    1143                    ;* --------------------------------------------------------------------------*
    1144                    $C$DW$141       .dwtag  DW_TAG_TI_branch
    1145                            .dwattr $C$DW$141, DW_AT_low_pc(0x00)
    1146                            .dwattr $C$DW$141, DW_AT_TI_return
    1147                    
    1148 00000036 BDF8              POP       {A4, V1, V2, V3, V4, PC} ; [DPU_V7M3_PIPE]  ; [ORIG 16-BIT INS]
    1149                            .dwcfi  cfa_offset, 0
    1150                            .dwcfi  restore_reg, 7
    1151                            .dwcfi  restore_reg, 6
    1152                            .dwcfi  restore_reg, 5
    1153                            .dwcfi  restore_reg, 4
    1154                            .dwcfi  restore_reg, 3
    1155                            ; BRANCH OCCURS                  ; [] 
TI ARM Assembler PC v18.1.3 Wed Nov 28 13:22:11 2018

Tools Copyright (c) 1996-2017 Texas Instruments Incorporated
C:\Users\Adrian\AppData\Local\Temp\{54D4664F-6A53-4525-80FB-24266563E3CC} PAGE   22

    1156                            .dwattr $C$DW$136, DW_AT_TI_end_file("../Application/collector.c")
    1157                            .dwattr $C$DW$136, DW_AT_TI_end_line(0x492)
    1158                            .dwattr $C$DW$136, DW_AT_TI_end_column(0x01)
    1159                            .dwendentry
    1160                            .dwendtag $C$DW$136
    1161                    
    1162 00000000                   .sect   ".text:processConfigRetry"
    1163                            .clink
    1164                            .thumbfunc processConfigRetry
    1165 00000000                   .thumb
    1166                    
    1167                    $C$DW$142       .dwtag  DW_TAG_subprogram
    1168                            .dwattr $C$DW$142, DW_AT_name("processConfigRetry")
    1169                            .dwattr $C$DW$142, DW_AT_low_pc(processConfigRetry)
    1170                            .dwattr $C$DW$142, DW_AT_high_pc(0x00)
    1171                            .dwattr $C$DW$142, DW_AT_TI_symbol_name("processConfigRetry")
    1172                            .dwattr $C$DW$142, DW_AT_TI_begin_file("../Application/collector.c")
    1173                            .dwattr $C$DW$142, DW_AT_TI_begin_line(0x6e1)
    1174                            .dwattr $C$DW$142, DW_AT_TI_begin_column(0x0d)
    1175                            .dwattr $C$DW$142, DW_AT_decl_file("../Application/collector.c")
    1176                            .dwattr $C$DW$142, DW_AT_decl_line(0x6e1)
    1177                            .dwattr $C$DW$142, DW_AT_decl_column(0x0d)
    1178                            .dwattr $C$DW$142, DW_AT_TI_max_frame_size(0x08)
    1179                            .dwpsn  file "../Application/collector.c",line 1762,column 1,is_stmt,address processConfigRetr
    1180                    
    1181                            .dwfde $C$DW$CIE, processConfigRetry
    1182                    
    1183                    ;*****************************************************************************
    1184                    ;* FUNCTION NAME: processConfigRetry                                         *
    1185                    ;*                                                                           *
    1186                    ;*   Regs Modified     : A1,A2,A3,A4,V9,SP,LR,SR                             *
    1187                    ;*   Regs Used         : A1,A2,A3,A4,V9,SP,LR,SR                             *
    1188                    ;*   Local Frame Size  : 0 Args + 0 Auto + 4 Save = 4 byte                   *
    1189                    ;*****************************************************************************
    1190 00000000           processConfigRetry:
    1191                    ;* --------------------------------------------------------------------------*
    1192                            .dwcfi  cfa_offset, 0
    1193                            .dwpsn  file "../Application/collector.c",line 1764,column 5,is_stmt,isa 1
    1194 00000000 4806              LDR       A1, $C$CON3           ; [DPU_V7M3_PIPE] |1764|  ; [ORIG 16-BIT INS]
    1195 00000002 B508              PUSH      {A4, LR}              ; [DPU_V7M3_PIPE]  ; [ORIG 16-BIT INS]
    1196                            .dwcfi  cfa_offset, 8
    1197                            .dwcfi  save_reg_to_mem, 14, -4
    1198                            .dwcfi  save_reg_to_mem, 3, -8
    1199 00000004 8800              LDRH      A1, [A1, #0]          ; [DPU_V7M3_PIPE] |1764|  ; [ORIG 16-BIT INS]
    1200 00000006 08C0              LSRS      A1, A1, #3            ; [DPU_V7M3_PIPE] |1764|  ; [ORIG 16-BIT INS]
    1201 00000008 D206              BCS       ||$C$L7||             ; [DPU_V7M3_PIPE] |1764|  ; [ORIG 16-BIT INS]
    1202                            ; BRANCHCC OCCURS {||$C$L7||}    ; [] |1764| 
    1203                    ;* --------------------------------------------------------------------------*
    1204                    $C$DW$143       .dwtag  DW_TAG_TI_branch
    1205                            .dwattr $C$DW$143, DW_AT_low_pc(0x00)
    1206                            .dwattr $C$DW$143, DW_AT_name("Csf_isConfigTimerActive")
    1207                            .dwattr $C$DW$143, DW_AT_TI_call
    1208                    
    1209 0000000a FFFEF7FF!         BL        Csf_isConfigTimerActive ; [DPU_V7M3_PIPE] |1764|  ; [KEEP 32-BIT INS]
    1210                            ; CALL OCCURS {Csf_isConfigTimerActive }  ; [] |1764| 
TI ARM Assembler PC v18.1.3 Wed Nov 28 13:22:11 2018

Tools Copyright (c) 1996-2017 Texas Instruments Incorporated
C:\Users\Adrian\AppData\Local\Temp\{54D4664F-6A53-4525-80FB-24266563E3CC} PAGE   23

    1211 0000000e B918              CBNZ      A1, ||$C$L7||         ; []  ; [ORIG 16-BIT INS]
    1212                            ; BRANCHCC OCCURS {||$C$L7||}    ; [] |1764| 
    1213                    ;* --------------------------------------------------------------------------*
    1214                            .dwpsn  file "../Application/collector.c",line 1768,column 9,is_stmt,isa 1
    1215 00000010 60FAF44F          MOV       A1, #2000             ; [DPU_V7M3_PIPE] |1768|  ; [KEEP 32-BIT INS]
    1216                    $C$DW$144       .dwtag  DW_TAG_TI_branch
    1217                            .dwattr $C$DW$144, DW_AT_low_pc(0x00)
    1218                            .dwattr $C$DW$144, DW_AT_name("Csf_setConfigClock")
    1219                            .dwattr $C$DW$144, DW_AT_TI_call
    1220                    
    1221 00000014 FFFEF7FF!         BL        Csf_setConfigClock    ; [DPU_V7M3_PIPE] |1768|  ; [KEEP 32-BIT INS]
    1222                            ; CALL OCCURS {Csf_setConfigClock }  ; [] |1768| 
    1223                    ;* --------------------------------------------------------------------------*
    1224                    ||$C$L7||:    
    1225                    $C$DW$145       .dwtag  DW_TAG_TI_branch
    1226                            .dwattr $C$DW$145, DW_AT_low_pc(0x00)
    1227                            .dwattr $C$DW$145, DW_AT_TI_return
    1228                    
    1229 00000018 BD08              POP       {A4, PC}              ; [DPU_V7M3_PIPE]  ; [ORIG 16-BIT INS]
    1230                            .dwcfi  cfa_offset, 0
    1231                            .dwcfi  restore_reg, 3
    1232                            ; BRANCH OCCURS                  ; [] 
    1233                            .dwattr $C$DW$142, DW_AT_TI_end_file("../Application/collector.c")
    1234                            .dwattr $C$DW$142, DW_AT_TI_end_line(0x6ea)
    1235                            .dwattr $C$DW$142, DW_AT_TI_end_column(0x01)
    1236                            .dwendentry
    1237                            .dwendtag $C$DW$142
    1238                    
    1239 00000000                   .sect   ".text:findDeviceStatusBit"
    1240                            .clink
    1241                            .thumbfunc findDeviceStatusBit
    1242 00000000                   .thumb
    1243                    
    1244                    $C$DW$146       .dwtag  DW_TAG_subprogram
    1245                            .dwattr $C$DW$146, DW_AT_name("findDeviceStatusBit")
    1246                            .dwattr $C$DW$146, DW_AT_low_pc(findDeviceStatusBit)
    1247                            .dwattr $C$DW$146, DW_AT_high_pc(0x00)
    1248                            .dwattr $C$DW$146, DW_AT_TI_symbol_name("findDeviceStatusBit")
    1249                            .dwattr $C$DW$146, DW_AT_type(*$C$DW$T$389)
    1250                            .dwattr $C$DW$146, DW_AT_TI_begin_file("../Application/collector.c")
    1251                            .dwattr $C$DW$146, DW_AT_TI_begin_line(0x49c)
    1252                            .dwattr $C$DW$146, DW_AT_TI_begin_column(0x23)
    1253                            .dwattr $C$DW$146, DW_AT_decl_file("../Application/collector.c")
    1254                            .dwattr $C$DW$146, DW_AT_decl_line(0x49c)
    1255                            .dwattr $C$DW$146, DW_AT_decl_column(0x23)
    1256                            .dwattr $C$DW$146, DW_AT_TI_max_frame_size(0x10)
    1257                            .dwpsn  file "../Application/collector.c",line 1181,column 1,is_stmt,address findDeviceStatusB
    1258                    
    1259                            .dwfde $C$DW$CIE, findDeviceStatusBit
    1260                    $C$DW$147       .dwtag  DW_TAG_formal_parameter
    1261                            .dwattr $C$DW$147, DW_AT_name("mask")
    1262                            .dwattr $C$DW$147, DW_AT_TI_symbol_name("mask")
    1263                            .dwattr $C$DW$147, DW_AT_type(*$C$DW$T$10)
    1264                            .dwattr $C$DW$147, DW_AT_location[DW_OP_reg0]
    1265                    
TI ARM Assembler PC v18.1.3 Wed Nov 28 13:22:11 2018

Tools Copyright (c) 1996-2017 Texas Instruments Incorporated
C:\Users\Adrian\AppData\Local\Temp\{54D4664F-6A53-4525-80FB-24266563E3CC} PAGE   24

    1266                    $C$DW$148       .dwtag  DW_TAG_formal_parameter
    1267                            .dwattr $C$DW$148, DW_AT_name("statusBit")
    1268                            .dwattr $C$DW$148, DW_AT_TI_symbol_name("statusBit")
    1269                            .dwattr $C$DW$148, DW_AT_type(*$C$DW$T$10)
    1270                            .dwattr $C$DW$148, DW_AT_location[DW_OP_reg1]
    1271                    
    1272                    
    1273                    ;*****************************************************************************
    1274                    ;* FUNCTION NAME: findDeviceStatusBit                                        *
    1275                    ;*                                                                           *
    1276                    ;*   Regs Modified     : A1,A3,A4,V1,V2,V3,SP,SR                             *
    1277                    ;*   Regs Used         : A1,A2,A3,A4,V1,V2,V3,SP,LR,SR                       *
    1278                    ;*   Local Frame Size  : 0 Args + 0 Auto + 16 Save = 16 byte                 *
    1279                    ;*****************************************************************************
    1280                    findDeviceStatusBit:
    1281                    ;* --------------------------------------------------------------------------*
    1282                    ;* A3    assigned to $O$U11
    1283                    ;* V1    assigned to $O$L1
    1284                    ;* A1    assigned to mask
    1285                    $C$DW$149       .dwtag  DW_TAG_variable
    1286                            .dwattr $C$DW$149, DW_AT_name("mask")
    1287                            .dwattr $C$DW$149, DW_AT_TI_symbol_name("mask")
    1288                            .dwattr $C$DW$149, DW_AT_type(*$C$DW$T$537)
    1289                            .dwattr $C$DW$149, DW_AT_location[DW_OP_reg0]
    1290                    
    1291                    ;* A2    assigned to statusBit
    1292                    $C$DW$150       .dwtag  DW_TAG_variable
    1293                            .dwattr $C$DW$150, DW_AT_name("statusBit")
    1294                            .dwattr $C$DW$150, DW_AT_TI_symbol_name("statusBit")
    1295                            .dwattr $C$DW$150, DW_AT_type(*$C$DW$T$537)
    1296                            .dwattr $C$DW$150, DW_AT_location[DW_OP_reg1]
    1297                    
    1298                    ;* A4    assigned to pItem
    1299                    $C$DW$151       .dwtag  DW_TAG_variable
    1300                            .dwattr $C$DW$151, DW_AT_name("pItem")
    1301                            .dwattr $C$DW$151, DW_AT_TI_symbol_name("pItem")
    1302                            .dwattr $C$DW$151, DW_AT_type(*$C$DW$T$389)
    1303                            .dwattr $C$DW$151, DW_AT_location[DW_OP_reg3]
    1304                    
    1305                            .dwcfi  cfa_offset, 0
    1306 00000000 4A0A              LDR       A3, $C$CON6           ; [DPU_V7M3_PIPE]  ; [ORIG 16-BIT INS]
    1307 00000002 B570              PUSH      {V1, V2, V3, LR}      ; [DPU_V7M3_PIPE]  ; [ORIG 16-BIT INS]
    1308                            .dwcfi  cfa_offset, 16
    1309                            .dwcfi  save_reg_to_mem, 14, -4
    1310                            .dwcfi  save_reg_to_mem, 6, -8
    1311                            .dwcfi  save_reg_to_mem, 5, -12
    1312                            .dwcfi  save_reg_to_mem, 4, -16
    1313                            .dwpsn  file "../Application/collector.c",line 1183,column 38,is_stmt,isa 1
    1314 00000004 2300              MOVS      A4, #0                ; [DPU_V7M3_PIPE] |1183|  ; [ORIG 16-BIT INS]
    1315                            .dwpsn  file "../Application/collector.c",line 1185,column 16,is_stmt,isa 1
    1316 00000006 2432              MOVS      V1, #50               ; [DPU_V7M3_PIPE] |1185|  ; [ORIG 16-BIT INS]
    1317                            .dwpsn  file "../Application/collector.c",line 1188,column 9,is_stmt,isa 1
    1318 00000008 76FFF64F          MOV       V3, #65535            ; [DPU_V7M3_PIPE] |1188|  ; [KEEP 32-BIT INS]
    1319 0000000c 3A0C              SUBS      A3, A3, #12           ; [DPU_V7M3_PIPE]  ; [ORIG 16-BIT INS]
    1320                    ;* --------------------------------------------------------------------------*
TI ARM Assembler PC v18.1.3 Wed Nov 28 13:22:11 2018

Tools Copyright (c) 1996-2017 Texas Instruments Incorporated
C:\Users\Adrian\AppData\Local\Temp\{54D4664F-6A53-4525-80FB-24266563E3CC} PAGE   25

    1321                    ;*   BEGIN LOOP ||$C$L8||
    1322                    ;*
    1323                    ;*   Loop source line                : 1185
    1324                    ;*   Loop closing brace source line  : 1196
    1325                    ;*   Known Minimum Trip Count        : 1
    1326                    ;*   Known Maximum Trip Count        : 50
    1327                    ;*   Known Max Trip Count Factor     : 1
    1328                    ;* --------------------------------------------------------------------------*
    1329 0000000e           ||$C$L8||:    
    1330 0000000e 5F0CF832          LDRH      V2, [A3, #12]!        ; [DPU_V7M3_PIPE] |1188|  ; [KEEP 32-BIT INS]
    1331 00000012 42AE              CMP       V3, V2                ; [DPU_V7M3_PIPE] |1188|  ; [ORIG 16-BIT INS]
    1332 00000014 D003              BEQ       ||$C$L9||             ; [DPU_V7M3_PIPE] |1188|  ; [ORIG 16-BIT INS]
    1333                            ; BRANCHCC OCCURS {||$C$L9||}    ; [] |1188| 
    1334                    ;* --------------------------------------------------------------------------*
    1335                            .dwpsn  file "../Application/collector.c",line 1190,column 13,is_stmt,isa 1
    1336 00000016 8955              LDRH      V2, [A3, #10]         ; [DPU_V7M3_PIPE] |1190|  ; [ORIG 16-BIT INS]
    1337 00000018 4005              ANDS      V2, A1, V2            ; [DPU_V7M3_PIPE] |1190|  ; [ORIG 16-BIT INS]
    1338 0000001a 42A9              CMP       A2, V2                ; [DPU_V7M3_PIPE] |1190|  ; [ORIG 16-BIT INS]
    1339 0000001c D002              BEQ       ||$C$L10||            ; [DPU_V7M3_PIPE] |1190|  ; [ORIG 16-BIT INS]
    1340                            ; BRANCHCC OCCURS {||$C$L10||}   ; [] |1190| 
    1341                    ;* --------------------------------------------------------------------------*
    1342 0000001e           ||$C$L9||:    
    1343                            .dwpsn  file "../Application/collector.c",line 1185,column 16,is_stmt,isa 1
    1344 0000001e 1E64              SUBS      V1, V1, #1            ; [DPU_V7M3_PIPE] |1185|  ; [ORIG 16-BIT INS]
    1345 00000020 D1F5              BNE       ||$C$L8||             ; [DPU_V7M3_PIPE] |1185|  ; [ORIG 16-BIT INS]
    1346                            ; BRANCHCC OCCURS {||$C$L8||}    ; [] |1185| 
    1347                    ;* --------------------------------------------------------------------------*
    1348 00000022 E000              B         ||$C$L11||            ; [DPU_V7M3_PIPE] |1185|  ; [ORIG 16-BIT INS]
    1349                            ; BRANCH OCCURS {||$C$L11||}     ; [] |1185| 
    1350                    ;* --------------------------------------------------------------------------*
    1351 00000024           ||$C$L10||:    
    1352                            .dwpsn  file "../Application/collector.c",line 1192,column 17,is_stmt,isa 1
    1353 00000024 4613              MOV       A4, A3                ; [DPU_V7M3_PIPE] |1192|  ; [ORIG 16-BIT INS]
    1354                    ;* --------------------------------------------------------------------------*
    1355 00000026           ||$C$L11||:    
    1356                            .dwpsn  file "../Application/collector.c",line 1198,column 5,is_stmt,isa 1
    1357 00000026 4618              MOV       A1, A4                ; [DPU_V7M3_PIPE] |1198|  ; [ORIG 16-BIT INS]
    1358                    $C$DW$152       .dwtag  DW_TAG_TI_branch
    1359                            .dwattr $C$DW$152, DW_AT_low_pc(0x00)
    1360                            .dwattr $C$DW$152, DW_AT_TI_return
    1361                    
    1362 00000028 BD70              POP       {V1, V2, V3, PC}      ; [DPU_V7M3_PIPE]  ; [ORIG 16-BIT INS]
    1363                            .dwcfi  cfa_offset, 0
    1364                            .dwcfi  restore_reg, 6
    1365                            .dwcfi  restore_reg, 5
    1366                            .dwcfi  restore_reg, 4
    1367                            ; BRANCH OCCURS                  ; [] 
    1368                            .dwattr $C$DW$146, DW_AT_TI_end_file("../Application/collector.c")
    1369                            .dwattr $C$DW$146, DW_AT_TI_end_line(0x4af)
    1370                            .dwattr $C$DW$146, DW_AT_TI_end_column(0x01)
    1371                            .dwendentry
    1372                            .dwendtag $C$DW$146
    1373                    
    1374 00000000                   .sect   ".text:processDataRetry"
    1375                            .clink
TI ARM Assembler PC v18.1.3 Wed Nov 28 13:22:11 2018

Tools Copyright (c) 1996-2017 Texas Instruments Incorporated
C:\Users\Adrian\AppData\Local\Temp\{54D4664F-6A53-4525-80FB-24266563E3CC} PAGE   26

    1376                            .thumbfunc processDataRetry
    1377 00000000                   .thumb
    1378                    
    1379                    $C$DW$153       .dwtag  DW_TAG_subprogram
    1380                            .dwattr $C$DW$153, DW_AT_name("processDataRetry")
    1381                            .dwattr $C$DW$153, DW_AT_low_pc(processDataRetry)
    1382                            .dwattr $C$DW$153, DW_AT_high_pc(0x00)
    1383                            .dwattr $C$DW$153, DW_AT_TI_symbol_name("processDataRetry")
    1384                            .dwattr $C$DW$153, DW_AT_TI_begin_file("../Application/collector.c")
    1385                            .dwattr $C$DW$153, DW_AT_TI_begin_line(0x6bd)
    1386                            .dwattr $C$DW$153, DW_AT_TI_begin_column(0x0d)
    1387                            .dwattr $C$DW$153, DW_AT_decl_file("../Application/collector.c")
    1388                            .dwattr $C$DW$153, DW_AT_decl_line(0x6bd)
    1389                            .dwattr $C$DW$153, DW_AT_decl_column(0x0d)
    1390                            .dwattr $C$DW$153, DW_AT_TI_max_frame_size(0x08)
    1391                            .dwpsn  file "../Application/collector.c",line 1726,column 1,is_stmt,address processDataRetry,
    1392                    
    1393                            .dwfde $C$DW$CIE, processDataRetry
    1394                    $C$DW$154       .dwtag  DW_TAG_formal_parameter
    1395                            .dwattr $C$DW$154, DW_AT_name("pAddr")
    1396                            .dwattr $C$DW$154, DW_AT_TI_symbol_name("pAddr")
    1397                            .dwattr $C$DW$154, DW_AT_type(*$C$DW$T$342)
    1398                            .dwattr $C$DW$154, DW_AT_location[DW_OP_reg0]
    1399                    
    1400                    
    1401                    ;*****************************************************************************
    1402                    ;* FUNCTION NAME: processDataRetry                                           *
    1403                    ;*                                                                           *
    1404                    ;*   Regs Modified     : A1,A2,A3,A4,V4,V9,SP,LR,SR                          *
    1405                    ;*   Regs Used         : A1,A2,A3,A4,V4,V9,SP,LR,SR                          *
    1406                    ;*   Local Frame Size  : 0 Args + 0 Auto + 8 Save = 8 byte                   *
    1407                    ;*****************************************************************************
    1408                    processDataRetry:
    1409                    ;* --------------------------------------------------------------------------*
    1410                    ;* A1    assigned to $O$U17
    1411                    ;* A1    assigned to pAddr
    1412                    $C$DW$155       .dwtag  DW_TAG_variable
    1413                            .dwattr $C$DW$155, DW_AT_name("pAddr")
    1414                            .dwattr $C$DW$155, DW_AT_TI_symbol_name("pAddr")
    1415                            .dwattr $C$DW$155, DW_AT_type(*$C$DW$T$382)
    1416                            .dwattr $C$DW$155, DW_AT_location[DW_OP_reg0]
    1417                    
    1418                    ;* V4    assigned to pItem
    1419                    $C$DW$156       .dwtag  DW_TAG_variable
    1420                            .dwattr $C$DW$156, DW_AT_name("pItem")
    1421                            .dwattr $C$DW$156, DW_AT_TI_symbol_name("pItem")
    1422                            .dwattr $C$DW$156, DW_AT_type(*$C$DW$T$389)
    1423                            .dwattr $C$DW$156, DW_AT_location[DW_OP_reg7]
    1424                    
    1425                            .dwcfi  cfa_offset, 0
    1426 00000000 B580              PUSH      {V4, LR}              ; [DPU_V7M3_PIPE]  ; [ORIG 16-BIT INS]
    1427                            .dwcfi  cfa_offset, 8
    1428                            .dwcfi  save_reg_to_mem, 14, -4
    1429                            .dwcfi  save_reg_to_mem, 7, -8
    1430                            .dwpsn  file "../Application/collector.c",line 1727,column 5,is_stmt,isa 1
TI ARM Assembler PC v18.1.3 Wed Nov 28 13:22:11 2018

Tools Copyright (c) 1996-2017 Texas Instruments Incorporated
C:\Users\Adrian\AppData\Local\Temp\{54D4664F-6A53-4525-80FB-24266563E3CC} PAGE   27

    1431 00000002 8801              LDRH      A2, [A1, #0]          ; [DPU_V7M3_PIPE] |1727|  ; [ORIG 16-BIT INS]
    1432 00000004 72FFF64F          MOV       A3, #65535            ; [DPU_V7M3_PIPE] |1727|  ; [KEEP 32-BIT INS]
    1433 00000008 428A              CMP       A3, A2                ; [DPU_V7M3_PIPE] |1727|  ; [ORIG 16-BIT INS]
    1434 0000000a D022              BEQ       ||$C$L13||            ; [DPU_V7M3_PIPE] |1727|  ; [ORIG 16-BIT INS]
    1435                            ; BRANCHCC OCCURS {||$C$L13||}   ; [] |1727| 
    1436                    ;* --------------------------------------------------------------------------*
    1437                            .dwpsn  file "../Application/collector.c",line 1730,column 9,is_stmt,isa 1
    1438                    $C$DW$157       .dwtag  DW_TAG_TI_branch
    1439                            .dwattr $C$DW$157, DW_AT_low_pc(0x00)
    1440                            .dwattr $C$DW$157, DW_AT_name("findDevice")
    1441                            .dwattr $C$DW$157, DW_AT_TI_call
    1442                    
    1443 0000000c FFFEF7FF!         BL        findDevice            ; [DPU_V7M3_PIPE] |1730|  ; [KEEP 32-BIT INS]
    1444                            ; CALL OCCURS {findDevice }      ; [] |1730| 
    1445                            .dwpsn  file "../Application/collector.c",line 1731,column 9,is_stmt,isa 1
    1446 00000010 1C07              MOVS      V4, A1                ; [DPU_V7M3_PIPE] |1731|  ; [ORIG 16-BIT INS]
    1447 00000012 D01E              BEQ       ||$C$L13||            ; [DPU_V7M3_PIPE] |1731|  ; [ORIG 16-BIT INS]
    1448                            ; BRANCHCC OCCURS {||$C$L13||}   ; [] |1731| 
    1449                    ;* --------------------------------------------------------------------------*
    1450                            .dwpsn  file "../Application/collector.c",line 1734,column 13,is_stmt,isa 1
    1451 00000014 8978              LDRH      A1, [V4, #10]         ; [DPU_V7M3_PIPE] |1734|  ; [ORIG 16-BIT INS]
    1452 00000016 0001F040          ORR       A1, A1, #1            ; [DPU_V7M3_PIPE] |1734|  ; [KEEP 32-BIT INS]
    1453                            .dwpsn  file "../Application/collector.c",line 1737,column 13,is_stmt,isa 1
    1454 0000001a 7F40F410          TST       A1, #768              ; [DPU_V7M3_PIPE] |1737|  ; [KEEP 32-BIT INS]
    1455                            .dwpsn  file "../Application/collector.c",line 1734,column 13,is_stmt,isa 1
    1456 0000001e 8178              STRH      A1, [V4, #10]         ; [DPU_V7M3_PIPE] |1734|  ; [ORIG 16-BIT INS]
    1457                            .dwpsn  file "../Application/collector.c",line 1737,column 13,is_stmt,isa 1
    1458 00000020 D102              BNE       ||$C$L12||            ; [DPU_V7M3_PIPE] |1737|  ; [ORIG 16-BIT INS]
    1459                            ; BRANCHCC OCCURS {||$C$L12||}   ; [] |1737| 
    1460                    ;* --------------------------------------------------------------------------*
    1461                            .dwpsn  file "../Application/collector.c",line 1739,column 17,is_stmt,isa 1
    1462                    $C$DW$158       .dwtag  DW_TAG_TI_branch
    1463                            .dwattr $C$DW$158, DW_AT_low_pc(0x00)
    1464                            .dwattr $C$DW$158, DW_AT_name("processConfigRetry")
    1465                            .dwattr $C$DW$158, DW_AT_TI_call
    1466                    
    1467 00000022 FFFEF7FF!         BL        processConfigRetry    ; [DPU_V7M3_PIPE] |1739|  ; [KEEP 32-BIT INS]
    1468                            ; CALL OCCURS {processConfigRetry }  ; [] |1739| 
    1469 00000026 8978              LDRH      A1, [V4, #10]         ; [DPU_V7M3_PIPE]  ; [ORIG 16-BIT INS]
    1470                    ;* --------------------------------------------------------------------------*
    1471 00000028           ||$C$L12||:    
    1472                            .dwpsn  file "../Application/collector.c",line 1742,column 13,is_stmt,isa 1
    1473 00000028 4FA0F410          TST       A1, #20480            ; [DPU_V7M3_PIPE] |1742|  ; [KEEP 32-BIT INS]
    1474 0000002c D111              BNE       ||$C$L13||            ; [DPU_V7M3_PIPE] |1742|  ; [ORIG 16-BIT INS]
    1475                            ; BRANCHCC OCCURS {||$C$L13||}   ; [] |1742| 
    1476                    ;* --------------------------------------------------------------------------*
    1477                            .dwpsn  file "../Application/collector.c",line 1745,column 17,is_stmt,isa 1
    1478 0000002e 4809              LDR       A1, $C$CON8           ; [DPU_V7M3_PIPE] |1745|  ; [ORIG 16-BIT INS]
    1479 00000030 8800              LDRH      A1, [A1, #0]          ; [DPU_V7M3_PIPE] |1745|  ; [ORIG 16-BIT INS]
    1480 00000032 0880              LSRS      A1, A1, #2            ; [DPU_V7M3_PIPE] |1745|  ; [ORIG 16-BIT INS]
    1481 00000034 D20D              BCS       ||$C$L13||            ; [DPU_V7M3_PIPE] |1745|  ; [ORIG 16-BIT INS]
    1482                            ; BRANCHCC OCCURS {||$C$L13||}   ; [] |1745| 
    1483                    ;* --------------------------------------------------------------------------*
    1484                    $C$DW$159       .dwtag  DW_TAG_TI_branch
    1485                            .dwattr $C$DW$159, DW_AT_low_pc(0x00)
TI ARM Assembler PC v18.1.3 Wed Nov 28 13:22:11 2018

Tools Copyright (c) 1996-2017 Texas Instruments Incorporated
C:\Users\Adrian\AppData\Local\Temp\{54D4664F-6A53-4525-80FB-24266563E3CC} PAGE   28

    1486                            .dwattr $C$DW$159, DW_AT_name("Csf_isTrackingTimerActive")
    1487                            .dwattr $C$DW$159, DW_AT_TI_call
    1488                    
    1489 00000036 FFFEF7FF!         BL        Csf_isTrackingTimerActive ; [DPU_V7M3_PIPE] |1745|  ; [KEEP 32-BIT INS]
    1490                            ; CALL OCCURS {Csf_isTrackingTimerActive }  ; [] |1745| 
    1491 0000003a B950              CBNZ      A1, ||$C$L13||        ; []  ; [ORIG 16-BIT INS]
    1492                            ; BRANCHCC OCCURS {||$C$L13||}   ; [] |1745| 
    1493                    ;* --------------------------------------------------------------------------*
    1494 0000003c 4070F44F          MOV       A1, #61440            ; [DPU_V7M3_PIPE] |1745|  ; [KEEP 32-BIT INS]
    1495 00000040 5180F44F          MOV       A2, #4096             ; [DPU_V7M3_PIPE] |1745|  ; [KEEP 32-BIT INS]
    1496                    $C$DW$160       .dwtag  DW_TAG_TI_branch
    1497                            .dwattr $C$DW$160, DW_AT_low_pc(0x00)
    1498                            .dwattr $C$DW$160, DW_AT_name("findDeviceStatusBit")
    1499                            .dwattr $C$DW$160, DW_AT_TI_call
    1500                    
    1501 00000044 FFFEF7FF!         BL        findDeviceStatusBit   ; [DPU_V7M3_PIPE] |1745|  ; [KEEP 32-BIT INS]
    1502                            ; CALL OCCURS {findDeviceStatusBit }  ; [] |1745| 
    1503 00000048 B918              CBNZ      A1, ||$C$L13||        ; []  ; [ORIG 16-BIT INS]
    1504                            ; BRANCHCC OCCURS {||$C$L13||}   ; [] |1745| 
    1505                    ;* --------------------------------------------------------------------------*
    1506                            .dwpsn  file "../Application/collector.c",line 1751,column 21,is_stmt,isa 1
    1507 0000004a 2060F64E          MOV       A1, #60000            ; [DPU_V7M3_PIPE] |1751|  ; [KEEP 32-BIT INS]
    1508                    $C$DW$161       .dwtag  DW_TAG_TI_branch
    1509                            .dwattr $C$DW$161, DW_AT_low_pc(0x00)
    1510                            .dwattr $C$DW$161, DW_AT_name("Csf_setTrackingClock")
    1511                            .dwattr $C$DW$161, DW_AT_TI_call
    1512                    
    1513 0000004e FFFEF7FF!         BL        Csf_setTrackingClock  ; [DPU_V7M3_PIPE] |1751|  ; [KEEP 32-BIT INS]
    1514                            ; CALL OCCURS {Csf_setTrackingClock }  ; [] |1751| 
    1515                    ;* --------------------------------------------------------------------------*
    1516                    ||$C$L13||:    
    1517                    $C$DW$162       .dwtag  DW_TAG_TI_branch
    1518                            .dwattr $C$DW$162, DW_AT_low_pc(0x00)
    1519                            .dwattr $C$DW$162, DW_AT_TI_return
    1520                    
    1521 00000052 BD80              POP       {V4, PC}              ; [DPU_V7M3_PIPE]  ; [ORIG 16-BIT INS]
    1522                            .dwcfi  cfa_offset, 0
    1523                            .dwcfi  restore_reg, 7
    1524                            ; BRANCH OCCURS                  ; [] 
    1525                            .dwattr $C$DW$153, DW_AT_TI_end_file("../Application/collector.c")
    1526                            .dwattr $C$DW$153, DW_AT_TI_end_line(0x6dc)
    1527                            .dwattr $C$DW$153, DW_AT_TI_end_column(0x01)
    1528                            .dwendentry
    1529                            .dwendtag $C$DW$153
    1530                    
    1531 00000000                   .sect   ".text:pollIndCB"
    1532                            .clink
    1533                            .thumbfunc pollIndCB
    1534 00000000                   .thumb
    1535                    
    1536                    $C$DW$163       .dwtag  DW_TAG_subprogram
    1537                            .dwattr $C$DW$163, DW_AT_name("pollIndCB")
    1538                            .dwattr $C$DW$163, DW_AT_low_pc(pollIndCB)
    1539                            .dwattr $C$DW$163, DW_AT_high_pc(0x00)
    1540                            .dwattr $C$DW$163, DW_AT_TI_symbol_name("pollIndCB")
TI ARM Assembler PC v18.1.3 Wed Nov 28 13:22:11 2018

Tools Copyright (c) 1996-2017 Texas Instruments Incorporated
C:\Users\Adrian\AppData\Local\Temp\{54D4664F-6A53-4525-80FB-24266563E3CC} PAGE   29

    1541                            .dwattr $C$DW$163, DW_AT_TI_begin_file("../Application/collector.c")
    1542                            .dwattr $C$DW$163, DW_AT_TI_begin_line(0x6a7)
    1543                            .dwattr $C$DW$163, DW_AT_TI_begin_column(0x0d)
    1544                            .dwattr $C$DW$163, DW_AT_decl_file("../Application/collector.c")
    1545                            .dwattr $C$DW$163, DW_AT_decl_line(0x6a7)
    1546                            .dwattr $C$DW$163, DW_AT_decl_column(0x0d)
    1547                            .dwattr $C$DW$163, DW_AT_TI_max_frame_size(0x10)
    1548                            .dwpsn  file "../Application/collector.c",line 1704,column 1,is_stmt,address pollIndCB,isa 1
    1549                    
    1550                            .dwfde $C$DW$CIE, pollIndCB
    1551                    $C$DW$164       .dwtag  DW_TAG_formal_parameter
    1552                            .dwattr $C$DW$164, DW_AT_name("pPollInd")
    1553                            .dwattr $C$DW$164, DW_AT_TI_symbol_name("pPollInd")
    1554                            .dwattr $C$DW$164, DW_AT_type(*$C$DW$T$188)
    1555                            .dwattr $C$DW$164, DW_AT_location[DW_OP_reg0]
    1556                    
    1557                    
    1558                    ;*****************************************************************************
    1559                    ;* FUNCTION NAME: pollIndCB                                                  *
    1560                    ;*                                                                           *
    1561                    ;*   Regs Modified     : A1,A2,A3,A4,V9,SP,LR,SR                             *
    1562                    ;*   Regs Used         : A1,A2,A3,A4,V9,SP,LR,SR                             *
    1563                    ;*   Local Frame Size  : 0 Args + 12 Auto + 4 Save = 16 byte                 *
    1564                    ;*****************************************************************************
    1565                    pollIndCB:
    1566                    ;* --------------------------------------------------------------------------*
    1567                    $C$DW$165       .dwtag  DW_TAG_variable
    1568                            .dwattr $C$DW$165, DW_AT_name("addr")
    1569                            .dwattr $C$DW$165, DW_AT_TI_symbol_name("addr")
    1570                            .dwattr $C$DW$165, DW_AT_type(*$C$DW$T$239)
    1571                            .dwattr $C$DW$165, DW_AT_location[DW_OP_breg13 0]
    1572                    
    1573                    ;* A1    assigned to pPollInd
    1574                    $C$DW$166       .dwtag  DW_TAG_variable
    1575                            .dwattr $C$DW$166, DW_AT_name("pPollInd")
    1576                            .dwattr $C$DW$166, DW_AT_TI_symbol_name("pPollInd")
    1577                            .dwattr $C$DW$166, DW_AT_type(*$C$DW$T$671)
    1578                            .dwattr $C$DW$166, DW_AT_location[DW_OP_reg0]
    1579                    
    1580                            .dwcfi  cfa_offset, 0
    1581 00000000 B50E              PUSH      {A2, A3, A4, LR}      ; [DPU_V7M3_PIPE]  ; [ORIG 16-BIT INS]
    1582                            .dwcfi  cfa_offset, 16
    1583                            .dwcfi  save_reg_to_mem, 14, -4
    1584                            .dwcfi  save_reg_to_mem, 3, -8
    1585                            .dwcfi  save_reg_to_mem, 2, -12
    1586                            .dwcfi  save_reg_to_mem, 1, -16
    1587                            .dwpsn  file "../Application/collector.c",line 1707,column 5,is_stmt,isa 1
    1588 00000002 2102              MOVS      A2, #2                ; [DPU_V7M3_PIPE] |1707|  ; [ORIG 16-BIT INS]
    1589 00000004 1008F88D          STRB      A2, [SP, #8]          ; [DPU_V7M3_PIPE] |1707|  ; [KEEP 32-BIT INS]
    1590                            .dwpsn  file "../Application/collector.c",line 1708,column 5,is_stmt,isa 1
    1591 00000008 7A01              LDRB      A2, [A1, #8]          ; [DPU_V7M3_PIPE] |1708|  ; [ORIG 16-BIT INS]
    1592 0000000a 2902              CMP       A2, #2                ; [DPU_V7M3_PIPE] |1708|  ; [ORIG 16-BIT INS]
    1593 0000000c D002              BEQ       ||$C$L14||            ; [DPU_V7M3_PIPE] |1708|  ; [ORIG 16-BIT INS]
    1594                            ; BRANCHCC OCCURS {||$C$L14||}   ; [] |1708| 
    1595                    ;* --------------------------------------------------------------------------*
TI ARM Assembler PC v18.1.3 Wed Nov 28 13:22:11 2018

Tools Copyright (c) 1996-2017 Texas Instruments Incorporated
C:\Users\Adrian\AppData\Local\Temp\{54D4664F-6A53-4525-80FB-24266563E3CC} PAGE   30

    1596                            .dwpsn  file "../Application/collector.c",line 1714,column 9,is_stmt,isa 1
    1597                    $C$DW$167       .dwtag  DW_TAG_TI_branch
    1598                            .dwattr $C$DW$167, DW_AT_low_pc(0x00)
    1599                            .dwattr $C$DW$167, DW_AT_name("Csf_getDeviceShort")
    1600                            .dwattr $C$DW$167, DW_AT_TI_call
    1601                    
    1602 0000000e FFFEF7FF!         BL        Csf_getDeviceShort    ; [DPU_V7M3_PIPE] |1714|  ; [KEEP 32-BIT INS]
    1603                            ; CALL OCCURS {Csf_getDeviceShort }  ; [] |1714| 
    1604 00000012 E000              B         ||$C$L15||            ; [DPU_V7M3_PIPE] |1714|  ; [ORIG 16-BIT INS]
    1605                            ; BRANCH OCCURS {||$C$L15||}     ; [] |1714| 
    1606                    ;* --------------------------------------------------------------------------*
    1607 00000014           ||$C$L14||:    
    1608                            .dwpsn  file "../Application/collector.c",line 1710,column 9,is_stmt,isa 1
    1609 00000014 8800              LDRH      A1, [A1, #0]          ; [DPU_V7M3_PIPE] |1710|  ; [ORIG 16-BIT INS]
    1610                    ;* --------------------------------------------------------------------------*
    1611 00000016           ||$C$L15||:    
    1612 00000016 0000F8AD          STRH      A1, [SP, #0]          ; [DPU_V7M3_PIPE] |1710|  ; [KEEP 32-BIT INS]
    1613                            .dwpsn  file "../Application/collector.c",line 1718,column 5,is_stmt,isa 1
    1614 0000001a 4668              MOV       A1, SP                ; [DPU_V7M3_PIPE] |1718|  ; [ORIG 16-BIT INS]
    1615                    $C$DW$168       .dwtag  DW_TAG_TI_branch
    1616                            .dwattr $C$DW$168, DW_AT_low_pc(0x00)
    1617                            .dwattr $C$DW$168, DW_AT_name("processDataRetry")
    1618                            .dwattr $C$DW$168, DW_AT_TI_call
    1619                    
    1620 0000001c FFFEF7FF!         BL        processDataRetry      ; [DPU_V7M3_PIPE] |1718|  ; [KEEP 32-BIT INS]
    1621                            ; CALL OCCURS {processDataRetry }  ; [] |1718| 
    1622                    $C$DW$169       .dwtag  DW_TAG_TI_branch
    1623                            .dwattr $C$DW$169, DW_AT_low_pc(0x00)
    1624                            .dwattr $C$DW$169, DW_AT_TI_return
    1625                    
    1626 00000020 BD0E              POP       {A2, A3, A4, PC}      ; [DPU_V7M3_PIPE]  ; [ORIG 16-BIT INS]
    1627                            .dwcfi  cfa_offset, 0
    1628                            .dwcfi  restore_reg, 3
    1629                            .dwcfi  restore_reg, 2
    1630                            .dwcfi  restore_reg, 1
    1631                            ; BRANCH OCCURS                  ; [] 
    1632                            .dwattr $C$DW$163, DW_AT_TI_end_file("../Application/collector.c")
    1633                            .dwattr $C$DW$163, DW_AT_TI_end_line(0x6b7)
    1634                            .dwattr $C$DW$163, DW_AT_TI_end_column(0x01)
    1635                            .dwendentry
    1636                            .dwendtag $C$DW$163
    1637                    
    1638 00000000                   .sect   ".text:getMsduHandle"
    1639                            .clink
    1640                            .thumbfunc getMsduHandle
    1641 00000000                   .thumb
    1642                    
    1643                    $C$DW$170       .dwtag  DW_TAG_subprogram
    1644                            .dwattr $C$DW$170, DW_AT_name("getMsduHandle")
    1645                            .dwattr $C$DW$170, DW_AT_low_pc(getMsduHandle)
    1646                            .dwattr $C$DW$170, DW_AT_high_pc(0x00)
    1647                            .dwattr $C$DW$170, DW_AT_TI_symbol_name("getMsduHandle")
    1648                            .dwattr $C$DW$170, DW_AT_type(*$C$DW$T$27)
    1649                            .dwattr $C$DW$170, DW_AT_TI_begin_file("../Application/collector.c")
    1650                            .dwattr $C$DW$170, DW_AT_TI_begin_line(0x4bd)
TI ARM Assembler PC v18.1.3 Wed Nov 28 13:22:11 2018

Tools Copyright (c) 1996-2017 Texas Instruments Incorporated
C:\Users\Adrian\AppData\Local\Temp\{54D4664F-6A53-4525-80FB-24266563E3CC} PAGE   31

    1651                            .dwattr $C$DW$170, DW_AT_TI_begin_column(0x10)
    1652                            .dwattr $C$DW$170, DW_AT_decl_file("../Application/collector.c")
    1653                            .dwattr $C$DW$170, DW_AT_decl_line(0x4bd)
    1654                            .dwattr $C$DW$170, DW_AT_decl_column(0x10)
    1655                            .dwattr $C$DW$170, DW_AT_TI_max_frame_size(0x00)
    1656                            .dwpsn  file "../Application/collector.c",line 1214,column 1,is_stmt,address getMsduHandle,isa
    1657                    
    1658                            .dwfde $C$DW$CIE, getMsduHandle
    1659                    $C$DW$171       .dwtag  DW_TAG_formal_parameter
    1660                            .dwattr $C$DW$171, DW_AT_name("msgType")
    1661                            .dwattr $C$DW$171, DW_AT_TI_symbol_name("msgType")
    1662                            .dwattr $C$DW$171, DW_AT_type(*$C$DW$T$10)
    1663                            .dwattr $C$DW$171, DW_AT_location[DW_OP_reg0]
    1664                    
    1665                    
    1666                    ;*****************************************************************************
    1667                    ;* FUNCTION NAME: getMsduHandle                                              *
    1668                    ;*                                                                           *
    1669                    ;*   Regs Modified     : A1,A2,A3,A4,SR                                      *
    1670                    ;*   Regs Used         : A1,A2,A3,A4,LR,SR                                   *
    1671                    ;*   Local Frame Size  : 0 Args + 0 Auto + 0 Save = 0 byte                   *
    1672                    ;*****************************************************************************
    1673                    getMsduHandle:
    1674                    ;* --------------------------------------------------------------------------*
    1675                    ;* A3    assigned to $O$C27
    1676                    ;* A3    assigned to $O$K3
    1677                    ;* A4    assigned to msgType
    1678                    $C$DW$172       .dwtag  DW_TAG_variable
    1679                            .dwattr $C$DW$172, DW_AT_name("msgType")
    1680                            .dwattr $C$DW$172, DW_AT_TI_symbol_name("msgType")
    1681                            .dwattr $C$DW$172, DW_AT_type(*$C$DW$T$313)
    1682                            .dwattr $C$DW$172, DW_AT_location[DW_OP_reg3]
    1683                    
    1684                    ;* A1    assigned to msduHandle
    1685                    $C$DW$173       .dwtag  DW_TAG_variable
    1686                            .dwattr $C$DW$173, DW_AT_name("msduHandle")
    1687                            .dwattr $C$DW$173, DW_AT_TI_symbol_name("msduHandle")
    1688                            .dwattr $C$DW$173, DW_AT_type(*$C$DW$T$10)
    1689                            .dwattr $C$DW$173, DW_AT_location[DW_OP_reg0]
    1690                    
    1691                            .dwcfi  cfa_offset, 0
    1692                            .dwpsn  file "../Application/collector.c",line 1215,column 24,is_stmt,isa 1
    1693 00000000 4A0A              LDR       A3, $C$CON10          ; [DPU_V7M3_PIPE] |1215|  ; [ORIG 16-BIT INS]
    1694                            .dwpsn  file "../Application/collector.c",line 1214,column 1,is_stmt,isa 1
    1695 00000002 4603              MOV       A4, A1                ; [DPU_V7M3_PIPE] |1214|  ; [ORIG 16-BIT INS]
    1696 00000004 1F12              SUBS      A3, A3, #4            ; [DPU_V7M3_PIPE]  ; [ORIG 16-BIT INS]
    1697                            .dwpsn  file "../Application/collector.c",line 1215,column 24,is_stmt,isa 1
    1698 00000006 7890              LDRB      A1, [A3, #2]          ; [DPU_V7M3_PIPE] |1215|  ; [ORIG 16-BIT INS]
    1699                            .dwpsn  file "../Application/collector.c",line 1218,column 5,is_stmt,isa 1
    1700 00000008 281F              CMP       A1, #31               ; [DPU_V7M3_PIPE] |1218|  ; [ORIG 16-BIT INS]
    1701 0000000a BFB4              ITE       LT                    ; [DPU_V7M3_PIPE]  ; [ORIG 16-BIT INS]
    1702                            .dwpsn  file "../Application/collector.c",line 1224,column 9,is_stmt,isa 1
    1703 0000000c 1C41              ADDLT     A2, A1, #1            ; [DPU_V7M3_PIPE] |1224|  ; [ORIG 16-BIT INS]
    1704                            .dwpsn  file "../Application/collector.c",line 1220,column 9,is_stmt,isa 1
    1705 0000000e 2100              MOVGE     A2, #0                ; [DPU_V7M3_PIPE] |1220|  ; [ORIG 16-BIT INS]
TI ARM Assembler PC v18.1.3 Wed Nov 28 13:22:11 2018

Tools Copyright (c) 1996-2017 Texas Instruments Incorporated
C:\Users\Adrian\AppData\Local\Temp\{54D4664F-6A53-4525-80FB-24266563E3CC} PAGE   32

    1706                            .dwpsn  file "../Application/collector.c",line 1238,column 5,is_stmt,isa 1
    1707 00000010 2B01              CMP       A4, #1                ; [DPU_V7M3_PIPE] |1238|  ; [ORIG 16-BIT INS]
    1708                            .dwpsn  file "../Application/collector.c",line 1220,column 9,is_stmt,isa 1
    1709 00000012 7091              STRB      A2, [A3, #2]          ; [DPU_V7M3_PIPE] |1220|  ; [ORIG 16-BIT INS]
    1710                            .dwpsn  file "../Application/collector.c",line 1235,column 5,is_stmt,isa 1
    1711 00000014 0080F040          ORR       A1, A1, #128          ; [DPU_V7M3_PIPE] |1235|  ; [KEEP 32-BIT INS]
    1712                            .dwpsn  file "../Application/collector.c",line 1238,column 5,is_stmt,isa 1
    1713 00000018 D004              BEQ       ||$C$L16||            ; [DPU_V7M3_PIPE] |1238|  ; [ORIG 16-BIT INS]
    1714                            ; BRANCHCC OCCURS {||$C$L16||}   ; [] |1238| 
    1715                    ;* --------------------------------------------------------------------------*
    1716                            .dwcfi  remember_state
    1717                            .dwpsn  file "../Application/collector.c",line 1242,column 10,is_stmt,isa 1
    1718 0000001a 2B0A              CMP       A4, #10               ; [DPU_V7M3_PIPE] |1242|  ; [ORIG 16-BIT INS]
    1719 0000001c BF08              IT        EQ                    ; [DPU_V7M3_PIPE]  ; [ORIG 16-BIT INS]
    1720                            .dwpsn  file "../Application/collector.c",line 1244,column 9,is_stmt,isa 1
    1721 0000001e 0020F040          ORREQ     A1, A1, #32           ; [DPU_V7M3_PIPE] |1244|  ; [KEEP 32-BIT INS]
    1722                    $C$DW$174       .dwtag  DW_TAG_TI_branch
    1723                            .dwattr $C$DW$174, DW_AT_low_pc(0x00)
    1724                            .dwattr $C$DW$174, DW_AT_TI_return
    1725                    
    1726 00000022 4770              BX        LR                    ; [DPU_V7M3_PIPE]  ; [ORIG 16-BIT INS]
    1727                            ; BRANCH OCCURS                  ; [] 
    1728                            .dwcfi  restore_state
    1729                    ;* --------------------------------------------------------------------------*
    1730 00000024           ||$C$L16||:    
    1731                            .dwpsn  file "../Application/collector.c",line 1240,column 9,is_stmt,isa 1
    1732 00000024 0040F040          ORR       A1, A1, #64           ; [DPU_V7M3_PIPE] |1240|  ; [KEEP 32-BIT INS]
    1733                    ;* --------------------------------------------------------------------------*
    1734                    $C$DW$175       .dwtag  DW_TAG_TI_branch
    1735                            .dwattr $C$DW$175, DW_AT_low_pc(0x00)
    1736                            .dwattr $C$DW$175, DW_AT_TI_return
    1737                    
    1738 00000028 4770              BX        LR                    ; [DPU_V7M3_PIPE]  ; [ORIG 16-BIT INS]
    1739                            ; BRANCH OCCURS                  ; [] 
    1740                            .dwattr $C$DW$170, DW_AT_TI_end_file("../Application/collector.c")
    1741                            .dwattr $C$DW$170, DW_AT_TI_end_line(0x4e0)
    1742                            .dwattr $C$DW$170, DW_AT_TI_end_column(0x01)
    1743                            .dwendentry
    1744                            .dwendtag $C$DW$170
    1745                    
    1746 00000000                   .sect   ".text:sendMsg"
    1747                            .clink
    1748                            .thumbfunc sendMsg
    1749 00000000                   .thumb
    1750                    
    1751                    $C$DW$176       .dwtag  DW_TAG_subprogram
    1752                            .dwattr $C$DW$176, DW_AT_name("sendMsg")
    1753                            .dwattr $C$DW$176, DW_AT_low_pc(sendMsg)
    1754                            .dwattr $C$DW$176, DW_AT_high_pc(0x00)
    1755                            .dwattr $C$DW$176, DW_AT_TI_symbol_name("sendMsg")
    1756                            .dwattr $C$DW$176, DW_AT_type(*$C$DW$T$31)
    1757                            .dwattr $C$DW$176, DW_AT_TI_begin_file("../Application/collector.c")
    1758                            .dwattr $C$DW$176, DW_AT_TI_begin_line(0x4ed)
    1759                            .dwattr $C$DW$176, DW_AT_TI_begin_column(0x0d)
    1760                            .dwattr $C$DW$176, DW_AT_decl_file("../Application/collector.c")
TI ARM Assembler PC v18.1.3 Wed Nov 28 13:22:11 2018

Tools Copyright (c) 1996-2017 Texas Instruments Incorporated
C:\Users\Adrian\AppData\Local\Temp\{54D4664F-6A53-4525-80FB-24266563E3CC} PAGE   33

    1761                            .dwattr $C$DW$176, DW_AT_decl_line(0x4ed)
    1762                            .dwattr $C$DW$176, DW_AT_decl_column(0x0d)
    1763                            .dwattr $C$DW$176, DW_AT_TI_max_frame_size(0x68)
    1764                            .dwpsn  file "../Application/collector.c",line 1264,column 1,is_stmt,address sendMsg,isa 1
    1765                    
    1766                            .dwfde $C$DW$CIE, sendMsg
    1767                    $C$DW$177       .dwtag  DW_TAG_formal_parameter
    1768                            .dwattr $C$DW$177, DW_AT_name("type")
    1769                            .dwattr $C$DW$177, DW_AT_TI_symbol_name("type")
    1770                            .dwattr $C$DW$177, DW_AT_type(*$C$DW$T$10)
    1771                            .dwattr $C$DW$177, DW_AT_location[DW_OP_reg0]
    1772                    
    1773                    $C$DW$178       .dwtag  DW_TAG_formal_parameter
    1774                            .dwattr $C$DW$178, DW_AT_name("dstShortAddr")
    1775                            .dwattr $C$DW$178, DW_AT_TI_symbol_name("dstShortAddr")
    1776                            .dwattr $C$DW$178, DW_AT_type(*$C$DW$T$10)
    1777                            .dwattr $C$DW$178, DW_AT_location[DW_OP_reg1]
    1778                    
    1779                    $C$DW$179       .dwtag  DW_TAG_formal_parameter
    1780                            .dwattr $C$DW$179, DW_AT_name("rxOnIdle")
    1781                            .dwattr $C$DW$179, DW_AT_TI_symbol_name("rxOnIdle")
    1782                            .dwattr $C$DW$179, DW_AT_type(*$C$DW$T$10)
    1783                            .dwattr $C$DW$179, DW_AT_location[DW_OP_reg2]
    1784                    
    1785                    $C$DW$180       .dwtag  DW_TAG_formal_parameter
    1786                            .dwattr $C$DW$180, DW_AT_name("len")
    1787                            .dwattr $C$DW$180, DW_AT_TI_symbol_name("len")
    1788                            .dwattr $C$DW$180, DW_AT_type(*$C$DW$T$10)
    1789                            .dwattr $C$DW$180, DW_AT_location[DW_OP_reg3]
    1790                    
    1791                    $C$DW$181       .dwtag  DW_TAG_formal_parameter
    1792                            .dwattr $C$DW$181, DW_AT_name("pData")
    1793                            .dwattr $C$DW$181, DW_AT_TI_symbol_name("pData")
    1794                            .dwattr $C$DW$181, DW_AT_type(*$C$DW$T$54)
    1795                            .dwattr $C$DW$181, DW_AT_location[DW_OP_breg13 104]
    1796                    
    1797                    
    1798                    ;*****************************************************************************
    1799                    ;* FUNCTION NAME: sendMsg                                                    *
    1800                    ;*                                                                           *
    1801                    ;*   Regs Modified     : A1,A2,A3,A4,V1,V2,V3,V4,V9,SP,LR,SR                 *
    1802                    ;*   Regs Used         : A1,A2,A3,A4,V1,V2,V3,V4,V9,SP,LR,SR                 *
    1803                    ;*   Local Frame Size  : 0 Args + 84 Auto + 20 Save = 104 byte               *
    1804                    ;*****************************************************************************
    1805                    sendMsg:
    1806                    ;* --------------------------------------------------------------------------*
    1807                    $C$DW$182       .dwtag  DW_TAG_variable
    1808                            .dwattr $C$DW$182, DW_AT_name("dataReq")
    1809                            .dwattr $C$DW$182, DW_AT_TI_symbol_name("dataReq")
    1810                            .dwattr $C$DW$182, DW_AT_type(*$C$DW$T$315)
    1811                            .dwattr $C$DW$182, DW_AT_location[DW_OP_breg13 0]
    1812                    
    1813                    $C$DW$183       .dwtag  DW_TAG_variable
    1814                            .dwattr $C$DW$183, DW_AT_name("item")
    1815                            .dwattr $C$DW$183, DW_AT_TI_symbol_name("item")
TI ARM Assembler PC v18.1.3 Wed Nov 28 13:22:11 2018

Tools Copyright (c) 1996-2017 Texas Instruments Incorporated
C:\Users\Adrian\AppData\Local\Temp\{54D4664F-6A53-4525-80FB-24266563E3CC} PAGE   34

    1816                            .dwattr $C$DW$183, DW_AT_type(*$C$DW$T$446)
    1817                            .dwattr $C$DW$183, DW_AT_location[DW_OP_breg13 60]
    1818                    
    1819                    ;* A2    assigned to $O$C1
    1820                    ;* A1    assigned to $O$C2
    1821                    ;* V1    assigned to $O$K23
    1822                    ;* V1    assigned to $O$K40
    1823                    ;* V3    assigned to type
    1824                    $C$DW$184       .dwtag  DW_TAG_variable
    1825                            .dwattr $C$DW$184, DW_AT_name("type")
    1826                            .dwattr $C$DW$184, DW_AT_TI_symbol_name("type")
    1827                            .dwattr $C$DW$184, DW_AT_type(*$C$DW$T$314)
    1828                            .dwattr $C$DW$184, DW_AT_location[DW_OP_reg6]
    1829                    
    1830                    ;* V1    assigned to dstShortAddr
    1831                    $C$DW$185       .dwtag  DW_TAG_variable
    1832                            .dwattr $C$DW$185, DW_AT_name("dstShortAddr")
    1833                            .dwattr $C$DW$185, DW_AT_TI_symbol_name("dstShortAddr")
    1834                            .dwattr $C$DW$185, DW_AT_type(*$C$DW$T$537)
    1835                            .dwattr $C$DW$185, DW_AT_location[DW_OP_reg4]
    1836                    
    1837                    ;* V4    assigned to rxOnIdle
    1838                    $C$DW$186       .dwtag  DW_TAG_variable
    1839                            .dwattr $C$DW$186, DW_AT_name("rxOnIdle")
    1840                            .dwattr $C$DW$186, DW_AT_TI_symbol_name("rxOnIdle")
    1841                            .dwattr $C$DW$186, DW_AT_type(*$C$DW$T$643)
    1842                            .dwattr $C$DW$186, DW_AT_location[DW_OP_reg7]
    1843                    
    1844                    ;* V2    assigned to len
    1845                    $C$DW$187       .dwtag  DW_TAG_variable
    1846                            .dwattr $C$DW$187, DW_AT_name("len")
    1847                            .dwattr $C$DW$187, DW_AT_TI_symbol_name("len")
    1848                            .dwattr $C$DW$187, DW_AT_type(*$C$DW$T$537)
    1849                            .dwattr $C$DW$187, DW_AT_location[DW_OP_reg5]
    1850                    
    1851                            .dwcfi  cfa_offset, 0
    1852 00000000 B5F0              PUSH      {V1, V2, V3, V4, LR}  ; [DPU_V7M3_PIPE]  ; [ORIG 16-BIT INS]
    1853                            .dwcfi  cfa_offset, 20
    1854                            .dwcfi  save_reg_to_mem, 14, -4
    1855                            .dwcfi  save_reg_to_mem, 7, -8
    1856                            .dwcfi  save_reg_to_mem, 6, -12
    1857                            .dwcfi  save_reg_to_mem, 5, -16
    1858                            .dwcfi  save_reg_to_mem, 4, -20
    1859 00000002 460C              MOV       V1, A2                ; [DPU_V7M3_PIPE] |1264|  ; [ORIG 16-BIT INS]
    1860 00000004 4617              MOV       V4, A3                ; [DPU_V7M3_PIPE] |1264|  ; [ORIG 16-BIT INS]
    1861 00000006 4606              MOV       V3, A1                ; [DPU_V7M3_PIPE] |1264|  ; [ORIG 16-BIT INS]
    1862 00000008 461D              MOV       V2, A4                ; [DPU_V7M3_PIPE] |1264|  ; [ORIG 16-BIT INS]
    1863                            .dwpsn  file "../Application/collector.c",line 1268,column 5,is_stmt,isa 1
    1864 0000000a 2100              MOVS      A2, #0                ; [DPU_V7M3_PIPE] |1268|  ; [ORIG 16-BIT INS]
    1865 0000000c 223C              MOVS      A3, #60               ; [DPU_V7M3_PIPE] |1268|  ; [ORIG 16-BIT INS]
    1866 0000000e 0D54F1AD          SUB       SP, SP, #84           ; [DPU_V7M3_PIPE]  ; [KEEP 32-BIT INS]
    1867                            .dwcfi  cfa_offset, 104
    1868 00000012 4668              MOV       A1, SP                ; [DPU_V7M3_PIPE] |1268|  ; [ORIG 16-BIT INS]
    1869                    $C$DW$188       .dwtag  DW_TAG_TI_branch
    1870                            .dwattr $C$DW$188, DW_AT_low_pc(0x00)
TI ARM Assembler PC v18.1.3 Wed Nov 28 13:22:11 2018

Tools Copyright (c) 1996-2017 Texas Instruments Incorporated
C:\Users\Adrian\AppData\Local\Temp\{54D4664F-6A53-4525-80FB-24266563E3CC} PAGE   35

    1871                            .dwattr $C$DW$188, DW_AT_name("memset")
    1872                            .dwattr $C$DW$188, DW_AT_TI_call
    1873                    
    1874 00000014 FFFEF7FF!         BL        memset                ; [DPU_V7M3_PIPE] |1268|  ; [KEEP 32-BIT INS]
    1875                            ; CALL OCCURS {memset }          ; [] |1268| 
    1876                            .dwpsn  file "../Application/collector.c",line 1271,column 5,is_stmt,isa 1
    1877 00000018 4000F8AD          STRH      V1, [SP, #0]          ; [DPU_V7M3_PIPE] |1271|  ; [KEEP 32-BIT INS]
    1878                            .dwpsn  file "../Application/collector.c",line 1270,column 5,is_stmt,isa 1
    1879 0000001c 2002              MOVS      A1, #2                ; [DPU_V7M3_PIPE] |1270|  ; [ORIG 16-BIT INS]
    1880 0000001e 0008F88D          STRB      A1, [SP, #8]          ; [DPU_V7M3_PIPE] |1270|  ; [KEEP 32-BIT INS]
    1881                            .dwpsn  file "../Application/collector.c",line 1274,column 5,is_stmt,isa 1
    1882 00000022 4C1B              LDR       V1, $C$CON11          ; [DPU_V7M3_PIPE] |1274|  ; [ORIG 16-BIT INS]
    1883                            .dwpsn  file "../Application/collector.c",line 1272,column 5,is_stmt,isa 1
    1884 00000024 000CF88D          STRB      A1, [SP, #12]         ; [DPU_V7M3_PIPE] |1272|  ; [KEEP 32-BIT INS]
    1885                            .dwpsn  file "../Application/collector.c",line 1274,column 5,is_stmt,isa 1
    1886 00000028 78E0              LDRB      A1, [V1, #3]          ; [DPU_V7M3_PIPE] |1274|  ; [ORIG 16-BIT INS]
    1887 0000002a B180              CBZ       A1, ||$C$L17||        ; []  ; [ORIG 16-BIT INS]
    1888                            ; BRANCHCC OCCURS {||$C$L17||}   ; [] |1274| 
    1889                    ;* --------------------------------------------------------------------------*
    1890 0000002c B17F              CBZ       V4, ||$C$L17||        ; []  ; [ORIG 16-BIT INS]
    1891                            ; BRANCHCC OCCURS {||$C$L17||}   ; [] |1274| 
    1892                    ;* --------------------------------------------------------------------------*
    1893                            .dwpsn  file "../Application/collector.c",line 1278,column 9,is_stmt,isa 1
    1894 0000002e 4668              MOV       A1, SP                ; [DPU_V7M3_PIPE] |1278|  ; [ORIG 16-BIT INS]
    1895 00000030 A90F              ADD       A2, SP, #60           ; [DPU_V7M3_PIPE] |1278|  ; [ORIG 16-BIT INS]
    1896                    $C$DW$189       .dwtag  DW_TAG_TI_branch
    1897                            .dwattr $C$DW$189, DW_AT_low_pc(0x00)
    1898                            .dwattr $C$DW$189, DW_AT_name("Csf_getDevice")
    1899                            .dwattr $C$DW$189, DW_AT_TI_call
    1900                    
    1901 00000032 FFFEF7FF!         BL        Csf_getDevice         ; [DPU_V7M3_PIPE] |1278|  ; [KEEP 32-BIT INS]
    1902                            ; CALL OCCURS {Csf_getDevice }   ; [] |1278| 
    1903 00000036 B338              CBZ       A1, ||$C$L18||        ; []  ; [ORIG 16-BIT INS]
    1904                            ; BRANCHCC OCCURS {||$C$L18||}   ; [] |1278| 
    1905                    ;* --------------------------------------------------------------------------*
    1906                            .dwpsn  file "../Application/collector.c",line 1281,column 13,is_stmt,isa 1
    1907 00000038 2103              MOVS      A2, #3                ; [DPU_V7M3_PIPE] |1281|  ; [ORIG 16-BIT INS]
    1908                            .dwpsn  file "../Application/collector.c",line 1282,column 13,is_stmt,isa 1
    1909 0000003a A810              ADD       A1, SP, #64           ; [DPU_V7M3_PIPE] |1282|  ; [ORIG 16-BIT INS]
    1910                            .dwpsn  file "../Application/collector.c",line 1281,column 13,is_stmt,isa 1
    1911 0000003c 1008F88D          STRB      A2, [SP, #8]          ; [DPU_V7M3_PIPE] |1281|  ; [KEEP 32-BIT INS]
    1912                            .dwpsn  file "../Application/collector.c",line 1282,column 13,is_stmt,isa 1
    1913 00000040 6803              LDR       A4, [A1, #0]          ; [DPU_V7M3_PIPE] |1282|  ; [ORIG 16-BIT INS]
    1914 00000042 466A              MOV       A3, SP                ; [DPU_V7M3_PIPE] |1282|  ; [ORIG 16-BIT INS]
    1915 00000044 6013              STR       A4, [A3, #0]          ; [DPU_V7M3_PIPE] |1282|  ; [ORIG 16-BIT INS]
    1916 00000046 6840              LDR       A1, [A1, #4]          ; [DPU_V7M3_PIPE] |1282|  ; [ORIG 16-BIT INS]
    1917 00000048 6050              STR       A1, [A3, #4]          ; [DPU_V7M3_PIPE] |1282|  ; [ORIG 16-BIT INS]
    1918                            .dwpsn  file "../Application/collector.c",line 1284,column 13,is_stmt,isa 1
    1919 0000004a 100CF88D          STRB      A2, [SP, #12]         ; [DPU_V7M3_PIPE] |1284|  ; [KEEP 32-BIT INS]
    1920                    ;* --------------------------------------------------------------------------*
    1921 0000004e           ||$C$L17||:    
    1922                            .dwpsn  file "../Application/collector.c",line 1293,column 5,is_stmt,isa 1
    1923 0000004e 88E0              LDRH      A1, [V1, #6]          ; [DPU_V7M3_PIPE] |1293|  ; [ORIG 16-BIT INS]
    1924 00000050 000AF8AD          STRH      A1, [SP, #10]         ; [DPU_V7M3_PIPE] |1293|  ; [KEEP 32-BIT INS]
    1925                            .dwpsn  file "../Application/collector.c",line 1295,column 5,is_stmt,isa 1
TI ARM Assembler PC v18.1.3 Wed Nov 28 13:22:11 2018

Tools Copyright (c) 1996-2017 Texas Instruments Incorporated
C:\Users\Adrian\AppData\Local\Temp\{54D4664F-6A53-4525-80FB-24266563E3CC} PAGE   36

    1926 00000054 4630              MOV       A1, V3                ; [DPU_V7M3_PIPE] |1295|  ; [ORIG 16-BIT INS]
    1927                    $C$DW$190       .dwtag  DW_TAG_TI_branch
    1928                            .dwattr $C$DW$190, DW_AT_low_pc(0x00)
    1929                            .dwattr $C$DW$190, DW_AT_name("getMsduHandle")
    1930                            .dwattr $C$DW$190, DW_AT_TI_call
    1931                    
    1932 00000056 FFFEF7FF!         BL        getMsduHandle         ; [DPU_V7M3_PIPE] |1295|  ; [KEEP 32-BIT INS]
    1933                            ; CALL OCCURS {getMsduHandle }   ; [] |1295| 
    1934                            .dwpsn  file "../Application/collector.c",line 1297,column 5,is_stmt,isa 1
    1935 0000005a 2401              MOVS      V1, #1                ; [DPU_V7M3_PIPE] |1297|  ; [ORIG 16-BIT INS]
    1936                            .dwpsn  file "../Application/collector.c",line 1295,column 5,is_stmt,isa 1
    1937 0000005c 000DF88D          STRB      A1, [SP, #13]         ; [DPU_V7M3_PIPE] |1295|  ; [KEEP 32-BIT INS]
    1938                            .dwpsn  file "../Application/collector.c",line 1298,column 5,is_stmt,isa 1
    1939 00000060 2F01              CMP       V4, #1                ; [DPU_V7M3_PIPE] |1298|  ; [ORIG 16-BIT INS]
    1940                            .dwpsn  file "../Application/collector.c",line 1297,column 5,is_stmt,isa 1
    1941 00000062 400EF88D          STRB      V1, [SP, #14]         ; [DPU_V7M3_PIPE] |1297|  ; [KEEP 32-BIT INS]
    1942 00000066 BF18              IT        NE                    ; [DPU_V7M3_PIPE]  ; [ORIG 16-BIT INS]
    1943                            .dwpsn  file "../Application/collector.c",line 1300,column 9,is_stmt,isa 1
    1944 00000068 400FF88D          STRBNE    V1, [SP, #15]         ; [DPU_V7M3_PIPE] |1300|  ; [KEEP 32-BIT INS]
    1945                            .dwpsn  file "../Application/collector.c",line 1303,column 5,is_stmt,isa 1
    1946 0000006c 5028F8AD          STRH      V2, [SP, #40]         ; [DPU_V7M3_PIPE] |1303|  ; [KEEP 32-BIT INS]
    1947                            .dwpsn  file "../Application/collector.c",line 1304,column 5,is_stmt,isa 1
    1948 00000070 981A              LDR       A1, [SP, #104]        ; [DPU_V7M3_PIPE] |1304|  ; [ORIG 16-BIT INS]
    1949 00000072 9009              STR       A1, [SP, #36]         ; [DPU_V7M3_PIPE] |1304|  ; [ORIG 16-BIT INS]
    1950                            .dwpsn  file "../Application/collector.c",line 1308,column 5,is_stmt,isa 1
    1951 00000074 A80B              ADD       A1, SP, #44           ; [DPU_V7M3_PIPE] |1308|  ; [ORIG 16-BIT INS]
    1952                    $C$DW$191       .dwtag  DW_TAG_TI_branch
    1953                            .dwattr $C$DW$191, DW_AT_low_pc(0x00)
    1954                            .dwattr $C$DW$191, DW_AT_name("Cllc_securityFill")
    1955                            .dwattr $C$DW$191, DW_AT_TI_call
    1956                    
    1957 00000076 FFFEF7FF!         BL        Cllc_securityFill     ; [DPU_V7M3_PIPE] |1308|  ; [KEEP 32-BIT INS]
    1958                            ; CALL OCCURS {Cllc_securityFill }  ; [] |1308| 
    1959                            .dwpsn  file "../Application/collector.c",line 1312,column 5,is_stmt,isa 1
    1960 0000007a 4668              MOV       A1, SP                ; [DPU_V7M3_PIPE] |1312|  ; [ORIG 16-BIT INS]
    1961                    $C$DW$192       .dwtag  DW_TAG_TI_branch
    1962                            .dwattr $C$DW$192, DW_AT_low_pc(0x00)
    1963                            .dwattr $C$DW$192, DW_AT_name("ApiMac_mcpsDataReq")
    1964                            .dwattr $C$DW$192, DW_AT_TI_call
    1965                    
    1966 0000007c FFFEF7FF!         BL        ApiMac_mcpsDataReq    ; [DPU_V7M3_PIPE] |1312|  ; [KEEP 32-BIT INS]
    1967                            ; CALL OCCURS {ApiMac_mcpsDataReq }  ; [] |1312| 
    1968 00000080 2800              CMP       A1, #0                ; [DPU_V7M3_PIPE] |1312|  ; [ORIG 16-BIT INS]
    1969 00000082 BF08              IT        EQ                    ; [DPU_V7M3_PIPE]  ; [ORIG 16-BIT INS]
    1970 00000084 1C20              MOVEQ     A1, V1                ; [DPU_V7M3_PIPE]  ; [ORIG 16-BIT INS]
    1971                            .dwpsn  file "../Application/collector.c",line 1319,column 9,is_stmt,isa 1
    1972 00000086 D000              BEQ       ||$C$L19||            ; [DPU_V7M3_PIPE] |1319|  ; [ORIG 16-BIT INS]
    1973                            ; BRANCHCC OCCURS {||$C$L19||}   ; [] |1319| 
    1974                    ;* --------------------------------------------------------------------------*
    1975 00000088           ||$C$L18||:    
    1976                            .dwpsn  file "../Application/collector.c",line 1315,column 9,is_stmt,isa 1
    1977 00000088 2000              MOVS      A1, #0                ; [DPU_V7M3_PIPE] |1315|  ; [ORIG 16-BIT INS]
    1978                    ;* --------------------------------------------------------------------------*
    1979 0000008a           ||$C$L19||:    
    1980 0000008a B015              ADD       SP, SP, #84           ; [DPU_V7M3_PIPE]  ; [ORIG 16-BIT INS]
TI ARM Assembler PC v18.1.3 Wed Nov 28 13:22:11 2018

Tools Copyright (c) 1996-2017 Texas Instruments Incorporated
C:\Users\Adrian\AppData\Local\Temp\{54D4664F-6A53-4525-80FB-24266563E3CC} PAGE   37

    1981                            .dwcfi  cfa_offset, 20
    1982                    $C$DW$193       .dwtag  DW_TAG_TI_branch
    1983                            .dwattr $C$DW$193, DW_AT_low_pc(0x00)
    1984                            .dwattr $C$DW$193, DW_AT_TI_return
    1985                    
    1986 0000008c BDF0              POP       {V1, V2, V3, V4, PC}  ; [DPU_V7M3_PIPE]  ; [ORIG 16-BIT INS]
    1987                            .dwcfi  cfa_offset, 0
    1988                            .dwcfi  restore_reg, 7
    1989                            .dwcfi  restore_reg, 6
    1990                            .dwcfi  restore_reg, 5
    1991                            .dwcfi  restore_reg, 4
    1992                            ; BRANCH OCCURS                  ; [] 
    1993                            .dwattr $C$DW$176, DW_AT_TI_end_file("../Application/collector.c")
    1994                            .dwattr $C$DW$176, DW_AT_TI_end_line(0x529)
    1995                            .dwattr $C$DW$176, DW_AT_TI_end_column(0x01)
    1996                            .dwendentry
    1997                            .dwendtag $C$DW$176
    1998                    
    1999 00000000                   .sect   ".text:processIdendifyLedRequest"
    2000                            .clink
    2001                            .thumbfunc processIdendifyLedRequest
    2002 00000000                   .thumb
    2003                    
    2004                    $C$DW$194       .dwtag  DW_TAG_subprogram
    2005                            .dwattr $C$DW$194, DW_AT_name("processIdendifyLedRequest")
    2006                            .dwattr $C$DW$194, DW_AT_low_pc(processIdendifyLedRequest)
    2007                            .dwattr $C$DW$194, DW_AT_high_pc(0x00)
    2008                            .dwattr $C$DW$194, DW_AT_TI_symbol_name("processIdendifyLedRequest")
    2009                            .dwattr $C$DW$194, DW_AT_TI_begin_file("../Application/collector.c")
    2010                            .dwattr $C$DW$194, DW_AT_TI_begin_line(0x3b4)
    2011                            .dwattr $C$DW$194, DW_AT_TI_begin_column(0x0d)
    2012                            .dwattr $C$DW$194, DW_AT_decl_file("../Application/collector.c")
    2013                            .dwattr $C$DW$194, DW_AT_decl_line(0x3b4)
    2014                            .dwattr $C$DW$194, DW_AT_decl_column(0x0d)
    2015                            .dwattr $C$DW$194, DW_AT_TI_max_frame_size(0x28)
    2016                            .dwpsn  file "../Application/collector.c",line 949,column 1,is_stmt,address processIdendifyLed
    2017                    
    2018                            .dwfde $C$DW$CIE, processIdendifyLedRequest
    2019                    $C$DW$195       .dwtag  DW_TAG_formal_parameter
    2020                            .dwattr $C$DW$195, DW_AT_name("pDataInd")
    2021                            .dwattr $C$DW$195, DW_AT_TI_symbol_name("pDataInd")
    2022                            .dwattr $C$DW$195, DW_AT_type(*$C$DW$T$198)
    2023                            .dwattr $C$DW$195, DW_AT_location[DW_OP_reg0]
    2024                    
    2025                    
    2026                    ;*****************************************************************************
    2027                    ;* FUNCTION NAME: processIdendifyLedRequest                                  *
    2028                    ;*                                                                           *
    2029                    ;*   Regs Modified     : A1,A2,A3,A4,V1,V9,SP,LR,SR                          *
    2030                    ;*   Regs Used         : A1,A2,A3,A4,V1,V9,SP,LR,SR                          *
    2031                    ;*   Local Frame Size  : 4 Args + 28 Auto + 8 Save = 40 byte                 *
    2032                    ;*****************************************************************************
    2033                    processIdendifyLedRequest:
    2034                    ;* --------------------------------------------------------------------------*
    2035                    $C$DW$196       .dwtag  DW_TAG_variable
TI ARM Assembler PC v18.1.3 Wed Nov 28 13:22:11 2018

Tools Copyright (c) 1996-2017 Texas Instruments Incorporated
C:\Users\Adrian\AppData\Local\Temp\{54D4664F-6A53-4525-80FB-24266563E3CC} PAGE   38

    2036                            .dwattr $C$DW$196, DW_AT_name("item")
    2037                            .dwattr $C$DW$196, DW_AT_TI_symbol_name("item")
    2038                            .dwattr $C$DW$196, DW_AT_type(*$C$DW$T$446)
    2039                            .dwattr $C$DW$196, DW_AT_location[DW_OP_breg13 4]
    2040                    
    2041                    $C$DW$197       .dwtag  DW_TAG_variable
    2042                            .dwattr $C$DW$197, DW_AT_name("cmdBytes")
    2043                            .dwattr $C$DW$197, DW_AT_TI_symbol_name("cmdBytes")
    2044                            .dwattr $C$DW$197, DW_AT_type(*$C$DW$T$517)
    2045                            .dwattr $C$DW$197, DW_AT_location[DW_OP_breg13 28]
    2046                    
    2047                    ;* V1    assigned to pDataInd
    2048                    $C$DW$198       .dwtag  DW_TAG_variable
    2049                            .dwattr $C$DW$198, DW_AT_name("pDataInd")
    2050                            .dwattr $C$DW$198, DW_AT_TI_symbol_name("pDataInd")
    2051                            .dwattr $C$DW$198, DW_AT_type(*$C$DW$T$661)
    2052                            .dwattr $C$DW$198, DW_AT_location[DW_OP_reg4]
    2053                    
    2054                            .dwcfi  cfa_offset, 0
    2055 00000000 B510              PUSH      {V1, LR}              ; [DPU_V7M3_PIPE]  ; [ORIG 16-BIT INS]
    2056                            .dwcfi  cfa_offset, 8
    2057                            .dwcfi  save_reg_to_mem, 14, -4
    2058                            .dwcfi  save_reg_to_mem, 4, -8
    2059 00000002 4604              MOV       V1, A1                ; [DPU_V7M3_PIPE] |949|  ; [ORIG 16-BIT INS]
    2060                            .dwpsn  file "../Application/collector.c",line 951,column 5,is_stmt,isa 1
    2061 00000004 0040F8B4          LDRH      A1, [V1, #64]         ; [DPU_V7M3_PIPE] |951|  ; [KEEP 32-BIT INS]
    2062 00000008 0D20F1AD          SUB       SP, SP, #32           ; [DPU_V7M3_PIPE]  ; [KEEP 32-BIT INS]
    2063                            .dwcfi  cfa_offset, 40
    2064 0000000c 2802              CMP       A1, #2                ; [DPU_V7M3_PIPE] |951|  ; [ORIG 16-BIT INS]
    2065 0000000e D11D              BNE       ||$C$L20||            ; [DPU_V7M3_PIPE] |951|  ; [ORIG 16-BIT INS]
    2066                            ; BRANCHCC OCCURS {||$C$L20||}   ; [] |951| 
    2067                    ;* --------------------------------------------------------------------------*
    2068                            .dwpsn  file "../Application/collector.c",line 956,column 9,is_stmt,isa 1
    2069 00000010 4620              MOV       A1, V1                ; [DPU_V7M3_PIPE] |956|  ; [ORIG 16-BIT INS]
    2070 00000012 A901              ADD       A2, SP, #4            ; [DPU_V7M3_PIPE] |956|  ; [ORIG 16-BIT INS]
    2071                    $C$DW$199       .dwtag  DW_TAG_TI_branch
    2072                            .dwattr $C$DW$199, DW_AT_low_pc(0x00)
    2073                            .dwattr $C$DW$199, DW_AT_name("Csf_getDevice")
    2074                            .dwattr $C$DW$199, DW_AT_TI_call
    2075                    
    2076 00000014 FFFEF7FF!         BL        Csf_getDevice         ; [DPU_V7M3_PIPE] |956|  ; [KEEP 32-BIT INS]
    2077                            ; CALL OCCURS {Csf_getDevice }   ; [] |956| 
    2078 00000018 B1C0              CBZ       A1, ||$C$L20||        ; []  ; [ORIG 16-BIT INS]
    2079                            ; BRANCHCC OCCURS {||$C$L20||}   ; [] |956| 
    2080                    ;* --------------------------------------------------------------------------*
    2081                            .dwpsn  file "../Application/collector.c",line 959,column 13,is_stmt,isa 1
    2082 0000001a 6BE0              LDR       A1, [V1, #60]         ; [DPU_V7M3_PIPE] |959|  ; [ORIG 16-BIT INS]
    2083 0000001c 7841              LDRB      A2, [A1, #1]          ; [DPU_V7M3_PIPE] |959|  ; [ORIG 16-BIT INS]
    2084 0000001e 747AF44F          MOV       V1, #1000             ; [DPU_V7M3_PIPE] |959|  ; [KEEP 32-BIT INS]
    2085 00000022 F001FB04          MUL       A1, V1, A2            ; [DPU_V7M3_PIPE] |959|  ; [KEEP 32-BIT INS]
    2086 00000026 B280              UXTH      A1, A1                ; [DPU_V7M3_PIPE] |959|  ; [ORIG 16-BIT INS]
    2087                    $C$DW$200       .dwtag  DW_TAG_TI_branch
    2088                            .dwattr $C$DW$200, DW_AT_low_pc(0x00)
    2089                            .dwattr $C$DW$200, DW_AT_name("Csf_identifyLED")
    2090                            .dwattr $C$DW$200, DW_AT_TI_call
TI ARM Assembler PC v18.1.3 Wed Nov 28 13:22:11 2018

Tools Copyright (c) 1996-2017 Texas Instruments Incorporated
C:\Users\Adrian\AppData\Local\Temp\{54D4664F-6A53-4525-80FB-24266563E3CC} PAGE   39

    2091                    
    2092 00000028 FFFEF7FF!         BL        Csf_identifyLED       ; [DPU_V7M3_PIPE] |959|  ; [KEEP 32-BIT INS]
    2093                            ; CALL OCCURS {Csf_identifyLED }  ; [] |959| 
    2094                            .dwpsn  file "../Application/collector.c",line 963,column 13,is_stmt,isa 1
    2095 0000002c 2400              MOVS      V1, #0                ; [DPU_V7M3_PIPE] |963|  ; [ORIG 16-BIT INS]
    2096 0000002e 401DF88D          STRB      V1, [SP, #29]         ; [DPU_V7M3_PIPE] |963|  ; [KEEP 32-BIT INS]
    2097                            .dwpsn  file "../Application/collector.c",line 962,column 13,is_stmt,isa 1
    2098 00000032 200D              MOVS      A1, #13               ; [DPU_V7M3_PIPE] |962|  ; [ORIG 16-BIT INS]
    2099 00000034 001CF88D          STRB      A1, [SP, #28]         ; [DPU_V7M3_PIPE] |962|  ; [KEEP 32-BIT INS]
    2100                            .dwpsn  file "../Application/collector.c",line 964,column 13,is_stmt,isa 1
    2101 00000038 AB07              ADD       A4, SP, #28           ; [DPU_V7M3_PIPE] |964|  ; [ORIG 16-BIT INS]
    2102 0000003a 9300              STR       A4, [SP, #0]          ; [DPU_V7M3_PIPE] |964|  ; [ORIG 16-BIT INS]
    2103 0000003c 1006F8BD          LDRH      A2, [SP, #6]          ; [DPU_V7M3_PIPE] |964|  ; [KEEP 32-BIT INS]
    2104 00000040 2013F89D          LDRB      A3, [SP, #19]         ; [DPU_V7M3_PIPE] |964|  ; [KEEP 32-BIT INS]
    2105 00000044 2007              MOVS      A1, #7                ; [DPU_V7M3_PIPE] |964|  ; [ORIG 16-BIT INS]
    2106 00000046 2302              MOVS      A4, #2                ; [DPU_V7M3_PIPE] |964|  ; [ORIG 16-BIT INS]
    2107                    $C$DW$201       .dwtag  DW_TAG_TI_branch
    2108                            .dwattr $C$DW$201, DW_AT_low_pc(0x00)
    2109                            .dwattr $C$DW$201, DW_AT_name("sendMsg")
    2110                            .dwattr $C$DW$201, DW_AT_TI_call
    2111                    
    2112 00000048 FFFEF7FF!         BL        sendMsg               ; [DPU_V7M3_PIPE] |964|  ; [KEEP 32-BIT INS]
    2113                            ; CALL OCCURS {sendMsg }         ; [] |964| 
    2114                    ;* --------------------------------------------------------------------------*
    2115 0000004c           ||$C$L20||:    
    2116 0000004c B008              ADD       SP, SP, #32           ; [DPU_V7M3_PIPE]  ; [ORIG 16-BIT INS]
    2117                            .dwcfi  cfa_offset, 8
    2118                    $C$DW$202       .dwtag  DW_TAG_TI_branch
    2119                            .dwattr $C$DW$202, DW_AT_low_pc(0x00)
    2120                            .dwattr $C$DW$202, DW_AT_TI_return
    2121                    
    2122 0000004e BD10              POP       {V1, PC}              ; [DPU_V7M3_PIPE]  ; [ORIG 16-BIT INS]
    2123                            .dwcfi  cfa_offset, 0
    2124                            .dwcfi  restore_reg, 4
    2125                            ; BRANCH OCCURS                  ; [] 
    2126                            .dwattr $C$DW$194, DW_AT_TI_end_file("../Application/collector.c")
    2127                            .dwattr $C$DW$194, DW_AT_TI_end_line(0x3cb)
    2128                            .dwattr $C$DW$194, DW_AT_TI_end_column(0x01)
    2129                            .dwendentry
    2130                            .dwendtag $C$DW$194
    2131                    
    2132 00000000                   .sect   ".text:processSensorData"
    2133                            .clink
    2134                            .thumbfunc processSensorData
    2135 00000000                   .thumb
    2136                    
    2137                    $C$DW$203       .dwtag  DW_TAG_subprogram
    2138                            .dwattr $C$DW$203, DW_AT_name("processSensorData")
    2139                            .dwattr $C$DW$203, DW_AT_low_pc(processSensorData)
    2140                            .dwattr $C$DW$203, DW_AT_high_pc(0x00)
    2141                            .dwattr $C$DW$203, DW_AT_TI_symbol_name("processSensorData")
    2142                            .dwattr $C$DW$203, DW_AT_TI_begin_file("../Application/collector.c")
    2143                            .dwattr $C$DW$203, DW_AT_TI_begin_line(0x3e9)
    2144                            .dwattr $C$DW$203, DW_AT_TI_begin_column(0x0d)
    2145                            .dwattr $C$DW$203, DW_AT_decl_file("../Application/collector.c")
TI ARM Assembler PC v18.1.3 Wed Nov 28 13:22:11 2018

Tools Copyright (c) 1996-2017 Texas Instruments Incorporated
C:\Users\Adrian\AppData\Local\Temp\{54D4664F-6A53-4525-80FB-24266563E3CC} PAGE   40

    2146                            .dwattr $C$DW$203, DW_AT_decl_line(0x3e9)
    2147                            .dwattr $C$DW$203, DW_AT_decl_column(0x0d)
    2148                            .dwattr $C$DW$203, DW_AT_TI_max_frame_size(0x60)
    2149                            .dwpsn  file "../Application/collector.c",line 1002,column 1,is_stmt,address processSensorData
    2150                    
    2151                            .dwfde $C$DW$CIE, processSensorData
    2152                    $C$DW$204       .dwtag  DW_TAG_formal_parameter
    2153                            .dwattr $C$DW$204, DW_AT_name("pDataInd")
    2154                            .dwattr $C$DW$204, DW_AT_TI_symbol_name("pDataInd")
    2155                            .dwattr $C$DW$204, DW_AT_type(*$C$DW$T$198)
    2156                            .dwattr $C$DW$204, DW_AT_location[DW_OP_reg0]
    2157                    
    2158                    
    2159                    ;*****************************************************************************
    2160                    ;* FUNCTION NAME: processSensorData                                          *
    2161                    ;*                                                                           *
    2162                    ;*   Regs Modified     : A1,A2,A3,A4,V1,V2,V9,SP,LR,SR                       *
    2163                    ;*   Regs Used         : A1,A2,A3,A4,V1,V2,V9,SP,LR,SR                       *
    2164                    ;*   Local Frame Size  : 0 Args + 80 Auto + 12 Save = 92 byte                *
    2165                    ;*****************************************************************************
    2166                    processSensorData:
    2167                    ;* --------------------------------------------------------------------------*
    2168                    $C$DW$205       .dwtag  DW_TAG_variable
    2169                            .dwattr $C$DW$205, DW_AT_name("sensorData")
    2170                            .dwattr $C$DW$205, DW_AT_TI_symbol_name("sensorData")
    2171                            .dwattr $C$DW$205, DW_AT_type(*$C$DW$T$420)
    2172                            .dwattr $C$DW$205, DW_AT_location[DW_OP_breg13 0]
    2173                    
    2174                    ;* A1    assigned to $O$Y0
    2175                    ;* A1    assigned to $O$U21
    2176                    ;* V2    assigned to pDataInd
    2177                    $C$DW$206       .dwtag  DW_TAG_variable
    2178                            .dwattr $C$DW$206, DW_AT_name("pDataInd")
    2179                            .dwattr $C$DW$206, DW_AT_TI_symbol_name("pDataInd")
    2180                            .dwattr $C$DW$206, DW_AT_type(*$C$DW$T$661)
    2181                            .dwattr $C$DW$206, DW_AT_location[DW_OP_reg5]
    2182                    
    2183                    ;* V1    assigned to pBuf
    2184                    $C$DW$207       .dwtag  DW_TAG_variable
    2185                            .dwattr $C$DW$207, DW_AT_name("pBuf")
    2186                            .dwattr $C$DW$207, DW_AT_TI_symbol_name("pBuf")
    2187                            .dwattr $C$DW$207, DW_AT_type(*$C$DW$T$54)
    2188                            .dwattr $C$DW$207, DW_AT_location[DW_OP_reg4]
    2189                    
    2190                            .dwcfi  cfa_offset, 0
    2191 00000000 B530              PUSH      {V1, V2, LR}          ; [DPU_V7M3_PIPE]  ; [ORIG 16-BIT INS]
    2192                            .dwcfi  cfa_offset, 12
    2193                            .dwcfi  save_reg_to_mem, 14, -4
    2194                            .dwcfi  save_reg_to_mem, 5, -8
    2195                            .dwcfi  save_reg_to_mem, 4, -12
    2196 00000002 4605              MOV       V2, A1                ; [DPU_V7M3_PIPE] |1002|  ; [ORIG 16-BIT INS]
    2197                            .dwpsn  file "../Application/collector.c",line 1004,column 19,is_stmt,isa 1
    2198 00000004 6BEC              LDR       V1, [V2, #60]         ; [DPU_V7M3_PIPE] |1004|  ; [ORIG 16-BIT INS]
    2199                            .dwpsn  file "../Application/collector.c",line 1006,column 5,is_stmt,isa 1
    2200 00000006 2100              MOVS      A2, #0                ; [DPU_V7M3_PIPE] |1006|  ; [ORIG 16-BIT INS]
TI ARM Assembler PC v18.1.3 Wed Nov 28 13:22:11 2018

Tools Copyright (c) 1996-2017 Texas Instruments Incorporated
C:\Users\Adrian\AppData\Local\Temp\{54D4664F-6A53-4525-80FB-24266563E3CC} PAGE   41

    2201 00000008 2250              MOVS      A3, #80               ; [DPU_V7M3_PIPE] |1006|  ; [ORIG 16-BIT INS]
    2202 0000000a 0D54F1AD          SUB       SP, SP, #84           ; [DPU_V7M3_PIPE]  ; [KEEP 32-BIT INS]
    2203                            .dwcfi  cfa_offset, 96
    2204 0000000e 4668              MOV       A1, SP                ; [DPU_V7M3_PIPE] |1006|  ; [ORIG 16-BIT INS]
    2205                    $C$DW$208       .dwtag  DW_TAG_TI_branch
    2206                            .dwattr $C$DW$208, DW_AT_low_pc(0x00)
    2207                            .dwattr $C$DW$208, DW_AT_name("memset")
    2208                            .dwattr $C$DW$208, DW_AT_TI_call
    2209                    
    2210 00000010 FFFEF7FF!         BL        memset                ; [DPU_V7M3_PIPE] |1006|  ; [KEEP 32-BIT INS]
    2211                            ; CALL OCCURS {memset }          ; [] |1006| 
    2212                            .dwpsn  file "../Application/collector.c",line 1009,column 5,is_stmt,isa 1
    2213 00000014 0B01F814          LDRB      A1, [V1], #1          ; [DPU_V7M3_PIPE] |1009|  ; [KEEP 32-BIT INS]
    2214 00000018 0000F88D          STRB      A1, [SP, #0]          ; [DPU_V7M3_PIPE] |1009|  ; [KEEP 32-BIT INS]
    2215                            .dwpsn  file "../Application/collector.c",line 1011,column 5,is_stmt,isa 1
    2216 0000001c 6821              LDR       A2, [V1, #0]          ; [DPU_V7M3_PIPE] |1011|  ; [ORIG 16-BIT INS]
    2217 0000001e 0001F10D          ADD       A1, SP, #1            ; [DPU_V7M3_PIPE] |1011|  ; [KEEP 32-BIT INS]
    2218 00000022 6001              STR       A2, [A1, #0]          ; [DPU_V7M3_PIPE] |1011|  ; [ORIG 16-BIT INS]
    2219 00000024 6861              LDR       A2, [V1, #4]          ; [DPU_V7M3_PIPE] |1011|  ; [ORIG 16-BIT INS]
    2220                            .dwpsn  file "../Application/collector.c",line 1012,column 5,is_stmt,isa 1
    2221 00000026 3408              ADDS      V1, V1, #8            ; [DPU_V7M3_PIPE] |1012|  ; [ORIG 16-BIT INS]
    2222                            .dwpsn  file "../Application/collector.c",line 1011,column 5,is_stmt,isa 1
    2223 00000028 6041              STR       A2, [A1, #4]          ; [DPU_V7M3_PIPE] |1011|  ; [ORIG 16-BIT INS]
    2224                            .dwpsn  file "../Application/collector.c",line 1014,column 5,is_stmt,isa 1
    2225 0000002a 7820              LDRB      A1, [V1, #0]          ; [DPU_V7M3_PIPE] |1014|  ; [ORIG 16-BIT INS]
    2226 0000002c 7861              LDRB      A2, [V1, #1]          ; [DPU_V7M3_PIPE] |1014|  ; [ORIG 16-BIT INS]
    2227                    $C$DW$209       .dwtag  DW_TAG_TI_branch
    2228                            .dwattr $C$DW$209, DW_AT_low_pc(0x00)
    2229                            .dwattr $C$DW$209, DW_AT_name("Util_buildUint16")
    2230                            .dwattr $C$DW$209, DW_AT_TI_call
    2231                    
    2232 0000002e FFFEF7FF!         BL        Util_buildUint16      ; [DPU_V7M3_PIPE] |1014|  ; [KEEP 32-BIT INS]
    2233                            ; CALL OCCURS {Util_buildUint16 }  ; [] |1014| 
    2234                            .dwpsn  file "../Application/collector.c",line 1015,column 5,is_stmt,isa 1
    2235 00000032 1CA4              ADDS      V1, V1, #2            ; [DPU_V7M3_PIPE] |1015|  ; [ORIG 16-BIT INS]
    2236                            .dwpsn  file "../Application/collector.c",line 1014,column 5,is_stmt,isa 1
    2237 00000034 000AF8AD          STRH      A1, [SP, #10]         ; [DPU_V7M3_PIPE] |1014|  ; [KEEP 32-BIT INS]
    2238                            .dwpsn  file "../Application/collector.c",line 1018,column 5,is_stmt,isa 1
    2239 00000038 0841              LSRS      A2, A1, #1            ; [DPU_V7M3_PIPE] |1018|  ; [ORIG 16-BIT INS]
    2240 0000003a D30F              BCC       ||$C$L21||            ; [DPU_V7M3_PIPE] |1018|  ; [ORIG 16-BIT INS]
    2241                            ; BRANCHCC OCCURS {||$C$L21||}   ; [] |1018| 
    2242                    ;* --------------------------------------------------------------------------*
    2243                            .dwpsn  file "../Application/collector.c",line 1020,column 9,is_stmt,isa 1
    2244 0000003c 7820              LDRB      A1, [V1, #0]          ; [DPU_V7M3_PIPE] |1020|  ; [ORIG 16-BIT INS]
    2245 0000003e 7861              LDRB      A2, [V1, #1]          ; [DPU_V7M3_PIPE] |1020|  ; [ORIG 16-BIT INS]
    2246                    $C$DW$210       .dwtag  DW_TAG_TI_branch
    2247                            .dwattr $C$DW$210, DW_AT_low_pc(0x00)
    2248                            .dwattr $C$DW$210, DW_AT_name("Util_buildUint16")
    2249                            .dwattr $C$DW$210, DW_AT_TI_call
    2250                    
    2251 00000040 FFFEF7FF!         BL        Util_buildUint16      ; [DPU_V7M3_PIPE] |1020|  ; [KEEP 32-BIT INS]
    2252                            ; CALL OCCURS {Util_buildUint16 }  ; [] |1020| 
    2253                            .dwpsn  file "../Application/collector.c",line 1021,column 9,is_stmt,isa 1
    2254 00000044 1CA4              ADDS      V1, V1, #2            ; [DPU_V7M3_PIPE] |1021|  ; [ORIG 16-BIT INS]
    2255                            .dwpsn  file "../Application/collector.c",line 1020,column 9,is_stmt,isa 1
TI ARM Assembler PC v18.1.3 Wed Nov 28 13:22:11 2018

Tools Copyright (c) 1996-2017 Texas Instruments Incorporated
C:\Users\Adrian\AppData\Local\Temp\{54D4664F-6A53-4525-80FB-24266563E3CC} PAGE   42

    2256 00000046 000CF8AD          STRH      A1, [SP, #12]         ; [DPU_V7M3_PIPE] |1020|  ; [KEEP 32-BIT INS]
    2257                            .dwpsn  file "../Application/collector.c",line 1022,column 9,is_stmt,isa 1
    2258 0000004a 7861              LDRB      A2, [V1, #1]          ; [DPU_V7M3_PIPE] |1022|  ; [ORIG 16-BIT INS]
    2259 0000004c 7820              LDRB      A1, [V1, #0]          ; [DPU_V7M3_PIPE] |1022|  ; [ORIG 16-BIT INS]
    2260                    $C$DW$211       .dwtag  DW_TAG_TI_branch
    2261                            .dwattr $C$DW$211, DW_AT_low_pc(0x00)
    2262                            .dwattr $C$DW$211, DW_AT_name("Util_buildUint16")
    2263                            .dwattr $C$DW$211, DW_AT_TI_call
    2264                    
    2265 0000004e FFFEF7FF!         BL        Util_buildUint16      ; [DPU_V7M3_PIPE] |1022|  ; [KEEP 32-BIT INS]
    2266                            ; CALL OCCURS {Util_buildUint16 }  ; [] |1022| 
    2267 00000052 000EF8AD          STRH      A1, [SP, #14]         ; [DPU_V7M3_PIPE] |1022|  ; [KEEP 32-BIT INS]
    2268 00000056 000AF8BD          LDRH      A1, [SP, #10]         ; [DPU_V7M3_PIPE]  ; [KEEP 32-BIT INS]
    2269                            .dwpsn  file "../Application/collector.c",line 1023,column 9,is_stmt,isa 1
    2270 0000005a 1CA4              ADDS      V1, V1, #2            ; [DPU_V7M3_PIPE] |1023|  ; [ORIG 16-BIT INS]
    2271                    ;* --------------------------------------------------------------------------*
    2272 0000005c           ||$C$L21||:    
    2273                            .dwpsn  file "../Application/collector.c",line 1026,column 5,is_stmt,isa 1
    2274 0000005c 0881              LSRS      A2, A1, #2            ; [DPU_V7M3_PIPE] |1026|  ; [ORIG 16-BIT INS]
    2275 0000005e D308              BCC       ||$C$L22||            ; [DPU_V7M3_PIPE] |1026|  ; [ORIG 16-BIT INS]
    2276                            ; BRANCHCC OCCURS {||$C$L22||}   ; [] |1026| 
    2277                    ;* --------------------------------------------------------------------------*
    2278                            .dwpsn  file "../Application/collector.c",line 1028,column 9,is_stmt,isa 1
    2279 00000060 7820              LDRB      A1, [V1, #0]          ; [DPU_V7M3_PIPE] |1028|  ; [ORIG 16-BIT INS]
    2280 00000062 7861              LDRB      A2, [V1, #1]          ; [DPU_V7M3_PIPE] |1028|  ; [ORIG 16-BIT INS]
    2281                    $C$DW$212       .dwtag  DW_TAG_TI_branch
    2282                            .dwattr $C$DW$212, DW_AT_low_pc(0x00)
    2283                            .dwattr $C$DW$212, DW_AT_name("Util_buildUint16")
    2284                            .dwattr $C$DW$212, DW_AT_TI_call
    2285                    
    2286 00000064 FFFEF7FF!         BL        Util_buildUint16      ; [DPU_V7M3_PIPE] |1028|  ; [KEEP 32-BIT INS]
    2287                            ; CALL OCCURS {Util_buildUint16 }  ; [] |1028| 
    2288 00000068 0010F8AD          STRH      A1, [SP, #16]         ; [DPU_V7M3_PIPE] |1028|  ; [KEEP 32-BIT INS]
    2289 0000006c 000AF8BD          LDRH      A1, [SP, #10]         ; [DPU_V7M3_PIPE]  ; [KEEP 32-BIT INS]
    2290                            .dwpsn  file "../Application/collector.c",line 1029,column 9,is_stmt,isa 1
    2291 00000070 1CA4              ADDS      V1, V1, #2            ; [DPU_V7M3_PIPE] |1029|  ; [ORIG 16-BIT INS]
    2292                    ;* --------------------------------------------------------------------------*
    2293 00000072           ||$C$L22||:    
    2294                            .dwpsn  file "../Application/collector.c",line 1032,column 5,is_stmt,isa 1
    2295 00000072 08C1              LSRS      A2, A1, #3            ; [DPU_V7M3_PIPE] |1032|  ; [ORIG 16-BIT INS]
    2296 00000074 D30F              BCC       ||$C$L23||            ; [DPU_V7M3_PIPE] |1032|  ; [ORIG 16-BIT INS]
    2297                            ; BRANCHCC OCCURS {||$C$L23||}   ; [] |1032| 
    2298                    ;* --------------------------------------------------------------------------*
    2299                            .dwpsn  file "../Application/collector.c",line 1034,column 9,is_stmt,isa 1
    2300 00000076 7820              LDRB      A1, [V1, #0]          ; [DPU_V7M3_PIPE] |1034|  ; [ORIG 16-BIT INS]
    2301 00000078 7861              LDRB      A2, [V1, #1]          ; [DPU_V7M3_PIPE] |1034|  ; [ORIG 16-BIT INS]
    2302                    $C$DW$213       .dwtag  DW_TAG_TI_branch
    2303                            .dwattr $C$DW$213, DW_AT_low_pc(0x00)
    2304                            .dwattr $C$DW$213, DW_AT_name("Util_buildUint16")
    2305                            .dwattr $C$DW$213, DW_AT_TI_call
    2306                    
    2307 0000007a FFFEF7FF!         BL        Util_buildUint16      ; [DPU_V7M3_PIPE] |1034|  ; [KEEP 32-BIT INS]
    2308                            ; CALL OCCURS {Util_buildUint16 }  ; [] |1034| 
    2309                            .dwpsn  file "../Application/collector.c",line 1035,column 9,is_stmt,isa 1
    2310 0000007e 1CA4              ADDS      V1, V1, #2            ; [DPU_V7M3_PIPE] |1035|  ; [ORIG 16-BIT INS]
TI ARM Assembler PC v18.1.3 Wed Nov 28 13:22:11 2018

Tools Copyright (c) 1996-2017 Texas Instruments Incorporated
C:\Users\Adrian\AppData\Local\Temp\{54D4664F-6A53-4525-80FB-24266563E3CC} PAGE   43

    2311                            .dwpsn  file "../Application/collector.c",line 1034,column 9,is_stmt,isa 1
    2312 00000080 0012F8AD          STRH      A1, [SP, #18]         ; [DPU_V7M3_PIPE] |1034|  ; [KEEP 32-BIT INS]
    2313                            .dwpsn  file "../Application/collector.c",line 1036,column 9,is_stmt,isa 1
    2314 00000084 7861              LDRB      A2, [V1, #1]          ; [DPU_V7M3_PIPE] |1036|  ; [ORIG 16-BIT INS]
    2315 00000086 7820              LDRB      A1, [V1, #0]          ; [DPU_V7M3_PIPE] |1036|  ; [ORIG 16-BIT INS]
    2316                    $C$DW$214       .dwtag  DW_TAG_TI_branch
    2317                            .dwattr $C$DW$214, DW_AT_low_pc(0x00)
    2318                            .dwattr $C$DW$214, DW_AT_name("Util_buildUint16")
    2319                            .dwattr $C$DW$214, DW_AT_TI_call
    2320                    
    2321 00000088 FFFEF7FF!         BL        Util_buildUint16      ; [DPU_V7M3_PIPE] |1036|  ; [KEEP 32-BIT INS]
    2322                            ; CALL OCCURS {Util_buildUint16 }  ; [] |1036| 
    2323 0000008c 0014F8AD          STRH      A1, [SP, #20]         ; [DPU_V7M3_PIPE] |1036|  ; [KEEP 32-BIT INS]
    2324 00000090 000AF8BD          LDRH      A1, [SP, #10]         ; [DPU_V7M3_PIPE]  ; [KEEP 32-BIT INS]
    2325                            .dwpsn  file "../Application/collector.c",line 1037,column 9,is_stmt,isa 1
    2326 00000094 1CA4              ADDS      V1, V1, #2            ; [DPU_V7M3_PIPE] |1037|  ; [ORIG 16-BIT INS]
    2327                    ;* --------------------------------------------------------------------------*
    2328 00000096           ||$C$L23||:    
    2329                            .dwpsn  file "../Application/collector.c",line 1040,column 5,is_stmt,isa 1
    2330 00000096 0901              LSRS      A2, A1, #4            ; [DPU_V7M3_PIPE] |1040|  ; [ORIG 16-BIT INS]
    2331 00000098 AFFEF4FF!         BCC       ||$C$L24||            ; [DPU_V7M3_PIPE] |1040|  ; [KEEP 32-BIT INS]
    2332                            ; BRANCHCC OCCURS {||$C$L24||}   ; [] |1040| 
    2333                    ;* --------------------------------------------------------------------------*
    2334                            .dwpsn  file "../Application/collector.c",line 1042,column 9,is_stmt,isa 1
    2335 0000009c 7820              LDRB      A1, [V1, #0]          ; [DPU_V7M3_PIPE] |1042|  ; [ORIG 16-BIT INS]
    2336 0000009e 7861              LDRB      A2, [V1, #1]          ; [DPU_V7M3_PIPE] |1042|  ; [ORIG 16-BIT INS]
    2337                    $C$DW$215       .dwtag  DW_TAG_TI_branch
    2338                            .dwattr $C$DW$215, DW_AT_low_pc(0x00)
    2339                            .dwattr $C$DW$215, DW_AT_name("Util_buildUint16")
    2340                            .dwattr $C$DW$215, DW_AT_TI_call
    2341                    
    2342 000000a0 FFFEF7FF!         BL        Util_buildUint16      ; [DPU_V7M3_PIPE] |1042|  ; [KEEP 32-BIT INS]
    2343                            ; CALL OCCURS {Util_buildUint16 }  ; [] |1042| 
    2344                            .dwpsn  file "../Application/collector.c",line 1043,column 9,is_stmt,isa 1
    2345 000000a4 1CA4              ADDS      V1, V1, #2            ; [DPU_V7M3_PIPE] |1043|  ; [ORIG 16-BIT INS]
    2346                            .dwpsn  file "../Application/collector.c",line 1042,column 9,is_stmt,isa 1
    2347 000000a6 0016F8AD          STRH      A1, [SP, #22]         ; [DPU_V7M3_PIPE] |1042|  ; [KEEP 32-BIT INS]
    2348                            .dwpsn  file "../Application/collector.c",line 1044,column 9,is_stmt,isa 1
    2349 000000aa 7861              LDRB      A2, [V1, #1]          ; [DPU_V7M3_PIPE] |1044|  ; [ORIG 16-BIT INS]
    2350 000000ac 7820              LDRB      A1, [V1, #0]          ; [DPU_V7M3_PIPE] |1044|  ; [ORIG 16-BIT INS]
    2351                    $C$DW$216       .dwtag  DW_TAG_TI_branch
    2352                            .dwattr $C$DW$216, DW_AT_low_pc(0x00)
    2353                            .dwattr $C$DW$216, DW_AT_name("Util_buildUint16")
    2354                            .dwattr $C$DW$216, DW_AT_TI_call
    2355                    
    2356 000000ae FFFEF7FF!         BL        Util_buildUint16      ; [DPU_V7M3_PIPE] |1044|  ; [KEEP 32-BIT INS]
    2357                            ; CALL OCCURS {Util_buildUint16 }  ; [] |1044| 
    2358                            .dwpsn  file "../Application/collector.c",line 1045,column 9,is_stmt,isa 1
    2359 000000b2 1CA4              ADDS      V1, V1, #2            ; [DPU_V7M3_PIPE] |1045|  ; [ORIG 16-BIT INS]
    2360                            .dwpsn  file "../Application/collector.c",line 1044,column 9,is_stmt,isa 1
    2361 000000b4 0018F8AD          STRH      A1, [SP, #24]         ; [DPU_V7M3_PIPE] |1044|  ; [KEEP 32-BIT INS]
    2362                            .dwpsn  file "../Application/collector.c",line 1046,column 9,is_stmt,isa 1
    2363 000000b8 7861              LDRB      A2, [V1, #1]          ; [DPU_V7M3_PIPE] |1046|  ; [ORIG 16-BIT INS]
    2364 000000ba 7820              LDRB      A1, [V1, #0]          ; [DPU_V7M3_PIPE] |1046|  ; [ORIG 16-BIT INS]
    2365                    $C$DW$217       .dwtag  DW_TAG_TI_branch
TI ARM Assembler PC v18.1.3 Wed Nov 28 13:22:11 2018

Tools Copyright (c) 1996-2017 Texas Instruments Incorporated
C:\Users\Adrian\AppData\Local\Temp\{54D4664F-6A53-4525-80FB-24266563E3CC} PAGE   44

    2366                            .dwattr $C$DW$217, DW_AT_low_pc(0x00)
    2367                            .dwattr $C$DW$217, DW_AT_name("Util_buildUint16")
    2368                            .dwattr $C$DW$217, DW_AT_TI_call
    2369                    
    2370 000000bc FFFEF7FF!         BL        Util_buildUint16      ; [DPU_V7M3_PIPE] |1046|  ; [KEEP 32-BIT INS]
    2371                            ; CALL OCCURS {Util_buildUint16 }  ; [] |1046| 
    2372                            .dwpsn  file "../Application/collector.c",line 1047,column 9,is_stmt,isa 1
    2373 000000c0 1CA4              ADDS      V1, V1, #2            ; [DPU_V7M3_PIPE] |1047|  ; [ORIG 16-BIT INS]
    2374                            .dwpsn  file "../Application/collector.c",line 1046,column 9,is_stmt,isa 1
    2375 000000c2 001AF8AD          STRH      A1, [SP, #26]         ; [DPU_V7M3_PIPE] |1046|  ; [KEEP 32-BIT INS]
    2376                            .dwpsn  file "../Application/collector.c",line 1048,column 9,is_stmt,isa 1
    2377 000000c6 7861              LDRB      A2, [V1, #1]          ; [DPU_V7M3_PIPE] |1048|  ; [ORIG 16-BIT INS]
    2378 000000c8 7820              LDRB      A1, [V1, #0]          ; [DPU_V7M3_PIPE] |1048|  ; [ORIG 16-BIT INS]
    2379                    $C$DW$218       .dwtag  DW_TAG_TI_branch
    2380                            .dwattr $C$DW$218, DW_AT_low_pc(0x00)
    2381                            .dwattr $C$DW$218, DW_AT_name("Util_buildUint16")
    2382                            .dwattr $C$DW$218, DW_AT_TI_call
    2383                    
    2384 000000ca FFFEF7FF!         BL        Util_buildUint16      ; [DPU_V7M3_PIPE] |1048|  ; [KEEP 32-BIT INS]
    2385                            ; CALL OCCURS {Util_buildUint16 }  ; [] |1048| 
    2386                            .dwpsn  file "../Application/collector.c",line 1049,column 9,is_stmt,isa 1
    2387 000000ce 1CA4              ADDS      V1, V1, #2            ; [DPU_V7M3_PIPE] |1049|  ; [ORIG 16-BIT INS]
    2388                            .dwpsn  file "../Application/collector.c",line 1048,column 9,is_stmt,isa 1
    2389 000000d0 001CF8AD          STRH      A1, [SP, #28]         ; [DPU_V7M3_PIPE] |1048|  ; [KEEP 32-BIT INS]
    2390                            .dwpsn  file "../Application/collector.c",line 1050,column 9,is_stmt,isa 1
    2391 000000d4 7861              LDRB      A2, [V1, #1]          ; [DPU_V7M3_PIPE] |1050|  ; [ORIG 16-BIT INS]
    2392 000000d6 7820              LDRB      A1, [V1, #0]          ; [DPU_V7M3_PIPE] |1050|  ; [ORIG 16-BIT INS]
    2393                    $C$DW$219       .dwtag  DW_TAG_TI_branch
    2394                            .dwattr $C$DW$219, DW_AT_low_pc(0x00)
    2395                            .dwattr $C$DW$219, DW_AT_name("Util_buildUint16")
    2396                            .dwattr $C$DW$219, DW_AT_TI_call
    2397                    
    2398 000000d8 FFFEF7FF!         BL        Util_buildUint16      ; [DPU_V7M3_PIPE] |1050|  ; [KEEP 32-BIT INS]
    2399                            ; CALL OCCURS {Util_buildUint16 }  ; [] |1050| 
    2400                            .dwpsn  file "../Application/collector.c",line 1052,column 9,is_stmt,isa 1
    2401 000000dc 1CA4              ADDS      V1, V1, #2            ; [DPU_V7M3_PIPE] |1052|  ; [ORIG 16-BIT INS]
    2402                            .dwpsn  file "../Application/collector.c",line 1050,column 9,is_stmt,isa 1
    2403 000000de 001EF8AD          STRH      A1, [SP, #30]         ; [DPU_V7M3_PIPE] |1050|  ; [KEEP 32-BIT INS]
    2404                            .dwpsn  file "../Application/collector.c",line 1053,column 9,is_stmt,isa 1
    2405 000000e2 7861              LDRB      A2, [V1, #1]          ; [DPU_V7M3_PIPE] |1053|  ; [ORIG 16-BIT INS]
    2406 000000e4 7820              LDRB      A1, [V1, #0]          ; [DPU_V7M3_PIPE] |1053|  ; [ORIG 16-BIT INS]
    2407                    $C$DW$220       .dwtag  DW_TAG_TI_branch
    2408                            .dwattr $C$DW$220, DW_AT_low_pc(0x00)
    2409                            .dwattr $C$DW$220, DW_AT_name("Util_buildUint16")
    2410                            .dwattr $C$DW$220, DW_AT_TI_call
    2411                    
    2412 000000e6 FFFEF7FF!         BL        Util_buildUint16      ; [DPU_V7M3_PIPE] |1053|  ; [KEEP 32-BIT INS]
    2413                            ; CALL OCCURS {Util_buildUint16 }  ; [] |1053| 
    2414                            .dwpsn  file "../Application/collector.c",line 1056,column 9,is_stmt,isa 1
    2415 000000ea 1CA4              ADDS      V1, V1, #2            ; [DPU_V7M3_PIPE] |1056|  ; [ORIG 16-BIT INS]
    2416                            .dwpsn  file "../Application/collector.c",line 1053,column 9,is_stmt,isa 1
    2417 000000ec 0020F8AD          STRH      A1, [SP, #32]         ; [DPU_V7M3_PIPE] |1053|  ; [KEEP 32-BIT INS]
    2418                            .dwpsn  file "../Application/collector.c",line 1057,column 9,is_stmt,isa 1
    2419 000000f0 7861              LDRB      A2, [V1, #1]          ; [DPU_V7M3_PIPE] |1057|  ; [ORIG 16-BIT INS]
    2420 000000f2 7820              LDRB      A1, [V1, #0]          ; [DPU_V7M3_PIPE] |1057|  ; [ORIG 16-BIT INS]
TI ARM Assembler PC v18.1.3 Wed Nov 28 13:22:11 2018

Tools Copyright (c) 1996-2017 Texas Instruments Incorporated
C:\Users\Adrian\AppData\Local\Temp\{54D4664F-6A53-4525-80FB-24266563E3CC} PAGE   45

    2421                    ;* --------------------------------------------------------------------------*
    2422                    $C$DW$221       .dwtag  DW_TAG_TI_branch
    2423                            .dwattr $C$DW$221, DW_AT_low_pc(0x00)
    2424                            .dwattr $C$DW$221, DW_AT_name("Util_buildUint16")
    2425                            .dwattr $C$DW$221, DW_AT_TI_call
    2426                    
    2427 000000f4 FFFEF7FF!         BL        Util_buildUint16      ; [DPU_V7M3_PIPE] |1057|  ; [KEEP 32-BIT INS]
    2428                            ; CALL OCCURS {Util_buildUint16 }  ; [] |1057| 
    2429                            .dwpsn  file "../Application/collector.c",line 1059,column 9,is_stmt,isa 1
    2430 000000f8 1CA4              ADDS      V1, V1, #2            ; [DPU_V7M3_PIPE] |1059|  ; [ORIG 16-BIT INS]
    2431                            .dwpsn  file "../Application/collector.c",line 1057,column 9,is_stmt,isa 1
    2432 000000fa 0022F8AD          STRH      A1, [SP, #34]         ; [DPU_V7M3_PIPE] |1057|  ; [KEEP 32-BIT INS]
    2433                            .dwpsn  file "../Application/collector.c",line 1060,column 9,is_stmt,isa 1
    2434 000000fe 7861              LDRB      A2, [V1, #1]          ; [DPU_V7M3_PIPE] |1060|  ; [ORIG 16-BIT INS]
    2435 00000100 7820              LDRB      A1, [V1, #0]          ; [DPU_V7M3_PIPE] |1060|  ; [ORIG 16-BIT INS]
    2436                    $C$DW$222       .dwtag  DW_TAG_TI_branch
    2437                            .dwattr $C$DW$222, DW_AT_low_pc(0x00)
    2438                            .dwattr $C$DW$222, DW_AT_name("Util_buildUint16")
    2439                            .dwattr $C$DW$222, DW_AT_TI_call
    2440                    
    2441 00000102 FFFEF7FF!         BL        Util_buildUint16      ; [DPU_V7M3_PIPE] |1060|  ; [KEEP 32-BIT INS]
    2442                            ; CALL OCCURS {Util_buildUint16 }  ; [] |1060| 
    2443                            .dwpsn  file "../Application/collector.c",line 1062,column 9,is_stmt,isa 1
    2444 00000106 1CA4              ADDS      V1, V1, #2            ; [DPU_V7M3_PIPE] |1062|  ; [ORIG 16-BIT INS]
    2445                            .dwpsn  file "../Application/collector.c",line 1060,column 9,is_stmt,isa 1
    2446 00000108 0024F8AD          STRH      A1, [SP, #36]         ; [DPU_V7M3_PIPE] |1060|  ; [KEEP 32-BIT INS]
    2447                            .dwpsn  file "../Application/collector.c",line 1063,column 9,is_stmt,isa 1
    2448 0000010c 7861              LDRB      A2, [V1, #1]          ; [DPU_V7M3_PIPE] |1063|  ; [ORIG 16-BIT INS]
    2449 0000010e 7820              LDRB      A1, [V1, #0]          ; [DPU_V7M3_PIPE] |1063|  ; [ORIG 16-BIT INS]
    2450                    $C$DW$223       .dwtag  DW_TAG_TI_branch
    2451                            .dwattr $C$DW$223, DW_AT_low_pc(0x00)
    2452                            .dwattr $C$DW$223, DW_AT_name("Util_buildUint16")
    2453                            .dwattr $C$DW$223, DW_AT_TI_call
    2454                    
    2455 00000110 FFFEF7FF!         BL        Util_buildUint16      ; [DPU_V7M3_PIPE] |1063|  ; [KEEP 32-BIT INS]
    2456                            ; CALL OCCURS {Util_buildUint16 }  ; [] |1063| 
    2457                            .dwpsn  file "../Application/collector.c",line 1066,column 9,is_stmt,isa 1
    2458 00000114 1CA4              ADDS      V1, V1, #2            ; [DPU_V7M3_PIPE] |1066|  ; [ORIG 16-BIT INS]
    2459                            .dwpsn  file "../Application/collector.c",line 1063,column 9,is_stmt,isa 1
    2460 00000116 0026F8AD          STRH      A1, [SP, #38]         ; [DPU_V7M3_PIPE] |1063|  ; [KEEP 32-BIT INS]
    2461                            .dwpsn  file "../Application/collector.c",line 1067,column 9,is_stmt,isa 1
    2462 0000011a 7861              LDRB      A2, [V1, #1]          ; [DPU_V7M3_PIPE] |1067|  ; [ORIG 16-BIT INS]
    2463 0000011c 7820              LDRB      A1, [V1, #0]          ; [DPU_V7M3_PIPE] |1067|  ; [ORIG 16-BIT INS]
    2464                    $C$DW$224       .dwtag  DW_TAG_TI_branch
    2465                            .dwattr $C$DW$224, DW_AT_low_pc(0x00)
    2466                            .dwattr $C$DW$224, DW_AT_name("Util_buildUint16")
    2467                            .dwattr $C$DW$224, DW_AT_TI_call
    2468                    
    2469 0000011e FFFEF7FF!         BL        Util_buildUint16      ; [DPU_V7M3_PIPE] |1067|  ; [KEEP 32-BIT INS]
    2470                            ; CALL OCCURS {Util_buildUint16 }  ; [] |1067| 
    2471                            .dwpsn  file "../Application/collector.c",line 1069,column 9,is_stmt,isa 1
    2472 00000122 1CA4              ADDS      V1, V1, #2            ; [DPU_V7M3_PIPE] |1069|  ; [ORIG 16-BIT INS]
    2473                            .dwpsn  file "../Application/collector.c",line 1067,column 9,is_stmt,isa 1
    2474 00000124 0028F8AD          STRH      A1, [SP, #40]         ; [DPU_V7M3_PIPE] |1067|  ; [KEEP 32-BIT INS]
    2475                            .dwpsn  file "../Application/collector.c",line 1070,column 9,is_stmt,isa 1
TI ARM Assembler PC v18.1.3 Wed Nov 28 13:22:11 2018

Tools Copyright (c) 1996-2017 Texas Instruments Incorporated
C:\Users\Adrian\AppData\Local\Temp\{54D4664F-6A53-4525-80FB-24266563E3CC} PAGE   46

    2476 00000128 7861              LDRB      A2, [V1, #1]          ; [DPU_V7M3_PIPE] |1070|  ; [ORIG 16-BIT INS]
    2477 0000012a 7820              LDRB      A1, [V1, #0]          ; [DPU_V7M3_PIPE] |1070|  ; [ORIG 16-BIT INS]
    2478                    $C$DW$225       .dwtag  DW_TAG_TI_branch
    2479                            .dwattr $C$DW$225, DW_AT_low_pc(0x00)
    2480                            .dwattr $C$DW$225, DW_AT_name("Util_buildUint16")
    2481                            .dwattr $C$DW$225, DW_AT_TI_call
    2482                    
    2483 0000012c FFFEF7FF!         BL        Util_buildUint16      ; [DPU_V7M3_PIPE] |1070|  ; [KEEP 32-BIT INS]
    2484                            ; CALL OCCURS {Util_buildUint16 }  ; [] |1070| 
    2485                            .dwpsn  file "../Application/collector.c",line 1072,column 9,is_stmt,isa 1
    2486 00000130 1CA4              ADDS      V1, V1, #2            ; [DPU_V7M3_PIPE] |1072|  ; [ORIG 16-BIT INS]
    2487                            .dwpsn  file "../Application/collector.c",line 1070,column 9,is_stmt,isa 1
    2488 00000132 002AF8AD          STRH      A1, [SP, #42]         ; [DPU_V7M3_PIPE] |1070|  ; [KEEP 32-BIT INS]
    2489                            .dwpsn  file "../Application/collector.c",line 1073,column 9,is_stmt,isa 1
    2490 00000136 7861              LDRB      A2, [V1, #1]          ; [DPU_V7M3_PIPE] |1073|  ; [ORIG 16-BIT INS]
    2491 00000138 7820              LDRB      A1, [V1, #0]          ; [DPU_V7M3_PIPE] |1073|  ; [ORIG 16-BIT INS]
    2492                    $C$DW$226       .dwtag  DW_TAG_TI_branch
    2493                            .dwattr $C$DW$226, DW_AT_low_pc(0x00)
    2494                            .dwattr $C$DW$226, DW_AT_name("Util_buildUint16")
    2495                            .dwattr $C$DW$226, DW_AT_TI_call
    2496                    
    2497 0000013a FFFEF7FF!         BL        Util_buildUint16      ; [DPU_V7M3_PIPE] |1073|  ; [KEEP 32-BIT INS]
    2498                            ; CALL OCCURS {Util_buildUint16 }  ; [] |1073| 
    2499                            .dwpsn  file "../Application/collector.c",line 1074,column 9,is_stmt,isa 1
    2500 0000013e 1CA4              ADDS      V1, V1, #2            ; [DPU_V7M3_PIPE] |1074|  ; [ORIG 16-BIT INS]
    2501                            .dwpsn  file "../Application/collector.c",line 1073,column 9,is_stmt,isa 1
    2502 00000140 002CF8AD          STRH      A1, [SP, #44]         ; [DPU_V7M3_PIPE] |1073|  ; [KEEP 32-BIT INS]
    2503                            .dwpsn  file "../Application/collector.c",line 1075,column 9,is_stmt,isa 1
    2504 00000144 7861              LDRB      A2, [V1, #1]          ; [DPU_V7M3_PIPE] |1075|  ; [ORIG 16-BIT INS]
    2505 00000146 7820              LDRB      A1, [V1, #0]          ; [DPU_V7M3_PIPE] |1075|  ; [ORIG 16-BIT INS]
    2506                    $C$DW$227       .dwtag  DW_TAG_TI_branch
    2507                            .dwattr $C$DW$227, DW_AT_low_pc(0x00)
    2508                            .dwattr $C$DW$227, DW_AT_name("Util_buildUint16")
    2509                            .dwattr $C$DW$227, DW_AT_TI_call
    2510                    
    2511 00000148 FFFEF7FF!         BL        Util_buildUint16      ; [DPU_V7M3_PIPE] |1075|  ; [KEEP 32-BIT INS]
    2512                            ; CALL OCCURS {Util_buildUint16 }  ; [] |1075| 
    2513                            .dwpsn  file "../Application/collector.c",line 1078,column 9,is_stmt,isa 1
    2514 0000014c 1CA4              ADDS      V1, V1, #2            ; [DPU_V7M3_PIPE] |1078|  ; [ORIG 16-BIT INS]
    2515                            .dwpsn  file "../Application/collector.c",line 1075,column 9,is_stmt,isa 1
    2516 0000014e 002EF8AD          STRH      A1, [SP, #46]         ; [DPU_V7M3_PIPE] |1075|  ; [KEEP 32-BIT INS]
    2517                            .dwpsn  file "../Application/collector.c",line 1079,column 9,is_stmt,isa 1
    2518 00000152 7861              LDRB      A2, [V1, #1]          ; [DPU_V7M3_PIPE] |1079|  ; [ORIG 16-BIT INS]
    2519 00000154 7820              LDRB      A1, [V1, #0]          ; [DPU_V7M3_PIPE] |1079|  ; [ORIG 16-BIT INS]
    2520                    $C$DW$228       .dwtag  DW_TAG_TI_branch
    2521                            .dwattr $C$DW$228, DW_AT_low_pc(0x00)
    2522                            .dwattr $C$DW$228, DW_AT_name("Util_buildUint16")
    2523                            .dwattr $C$DW$228, DW_AT_TI_call
    2524                    
    2525 00000156 FFFEF7FF!         BL        Util_buildUint16      ; [DPU_V7M3_PIPE] |1079|  ; [KEEP 32-BIT INS]
    2526                            ; CALL OCCURS {Util_buildUint16 }  ; [] |1079| 
    2527                            .dwpsn  file "../Application/collector.c",line 1081,column 9,is_stmt,isa 1
    2528 0000015a 1CA4              ADDS      V1, V1, #2            ; [DPU_V7M3_PIPE] |1081|  ; [ORIG 16-BIT INS]
    2529                            .dwpsn  file "../Application/collector.c",line 1079,column 9,is_stmt,isa 1
    2530 0000015c 0030F8AD          STRH      A1, [SP, #48]         ; [DPU_V7M3_PIPE] |1079|  ; [KEEP 32-BIT INS]
TI ARM Assembler PC v18.1.3 Wed Nov 28 13:22:11 2018

Tools Copyright (c) 1996-2017 Texas Instruments Incorporated
C:\Users\Adrian\AppData\Local\Temp\{54D4664F-6A53-4525-80FB-24266563E3CC} PAGE   47

    2531                            .dwpsn  file "../Application/collector.c",line 1082,column 9,is_stmt,isa 1
    2532 00000160 7861              LDRB      A2, [V1, #1]          ; [DPU_V7M3_PIPE] |1082|  ; [ORIG 16-BIT INS]
    2533 00000162 7820              LDRB      A1, [V1, #0]          ; [DPU_V7M3_PIPE] |1082|  ; [ORIG 16-BIT INS]
    2534                    $C$DW$229       .dwtag  DW_TAG_TI_branch
    2535                            .dwattr $C$DW$229, DW_AT_low_pc(0x00)
    2536                            .dwattr $C$DW$229, DW_AT_name("Util_buildUint16")
    2537                            .dwattr $C$DW$229, DW_AT_TI_call
    2538                    
    2539 00000164 FFFEF7FF!         BL        Util_buildUint16      ; [DPU_V7M3_PIPE] |1082|  ; [KEEP 32-BIT INS]
    2540                            ; CALL OCCURS {Util_buildUint16 }  ; [] |1082| 
    2541                            .dwpsn  file "../Application/collector.c",line 1084,column 9,is_stmt,isa 1
    2542 00000168 1CA4              ADDS      V1, V1, #2            ; [DPU_V7M3_PIPE] |1084|  ; [ORIG 16-BIT INS]
    2543                            .dwpsn  file "../Application/collector.c",line 1082,column 9,is_stmt,isa 1
    2544 0000016a 0032F8AD          STRH      A1, [SP, #50]         ; [DPU_V7M3_PIPE] |1082|  ; [KEEP 32-BIT INS]
    2545                            .dwpsn  file "../Application/collector.c",line 1085,column 9,is_stmt,isa 1
    2546 0000016e 7861              LDRB      A2, [V1, #1]          ; [DPU_V7M3_PIPE] |1085|  ; [ORIG 16-BIT INS]
    2547 00000170 7820              LDRB      A1, [V1, #0]          ; [DPU_V7M3_PIPE] |1085|  ; [ORIG 16-BIT INS]
    2548                    ;* --------------------------------------------------------------------------*
    2549                    $C$DW$230       .dwtag  DW_TAG_TI_branch
    2550                            .dwattr $C$DW$230, DW_AT_low_pc(0x00)
    2551                            .dwattr $C$DW$230, DW_AT_name("Util_buildUint16")
    2552                            .dwattr $C$DW$230, DW_AT_TI_call
    2553                    
    2554 00000172 FFFEF7FF!         BL        Util_buildUint16      ; [DPU_V7M3_PIPE] |1085|  ; [KEEP 32-BIT INS]
    2555                            ; CALL OCCURS {Util_buildUint16 }  ; [] |1085| 
    2556                            .dwpsn  file "../Application/collector.c",line 1087,column 9,is_stmt,isa 1
    2557 00000176 1CA4              ADDS      V1, V1, #2            ; [DPU_V7M3_PIPE] |1087|  ; [ORIG 16-BIT INS]
    2558                            .dwpsn  file "../Application/collector.c",line 1085,column 9,is_stmt,isa 1
    2559 00000178 0034F8AD          STRH      A1, [SP, #52]         ; [DPU_V7M3_PIPE] |1085|  ; [KEEP 32-BIT INS]
    2560                            .dwpsn  file "../Application/collector.c",line 1088,column 9,is_stmt,isa 1
    2561 0000017c 7861              LDRB      A2, [V1, #1]          ; [DPU_V7M3_PIPE] |1088|  ; [ORIG 16-BIT INS]
    2562 0000017e 7820              LDRB      A1, [V1, #0]          ; [DPU_V7M3_PIPE] |1088|  ; [ORIG 16-BIT INS]
    2563                    $C$DW$231       .dwtag  DW_TAG_TI_branch
    2564                            .dwattr $C$DW$231, DW_AT_low_pc(0x00)
    2565                            .dwattr $C$DW$231, DW_AT_name("Util_buildUint16")
    2566                            .dwattr $C$DW$231, DW_AT_TI_call
    2567                    
    2568 00000180 FFFEF7FF!         BL        Util_buildUint16      ; [DPU_V7M3_PIPE] |1088|  ; [KEEP 32-BIT INS]
    2569                            ; CALL OCCURS {Util_buildUint16 }  ; [] |1088| 
    2570                            .dwpsn  file "../Application/collector.c",line 1090,column 9,is_stmt,isa 1
    2571 00000184 1CA4              ADDS      V1, V1, #2            ; [DPU_V7M3_PIPE] |1090|  ; [ORIG 16-BIT INS]
    2572                            .dwpsn  file "../Application/collector.c",line 1088,column 9,is_stmt,isa 1
    2573 00000186 0036F8AD          STRH      A1, [SP, #54]         ; [DPU_V7M3_PIPE] |1088|  ; [KEEP 32-BIT INS]
    2574                            .dwpsn  file "../Application/collector.c",line 1091,column 9,is_stmt,isa 1
    2575 0000018a 7861              LDRB      A2, [V1, #1]          ; [DPU_V7M3_PIPE] |1091|  ; [ORIG 16-BIT INS]
    2576 0000018c 7820              LDRB      A1, [V1, #0]          ; [DPU_V7M3_PIPE] |1091|  ; [ORIG 16-BIT INS]
    2577                    $C$DW$232       .dwtag  DW_TAG_TI_branch
    2578                            .dwattr $C$DW$232, DW_AT_low_pc(0x00)
    2579                            .dwattr $C$DW$232, DW_AT_name("Util_buildUint16")
    2580                            .dwattr $C$DW$232, DW_AT_TI_call
    2581                    
    2582 0000018e FFFEF7FF!         BL        Util_buildUint16      ; [DPU_V7M3_PIPE] |1091|  ; [KEEP 32-BIT INS]
    2583                            ; CALL OCCURS {Util_buildUint16 }  ; [] |1091| 
    2584                            .dwpsn  file "../Application/collector.c",line 1093,column 9,is_stmt,isa 1
    2585 00000192 1CA4              ADDS      V1, V1, #2            ; [DPU_V7M3_PIPE] |1093|  ; [ORIG 16-BIT INS]
TI ARM Assembler PC v18.1.3 Wed Nov 28 13:22:11 2018

Tools Copyright (c) 1996-2017 Texas Instruments Incorporated
C:\Users\Adrian\AppData\Local\Temp\{54D4664F-6A53-4525-80FB-24266563E3CC} PAGE   48

    2586                            .dwpsn  file "../Application/collector.c",line 1091,column 9,is_stmt,isa 1
    2587 00000194 0038F8AD          STRH      A1, [SP, #56]         ; [DPU_V7M3_PIPE] |1091|  ; [KEEP 32-BIT INS]
    2588                            .dwpsn  file "../Application/collector.c",line 1094,column 9,is_stmt,isa 1
    2589 00000198 7861              LDRB      A2, [V1, #1]          ; [DPU_V7M3_PIPE] |1094|  ; [ORIG 16-BIT INS]
    2590 0000019a 7820              LDRB      A1, [V1, #0]          ; [DPU_V7M3_PIPE] |1094|  ; [ORIG 16-BIT INS]
    2591                    $C$DW$233       .dwtag  DW_TAG_TI_branch
    2592                            .dwattr $C$DW$233, DW_AT_low_pc(0x00)
    2593                            .dwattr $C$DW$233, DW_AT_name("Util_buildUint16")
    2594                            .dwattr $C$DW$233, DW_AT_TI_call
    2595                    
    2596 0000019c FFFEF7FF!         BL        Util_buildUint16      ; [DPU_V7M3_PIPE] |1094|  ; [KEEP 32-BIT INS]
    2597                            ; CALL OCCURS {Util_buildUint16 }  ; [] |1094| 
    2598                            .dwpsn  file "../Application/collector.c",line 1096,column 9,is_stmt,isa 1
    2599 000001a0 1CA4              ADDS      V1, V1, #2            ; [DPU_V7M3_PIPE] |1096|  ; [ORIG 16-BIT INS]
    2600                            .dwpsn  file "../Application/collector.c",line 1094,column 9,is_stmt,isa 1
    2601 000001a2 003AF8AD          STRH      A1, [SP, #58]         ; [DPU_V7M3_PIPE] |1094|  ; [KEEP 32-BIT INS]
    2602                            .dwpsn  file "../Application/collector.c",line 1097,column 9,is_stmt,isa 1
    2603 000001a6 7861              LDRB      A2, [V1, #1]          ; [DPU_V7M3_PIPE] |1097|  ; [ORIG 16-BIT INS]
    2604 000001a8 7820              LDRB      A1, [V1, #0]          ; [DPU_V7M3_PIPE] |1097|  ; [ORIG 16-BIT INS]
    2605                    $C$DW$234       .dwtag  DW_TAG_TI_branch
    2606                            .dwattr $C$DW$234, DW_AT_low_pc(0x00)
    2607                            .dwattr $C$DW$234, DW_AT_name("Util_buildUint16")
    2608                            .dwattr $C$DW$234, DW_AT_TI_call
    2609                    
    2610 000001aa FFFEF7FF!         BL        Util_buildUint16      ; [DPU_V7M3_PIPE] |1097|  ; [KEEP 32-BIT INS]
    2611                            ; CALL OCCURS {Util_buildUint16 }  ; [] |1097| 
    2612                            .dwpsn  file "../Application/collector.c",line 1099,column 9,is_stmt,isa 1
    2613 000001ae 1CA4              ADDS      V1, V1, #2            ; [DPU_V7M3_PIPE] |1099|  ; [ORIG 16-BIT INS]
    2614                            .dwpsn  file "../Application/collector.c",line 1097,column 9,is_stmt,isa 1
    2615 000001b0 003CF8AD          STRH      A1, [SP, #60]         ; [DPU_V7M3_PIPE] |1097|  ; [KEEP 32-BIT INS]
    2616                            .dwpsn  file "../Application/collector.c",line 1100,column 9,is_stmt,isa 1
    2617 000001b4 7861              LDRB      A2, [V1, #1]          ; [DPU_V7M3_PIPE] |1100|  ; [ORIG 16-BIT INS]
    2618 000001b6 7820              LDRB      A1, [V1, #0]          ; [DPU_V7M3_PIPE] |1100|  ; [ORIG 16-BIT INS]
    2619                    $C$DW$235       .dwtag  DW_TAG_TI_branch
    2620                            .dwattr $C$DW$235, DW_AT_low_pc(0x00)
    2621                            .dwattr $C$DW$235, DW_AT_name("Util_buildUint16")
    2622                            .dwattr $C$DW$235, DW_AT_TI_call
    2623                    
    2624 000001b8 FFFEF7FF!         BL        Util_buildUint16      ; [DPU_V7M3_PIPE] |1100|  ; [KEEP 32-BIT INS]
    2625                            ; CALL OCCURS {Util_buildUint16 }  ; [] |1100| 
    2626                            .dwpsn  file "../Application/collector.c",line 1102,column 9,is_stmt,isa 1
    2627 000001bc 1CA4              ADDS      V1, V1, #2            ; [DPU_V7M3_PIPE] |1102|  ; [ORIG 16-BIT INS]
    2628                            .dwpsn  file "../Application/collector.c",line 1100,column 9,is_stmt,isa 1
    2629 000001be 003EF8AD          STRH      A1, [SP, #62]         ; [DPU_V7M3_PIPE] |1100|  ; [KEEP 32-BIT INS]
    2630                            .dwpsn  file "../Application/collector.c",line 1103,column 9,is_stmt,isa 1
    2631 000001c2 7861              LDRB      A2, [V1, #1]          ; [DPU_V7M3_PIPE] |1103|  ; [ORIG 16-BIT INS]
    2632 000001c4 7820              LDRB      A1, [V1, #0]          ; [DPU_V7M3_PIPE] |1103|  ; [ORIG 16-BIT INS]
    2633                    $C$DW$236       .dwtag  DW_TAG_TI_branch
    2634                            .dwattr $C$DW$236, DW_AT_low_pc(0x00)
    2635                            .dwattr $C$DW$236, DW_AT_name("Util_buildUint16")
    2636                            .dwattr $C$DW$236, DW_AT_TI_call
    2637                    
    2638 000001c6 FFFEF7FF!         BL        Util_buildUint16      ; [DPU_V7M3_PIPE] |1103|  ; [KEEP 32-BIT INS]
    2639                            ; CALL OCCURS {Util_buildUint16 }  ; [] |1103| 
    2640                            .dwpsn  file "../Application/collector.c",line 1105,column 9,is_stmt,isa 1
TI ARM Assembler PC v18.1.3 Wed Nov 28 13:22:11 2018

Tools Copyright (c) 1996-2017 Texas Instruments Incorporated
C:\Users\Adrian\AppData\Local\Temp\{54D4664F-6A53-4525-80FB-24266563E3CC} PAGE   49

    2641 000001ca 1CA4              ADDS      V1, V1, #2            ; [DPU_V7M3_PIPE] |1105|  ; [ORIG 16-BIT INS]
    2642                            .dwpsn  file "../Application/collector.c",line 1103,column 9,is_stmt,isa 1
    2643 000001cc 0040F8AD          STRH      A1, [SP, #64]         ; [DPU_V7M3_PIPE] |1103|  ; [KEEP 32-BIT INS]
    2644                            .dwpsn  file "../Application/collector.c",line 1106,column 9,is_stmt,isa 1
    2645 000001d0 7861              LDRB      A2, [V1, #1]          ; [DPU_V7M3_PIPE] |1106|  ; [ORIG 16-BIT INS]
    2646 000001d2 7820              LDRB      A1, [V1, #0]          ; [DPU_V7M3_PIPE] |1106|  ; [ORIG 16-BIT INS]
    2647                    $C$DW$237       .dwtag  DW_TAG_TI_branch
    2648                            .dwattr $C$DW$237, DW_AT_low_pc(0x00)
    2649                            .dwattr $C$DW$237, DW_AT_name("Util_buildUint16")
    2650                            .dwattr $C$DW$237, DW_AT_TI_call
    2651                    
    2652 000001d4 FFFEF7FF!         BL        Util_buildUint16      ; [DPU_V7M3_PIPE] |1106|  ; [KEEP 32-BIT INS]
    2653                            ; CALL OCCURS {Util_buildUint16 }  ; [] |1106| 
    2654                            .dwpsn  file "../Application/collector.c",line 1107,column 9,is_stmt,isa 1
    2655 000001d8 1CA4              ADDS      V1, V1, #2            ; [DPU_V7M3_PIPE] |1107|  ; [ORIG 16-BIT INS]
    2656                            .dwpsn  file "../Application/collector.c",line 1106,column 9,is_stmt,isa 1
    2657 000001da 0042F8AD          STRH      A1, [SP, #66]         ; [DPU_V7M3_PIPE] |1106|  ; [KEEP 32-BIT INS]
    2658                            .dwpsn  file "../Application/collector.c",line 1108,column 9,is_stmt,isa 1
    2659 000001de 7861              LDRB      A2, [V1, #1]          ; [DPU_V7M3_PIPE] |1108|  ; [ORIG 16-BIT INS]
    2660 000001e0 7820              LDRB      A1, [V1, #0]          ; [DPU_V7M3_PIPE] |1108|  ; [ORIG 16-BIT INS]
    2661                    $C$DW$238       .dwtag  DW_TAG_TI_branch
    2662                            .dwattr $C$DW$238, DW_AT_low_pc(0x00)
    2663                            .dwattr $C$DW$238, DW_AT_name("Util_buildUint16")
    2664                            .dwattr $C$DW$238, DW_AT_TI_call
    2665                    
    2666 000001e2 FFFEF7FF!         BL        Util_buildUint16      ; [DPU_V7M3_PIPE] |1108|  ; [KEEP 32-BIT INS]
    2667                            ; CALL OCCURS {Util_buildUint16 }  ; [] |1108| 
    2668 000001e6 0044F8AD          STRH      A1, [SP, #68]         ; [DPU_V7M3_PIPE] |1108|  ; [KEEP 32-BIT INS]
    2669 000001ea 000AF8BD          LDRH      A1, [SP, #10]         ; [DPU_V7M3_PIPE]  ; [KEEP 32-BIT INS]
    2670                            .dwpsn  file "../Application/collector.c",line 1109,column 9,is_stmt,isa 1
    2671 000001ee 1CA4              ADDS      V1, V1, #2            ; [DPU_V7M3_PIPE] |1109|  ; [ORIG 16-BIT INS]
    2672                    ;* --------------------------------------------------------------------------*
    2673 000001f0           ||$C$L24||:    
    2674                            .dwpsn  file "../Application/collector.c",line 1112,column 5,is_stmt,isa 1
    2675 000001f0 0940              LSRS      A1, A1, #5            ; [DPU_V7M3_PIPE] |1112|  ; [ORIG 16-BIT INS]
    2676 000001f2 D30E              BCC       ||$C$L25||            ; [DPU_V7M3_PIPE] |1112|  ; [ORIG 16-BIT INS]
    2677                            ; BRANCHCC OCCURS {||$C$L25||}   ; [] |1112| 
    2678                    ;* --------------------------------------------------------------------------*
    2679                            .dwpsn  file "../Application/collector.c",line 1114,column 9,is_stmt,isa 1
    2680 000001f4 7820              LDRB      A1, [V1, #0]          ; [DPU_V7M3_PIPE] |1114|  ; [ORIG 16-BIT INS]
    2681 000001f6 7861              LDRB      A2, [V1, #1]          ; [DPU_V7M3_PIPE] |1114|  ; [ORIG 16-BIT INS]
    2682 000001f8 78A2              LDRB      A3, [V1, #2]          ; [DPU_V7M3_PIPE] |1114|  ; [ORIG 16-BIT INS]
    2683 000001fa 78E3              LDRB      A4, [V1, #3]          ; [DPU_V7M3_PIPE] |1114|  ; [ORIG 16-BIT INS]
    2684                    $C$DW$239       .dwtag  DW_TAG_TI_branch
    2685                            .dwattr $C$DW$239, DW_AT_low_pc(0x00)
    2686                            .dwattr $C$DW$239, DW_AT_name("Util_buildUint32")
    2687                            .dwattr $C$DW$239, DW_AT_TI_call
    2688                    
    2689 000001fc FFFEF7FF!         BL        Util_buildUint32      ; [DPU_V7M3_PIPE] |1114|  ; [KEEP 32-BIT INS]
    2690                            ; CALL OCCURS {Util_buildUint32 }  ; [] |1114| 
    2691                            .dwpsn  file "../Application/collector.c",line 1118,column 9,is_stmt,isa 1
    2692 00000200 1D24              ADDS      V1, V1, #4            ; [DPU_V7M3_PIPE] |1118|  ; [ORIG 16-BIT INS]
    2693                            .dwpsn  file "../Application/collector.c",line 1114,column 9,is_stmt,isa 1
    2694 00000202 9012              STR       A1, [SP, #72]         ; [DPU_V7M3_PIPE] |1114|  ; [ORIG 16-BIT INS]
    2695                            .dwpsn  file "../Application/collector.c",line 1119,column 9,is_stmt,isa 1
TI ARM Assembler PC v18.1.3 Wed Nov 28 13:22:11 2018

Tools Copyright (c) 1996-2017 Texas Instruments Incorporated
C:\Users\Adrian\AppData\Local\Temp\{54D4664F-6A53-4525-80FB-24266563E3CC} PAGE   50

    2696 00000204 7861              LDRB      A2, [V1, #1]          ; [DPU_V7M3_PIPE] |1119|  ; [ORIG 16-BIT INS]
    2697 00000206 78A2              LDRB      A3, [V1, #2]          ; [DPU_V7M3_PIPE] |1119|  ; [ORIG 16-BIT INS]
    2698 00000208 78E3              LDRB      A4, [V1, #3]          ; [DPU_V7M3_PIPE] |1119|  ; [ORIG 16-BIT INS]
    2699 0000020a 7820              LDRB      A1, [V1, #0]          ; [DPU_V7M3_PIPE] |1119|  ; [ORIG 16-BIT INS]
    2700                    $C$DW$240       .dwtag  DW_TAG_TI_branch
    2701                            .dwattr $C$DW$240, DW_AT_low_pc(0x00)
    2702                            .dwattr $C$DW$240, DW_AT_name("Util_buildUint32")
    2703                            .dwattr $C$DW$240, DW_AT_TI_call
    2704                    
    2705 0000020c FFFEF7FF!         BL        Util_buildUint32      ; [DPU_V7M3_PIPE] |1119|  ; [KEEP 32-BIT INS]
    2706                            ; CALL OCCURS {Util_buildUint32 }  ; [] |1119| 
    2707 00000210 9013              STR       A1, [SP, #76]         ; [DPU_V7M3_PIPE] |1119|  ; [ORIG 16-BIT INS]
    2708                    ;* --------------------------------------------------------------------------*
    2709 00000212           ||$C$L25||:    
    2710                            .dwpsn  file "../Application/collector.c",line 1125,column 5,is_stmt,isa 1
    2711 00000212 4907              LDR       A2, $C$CON12          ; [DPU_V7M3_PIPE] |1125|  ; [ORIG 16-BIT INS]
    2712 00000214 6B08              LDR       A1, [A2, #48]         ; [DPU_V7M3_PIPE] |1125|  ; [ORIG 16-BIT INS]
    2713 00000216 1C40              ADDS      A1, A1, #1            ; [DPU_V7M3_PIPE] |1125|  ; [ORIG 16-BIT INS]
    2714 00000218 6308              STR       A1, [A2, #48]         ; [DPU_V7M3_PIPE] |1125|  ; [ORIG 16-BIT INS]
    2715                            .dwpsn  file "../Application/collector.c",line 1128,column 5,is_stmt,isa 1
    2716 0000021a 1020F995          LDRSB     A2, [V2, #32]         ; [DPU_V7M3_PIPE] |1128|  ; [KEEP 32-BIT INS]
    2717 0000021e 466A              MOV       A3, SP                ; [DPU_V7M3_PIPE] |1128|  ; [ORIG 16-BIT INS]
    2718 00000220 4628              MOV       A1, V2                ; [DPU_V7M3_PIPE] |1128|  ; [ORIG 16-BIT INS]
    2719                    $C$DW$241       .dwtag  DW_TAG_TI_branch
    2720                            .dwattr $C$DW$241, DW_AT_low_pc(0x00)
    2721                            .dwattr $C$DW$241, DW_AT_name("Csf_deviceSensorDataUpdate")
    2722                            .dwattr $C$DW$241, DW_AT_TI_call
    2723                    
    2724 00000222 FFFEF7FF!         BL        Csf_deviceSensorDataUpdate ; [DPU_V7M3_PIPE] |1128|  ; [KEEP 32-BIT INS]
    2725                            ; CALL OCCURS {Csf_deviceSensorDataUpdate }  ; [] |1128| 
    2726                            .dwpsn  file "../Application/collector.c",line 1131,column 5,is_stmt,isa 1
    2727 00000226 4628              MOV       A1, V2                ; [DPU_V7M3_PIPE] |1131|  ; [ORIG 16-BIT INS]
    2728                    $C$DW$242       .dwtag  DW_TAG_TI_branch
    2729                            .dwattr $C$DW$242, DW_AT_low_pc(0x00)
    2730                            .dwattr $C$DW$242, DW_AT_name("processDataRetry")
    2731                            .dwattr $C$DW$242, DW_AT_TI_call
    2732                    
    2733 00000228 FFFEF7FF!         BL        processDataRetry      ; [DPU_V7M3_PIPE] |1131|  ; [KEEP 32-BIT INS]
    2734                            ; CALL OCCURS {processDataRetry }  ; [] |1131| 
    2735 0000022c B015              ADD       SP, SP, #84           ; [DPU_V7M3_PIPE]  ; [ORIG 16-BIT INS]
    2736                            .dwcfi  cfa_offset, 12
    2737                    $C$DW$243       .dwtag  DW_TAG_TI_branch
    2738                            .dwattr $C$DW$243, DW_AT_low_pc(0x00)
    2739                            .dwattr $C$DW$243, DW_AT_TI_return
    2740                    
    2741 0000022e BD30              POP       {V1, V2, PC}          ; [DPU_V7M3_PIPE]  ; [ORIG 16-BIT INS]
    2742                            .dwcfi  cfa_offset, 0
    2743                            .dwcfi  restore_reg, 5
    2744                            .dwcfi  restore_reg, 4
    2745                            ; BRANCH OCCURS                  ; [] 
    2746                            .dwattr $C$DW$203, DW_AT_TI_end_file("../Application/collector.c")
    2747                            .dwattr $C$DW$203, DW_AT_TI_end_line(0x46c)
    2748                            .dwattr $C$DW$203, DW_AT_TI_end_column(0x01)
    2749                            .dwendentry
    2750                            .dwendtag $C$DW$203
TI ARM Assembler PC v18.1.3 Wed Nov 28 13:22:11 2018

Tools Copyright (c) 1996-2017 Texas Instruments Incorporated
C:\Users\Adrian\AppData\Local\Temp\{54D4664F-6A53-4525-80FB-24266563E3CC} PAGE   51

    2751                    
    2752 00000000                   .sect   ".text:dataIndCB"
    2753                            .clink
    2754                            .thumbfunc dataIndCB
    2755 00000000                   .thumb
    2756                    
    2757                    $C$DW$244       .dwtag  DW_TAG_subprogram
    2758                            .dwattr $C$DW$244, DW_AT_name("dataIndCB")
    2759                            .dwattr $C$DW$244, DW_AT_low_pc(dataIndCB)
    2760                            .dwattr $C$DW$244, DW_AT_high_pc(0x00)
    2761                            .dwattr $C$DW$244, DW_AT_TI_symbol_name("dataIndCB")
    2762                            .dwattr $C$DW$244, DW_AT_TI_begin_file("../Application/collector.c")
    2763                            .dwattr $C$DW$244, DW_AT_TI_begin_line(0x2f1)
    2764                            .dwattr $C$DW$244, DW_AT_TI_begin_column(0x0d)
    2765                            .dwattr $C$DW$244, DW_AT_decl_file("../Application/collector.c")
    2766                            .dwattr $C$DW$244, DW_AT_decl_line(0x2f1)
    2767                            .dwattr $C$DW$244, DW_AT_decl_column(0x0d)
    2768                            .dwattr $C$DW$244, DW_AT_TI_max_frame_size(0x20)
    2769                            .dwpsn  file "../Application/collector.c",line 754,column 1,is_stmt,address dataIndCB,isa 1
    2770                    
    2771                            .dwfde $C$DW$CIE, dataIndCB
    2772                    $C$DW$245       .dwtag  DW_TAG_formal_parameter
    2773                            .dwattr $C$DW$245, DW_AT_name("pDataInd")
    2774                            .dwattr $C$DW$245, DW_AT_TI_symbol_name("pDataInd")
    2775                            .dwattr $C$DW$245, DW_AT_type(*$C$DW$T$198)
    2776                            .dwattr $C$DW$245, DW_AT_location[DW_OP_reg0]
    2777                    
    2778                    
    2779                    ;*****************************************************************************
    2780                    ;* FUNCTION NAME: dataIndCB                                                  *
    2781                    ;*                                                                           *
    2782                    ;*   Regs Modified     : A1,A2,A3,A4,V1,V2,V3,V4,V9,SP,LR,SR                 *
    2783                    ;*   Regs Used         : A1,A2,A3,A4,V1,V2,V3,V4,V9,SP,LR,SR                 *
    2784                    ;*   Local Frame Size  : 0 Args + 12 Auto + 20 Save = 32 byte                *
    2785                    ;*****************************************************************************
    2786                    dataIndCB:
    2787                    ;* --------------------------------------------------------------------------*
    2788                    $C$DW$246       .dwtag  DW_TAG_variable
    2789                            .dwattr $C$DW$246, DW_AT_name("configRsp")
    2790                            .dwattr $C$DW$246, DW_AT_TI_symbol_name("configRsp")
    2791                            .dwattr $C$DW$246, DW_AT_type(*$C$DW$T$415)
    2792                            .dwattr $C$DW$246, DW_AT_location[DW_OP_breg13 0]
    2793                    
    2794                    ;* A2    assigned to $O$C1
    2795                    ;* A2    assigned to $O$C2
    2796                    ;* A3    assigned to $O$C3
    2797                    ;* V2    assigned to $O$C4
    2798                    ;* A2    assigned to $O$C5
    2799                    ;* V2    assigned to $O$K43
    2800                    ;* A2    assigned to $O$v1
    2801                    ;* V4    assigned to pDataInd
    2802                    $C$DW$247       .dwtag  DW_TAG_variable
    2803                            .dwattr $C$DW$247, DW_AT_name("pDataInd")
    2804                            .dwattr $C$DW$247, DW_AT_TI_symbol_name("pDataInd")
    2805                            .dwattr $C$DW$247, DW_AT_type(*$C$DW$T$661)
TI ARM Assembler PC v18.1.3 Wed Nov 28 13:22:11 2018

Tools Copyright (c) 1996-2017 Texas Instruments Incorporated
C:\Users\Adrian\AppData\Local\Temp\{54D4664F-6A53-4525-80FB-24266563E3CC} PAGE   52

    2806                            .dwattr $C$DW$247, DW_AT_location[DW_OP_reg7]
    2807                    
    2808                    ;* V3    assigned to cmdId
    2809                    $C$DW$248       .dwtag  DW_TAG_variable
    2810                            .dwattr $C$DW$248, DW_AT_name("cmdId")
    2811                            .dwattr $C$DW$248, DW_AT_TI_symbol_name("cmdId")
    2812                            .dwattr $C$DW$248, DW_AT_type(*$C$DW$T$10)
    2813                            .dwattr $C$DW$248, DW_AT_location[DW_OP_reg6]
    2814                    
    2815                    ;* A1    assigned to shortAddr
    2816                    $C$DW$249       .dwtag  DW_TAG_variable
    2817                            .dwattr $C$DW$249, DW_AT_name("shortAddr")
    2818                            .dwattr $C$DW$249, DW_AT_TI_symbol_name("shortAddr")
    2819                            .dwattr $C$DW$249, DW_AT_type(*$C$DW$T$10)
    2820                            .dwattr $C$DW$249, DW_AT_location[DW_OP_reg0]
    2821                    
    2822                    ;* A1    assigned to pDev
    2823                    $C$DW$250       .dwtag  DW_TAG_variable
    2824                            .dwattr $C$DW$250, DW_AT_name("pDev")
    2825                            .dwattr $C$DW$250, DW_AT_TI_symbol_name("pDev")
    2826                            .dwattr $C$DW$250, DW_AT_type(*$C$DW$T$389)
    2827                            .dwattr $C$DW$250, DW_AT_location[DW_OP_reg0]
    2828                    
    2829                    ;* A1    assigned to pDev
    2830                    $C$DW$251       .dwtag  DW_TAG_variable
    2831                            .dwattr $C$DW$251, DW_AT_name("pDev")
    2832                            .dwattr $C$DW$251, DW_AT_TI_symbol_name("pDev")
    2833                            .dwattr $C$DW$251, DW_AT_type(*$C$DW$T$389)
    2834                            .dwattr $C$DW$251, DW_AT_location[DW_OP_reg0]
    2835                    
    2836                    ;* V1    assigned to pBuf
    2837                    $C$DW$252       .dwtag  DW_TAG_variable
    2838                            .dwattr $C$DW$252, DW_AT_name("pBuf")
    2839                            .dwattr $C$DW$252, DW_AT_TI_symbol_name("pBuf")
    2840                            .dwattr $C$DW$252, DW_AT_type(*$C$DW$T$54)
    2841                            .dwattr $C$DW$252, DW_AT_location[DW_OP_reg4]
    2842                    
    2843                            .dwcfi  cfa_offset, 0
    2844 00000000 B5FE              PUSH      {A2, A3, A4, V1, V2, V3, V4, LR} ; [DPU_V7M3_PIPE]  ; [ORIG 16-BIT INS]
    2845                            .dwcfi  cfa_offset, 32
    2846                            .dwcfi  save_reg_to_mem, 14, -4
    2847                            .dwcfi  save_reg_to_mem, 7, -8
    2848                            .dwcfi  save_reg_to_mem, 6, -12
    2849                            .dwcfi  save_reg_to_mem, 5, -16
    2850                            .dwcfi  save_reg_to_mem, 4, -20
    2851                            .dwcfi  save_reg_to_mem, 3, -24
    2852                            .dwcfi  save_reg_to_mem, 2, -28
    2853                            .dwcfi  save_reg_to_mem, 1, -32
    2854                            .dwpsn  file "../Application/collector.c",line 755,column 5,is_stmt,isa 1
    2855 00000002 1C07              MOVS      V4, A1                ; [DPU_V7M3_PIPE] |755|  ; [ORIG 16-BIT INS]
    2856 00000004 AFFEF43F!         BEQ       ||$C$L36||            ; [DPU_V7M3_PIPE] |755|  ; [KEEP 32-BIT INS]
    2857                            ; BRANCHCC OCCURS {||$C$L36||}   ; [] |755| 
    2858                    ;* --------------------------------------------------------------------------*
    2859 00000008 6BF9              LDR       A2, [V4, #60]         ; [DPU_V7M3_PIPE] |755|  ; [ORIG 16-BIT INS]
    2860 0000000a 2900              CMP       A2, #0                ; [DPU_V7M3_PIPE] |755|  ; [ORIG 16-BIT INS]
TI ARM Assembler PC v18.1.3 Wed Nov 28 13:22:11 2018

Tools Copyright (c) 1996-2017 Texas Instruments Incorporated
C:\Users\Adrian\AppData\Local\Temp\{54D4664F-6A53-4525-80FB-24266563E3CC} PAGE   53

    2861 0000000c AFFEF43F!         BEQ       ||$C$L36||            ; [DPU_V7M3_PIPE] |755|  ; [KEEP 32-BIT INS]
    2862                            ; BRANCHCC OCCURS {||$C$L36||}   ; [] |755| 
    2863                    ;* --------------------------------------------------------------------------*
    2864 00000010 0040F8B7          LDRH      A1, [V4, #64]         ; [DPU_V7M3_PIPE] |755|  ; [KEEP 32-BIT INS]
    2865 00000014 2800              CMP       A1, #0                ; [DPU_V7M3_PIPE] |755|  ; [ORIG 16-BIT INS]
    2866 00000016 AFFEF43F!         BEQ       ||$C$L36||            ; [DPU_V7M3_PIPE] |755|  ; [KEEP 32-BIT INS]
    2867                            ; BRANCHCC OCCURS {||$C$L36||}   ; [] |755| 
    2868                    ;* --------------------------------------------------------------------------*
    2869                            .dwpsn  file "../Application/collector.c",line 758,column 30,is_stmt,isa 1
    2870 0000001a 780E              LDRB      V3, [A2, #0]          ; [DPU_V7M3_PIPE] |758|  ; [ORIG 16-BIT INS]
    2871                            .dwpsn  file "../Application/collector.c",line 762,column 13,is_stmt,isa 1
    2872 0000001c 0030F107          ADD       A1, V4, #48           ; [DPU_V7M3_PIPE] |762|  ; [KEEP 32-BIT INS]
    2873                    $C$DW$253       .dwtag  DW_TAG_TI_branch
    2874                            .dwattr $C$DW$253, DW_AT_low_pc(0x00)
    2875                            .dwattr $C$DW$253, DW_AT_name("Cllc_securityCheck")
    2876                            .dwattr $C$DW$253, DW_AT_TI_call
    2877                    
    2878 00000020 FFFEF7FF!         BL        Cllc_securityCheck    ; [DPU_V7M3_PIPE] |762|  ; [KEEP 32-BIT INS]
    2879                            ; CALL OCCURS {Cllc_securityCheck }  ; [] |762| 
    2880 00000024 2800              CMP       A1, #0                ; [DPU_V7M3_PIPE] |762|  ; [ORIG 16-BIT INS]
    2881 00000026 AFFEF43F!         BEQ       ||$C$L36||            ; [DPU_V7M3_PIPE] |762|  ; [KEEP 32-BIT INS]
    2882                            ; BRANCHCC OCCURS {||$C$L36||}   ; [] |762| 
    2883                    ;* --------------------------------------------------------------------------*
    2884                            .dwpsn  file "../Application/collector.c",line 770,column 9,is_stmt,isa 1
    2885 0000002a 7A38              LDRB      A1, [V4, #8]          ; [DPU_V7M3_PIPE] |770|  ; [ORIG 16-BIT INS]
    2886 0000002c 2803              CMP       A1, #3                ; [DPU_V7M3_PIPE] |770|  ; [ORIG 16-BIT INS]
    2887 0000002e D10A              BNE       ||$C$L26||            ; [DPU_V7M3_PIPE] |770|  ; [ORIG 16-BIT INS]
    2888                            ; BRANCHCC OCCURS {||$C$L26||}   ; [] |770| 
    2889                    ;* --------------------------------------------------------------------------*
    2890                            .dwpsn  file "../Application/collector.c",line 772,column 32,is_stmt,isa 1
    2891 00000030 4638              MOV       A1, V4                ; [DPU_V7M3_PIPE] |772|  ; [ORIG 16-BIT INS]
    2892                    $C$DW$254       .dwtag  DW_TAG_TI_branch
    2893                            .dwattr $C$DW$254, DW_AT_low_pc(0x00)
    2894                            .dwattr $C$DW$254, DW_AT_name("Csf_getDeviceShort")
    2895                            .dwattr $C$DW$254, DW_AT_TI_call
    2896                    
    2897 00000032 FFFEF7FF!         BL        Csf_getDeviceShort    ; [DPU_V7M3_PIPE] |772|  ; [KEEP 32-BIT INS]
    2898                            ; CALL OCCURS {Csf_getDeviceShort }  ; [] |772| 
    2899 00000036 71FFF64F          MOV       A2, #65535            ; [DPU_V7M3_PIPE] |772|  ; [KEEP 32-BIT INS]
    2900 0000003a 4281              CMP       A2, A1                ; [DPU_V7M3_PIPE] |772|  ; [ORIG 16-BIT INS]
    2901 0000003c AFFEF43F!         BEQ       ||$C$L36||            ; [DPU_V7M3_PIPE] |772|  ; [KEEP 32-BIT INS]
    2902                            ; BRANCHCC OCCURS {||$C$L36||}   ; [] |772| 
    2903                    ;* --------------------------------------------------------------------------*
    2904                            .dwpsn  file "../Application/collector.c",line 778,column 17,is_stmt,isa 1
    2905 00000040 8038              STRH      A1, [V4, #0]          ; [DPU_V7M3_PIPE] |778|  ; [ORIG 16-BIT INS]
    2906                            .dwpsn  file "../Application/collector.c",line 777,column 17,is_stmt,isa 1
    2907 00000042 2102              MOVS      A2, #2                ; [DPU_V7M3_PIPE] |777|  ; [ORIG 16-BIT INS]
    2908 00000044 7239              STRB      A2, [V4, #8]          ; [DPU_V7M3_PIPE] |777|  ; [ORIG 16-BIT INS]
    2909                    ;* --------------------------------------------------------------------------*
    2910 00000046           ||$C$L26||:    
    2911                            .dwpsn  file "../Application/collector.c",line 787,column 9,is_stmt,isa 1
    2912 00000046 4D42              LDR       V2, $C$CON13          ; [DPU_V7M3_PIPE] |787|  ; [ORIG 16-BIT INS]
    2913 00000048 6B29              LDR       A2, [V2, #48]         ; [DPU_V7M3_PIPE] |787|  ; [ORIG 16-BIT INS]
    2914 0000004a 4630              MOV       A1, V3                ; [DPU_V7M3_PIPE] |787|  ; [ORIG 16-BIT INS]
    2915 0000004c 1E80              SUBS      A1, A1, #2            ; [DPU_V7M3_PIPE] |787|  ; [ORIG 16-BIT INS]
TI ARM Assembler PC v18.1.3 Wed Nov 28 13:22:11 2018

Tools Copyright (c) 1996-2017 Texas Instruments Incorporated
C:\Users\Adrian\AppData\Local\Temp\{54D4664F-6A53-4525-80FB-24266563E3CC} PAGE   54

    2916 0000004e D033              BEQ       ||$C$L31||            ; [DPU_V7M3_PIPE] |787|  ; [ORIG 16-BIT INS]
    2917                            ; BRANCHCC OCCURS {||$C$L31||}   ; [] |787| 
    2918                    ;* --------------------------------------------------------------------------*
    2919 00000050 1E80              SUBS      A1, A1, #2            ; [DPU_V7M3_PIPE] |787|  ; [ORIG 16-BIT INS]
    2920 00000052 D015              BEQ       ||$C$L29||            ; [DPU_V7M3_PIPE] |787|  ; [ORIG 16-BIT INS]
    2921                            ; BRANCHCC OCCURS {||$C$L29||}   ; [] |787| 
    2922                    ;* --------------------------------------------------------------------------*
    2923 00000054 1E40              SUBS      A1, A1, #1            ; [DPU_V7M3_PIPE] |787|  ; [ORIG 16-BIT INS]
    2924 00000056 D076              BEQ       ||$C$L35||            ; [DPU_V7M3_PIPE] |787|  ; [ORIG 16-BIT INS]
    2925                            ; BRANCHCC OCCURS {||$C$L35||}   ; [] |787| 
    2926                    ;* --------------------------------------------------------------------------*
    2927 00000058 1E80              SUBS      A1, A1, #2            ; [DPU_V7M3_PIPE] |787|  ; [ORIG 16-BIT INS]
    2928 0000005a D004              BEQ       ||$C$L27||            ; [DPU_V7M3_PIPE] |787|  ; [ORIG 16-BIT INS]
    2929                            ; BRANCHCC OCCURS {||$C$L27||}   ; [] |787| 
    2930                    ;* --------------------------------------------------------------------------*
    2931 0000005c 1E40              SUBS      A1, A1, #1            ; [DPU_V7M3_PIPE] |787|  ; [ORIG 16-BIT INS]
    2932 0000005e D06F              BEQ       ||$C$L34||            ; [DPU_V7M3_PIPE] |787|  ; [ORIG 16-BIT INS]
    2933                            ; BRANCHCC OCCURS {||$C$L34||}   ; [] |787| 
    2934                    ;* --------------------------------------------------------------------------*
    2935 00000060 1F00              SUBS      A1, A1, #4            ; [DPU_V7M3_PIPE] |787|  ; [ORIG 16-BIT INS]
    2936 00000062 D069              BEQ       ||$C$L33||            ; [DPU_V7M3_PIPE] |787|  ; [ORIG 16-BIT INS]
    2937                            ; BRANCHCC OCCURS {||$C$L33||}   ; [] |787| 
    2938                    ;* --------------------------------------------------------------------------*
    2939                            .dwcfi  remember_state
    2940                    $C$DW$255       .dwtag  DW_TAG_TI_branch
    2941                            .dwattr $C$DW$255, DW_AT_low_pc(0x00)
    2942                            .dwattr $C$DW$255, DW_AT_TI_return
    2943                    
    2944 00000064 BDFE              POP       {A2, A3, A4, V1, V2, V3, V4, PC} ; [DPU_V7M3_PIPE]  ; [ORIG 16-BIT INS]
    2945                            .dwcfi  cfa_offset, 0
    2946                            .dwcfi  restore_reg, 7
    2947                            .dwcfi  restore_reg, 6
    2948                            .dwcfi  restore_reg, 5
    2949                            .dwcfi  restore_reg, 4
    2950                            .dwcfi  restore_reg, 3
    2951                            .dwcfi  restore_reg, 2
    2952                            .dwcfi  restore_reg, 1
    2953                            ; BRANCH OCCURS                  ; [] 
    2954                            .dwcfi  restore_state
    2955                    ;* --------------------------------------------------------------------------*
    2956 00000066           ||$C$L27||:    
    2957                            .dwpsn  file "../Application/collector.c",line 981,column 5,is_stmt,isa 1
    2958 00000066 0040F8B7          LDRH      A1, [V4, #64]         ; [DPU_V7M3_PIPE] |981|  ; [KEEP 32-BIT INS]
    2959 0000006a 2802              CMP       A1, #2                ; [DPU_V7M3_PIPE] |981|  ; [ORIG 16-BIT INS]
    2960 0000006c D16E              BNE       ||$C$L36||            ; [DPU_V7M3_PIPE] |981|  ; [ORIG 16-BIT INS]
    2961                            ; BRANCHCC OCCURS {||$C$L36||}   ; [] |981| 
    2962                    ;* --------------------------------------------------------------------------*
    2963                            .dwcfi  remember_state
    2964                            .dwpsn  file "../Application/collector.c",line 992,column 9,is_stmt,isa 1
    2965 0000006e 6BF8              LDR       A1, [V4, #60]         ; [DPU_V7M3_PIPE] |992|  ; [ORIG 16-BIT INS]
    2966 00000070 7840              LDRB      A1, [A1, #1]          ; [DPU_V7M3_PIPE] |992|  ; [ORIG 16-BIT INS]
    2967 00000072 2100              MOVS      A2, #0                ; [DPU_V7M3_PIPE] |992|  ; [ORIG 16-BIT INS]
    2968 00000074 B100              CBZ       A1, ||$C$L28||        ; []  ; [ORIG 16-BIT INS]
    2969 00000076 2101              MOVS      A2, #1                ; [DPU_V7M3_PIPE] |992|  ; [ORIG 16-BIT INS]
    2970                    ;* --------------------------------------------------------------------------*
TI ARM Assembler PC v18.1.3 Wed Nov 28 13:22:11 2018

Tools Copyright (c) 1996-2017 Texas Instruments Incorporated
C:\Users\Adrian\AppData\Local\Temp\{54D4664F-6A53-4525-80FB-24266563E3CC} PAGE   55

    2971 00000078           ||$C$L28||:    
    2972 00000078 4638              MOV       A1, V4                ; [DPU_V7M3_PIPE] |992|  ; [ORIG 16-BIT INS]
    2973                    $C$DW$256       .dwtag  DW_TAG_TI_branch
