TI ARM Assembler PC v18.1.3 Wed Nov 28 13:22:06 2018

Tools Copyright (c) 1996-2017 Texas Instruments Incorporated
C:\Users\Adrian\AppData\Local\Temp\{8ACD377C-A10A-4D34-8C0A-1BFA051003CA} PAGE    1

       1                    ;******************************************************************************
       2                    ;* TI ARM C/C++ Codegen                                        PC v18.1.3.LTS *
       3                    ;* Date/Time created: Wed Nov 28 13:22:06 2018                                *
       4                    ;******************************************************************************
       5                            .compiler_opts --abi=eabi --arm_vmrs_si_workaround=off --code_state=16 --diag_wrap=off --embed
       6 00000000                   .thumb
       7                    
       8                    $C$DW$CU        .dwtag  DW_TAG_compile_unit
       9                            .dwattr $C$DW$CU, DW_AT_name("../Application/MAC/HAL/target/hal_rtc_wrapper.c")
      10                            .dwattr $C$DW$CU, DW_AT_producer("TI TI ARM C/C++ Codegen PC v18.1.3.LTS Copyright (c) 1996-20
      11                            .dwattr $C$DW$CU, DW_AT_TI_version(0x01)
      12                            .dwattr $C$DW$CU, DW_AT_comp_dir("C:\Users\Adrian\workspace_v8\collector_cc1350lp\collector_cc
      13                    
      14                    $C$DW$1 .dwtag  DW_TAG_subprogram
      15                            .dwattr $C$DW$1, DW_AT_name("AONRTCEnable")
      16                            .dwattr $C$DW$1, DW_AT_TI_symbol_name("AONRTCEnable")
      17                            .dwattr $C$DW$1, DW_AT_declaration
      18                            .dwattr $C$DW$1, DW_AT_external
      19                            .dwattr $C$DW$1, DW_AT_decl_file("C:/ti/simplelink_cc13x0_sdk_2_30_00_20/source/ti/devices/cc1
      20                            .dwattr $C$DW$1, DW_AT_decl_line(0xae)
      21                            .dwattr $C$DW$1, DW_AT_decl_column(0x01)
      22                            .dwendtag $C$DW$1
      23                    
      24                    
      25                    $C$DW$2 .dwtag  DW_TAG_subprogram
      26                            .dwattr $C$DW$2, DW_AT_name("AONRTCReset")
      27                            .dwattr $C$DW$2, DW_AT_TI_symbol_name("AONRTCReset")
      28                            .dwattr $C$DW$2, DW_AT_declaration
      29                            .dwattr $C$DW$2, DW_AT_external
      30                            .dwattr $C$DW$2, DW_AT_decl_file("C:/ti/simplelink_cc13x0_sdk_2_30_00_20/source/ti/devices/cc1
      31                            .dwattr $C$DW$2, DW_AT_decl_line(0xd3)
      32                            .dwattr $C$DW$2, DW_AT_decl_column(0x01)
      33                            .dwendtag $C$DW$2
      34                    
      35                    
      36                    $C$DW$3 .dwtag  DW_TAG_subprogram
      37                            .dwattr $C$DW$3, DW_AT_name("AONRTCDelayConfig")
      38                            .dwattr $C$DW$3, DW_AT_TI_symbol_name("AONRTCDelayConfig")
      39                            .dwattr $C$DW$3, DW_AT_declaration
      40                            .dwattr $C$DW$3, DW_AT_external
      41                            .dwattr $C$DW$3, DW_AT_decl_file("C:/ti/simplelink_cc13x0_sdk_2_30_00_20/source/ti/devices/cc1
      42                            .dwattr $C$DW$3, DW_AT_decl_line(0x12e)
      43                            .dwattr $C$DW$3, DW_AT_decl_column(0x01)
      44                    $C$DW$4 .dwtag  DW_TAG_formal_parameter
      45                            .dwattr $C$DW$4, DW_AT_type(*$C$DW$T$146)
      46                    
      47                            .dwendtag $C$DW$3
      48                    
      49                    
      50                    $C$DW$5 .dwtag  DW_TAG_subprogram
      51                            .dwattr $C$DW$5, DW_AT_name("AONRTCCombinedEventConfig")
      52                            .dwattr $C$DW$5, DW_AT_TI_symbol_name("AONRTCCombinedEventConfig")
      53                            .dwattr $C$DW$5, DW_AT_declaration
      54                            .dwattr $C$DW$5, DW_AT_external
      55                            .dwattr $C$DW$5, DW_AT_decl_file("C:/ti/simplelink_cc13x0_sdk_2_30_00_20/source/ti/devices/cc1
TI ARM Assembler PC v18.1.3 Wed Nov 28 13:22:06 2018

Tools Copyright (c) 1996-2017 Texas Instruments Incorporated
C:\Users\Adrian\AppData\Local\Temp\{8ACD377C-A10A-4D34-8C0A-1BFA051003CA} PAGE    2

      56                            .dwattr $C$DW$5, DW_AT_decl_line(0x151)
      57                            .dwattr $C$DW$5, DW_AT_decl_column(0x01)
      58                    $C$DW$6 .dwtag  DW_TAG_formal_parameter
      59                            .dwattr $C$DW$6, DW_AT_type(*$C$DW$T$146)
      60                    
      61                            .dwendtag $C$DW$5
      62                    
      63                    
      64                    $C$DW$7 .dwtag  DW_TAG_subprogram
      65                            .dwattr $C$DW$7, DW_AT_name("AONRTCEventClear")
      66                            .dwattr $C$DW$7, DW_AT_TI_symbol_name("AONRTCEventClear")
      67                            .dwattr $C$DW$7, DW_AT_declaration
      68                            .dwattr $C$DW$7, DW_AT_external
      69                            .dwattr $C$DW$7, DW_AT_decl_file("C:/ti/simplelink_cc13x0_sdk_2_30_00_20/source/ti/devices/cc1
      70                            .dwattr $C$DW$7, DW_AT_decl_line(0x170)
      71                            .dwattr $C$DW$7, DW_AT_decl_column(0x01)
      72                    $C$DW$8 .dwtag  DW_TAG_formal_parameter
      73                            .dwattr $C$DW$8, DW_AT_type(*$C$DW$T$146)
      74                    
      75                            .dwendtag $C$DW$7
      76                    
      77                    
      78                    $C$DW$9 .dwtag  DW_TAG_subprogram
      79                            .dwattr $C$DW$9, DW_AT_name("AONRTCEventGet")
      80                            .dwattr $C$DW$9, DW_AT_TI_symbol_name("AONRTCEventGet")
      81                            .dwattr $C$DW$9, DW_AT_type(*$C$DW$T$249)
      82                            .dwattr $C$DW$9, DW_AT_declaration
      83                            .dwattr $C$DW$9, DW_AT_external
      84                            .dwattr $C$DW$9, DW_AT_decl_file("C:/ti/simplelink_cc13x0_sdk_2_30_00_20/source/ti/devices/cc1
      85                            .dwattr $C$DW$9, DW_AT_decl_line(0x199)
      86                            .dwattr $C$DW$9, DW_AT_decl_column(0x01)
      87                    $C$DW$10        .dwtag  DW_TAG_formal_parameter
      88                            .dwattr $C$DW$10, DW_AT_type(*$C$DW$T$146)
      89                    
      90                            .dwendtag $C$DW$9
      91                    
      92                    
      93                    $C$DW$11        .dwtag  DW_TAG_subprogram
      94                            .dwattr $C$DW$11, DW_AT_name("AONRTCSecGet")
      95                            .dwattr $C$DW$11, DW_AT_TI_symbol_name("AONRTCSecGet")
      96                            .dwattr $C$DW$11, DW_AT_type(*$C$DW$T$146)
      97                            .dwattr $C$DW$11, DW_AT_declaration
      98                            .dwattr $C$DW$11, DW_AT_external
      99                            .dwattr $C$DW$11, DW_AT_decl_file("C:/ti/simplelink_cc13x0_sdk_2_30_00_20/source/ti/devices/cc
     100                            .dwattr $C$DW$11, DW_AT_decl_line(0x1c9)
     101                            .dwattr $C$DW$11, DW_AT_decl_column(0x01)
     102                            .dwendtag $C$DW$11
     103                    
     104                    
     105                    $C$DW$12        .dwtag  DW_TAG_subprogram
     106                            .dwattr $C$DW$12, DW_AT_name("AONRTCFractionGet")
     107                            .dwattr $C$DW$12, DW_AT_TI_symbol_name("AONRTCFractionGet")
     108                            .dwattr $C$DW$12, DW_AT_type(*$C$DW$T$146)
     109                            .dwattr $C$DW$12, DW_AT_declaration
     110                            .dwattr $C$DW$12, DW_AT_external
TI ARM Assembler PC v18.1.3 Wed Nov 28 13:22:06 2018

Tools Copyright (c) 1996-2017 Texas Instruments Incorporated
C:\Users\Adrian\AppData\Local\Temp\{8ACD377C-A10A-4D34-8C0A-1BFA051003CA} PAGE    3

     111                            .dwattr $C$DW$12, DW_AT_decl_file("C:/ti/simplelink_cc13x0_sdk_2_30_00_20/source/ti/devices/cc
     112                            .dwattr $C$DW$12, DW_AT_decl_line(0x1e5)
     113                            .dwattr $C$DW$12, DW_AT_decl_column(0x01)
     114                            .dwendtag $C$DW$12
     115                    
     116                    
     117                    $C$DW$13        .dwtag  DW_TAG_subprogram
     118                            .dwattr $C$DW$13, DW_AT_name("AONRTCModeCh1Set")
     119                            .dwattr $C$DW$13, DW_AT_TI_symbol_name("AONRTCModeCh1Set")
     120                            .dwattr $C$DW$13, DW_AT_declaration
     121                            .dwattr $C$DW$13, DW_AT_external
     122                            .dwattr $C$DW$13, DW_AT_decl_file("C:/ti/simplelink_cc13x0_sdk_2_30_00_20/source/ti/devices/cc
     123                            .dwattr $C$DW$13, DW_AT_decl_line(0x21d)
     124                            .dwattr $C$DW$13, DW_AT_decl_column(0x01)
     125                    $C$DW$14        .dwtag  DW_TAG_formal_parameter
     126                            .dwattr $C$DW$14, DW_AT_type(*$C$DW$T$146)
     127                    
     128                            .dwendtag $C$DW$13
     129                    
     130                    
     131                    $C$DW$15        .dwtag  DW_TAG_subprogram
     132                            .dwattr $C$DW$15, DW_AT_name("AONRTCModeCh2Set")
     133                            .dwattr $C$DW$15, DW_AT_TI_symbol_name("AONRTCModeCh2Set")
     134                            .dwattr $C$DW$15, DW_AT_declaration
     135                            .dwattr $C$DW$15, DW_AT_external
     136                            .dwattr $C$DW$15, DW_AT_decl_file("C:/ti/simplelink_cc13x0_sdk_2_30_00_20/source/ti/devices/cc
     137                            .dwattr $C$DW$15, DW_AT_decl_line(0x253)
     138                            .dwattr $C$DW$15, DW_AT_decl_column(0x01)
     139                    $C$DW$16        .dwtag  DW_TAG_formal_parameter
     140                            .dwattr $C$DW$16, DW_AT_type(*$C$DW$T$146)
     141                    
     142                            .dwendtag $C$DW$15
     143                    
     144                    
     145                    $C$DW$17        .dwtag  DW_TAG_subprogram
     146                            .dwattr $C$DW$17, DW_AT_name("AONRTCChannelEnable")
     147                            .dwattr $C$DW$17, DW_AT_TI_symbol_name("AONRTCChannelEnable")
     148                            .dwattr $C$DW$17, DW_AT_declaration
     149                            .dwattr $C$DW$17, DW_AT_external
     150                            .dwattr $C$DW$17, DW_AT_decl_file("C:/ti/simplelink_cc13x0_sdk_2_30_00_20/source/ti/devices/cc
     151                            .dwattr $C$DW$17, DW_AT_decl_line(0x288)
     152                            .dwattr $C$DW$17, DW_AT_decl_column(0x01)
     153                    $C$DW$18        .dwtag  DW_TAG_formal_parameter
     154                            .dwattr $C$DW$18, DW_AT_type(*$C$DW$T$146)
     155                    
     156                            .dwendtag $C$DW$17
     157                    
     158                    
     159                    $C$DW$19        .dwtag  DW_TAG_subprogram
     160                            .dwattr $C$DW$19, DW_AT_name("AONRTCChannelDisable")
     161                            .dwattr $C$DW$19, DW_AT_TI_symbol_name("AONRTCChannelDisable")
     162                            .dwattr $C$DW$19, DW_AT_declaration
     163                            .dwattr $C$DW$19, DW_AT_external
     164                            .dwattr $C$DW$19, DW_AT_decl_file("C:/ti/simplelink_cc13x0_sdk_2_30_00_20/source/ti/devices/cc
     165                            .dwattr $C$DW$19, DW_AT_decl_line(0x2b3)
TI ARM Assembler PC v18.1.3 Wed Nov 28 13:22:06 2018

Tools Copyright (c) 1996-2017 Texas Instruments Incorporated
C:\Users\Adrian\AppData\Local\Temp\{8ACD377C-A10A-4D34-8C0A-1BFA051003CA} PAGE    4

     166                            .dwattr $C$DW$19, DW_AT_decl_column(0x01)
     167                    $C$DW$20        .dwtag  DW_TAG_formal_parameter
     168                            .dwattr $C$DW$20, DW_AT_type(*$C$DW$T$146)
     169                    
     170                            .dwendtag $C$DW$19
     171                    
     172                    
     173                    $C$DW$21        .dwtag  DW_TAG_subprogram
     174                            .dwattr $C$DW$21, DW_AT_name("AONRTCCompareValueSet")
     175                            .dwattr $C$DW$21, DW_AT_TI_symbol_name("AONRTCCompareValueSet")
     176                            .dwattr $C$DW$21, DW_AT_declaration
     177                            .dwattr $C$DW$21, DW_AT_external
     178                            .dwattr $C$DW$21, DW_AT_decl_file("C:/ti/simplelink_cc13x0_sdk_2_30_00_20/source/ti/devices/cc
     179                            .dwattr $C$DW$21, DW_AT_decl_line(0x2e2)
     180                            .dwattr $C$DW$21, DW_AT_decl_column(0x01)
     181                    $C$DW$22        .dwtag  DW_TAG_formal_parameter
     182                            .dwattr $C$DW$22, DW_AT_type(*$C$DW$T$146)
     183                    
     184                    $C$DW$23        .dwtag  DW_TAG_formal_parameter
     185                            .dwattr $C$DW$23, DW_AT_type(*$C$DW$T$146)
     186                    
     187                            .dwendtag $C$DW$21
     188                    
     189                    $C$DW$24        .dwtag  DW_TAG_variable
     190                            .dwattr $C$DW$24, DW_AT_name("ICall_enterCriticalSection")
     191                            .dwattr $C$DW$24, DW_AT_TI_symbol_name("ICall_enterCriticalSection")
     192                            .dwattr $C$DW$24, DW_AT_type(*$C$DW$T$281)
     193                            .dwattr $C$DW$24, DW_AT_declaration
     194                            .dwattr $C$DW$24, DW_AT_external
     195                            .dwattr $C$DW$24, DW_AT_decl_file("C:/ti/simplelink_cc13x0_sdk_2_30_00_20/source/ti/ti154stack
     196                            .dwattr $C$DW$24, DW_AT_decl_line(0x384)
     197                            .dwattr $C$DW$24, DW_AT_decl_column(0x16)
     198                    
     199                    $C$DW$25        .dwtag  DW_TAG_variable
     200                            .dwattr $C$DW$25, DW_AT_name("ICall_leaveCriticalSection")
     201                            .dwattr $C$DW$25, DW_AT_TI_symbol_name("ICall_leaveCriticalSection")
     202                            .dwattr $C$DW$25, DW_AT_type(*$C$DW$T$284)
     203                            .dwattr $C$DW$25, DW_AT_declaration
     204                            .dwattr $C$DW$25, DW_AT_external
     205                            .dwattr $C$DW$25, DW_AT_decl_file("C:/ti/simplelink_cc13x0_sdk_2_30_00_20/source/ti/ti154stack
     206                            .dwattr $C$DW$25, DW_AT_decl_line(0x387)
     207                            .dwattr $C$DW$25, DW_AT_decl_column(0x16)
     208                    
     209                    
     210                    $C$DW$26        .dwtag  DW_TAG_subprogram
     211                            .dwattr $C$DW$26, DW_AT_name("ti_sysbios_hal_Hwi_disableInterrupt__E")
     212                            .dwattr $C$DW$26, DW_AT_TI_symbol_name("ti_sysbios_hal_Hwi_disableInterrupt__E")
     213                            .dwattr $C$DW$26, DW_AT_type(*$C$DW$T$352)
     214                            .dwattr $C$DW$26, DW_AT_declaration
     215                            .dwattr $C$DW$26, DW_AT_external
     216                            .dwattr $C$DW$26, DW_AT_decl_file("C:/ti/simplelink_cc13x0_sdk_2_30_00_20/kernel/tirtos/packag
     217                            .dwattr $C$DW$26, DW_AT_decl_line(0x1f4)
     218                            .dwattr $C$DW$26, DW_AT_decl_column(0x13)
     219                    $C$DW$27        .dwtag  DW_TAG_formal_parameter
     220                            .dwattr $C$DW$27, DW_AT_type(*$C$DW$T$352)
TI ARM Assembler PC v18.1.3 Wed Nov 28 13:22:06 2018

Tools Copyright (c) 1996-2017 Texas Instruments Incorporated
C:\Users\Adrian\AppData\Local\Temp\{8ACD377C-A10A-4D34-8C0A-1BFA051003CA} PAGE    5

     221                    
     222                            .dwendtag $C$DW$26
     223                    
     224                    
     225                    $C$DW$28        .dwtag  DW_TAG_subprogram
     226                            .dwattr $C$DW$28, DW_AT_name("ti_sysbios_hal_Hwi_enableInterrupt__E")
     227                            .dwattr $C$DW$28, DW_AT_TI_symbol_name("ti_sysbios_hal_Hwi_enableInterrupt__E")
     228                            .dwattr $C$DW$28, DW_AT_type(*$C$DW$T$352)
     229                            .dwattr $C$DW$28, DW_AT_declaration
     230                            .dwattr $C$DW$28, DW_AT_external
     231                            .dwattr $C$DW$28, DW_AT_decl_file("C:/ti/simplelink_cc13x0_sdk_2_30_00_20/kernel/tirtos/packag
     232                            .dwattr $C$DW$28, DW_AT_decl_line(0x1f9)
     233                            .dwattr $C$DW$28, DW_AT_decl_column(0x13)
     234                    $C$DW$29        .dwtag  DW_TAG_formal_parameter
     235                            .dwattr $C$DW$29, DW_AT_type(*$C$DW$T$352)
     236                    
     237                            .dwendtag $C$DW$28
     238                    
     239 00000000           ||$O1$$||:      .usect  ".bss:$O1$$",16,4
     240                    
     241                    ;*********************************************************************
     242                    ;* GROUPED GLOBALS FOR $O1$$                                         *
     243                    ;*********************************************************************
     244          00000000! rtcIntOccurred: .set    ||$O1$$||+0
     245                    $C$DW$30        .dwtag  DW_TAG_variable
     246                            .dwattr $C$DW$30, DW_AT_name("rtcIntOccurred")
     247                            .dwattr $C$DW$30, DW_AT_TI_symbol_name("rtcIntOccurred")
     248                            .dwattr $C$DW$30, DW_AT_type(*$C$DW$T$948)
     249                            .dwattr $C$DW$30, DW_AT_location[DW_OP_addr rtcIntOccurred]
     250                            .dwattr $C$DW$30, DW_AT_decl_file("../Application/MAC/HAL/target/hal_rtc_wrapper.c")
     251                            .dwattr $C$DW$30, DW_AT_decl_line(0x54)
     252                            .dwattr $C$DW$30, DW_AT_decl_column(0x0e)
     253                    
     254          00000004! rtcIntCback:    .set    ||$O1$$||+4
     255                    $C$DW$31        .dwtag  DW_TAG_variable
     256                            .dwattr $C$DW$31, DW_AT_name("rtcIntCback")
     257                            .dwattr $C$DW$31, DW_AT_TI_symbol_name("rtcIntCback")
     258                            .dwattr $C$DW$31, DW_AT_type(*$C$DW$T$741)
     259                            .dwattr $C$DW$31, DW_AT_location[DW_OP_addr rtcIntCback]
     260                            .dwattr $C$DW$31, DW_AT_decl_file("../Application/MAC/HAL/target/hal_rtc_wrapper.c")
     261                            .dwattr $C$DW$31, DW_AT_decl_line(0x57)
     262                            .dwattr $C$DW$31, DW_AT_decl_column(0x16)
     263                    
     264                    ;       C:\ti\ccsv8\tools\compiler\ti-cgt-arm_18.1.3.LTS\bin\armopt.exe C:/Users/Adrian/workspace_v8/c
     265 00000000                   .sect   ".text:halClrRtcIntFlag"
     266                            .clink
     267                            .thumbfunc halClrRtcIntFlag
     268 00000000                   .thumb
     269                            .global halClrRtcIntFlag
     270                    
     271                    $C$DW$32        .dwtag  DW_TAG_subprogram
     272                            .dwattr $C$DW$32, DW_AT_name("halClrRtcIntFlag")
     273                            .dwattr $C$DW$32, DW_AT_low_pc(halClrRtcIntFlag)
     274                            .dwattr $C$DW$32, DW_AT_high_pc(0x00)
     275                            .dwattr $C$DW$32, DW_AT_TI_symbol_name("halClrRtcIntFlag")
TI ARM Assembler PC v18.1.3 Wed Nov 28 13:22:06 2018

Tools Copyright (c) 1996-2017 Texas Instruments Incorporated
C:\Users\Adrian\AppData\Local\Temp\{8ACD377C-A10A-4D34-8C0A-1BFA051003CA} PAGE    6

     276                            .dwattr $C$DW$32, DW_AT_external
     277                            .dwattr $C$DW$32, DW_AT_TI_begin_file("../Application/MAC/HAL/target/hal_rtc_wrapper.c")
     278                            .dwattr $C$DW$32, DW_AT_TI_begin_line(0x194)
     279                            .dwattr $C$DW$32, DW_AT_TI_begin_column(0x06)
     280                            .dwattr $C$DW$32, DW_AT_decl_file("../Application/MAC/HAL/target/hal_rtc_wrapper.c")
     281                            .dwattr $C$DW$32, DW_AT_decl_line(0x194)
     282                            .dwattr $C$DW$32, DW_AT_decl_column(0x06)
     283                            .dwattr $C$DW$32, DW_AT_TI_max_frame_size(0x00)
     284                            .dwpsn  file "../Application/MAC/HAL/target/hal_rtc_wrapper.c",line 405,column 1,is_stmt,addre
     285                    
     286                            .dwfde $C$DW$CIE, halClrRtcIntFlag
     287                    $C$DW$33        .dwtag  DW_TAG_formal_parameter
     288                            .dwattr $C$DW$33, DW_AT_name("rtcChan")
     289                            .dwattr $C$DW$33, DW_AT_TI_symbol_name("rtcChan")
     290                            .dwattr $C$DW$33, DW_AT_type(*$C$DW$T$10)
     291                            .dwattr $C$DW$33, DW_AT_location[DW_OP_reg0]
     292                    
     293                    
     294                    ;*****************************************************************************
     295                    ;* FUNCTION NAME: halClrRtcIntFlag                                           *
     296                    ;*                                                                           *
     297                    ;*   Regs Modified     : A1,A2,SR                                            *
     298                    ;*   Regs Used         : A1,A2,LR,SR                                         *
     299                    ;*   Local Frame Size  : 0 Args + 0 Auto + 0 Save = 0 byte                   *
     300                    ;*****************************************************************************
     301                    halClrRtcIntFlag:
     302                    ;* --------------------------------------------------------------------------*
     303                    ;* A1    assigned to rtcChan
     304                    $C$DW$34        .dwtag  DW_TAG_variable
     305                            .dwattr $C$DW$34, DW_AT_name("rtcChan")
     306                            .dwattr $C$DW$34, DW_AT_TI_symbol_name("rtcChan")
     307                            .dwattr $C$DW$34, DW_AT_type(*$C$DW$T$949)
     308                            .dwattr $C$DW$34, DW_AT_location[DW_OP_reg0]
     309                    
     310                            .dwcfi  cfa_offset, 0
     311                            .dwpsn  file "../Application/MAC/HAL/target/hal_rtc_wrapper.c",line 409,column 5,is_stmt,isa 1
     312 00000000 4906              LDR       A2, $C$CON2           ; [DPU_V7M3_PIPE] |409|  ; [ORIG 16-BIT INS]
     313                            .dwpsn  file "../Application/MAC/HAL/target/hal_rtc_wrapper.c",line 407,column 3,is_stmt,isa 1
     314 00000002 2801              CMP       A1, #1                ; [DPU_V7M3_PIPE] |407|  ; [ORIG 16-BIT INS]
     315 00000004 D005              BEQ       ||$C$L1||             ; [DPU_V7M3_PIPE] |407|  ; [ORIG 16-BIT INS]
     316                            ; BRANCHCC OCCURS {||$C$L1||}    ; [] |407| 
     317                    ;* --------------------------------------------------------------------------*
     318                            .dwpsn  file "../Application/MAC/HAL/target/hal_rtc_wrapper.c",line 411,column 8,is_stmt,isa 1
     319 00000006 2802              CMP       A1, #2                ; [DPU_V7M3_PIPE] |411|  ; [ORIG 16-BIT INS]
     320 00000008 BF1A              ITTE      NE                    ; [DPU_V7M3_PIPE]  ; [ORIG 16-BIT INS]
     321                            .dwpsn  file "../Application/MAC/HAL/target/hal_rtc_wrapper.c",line 417,column 5,is_stmt,isa 1
     322 0000000a 1C08              MOVNE     A1, A2                ; [DPU_V7M3_PIPE] |417|  ; [ORIG 16-BIT INS]
     323 0000000c 1C40              ADDNE     A1, A1, #1            ; [DPU_V7M3_PIPE]  ; [ORIG 16-BIT INS]
     324                            .dwpsn  file "../Application/MAC/HAL/target/hal_rtc_wrapper.c",line 413,column 5,is_stmt,isa 1
     325 0000000e 1C08              MOVEQ     A1, A2                ; [DPU_V7M3_PIPE] |413|  ; [ORIG 16-BIT INS]
     326                            .dwpsn  file "../Application/MAC/HAL/target/hal_rtc_wrapper.c",line 414,column 3,is_stmt,isa 1
     327 00000010 E001              B         ||$C$L2||             ; [DPU_V7M3_PIPE] |414|  ; [ORIG 16-BIT INS]
     328                            ; BRANCH OCCURS {||$C$L2||}      ; [] |414| 
     329                    ;* --------------------------------------------------------------------------*
     330 00000012           ||$C$L1||:    
TI ARM Assembler PC v18.1.3 Wed Nov 28 13:22:06 2018

Tools Copyright (c) 1996-2017 Texas Instruments Incorporated
C:\Users\Adrian\AppData\Local\Temp\{8ACD377C-A10A-4D34-8C0A-1BFA051003CA} PAGE    7

     331                            .dwpsn  file "../Application/MAC/HAL/target/hal_rtc_wrapper.c",line 409,column 5,is_stmt,isa 1
     332 00000012 4608              MOV       A1, A2                ; [DPU_V7M3_PIPE] |409|  ; [ORIG 16-BIT INS]
     333 00000014 1E40              SUBS      A1, A1, #1            ; [DPU_V7M3_PIPE]  ; [ORIG 16-BIT INS]
     334                    ;* --------------------------------------------------------------------------*
     335 00000016           ||$C$L2||:    
     336 00000016 2100              MOVS      A2, #0                ; [DPU_V7M3_PIPE] |409|  ; [ORIG 16-BIT INS]
     337 00000018 7001              STRB      A2, [A1, #0]          ; [DPU_V7M3_PIPE] |409|  ; [ORIG 16-BIT INS]
     338                    $C$DW$35        .dwtag  DW_TAG_TI_branch
     339                            .dwattr $C$DW$35, DW_AT_low_pc(0x00)
     340                            .dwattr $C$DW$35, DW_AT_TI_return
     341                    
     342 0000001a 4770              BX        LR                    ; [DPU_V7M3_PIPE]  ; [ORIG 16-BIT INS]
     343                            ; BRANCH OCCURS                  ; [] 
     344                            .dwattr $C$DW$32, DW_AT_TI_end_file("../Application/MAC/HAL/target/hal_rtc_wrapper.c")
     345                            .dwattr $C$DW$32, DW_AT_TI_end_line(0x1a5)
     346                            .dwattr $C$DW$32, DW_AT_TI_end_column(0x01)
     347                            .dwendentry
     348                            .dwendtag $C$DW$32
     349                    
     350 00000000                   .sect   ".text:halSetRtcTimerEvent"
     351                            .clink
     352                            .thumbfunc halSetRtcTimerEvent
     353 00000000                   .thumb
     354                            .global halSetRtcTimerEvent
     355                    
     356                    $C$DW$36        .dwtag  DW_TAG_subprogram
     357                            .dwattr $C$DW$36, DW_AT_name("halSetRtcTimerEvent")
     358                            .dwattr $C$DW$36, DW_AT_low_pc(halSetRtcTimerEvent)
     359                            .dwattr $C$DW$36, DW_AT_high_pc(0x00)
     360                            .dwattr $C$DW$36, DW_AT_TI_symbol_name("halSetRtcTimerEvent")
     361                            .dwattr $C$DW$36, DW_AT_external
     362                            .dwattr $C$DW$36, DW_AT_TI_begin_file("../Application/MAC/HAL/target/hal_rtc_wrapper.c")
     363                            .dwattr $C$DW$36, DW_AT_TI_begin_line(0xc6)
     364                            .dwattr $C$DW$36, DW_AT_TI_begin_column(0x06)
     365                            .dwattr $C$DW$36, DW_AT_decl_file("../Application/MAC/HAL/target/hal_rtc_wrapper.c")
     366                            .dwattr $C$DW$36, DW_AT_decl_line(0xc6)
     367                            .dwattr $C$DW$36, DW_AT_decl_column(0x06)
     368                            .dwattr $C$DW$36, DW_AT_TI_max_frame_size(0x20)
     369                            .dwpsn  file "../Application/MAC/HAL/target/hal_rtc_wrapper.c",line 199,column 1,is_stmt,addre
     370                    
     371                            .dwfde $C$DW$CIE, halSetRtcTimerEvent
     372                    $C$DW$37        .dwtag  DW_TAG_formal_parameter
     373                            .dwattr $C$DW$37, DW_AT_name("rtcChan")
     374                            .dwattr $C$DW$37, DW_AT_TI_symbol_name("rtcChan")
     375                            .dwattr $C$DW$37, DW_AT_type(*$C$DW$T$767)
     376                            .dwattr $C$DW$37, DW_AT_location[DW_OP_reg0]
     377                    
     378                    $C$DW$38        .dwtag  DW_TAG_formal_parameter
     379                            .dwattr $C$DW$38, DW_AT_name("compVal")
     380                            .dwattr $C$DW$38, DW_AT_TI_symbol_name("compVal")
     381                            .dwattr $C$DW$38, DW_AT_type(*$C$DW$T$767)
     382                            .dwattr $C$DW$38, DW_AT_location[DW_OP_reg1]
     383                    
     384                    
     385                    ;*****************************************************************************
TI ARM Assembler PC v18.1.3 Wed Nov 28 13:22:06 2018

Tools Copyright (c) 1996-2017 Texas Instruments Incorporated
C:\Users\Adrian\AppData\Local\Temp\{8ACD377C-A10A-4D34-8C0A-1BFA051003CA} PAGE    8

     386                    ;* FUNCTION NAME: halSetRtcTimerEvent                                        *
     387                    ;*                                                                           *
     388                    ;*   Regs Modified     : A1,A2,A3,A4,V1,V2,V3,V4,V5,V6,V7,V9,SP,LR,SR        *
     389                    ;*   Regs Used         : A1,A2,A3,A4,V1,V2,V3,V4,V5,V6,V7,V9,SP,LR,SR        *
     390                    ;*   Local Frame Size  : 0 Args + 0 Auto + 32 Save = 32 byte                 *
     391                    ;*****************************************************************************
     392                    halSetRtcTimerEvent:
     393                    ;* --------------------------------------------------------------------------*
     394                    ;* V4    assigned to $O$K13
     395                    ;* V3    assigned to $O$K18
     396                    ;* V1    assigned to rtcChan
     397                    $C$DW$39        .dwtag  DW_TAG_variable
     398                            .dwattr $C$DW$39, DW_AT_name("rtcChan")
     399                            .dwattr $C$DW$39, DW_AT_TI_symbol_name("rtcChan")
     400                            .dwattr $C$DW$39, DW_AT_type(*$C$DW$T$1290)
     401                            .dwattr $C$DW$39, DW_AT_location[DW_OP_reg4]
     402                    
     403                    ;* V2    assigned to compVal
     404                    $C$DW$40        .dwtag  DW_TAG_variable
     405                            .dwattr $C$DW$40, DW_AT_name("compVal")
     406                            .dwattr $C$DW$40, DW_AT_TI_symbol_name("compVal")
     407                            .dwattr $C$DW$40, DW_AT_type(*$C$DW$T$1290)
     408                            .dwattr $C$DW$40, DW_AT_location[DW_OP_reg5]
     409                    
     410                    ;* V7    assigned to cs
     411                    $C$DW$41        .dwtag  DW_TAG_variable
     412                            .dwattr $C$DW$41, DW_AT_name("cs")
     413                            .dwattr $C$DW$41, DW_AT_TI_symbol_name("cs")
     414                            .dwattr $C$DW$41, DW_AT_type(*$C$DW$T$1132)
     415                            .dwattr $C$DW$41, DW_AT_location[DW_OP_reg10]
     416                    
     417                            .dwcfi  cfa_offset, 0
     418 00000000 47F0E92D          PUSH      {V1, V2, V3, V4, V5, V6, V7, LR} ; [DPU_V7M3_PIPE]  ; [KEEP 32-BIT INS]
     419                            .dwcfi  cfa_offset, 32
     420                            .dwcfi  save_reg_to_mem, 14, -4
     421                            .dwcfi  save_reg_to_mem, 10, -8
     422                            .dwcfi  save_reg_to_mem, 9, -12
     423                            .dwcfi  save_reg_to_mem, 8, -16
     424                            .dwcfi  save_reg_to_mem, 7, -20
     425                            .dwcfi  save_reg_to_mem, 6, -24
     426                            .dwcfi  save_reg_to_mem, 5, -28
     427                            .dwcfi  save_reg_to_mem, 4, -32
     428 00000004 4604              MOV       V1, A1                ; [DPU_V7M3_PIPE] |199|  ; [ORIG 16-BIT INS]
     429                            .dwpsn  file "../Application/MAC/HAL/target/hal_rtc_wrapper.c",line 202,column 3,is_stmt,isa 1
     430 00000006 4830              LDR       A1, $C$CON4           ; [DPU_V7M3_PIPE] |202|  ; [ORIG 16-BIT INS]
     431 00000008 6800              LDR       A1, [A1, #0]          ; [DPU_V7M3_PIPE] |202|  ; [ORIG 16-BIT INS]
     432                            .dwpsn  file "../Application/MAC/HAL/target/hal_rtc_wrapper.c",line 199,column 1,is_stmt,isa 1
     433 0000000a 460D              MOV       V2, A2                ; [DPU_V7M3_PIPE] |199|  ; [ORIG 16-BIT INS]
     434                            .dwpsn  file "../Application/MAC/HAL/target/hal_rtc_wrapper.c",line 202,column 3,is_stmt,isa 1
     435                    $C$DW$42        .dwtag  DW_TAG_TI_branch
     436                            .dwattr $C$DW$42, DW_AT_low_pc(0x00)
     437                            .dwattr $C$DW$42, DW_AT_TI_call
     438                            .dwattr $C$DW$42, DW_AT_TI_indirect
     439                    
     440 0000000c 4780              BLX       A1                    ; [DPU_V7M3_PIPE] |202|  ; [ORIG 16-BIT INS]
TI ARM Assembler PC v18.1.3 Wed Nov 28 13:22:06 2018

Tools Copyright (c) 1996-2017 Texas Instruments Incorporated
C:\Users\Adrian\AppData\Local\Temp\{8ACD377C-A10A-4D34-8C0A-1BFA051003CA} PAGE    9

     441                            ; CALL OCCURS {}                 ; [] |202| 
     442                            .dwpsn  file "C:/ti/simplelink_cc13x0_sdk_2_30_00_20/source/ti/devices/cc13x0/driverlib/aon_rt
     443 0000000e 4B2F              LDR       A4, $C$CON5           ; [DPU_V7M3_PIPE] |657|  ; [ORIG 16-BIT INS]
     444                            .dwpsn  file "../Application/MAC/HAL/target/hal_rtc_wrapper.c",line 202,column 3,is_stmt,isa 1
     445 00000010 4682              MOV       V7, A1                ; [DPU_V7M3_PIPE] |202|  ; [ORIG 16-BIT INS]
     446                            .dwpsn  file "C:/ti/simplelink_cc13x0_sdk_2_30_00_20/source/ti/devices/cc13x0/driverlib/aon_rt
     447 00000012 0860              LSRS      A1, V1, #1            ; [DPU_V7M3_PIPE] |698|  ; [ORIG 16-BIT INS]
     448 00000014 D302              BCC       ||$C$L3||             ; [DPU_V7M3_PIPE] |698|  ; [ORIG 16-BIT INS]
     449                            ; BRANCHCC OCCURS {||$C$L3||}    ; [] |698| 
     450                    ;* --------------------------------------------------------------------------*
     451                            .dwpsn  file "C:/ti/simplelink_cc13x0_sdk_2_30_00_20/source/ti/devices/cc13x0/driverlib/aon_rt
     452 00000016 2100              MOVS      A2, #0                ; [DPU_V7M3_PIPE] |700|  ; [ORIG 16-BIT INS]
     453 00000018 4618              MOV       A1, A4                ; [DPU_V7M3_PIPE] |700|  ; [ORIG 16-BIT INS]
     454 0000001a 6001              STR       A2, [A1, #0]          ; [DPU_V7M3_PIPE] |700|  ; [ORIG 16-BIT INS]
     455                    ;* --------------------------------------------------------------------------*
     456 0000001c           ||$C$L3||:    
     457                            .dwpsn  file "C:/ti/simplelink_cc13x0_sdk_2_30_00_20/source/ti/devices/cc13x0/driverlib/aon_rt
     458 0000001c 90B0F8DF          LDR       V6, $C$CON6           ; [DPU_V7M3_PIPE] |662|  ; [KEEP 32-BIT INS]
     459                            .dwpsn  file "C:/ti/simplelink_cc13x0_sdk_2_30_00_20/source/ti/devices/cc13x0/driverlib/aon_rt
     460 00000020 08A0              LSRS      A1, V1, #2            ; [DPU_V7M3_PIPE] |703|  ; [ORIG 16-BIT INS]
     461 00000022 0754EA4F          LSR       V4, V1, #1            ; [DPU_V7M3_PIPE] |703|  ; [KEEP 32-BIT INS]
     462 00000026 D302              BCC       ||$C$L4||             ; [DPU_V7M3_PIPE] |703|  ; [ORIG 16-BIT INS]
     463                            ; BRANCHCC OCCURS {||$C$L4||}    ; [] |703| 
     464                    ;* --------------------------------------------------------------------------*
     465                            .dwpsn  file "C:/ti/simplelink_cc13x0_sdk_2_30_00_20/source/ti/devices/cc13x0/driverlib/aon_rt
     466 00000028 2100              MOVS      A2, #0                ; [DPU_V7M3_PIPE] |705|  ; [ORIG 16-BIT INS]
     467 0000002a 4648              MOV       A1, V6                ; [DPU_V7M3_PIPE] |705|  ; [ORIG 16-BIT INS]
     468 0000002c 6001              STR       A2, [A1, #0]          ; [DPU_V7M3_PIPE] |705|  ; [ORIG 16-BIT INS]
     469                    ;* --------------------------------------------------------------------------*
     470 0000002e           ||$C$L4||:    
     471                            .dwpsn  file "C:/ti/simplelink_cc13x0_sdk_2_30_00_20/source/ti/devices/cc13x0/driverlib/aon_rt
     472 0000002e 80A4F8DF          LDR       V5, $C$CON7           ; [DPU_V7M3_PIPE] |667|  ; [KEEP 32-BIT INS]
     473                            .dwpsn  file "C:/ti/simplelink_cc13x0_sdk_2_30_00_20/source/ti/devices/cc13x0/driverlib/aon_rt
     474 00000032 08E0              LSRS      A1, V1, #3            ; [DPU_V7M3_PIPE] |708|  ; [ORIG 16-BIT INS]
     475 00000034 0694EA4F          LSR       V3, V1, #2            ; [DPU_V7M3_PIPE] |708|  ; [KEEP 32-BIT INS]
     476 00000038 D302              BCC       ||$C$L5||             ; [DPU_V7M3_PIPE] |708|  ; [ORIG 16-BIT INS]
     477                            ; BRANCHCC OCCURS {||$C$L5||}    ; [] |708| 
     478                    ;* --------------------------------------------------------------------------*
     479                            .dwpsn  file "C:/ti/simplelink_cc13x0_sdk_2_30_00_20/source/ti/devices/cc13x0/driverlib/aon_rt
     480 0000003a 2000              MOVS      A1, #0                ; [DPU_V7M3_PIPE] |710|  ; [ORIG 16-BIT INS]
     481 0000003c 4641              MOV       A2, V5                ; [DPU_V7M3_PIPE] |710|  ; [ORIG 16-BIT INS]
     482 0000003e 6008              STR       A1, [A2, #0]          ; [DPU_V7M3_PIPE] |710|  ; [ORIG 16-BIT INS]
     483                    ;* --------------------------------------------------------------------------*
     484 00000040           ||$C$L5||:    
     485                            .dwpsn  file "C:/ti/simplelink_cc13x0_sdk_2_30_00_20/source/ti/devices/cc13x0/driverlib/aon_rt
     486 00000040 4A25              LDR       A3, $C$CON8           ; [DPU_V7M3_PIPE] |757|  ; [ORIG 16-BIT INS]
     487                            .dwpsn  file "C:/ti/simplelink_cc13x0_sdk_2_30_00_20/source/ti/devices/cc13x0/driverlib/aon_rt
     488 00000042 0860              LSRS      A1, V1, #1            ; [DPU_V7M3_PIPE] |375|  ; [ORIG 16-BIT INS]
     489 00000044 D302              BCC       ||$C$L6||             ; [DPU_V7M3_PIPE] |375|  ; [ORIG 16-BIT INS]
     490                            ; BRANCHCC OCCURS {||$C$L6||}    ; [] |375| 
     491                    ;* --------------------------------------------------------------------------*
     492                            .dwpsn  file "C:/ti/simplelink_cc13x0_sdk_2_30_00_20/source/ti/devices/cc13x0/driverlib/aon_rt
     493 00000046 2101              MOVS      A2, #1                ; [DPU_V7M3_PIPE] |377|  ; [ORIG 16-BIT INS]
     494 00000048 4610              MOV       A1, A3                ; [DPU_V7M3_PIPE] |377|  ; [ORIG 16-BIT INS]
     495 0000004a 6001              STR       A2, [A1, #0]          ; [DPU_V7M3_PIPE] |377|  ; [ORIG 16-BIT INS]
TI ARM Assembler PC v18.1.3 Wed Nov 28 13:22:06 2018

Tools Copyright (c) 1996-2017 Texas Instruments Incorporated
C:\Users\Adrian\AppData\Local\Temp\{8ACD377C-A10A-4D34-8C0A-1BFA051003CA} PAGE   10

     496                    ;* --------------------------------------------------------------------------*
     497 0000004c           ||$C$L6||:    
     498                            .dwpsn  file "C:/ti/simplelink_cc13x0_sdk_2_30_00_20/source/ti/devices/cc13x0/driverlib/aon_rt
     499 0000004c 0878              LSRS      A1, V4, #1            ; [DPU_V7M3_PIPE] |380|  ; [ORIG 16-BIT INS]
     500 0000004e D303              BCC       ||$C$L7||             ; [DPU_V7M3_PIPE] |380|  ; [ORIG 16-BIT INS]
     501                            ; BRANCHCC OCCURS {||$C$L7||}    ; [] |380| 
     502                    ;* --------------------------------------------------------------------------*
     503                            .dwpsn  file "C:/ti/simplelink_cc13x0_sdk_2_30_00_20/source/ti/devices/cc13x0/driverlib/aon_rt
     504 00000050 7180F44F          MOV       A2, #256              ; [DPU_V7M3_PIPE] |382|  ; [KEEP 32-BIT INS]
     505 00000054 4610              MOV       A1, A3                ; [DPU_V7M3_PIPE] |382|  ; [ORIG 16-BIT INS]
     506 00000056 6001              STR       A2, [A1, #0]          ; [DPU_V7M3_PIPE] |382|  ; [ORIG 16-BIT INS]
     507                    ;* --------------------------------------------------------------------------*
     508 00000058           ||$C$L7||:    
     509                            .dwpsn  file "C:/ti/simplelink_cc13x0_sdk_2_30_00_20/source/ti/devices/cc13x0/driverlib/aon_rt
     510 00000058 0870              LSRS      A1, V3, #1            ; [DPU_V7M3_PIPE] |385|  ; [ORIG 16-BIT INS]
     511 0000005a D303              BCC       ||$C$L8||             ; [DPU_V7M3_PIPE] |385|  ; [ORIG 16-BIT INS]
     512                            ; BRANCHCC OCCURS {||$C$L8||}    ; [] |385| 
     513                    ;* --------------------------------------------------------------------------*
     514                            .dwpsn  file "C:/ti/simplelink_cc13x0_sdk_2_30_00_20/source/ti/devices/cc13x0/driverlib/aon_rt
     515 0000005c 3180F44F          MOV       A2, #65536            ; [DPU_V7M3_PIPE] |387|  ; [KEEP 32-BIT INS]
     516 00000060 4610              MOV       A1, A3                ; [DPU_V7M3_PIPE] |387|  ; [ORIG 16-BIT INS]
     517 00000062 6001              STR       A2, [A1, #0]          ; [DPU_V7M3_PIPE] |387|  ; [ORIG 16-BIT INS]
     518                    ;* --------------------------------------------------------------------------*
     519 00000064           ||$C$L8||:    
     520                            .dwpsn  file "../Application/MAC/HAL/target/hal_rtc_wrapper.c",line 210,column 3,is_stmt,isa 1
     521 00000064 2C02              CMP       V1, #2                ; [DPU_V7M3_PIPE] |210|  ; [ORIG 16-BIT INS]
     522 00000066 D004              BEQ       ||$C$L9||             ; [DPU_V7M3_PIPE] |210|  ; [ORIG 16-BIT INS]
     523                            ; BRANCHCC OCCURS {||$C$L9||}    ; [] |210| 
     524                    ;* --------------------------------------------------------------------------*
     525                            .dwpsn  file "../Application/MAC/HAL/target/hal_rtc_wrapper.c",line 215,column 8,is_stmt,isa 1
     526 00000068 2C04              CMP       V1, #4                ; [DPU_V7M3_PIPE] |215|  ; [ORIG 16-BIT INS]
     527 0000006a D106              BNE       ||$C$L11||            ; [DPU_V7M3_PIPE] |215|  ; [ORIG 16-BIT INS]
     528                            ; BRANCHCC OCCURS {||$C$L11||}   ; [] |215| 
     529                    ;* --------------------------------------------------------------------------*
     530                            .dwpsn  file "C:/ti/simplelink_cc13x0_sdk_2_30_00_20/source/ti/devices/cc13x0/driverlib/aon_rt
     531 0000006c 4618              MOV       A1, A4                ; [DPU_V7M3_PIPE] |601|  ; [ORIG 16-BIT INS]
     532 0000006e 3048              ADDS      A1, A1, #72           ; [DPU_V7M3_PIPE]  ; [ORIG 16-BIT INS]
     533                            .dwpsn  file "../Application/MAC/HAL/target/hal_rtc_wrapper.c",line 218,column 5,is_stmt,isa 1
     534 00000070 E001              B         ||$C$L10||            ; [DPU_V7M3_PIPE] |218|  ; [ORIG 16-BIT INS]
     535                            ; BRANCH OCCURS {||$C$L10||}     ; [] |218| 
     536                    ;* --------------------------------------------------------------------------*
     537 00000072           ||$C$L9||:    
     538                            .dwpsn  file "C:/ti/simplelink_cc13x0_sdk_2_30_00_20/source/ti/devices/cc13x0/driverlib/aon_rt
     539 00000072 4618              MOV       A1, A4                ; [DPU_V7M3_PIPE] |547|  ; [ORIG 16-BIT INS]
     540 00000074 3024              ADDS      A1, A1, #36           ; [DPU_V7M3_PIPE]  ; [ORIG 16-BIT INS]
     541                    ;* --------------------------------------------------------------------------*
     542 00000076           ||$C$L10||:    
     543 00000076 2100              MOVS      A2, #0                ; [DPU_V7M3_PIPE] |547|  ; [ORIG 16-BIT INS]
     544 00000078 6001              STR       A2, [A1, #0]          ; [DPU_V7M3_PIPE] |547|  ; [ORIG 16-BIT INS]
     545                    ;* --------------------------------------------------------------------------*
     546 0000007a           ||$C$L11||:    
     547                            .dwpsn  file "../Application/MAC/HAL/target/hal_rtc_wrapper.c",line 222,column 3,is_stmt,isa 1
     548 0000007a B2E0              UXTB      A1, V1                ; [DPU_V7M3_PIPE] |222|  ; [ORIG 16-BIT INS]
     549                    $C$DW$43        .dwtag  DW_TAG_TI_branch
     550                            .dwattr $C$DW$43, DW_AT_low_pc(0x00)
TI ARM Assembler PC v18.1.3 Wed Nov 28 13:22:06 2018

Tools Copyright (c) 1996-2017 Texas Instruments Incorporated
C:\Users\Adrian\AppData\Local\Temp\{8ACD377C-A10A-4D34-8C0A-1BFA051003CA} PAGE   11

     551                            .dwattr $C$DW$43, DW_AT_name("halClrRtcIntFlag")
     552                            .dwattr $C$DW$43, DW_AT_TI_call
     553                    
     554 0000007c FFFEF7FF!         BL        halClrRtcIntFlag      ; [DPU_V7M3_PIPE] |222|  ; [KEEP 32-BIT INS]
     555                            ; CALL OCCURS {halClrRtcIntFlag }  ; [] |222| 
     556                            .dwpsn  file "C:/ti/simplelink_cc13x0_sdk_2_30_00_20/source/ti/devices/cc13x0/driverlib/aon_rt
     557 00000080 0860              LSRS      A1, V1, #1            ; [DPU_V7M3_PIPE] |745|  ; [ORIG 16-BIT INS]
     558 00000082 D302              BCC       ||$C$L12||            ; [DPU_V7M3_PIPE] |745|  ; [ORIG 16-BIT INS]
     559                            ; BRANCHCC OCCURS {||$C$L12||}   ; [] |745| 
     560                    ;* --------------------------------------------------------------------------*
     561                            .dwpsn  file "C:/ti/simplelink_cc13x0_sdk_2_30_00_20/source/ti/devices/cc13x0/driverlib/aon_rt
     562 00000084 4610              MOV       A1, A3                ; [DPU_V7M3_PIPE] |747|  ; [ORIG 16-BIT INS]
     563 00000086 3014              ADDS      A1, A1, #20           ; [DPU_V7M3_PIPE]  ; [ORIG 16-BIT INS]
     564 00000088 6005              STR       V2, [A1, #0]          ; [DPU_V7M3_PIPE] |747|  ; [ORIG 16-BIT INS]
     565                    ;* --------------------------------------------------------------------------*
     566 0000008a           ||$C$L12||:    
     567                            .dwpsn  file "C:/ti/simplelink_cc13x0_sdk_2_30_00_20/source/ti/devices/cc13x0/driverlib/aon_rt
     568 0000008a 0878              LSRS      A1, V4, #1            ; [DPU_V7M3_PIPE] |750|  ; [ORIG 16-BIT INS]
     569 0000008c D302              BCC       ||$C$L13||            ; [DPU_V7M3_PIPE] |750|  ; [ORIG 16-BIT INS]
     570                            ; BRANCHCC OCCURS {||$C$L13||}   ; [] |750| 
     571                    ;* --------------------------------------------------------------------------*
     572                            .dwpsn  file "C:/ti/simplelink_cc13x0_sdk_2_30_00_20/source/ti/devices/cc13x0/driverlib/aon_rt
     573 0000008e 4610              MOV       A1, A3                ; [DPU_V7M3_PIPE] |752|  ; [ORIG 16-BIT INS]
     574 00000090 3018              ADDS      A1, A1, #24           ; [DPU_V7M3_PIPE]  ; [ORIG 16-BIT INS]
     575 00000092 6005              STR       V2, [A1, #0]          ; [DPU_V7M3_PIPE] |752|  ; [ORIG 16-BIT INS]
     576                    ;* --------------------------------------------------------------------------*
     577 00000094           ||$C$L13||:    
     578                            .dwpsn  file "C:/ti/simplelink_cc13x0_sdk_2_30_00_20/source/ti/devices/cc13x0/driverlib/aon_rt
     579 00000094 0870              LSRS      A1, V3, #1            ; [DPU_V7M3_PIPE] |755|  ; [ORIG 16-BIT INS]
     580 00000096 D302              BCC       ||$C$L14||            ; [DPU_V7M3_PIPE] |755|  ; [ORIG 16-BIT INS]
     581                            ; BRANCHCC OCCURS {||$C$L14||}   ; [] |755| 
     582                    ;* --------------------------------------------------------------------------*
     583                            .dwpsn  file "C:/ti/simplelink_cc13x0_sdk_2_30_00_20/source/ti/devices/cc13x0/driverlib/aon_rt
     584 00000098 4610              MOV       A1, A3                ; [DPU_V7M3_PIPE] |757|  ; [ORIG 16-BIT INS]
     585 0000009a 301C              ADDS      A1, A1, #28           ; [DPU_V7M3_PIPE]  ; [ORIG 16-BIT INS]
     586 0000009c 6005              STR       V2, [A1, #0]          ; [DPU_V7M3_PIPE] |757|  ; [ORIG 16-BIT INS]
     587                    ;* --------------------------------------------------------------------------*
     588 0000009e           ||$C$L14||:    
     589                            .dwpsn  file "C:/ti/simplelink_cc13x0_sdk_2_30_00_20/source/ti/devices/cc13x0/driverlib/aon_rt
     590 0000009e 0860              LSRS      A1, V1, #1            ; [DPU_V7M3_PIPE] |655|  ; [ORIG 16-BIT INS]
     591 000000a0 D302              BCC       ||$C$L15||            ; [DPU_V7M3_PIPE] |655|  ; [ORIG 16-BIT INS]
     592                            ; BRANCHCC OCCURS {||$C$L15||}   ; [] |655| 
     593                    ;* --------------------------------------------------------------------------*
     594                            .dwpsn  file "C:/ti/simplelink_cc13x0_sdk_2_30_00_20/source/ti/devices/cc13x0/driverlib/aon_rt
     595 000000a2 2101              MOVS      A2, #1                ; [DPU_V7M3_PIPE] |657|  ; [ORIG 16-BIT INS]
     596 000000a4 4618              MOV       A1, A4                ; [DPU_V7M3_PIPE] |657|  ; [ORIG 16-BIT INS]
     597 000000a6 6001              STR       A2, [A1, #0]          ; [DPU_V7M3_PIPE] |657|  ; [ORIG 16-BIT INS]
     598                    ;* --------------------------------------------------------------------------*
     599 000000a8           ||$C$L15||:    
     600                            .dwpsn  file "C:/ti/simplelink_cc13x0_sdk_2_30_00_20/source/ti/devices/cc13x0/driverlib/aon_rt
     601 000000a8 0878              LSRS      A1, V4, #1            ; [DPU_V7M3_PIPE] |660|  ; [ORIG 16-BIT INS]
     602 000000aa D302              BCC       ||$C$L16||            ; [DPU_V7M3_PIPE] |660|  ; [ORIG 16-BIT INS]
     603                            ; BRANCHCC OCCURS {||$C$L16||}   ; [] |660| 
     604                    ;* --------------------------------------------------------------------------*
     605                            .dwpsn  file "C:/ti/simplelink_cc13x0_sdk_2_30_00_20/source/ti/devices/cc13x0/driverlib/aon_rt
TI ARM Assembler PC v18.1.3 Wed Nov 28 13:22:06 2018

Tools Copyright (c) 1996-2017 Texas Instruments Incorporated
C:\Users\Adrian\AppData\Local\Temp\{8ACD377C-A10A-4D34-8C0A-1BFA051003CA} PAGE   12

     606 000000ac 2101              MOVS      A2, #1                ; [DPU_V7M3_PIPE] |662|  ; [ORIG 16-BIT INS]
     607 000000ae 4648              MOV       A1, V6                ; [DPU_V7M3_PIPE] |662|  ; [ORIG 16-BIT INS]
     608 000000b0 6001              STR       A2, [A1, #0]          ; [DPU_V7M3_PIPE] |662|  ; [ORIG 16-BIT INS]
     609                    ;* --------------------------------------------------------------------------*
     610 000000b2           ||$C$L16||:    
     611                            .dwpsn  file "C:/ti/simplelink_cc13x0_sdk_2_30_00_20/source/ti/devices/cc13x0/driverlib/aon_rt
     612 000000b2 0870              LSRS      A1, V3, #1            ; [DPU_V7M3_PIPE] |665|  ; [ORIG 16-BIT INS]
     613 000000b4 D302              BCC       ||$C$L17||            ; [DPU_V7M3_PIPE] |665|  ; [ORIG 16-BIT INS]
     614                            ; BRANCHCC OCCURS {||$C$L17||}   ; [] |665| 
     615                    ;* --------------------------------------------------------------------------*
     616                            .dwpsn  file "C:/ti/simplelink_cc13x0_sdk_2_30_00_20/source/ti/devices/cc13x0/driverlib/aon_rt
     617 000000b6 2001              MOVS      A1, #1                ; [DPU_V7M3_PIPE] |667|  ; [ORIG 16-BIT INS]
     618 000000b8 4641              MOV       A2, V5                ; [DPU_V7M3_PIPE] |667|  ; [ORIG 16-BIT INS]
     619 000000ba 6008              STR       A1, [A2, #0]          ; [DPU_V7M3_PIPE] |667|  ; [ORIG 16-BIT INS]
     620                    ;* --------------------------------------------------------------------------*
     621 000000bc           ||$C$L17||:    
     622                            .dwpsn  file "../Application/MAC/HAL/target/hal_rtc_wrapper.c",line 230,column 3,is_stmt,isa 1
     623 000000bc 4807              LDR       A1, $C$CON14          ; [DPU_V7M3_PIPE] |230|  ; [ORIG 16-BIT INS]
     624 000000be 6801              LDR       A2, [A1, #0]          ; [DPU_V7M3_PIPE] |230|  ; [ORIG 16-BIT INS]
     625 000000c0 4650              MOV       A1, V7                ; [DPU_V7M3_PIPE] |230|  ; [ORIG 16-BIT INS]
     626                    $C$DW$44        .dwtag  DW_TAG_TI_branch
     627                            .dwattr $C$DW$44, DW_AT_low_pc(0x00)
     628                            .dwattr $C$DW$44, DW_AT_TI_call
     629                            .dwattr $C$DW$44, DW_AT_TI_indirect
     630                    
     631 000000c2 4788              BLX       A2                    ; [DPU_V7M3_PIPE] |230|  ; [ORIG 16-BIT INS]
     632                            ; CALL OCCURS {}                 ; [] |230| 
     633                    $C$DW$45        .dwtag  DW_TAG_TI_branch
     634                            .dwattr $C$DW$45, DW_AT_low_pc(0x00)
     635                            .dwattr $C$DW$45, DW_AT_TI_return
     636                    
     637 000000c4 87F0E8BD          POP       {V1, V2, V3, V4, V5, V6, V7, PC} ; [DPU_V7M3_PIPE]  ; [KEEP 32-BIT INS]
     638                            .dwcfi  cfa_offset, 0
     639                            .dwcfi  restore_reg, 10
     640                            .dwcfi  restore_reg, 9
     641                            .dwcfi  restore_reg, 8
     642                            .dwcfi  restore_reg, 7
     643                            .dwcfi  restore_reg, 6
     644                            .dwcfi  restore_reg, 5
     645                            .dwcfi  restore_reg, 4
     646                            ; BRANCH OCCURS                  ; [] 
     647                            .dwattr $C$DW$36, DW_AT_TI_end_file("../Application/MAC/HAL/target/hal_rtc_wrapper.c")
     648                            .dwattr $C$DW$36, DW_AT_TI_end_line(0xe9)
     649                            .dwattr $C$DW$36, DW_AT_TI_end_column(0x01)
     650                            .dwendentry
     651                            .dwendtag $C$DW$36
     652                    
     653 00000000                   .sect   ".text:halSetRtcIntFlag"
     654                            .clink
     655                            .thumbfunc halSetRtcIntFlag
     656 00000000                   .thumb
     657                            .global halSetRtcIntFlag
     658                    
     659                    $C$DW$46        .dwtag  DW_TAG_subprogram
     660                            .dwattr $C$DW$46, DW_AT_name("halSetRtcIntFlag")
TI ARM Assembler PC v18.1.3 Wed Nov 28 13:22:06 2018

Tools Copyright (c) 1996-2017 Texas Instruments Incorporated
C:\Users\Adrian\AppData\Local\Temp\{8ACD377C-A10A-4D34-8C0A-1BFA051003CA} PAGE   13

     661                            .dwattr $C$DW$46, DW_AT_low_pc(halSetRtcIntFlag)
     662                            .dwattr $C$DW$46, DW_AT_high_pc(0x00)
     663                            .dwattr $C$DW$46, DW_AT_TI_symbol_name("halSetRtcIntFlag")
     664                            .dwattr $C$DW$46, DW_AT_external
     665                            .dwattr $C$DW$46, DW_AT_TI_begin_file("../Application/MAC/HAL/target/hal_rtc_wrapper.c")
     666                            .dwattr $C$DW$46, DW_AT_TI_begin_line(0x170)
     667                            .dwattr $C$DW$46, DW_AT_TI_begin_column(0x06)
     668                            .dwattr $C$DW$46, DW_AT_decl_file("../Application/MAC/HAL/target/hal_rtc_wrapper.c")
     669                            .dwattr $C$DW$46, DW_AT_decl_line(0x170)
     670                            .dwattr $C$DW$46, DW_AT_decl_column(0x06)
     671                            .dwattr $C$DW$46, DW_AT_TI_max_frame_size(0x00)
     672                            .dwpsn  file "../Application/MAC/HAL/target/hal_rtc_wrapper.c",line 369,column 1,is_stmt,addre
     673                    
     674                            .dwfde $C$DW$CIE, halSetRtcIntFlag
     675                    $C$DW$47        .dwtag  DW_TAG_formal_parameter
     676                            .dwattr $C$DW$47, DW_AT_name("rtcChan")
     677                            .dwattr $C$DW$47, DW_AT_TI_symbol_name("rtcChan")
     678                            .dwattr $C$DW$47, DW_AT_type(*$C$DW$T$10)
     679                            .dwattr $C$DW$47, DW_AT_location[DW_OP_reg0]
     680                    
     681                    
     682                    ;*****************************************************************************
     683                    ;* FUNCTION NAME: halSetRtcIntFlag                                           *
     684                    ;*                                                                           *
     685                    ;*   Regs Modified     : A1,A2,SR                                            *
     686                    ;*   Regs Used         : A1,A2,LR,SR                                         *
     687                    ;*   Local Frame Size  : 0 Args + 0 Auto + 0 Save = 0 byte                   *
     688                    ;*****************************************************************************
     689                    halSetRtcIntFlag:
     690                    ;* --------------------------------------------------------------------------*
     691                    ;* A1    assigned to rtcChan
     692                    $C$DW$48        .dwtag  DW_TAG_variable
     693                            .dwattr $C$DW$48, DW_AT_name("rtcChan")
     694                            .dwattr $C$DW$48, DW_AT_TI_symbol_name("rtcChan")
     695                            .dwattr $C$DW$48, DW_AT_type(*$C$DW$T$949)
     696                            .dwattr $C$DW$48, DW_AT_location[DW_OP_reg0]
     697                    
     698                            .dwcfi  cfa_offset, 0
     699                            .dwpsn  file "../Application/MAC/HAL/target/hal_rtc_wrapper.c",line 373,column 5,is_stmt,isa 1
     700 00000000 4906              LDR       A2, $C$CON18          ; [DPU_V7M3_PIPE] |373|  ; [ORIG 16-BIT INS]
     701                            .dwpsn  file "../Application/MAC/HAL/target/hal_rtc_wrapper.c",line 371,column 3,is_stmt,isa 1
     702 00000002 2801              CMP       A1, #1                ; [DPU_V7M3_PIPE] |371|  ; [ORIG 16-BIT INS]
     703 00000004 D005              BEQ       ||$C$L18||            ; [DPU_V7M3_PIPE] |371|  ; [ORIG 16-BIT INS]
     704                            ; BRANCHCC OCCURS {||$C$L18||}   ; [] |371| 
     705                    ;* --------------------------------------------------------------------------*
     706                            .dwpsn  file "../Application/MAC/HAL/target/hal_rtc_wrapper.c",line 375,column 8,is_stmt,isa 1
     707 00000006 2802              CMP       A1, #2                ; [DPU_V7M3_PIPE] |375|  ; [ORIG 16-BIT INS]
     708 00000008 BF1A              ITTE      NE                    ; [DPU_V7M3_PIPE]  ; [ORIG 16-BIT INS]
     709                            .dwpsn  file "../Application/MAC/HAL/target/hal_rtc_wrapper.c",line 381,column 5,is_stmt,isa 1
     710 0000000a 1C08              MOVNE     A1, A2                ; [DPU_V7M3_PIPE] |381|  ; [ORIG 16-BIT INS]
     711 0000000c 1C40              ADDNE     A1, A1, #1            ; [DPU_V7M3_PIPE]  ; [ORIG 16-BIT INS]
     712                            .dwpsn  file "../Application/MAC/HAL/target/hal_rtc_wrapper.c",line 377,column 5,is_stmt,isa 1
     713 0000000e 1C08              MOVEQ     A1, A2                ; [DPU_V7M3_PIPE] |377|  ; [ORIG 16-BIT INS]
     714                            .dwpsn  file "../Application/MAC/HAL/target/hal_rtc_wrapper.c",line 378,column 3,is_stmt,isa 1
     715 00000010 E001              B         ||$C$L19||            ; [DPU_V7M3_PIPE] |378|  ; [ORIG 16-BIT INS]
TI ARM Assembler PC v18.1.3 Wed Nov 28 13:22:06 2018

Tools Copyright (c) 1996-2017 Texas Instruments Incorporated
C:\Users\Adrian\AppData\Local\Temp\{8ACD377C-A10A-4D34-8C0A-1BFA051003CA} PAGE   14

     716                            ; BRANCH OCCURS {||$C$L19||}     ; [] |378| 
     717                    ;* --------------------------------------------------------------------------*
     718 00000012           ||$C$L18||:    
     719                            .dwpsn  file "../Application/MAC/HAL/target/hal_rtc_wrapper.c",line 373,column 5,is_stmt,isa 1
     720 00000012 4608              MOV       A1, A2                ; [DPU_V7M3_PIPE] |373|  ; [ORIG 16-BIT INS]
     721 00000014 1E40              SUBS      A1, A1, #1            ; [DPU_V7M3_PIPE]  ; [ORIG 16-BIT INS]
     722                    ;* --------------------------------------------------------------------------*
     723 00000016           ||$C$L19||:    
     724 00000016 2101              MOVS      A2, #1                ; [DPU_V7M3_PIPE] |373|  ; [ORIG 16-BIT INS]
     725 00000018 7001              STRB      A2, [A1, #0]          ; [DPU_V7M3_PIPE] |373|  ; [ORIG 16-BIT INS]
     726                    $C$DW$49        .dwtag  DW_TAG_TI_branch
     727                            .dwattr $C$DW$49, DW_AT_low_pc(0x00)
     728                            .dwattr $C$DW$49, DW_AT_TI_return
     729                    
     730 0000001a 4770              BX        LR                    ; [DPU_V7M3_PIPE]  ; [ORIG 16-BIT INS]
     731                            ; BRANCH OCCURS                  ; [] 
     732                            .dwattr $C$DW$46, DW_AT_TI_end_file("../Application/MAC/HAL/target/hal_rtc_wrapper.c")
     733                            .dwattr $C$DW$46, DW_AT_TI_end_line(0x181)
     734                            .dwattr $C$DW$46, DW_AT_TI_end_column(0x01)
     735                            .dwendentry
     736                            .dwendtag $C$DW$46
     737                    
     738 00000000                   .sect   ".text:halRtcTimerDelta"
     739                            .clink
     740                            .thumbfunc halRtcTimerDelta
     741 00000000                   .thumb
     742                            .global halRtcTimerDelta
     743                    
     744                    $C$DW$50        .dwtag  DW_TAG_subprogram
     745                            .dwattr $C$DW$50, DW_AT_name("halRtcTimerDelta")
     746                            .dwattr $C$DW$50, DW_AT_low_pc(halRtcTimerDelta)
     747                            .dwattr $C$DW$50, DW_AT_high_pc(0x00)
     748                            .dwattr $C$DW$50, DW_AT_TI_symbol_name("halRtcTimerDelta")
     749                            .dwattr $C$DW$50, DW_AT_external
     750                            .dwattr $C$DW$50, DW_AT_type(*$C$DW$T$767)
     751                            .dwattr $C$DW$50, DW_AT_TI_begin_file("../Application/MAC/HAL/target/hal_rtc_wrapper.c")
     752                            .dwattr $C$DW$50, DW_AT_TI_begin_line(0x1bb)
     753                            .dwattr $C$DW$50, DW_AT_TI_begin_column(0x08)
     754                            .dwattr $C$DW$50, DW_AT_decl_file("../Application/MAC/HAL/target/hal_rtc_wrapper.c")
     755                            .dwattr $C$DW$50, DW_AT_decl_line(0x1bb)
     756                            .dwattr $C$DW$50, DW_AT_decl_column(0x08)
     757                            .dwattr $C$DW$50, DW_AT_TI_max_frame_size(0x18)
     758                            .dwpsn  file "../Application/MAC/HAL/target/hal_rtc_wrapper.c",line 444,column 1,is_stmt,addre
     759                    
     760                            .dwfde $C$DW$CIE, halRtcTimerDelta
     761                    $C$DW$51        .dwtag  DW_TAG_formal_parameter
     762                            .dwattr $C$DW$51, DW_AT_name("time1")
     763                            .dwattr $C$DW$51, DW_AT_TI_symbol_name("time1")
     764                            .dwattr $C$DW$51, DW_AT_type(*$C$DW$T$767)
     765                            .dwattr $C$DW$51, DW_AT_location[DW_OP_reg0]
     766                    
     767                    $C$DW$52        .dwtag  DW_TAG_formal_parameter
     768                            .dwattr $C$DW$52, DW_AT_name("time2")
     769                            .dwattr $C$DW$52, DW_AT_TI_symbol_name("time2")
     770                            .dwattr $C$DW$52, DW_AT_type(*$C$DW$T$767)
TI ARM Assembler PC v18.1.3 Wed Nov 28 13:22:06 2018

Tools Copyright (c) 1996-2017 Texas Instruments Incorporated
C:\Users\Adrian\AppData\Local\Temp\{8ACD377C-A10A-4D34-8C0A-1BFA051003CA} PAGE   15

     771                            .dwattr $C$DW$52, DW_AT_location[DW_OP_reg1]
     772                    
     773                    
     774                    ;*****************************************************************************
     775                    ;* FUNCTION NAME: halRtcTimerDelta                                           *
     776                    ;*                                                                           *
     777                    ;*   Regs Modified     : A1,A2,A3,A4,V1,V2,V3,V4,V9,SP,LR,SR                 *
     778                    ;*   Regs Used         : A1,A2,A3,A4,V1,V2,V3,V4,V9,SP,LR,SR                 *
     779                    ;*   Local Frame Size  : 0 Args + 0 Auto + 20 Save = 20 byte                 *
     780                    ;*****************************************************************************
     781                    halRtcTimerDelta:
     782                    ;* --------------------------------------------------------------------------*
     783                    ;* V1    assigned to $O$K3
     784                    ;* V4    assigned to $O$K6
     785                    ;* V1    assigned to $O$K19
     786                    ;* A1    assigned to time1
     787                    $C$DW$53        .dwtag  DW_TAG_variable
     788                            .dwattr $C$DW$53, DW_AT_name("time1")
     789                            .dwattr $C$DW$53, DW_AT_TI_symbol_name("time1")
     790                            .dwattr $C$DW$53, DW_AT_type(*$C$DW$T$1290)
     791                            .dwattr $C$DW$53, DW_AT_location[DW_OP_reg0]
     792                    
     793                    ;* A2    assigned to time2
     794                    $C$DW$54        .dwtag  DW_TAG_variable
     795                            .dwattr $C$DW$54, DW_AT_name("time2")
     796                            .dwattr $C$DW$54, DW_AT_TI_symbol_name("time2")
     797                            .dwattr $C$DW$54, DW_AT_type(*$C$DW$T$1290)
     798                            .dwattr $C$DW$54, DW_AT_location[DW_OP_reg1]
     799                    
     800                    ;* V1    assigned to sec1
     801                    $C$DW$55        .dwtag  DW_TAG_variable
     802                            .dwattr $C$DW$55, DW_AT_name("sec1")
     803                            .dwattr $C$DW$55, DW_AT_TI_symbol_name("sec1")
     804                            .dwattr $C$DW$55, DW_AT_type(*$C$DW$T$767)
     805                            .dwattr $C$DW$55, DW_AT_location[DW_OP_reg4]
     806                    
     807                    ;* V4    assigned to subsec1
     808                    $C$DW$56        .dwtag  DW_TAG_variable
     809                            .dwattr $C$DW$56, DW_AT_name("subsec1")
     810                            .dwattr $C$DW$56, DW_AT_TI_symbol_name("subsec1")
     811                            .dwattr $C$DW$56, DW_AT_type(*$C$DW$T$767)
     812                            .dwattr $C$DW$56, DW_AT_location[DW_OP_reg7]
     813                    
     814                    ;* V3    assigned to sec2
     815                    $C$DW$57        .dwtag  DW_TAG_variable
     816                            .dwattr $C$DW$57, DW_AT_name("sec2")
     817                            .dwattr $C$DW$57, DW_AT_TI_symbol_name("sec2")
     818                            .dwattr $C$DW$57, DW_AT_type(*$C$DW$T$767)
     819                            .dwattr $C$DW$57, DW_AT_location[DW_OP_reg6]
     820                    
     821                    ;* V2    assigned to subsec2
     822                    $C$DW$58        .dwtag  DW_TAG_variable
     823                            .dwattr $C$DW$58, DW_AT_name("subsec2")
     824                            .dwattr $C$DW$58, DW_AT_TI_symbol_name("subsec2")
     825                            .dwattr $C$DW$58, DW_AT_type(*$C$DW$T$767)
TI ARM Assembler PC v18.1.3 Wed Nov 28 13:22:06 2018

Tools Copyright (c) 1996-2017 Texas Instruments Incorporated
C:\Users\Adrian\AppData\Local\Temp\{8ACD377C-A10A-4D34-8C0A-1BFA051003CA} PAGE   16

     826                            .dwattr $C$DW$58, DW_AT_location[DW_OP_reg5]
     827                    
     828                            .dwcfi  cfa_offset, 0
     829 00000000 B5F8              PUSH      {A4, V1, V2, V3, V4, LR} ; [DPU_V7M3_PIPE]  ; [ORIG 16-BIT INS]
     830                            .dwcfi  cfa_offset, 24
     831                            .dwcfi  save_reg_to_mem, 14, -4
     832                            .dwcfi  save_reg_to_mem, 7, -8
     833                            .dwcfi  save_reg_to_mem, 6, -12
     834                            .dwcfi  save_reg_to_mem, 5, -16
     835                            .dwcfi  save_reg_to_mem, 4, -20
     836                            .dwcfi  save_reg_to_mem, 3, -24
     837                            .dwpsn  file "../Application/MAC/HAL/target/hal_rtc_wrapper.c",line 445,column 18,is_stmt,isa 
     838 00000002 0C04              LSRS      V1, A1, #16           ; [DPU_V7M3_PIPE] |445|  ; [ORIG 16-BIT INS]
     839                            .dwpsn  file "../Application/MAC/HAL/target/hal_rtc_wrapper.c",line 446,column 18,is_stmt,isa 
     840 00000004 0400              LSLS      A1, A1, #16           ; [DPU_V7M3_PIPE] |446|  ; [ORIG 16-BIT INS]
     841 00000006 0C07              LSRS      V4, A1, #16           ; [DPU_V7M3_PIPE] |446|  ; [ORIG 16-BIT INS]
     842                            .dwpsn  file "../Application/MAC/HAL/target/hal_rtc_wrapper.c",line 448,column 18,is_stmt,isa 
     843 00000008 0408              LSLS      A1, A2, #16           ; [DPU_V7M3_PIPE] |448|  ; [ORIG 16-BIT INS]
     844 0000000a 0C05              LSRS      V2, A1, #16           ; [DPU_V7M3_PIPE] |448|  ; [ORIG 16-BIT INS]
     845                            .dwpsn  file "../Application/MAC/HAL/target/hal_rtc_wrapper.c",line 451,column 3,is_stmt,isa 1
     846 0000000c 4813              LDR       A1, $C$CON21          ; [DPU_V7M3_PIPE] |451|  ; [ORIG 16-BIT INS]
     847 0000000e 6800              LDR       A1, [A1, #0]          ; [DPU_V7M3_PIPE] |451|  ; [ORIG 16-BIT INS]
     848                            .dwpsn  file "../Application/MAC/HAL/target/hal_rtc_wrapper.c",line 447,column 18,is_stmt,isa 
     849 00000010 0C0E              LSRS      V3, A2, #16           ; [DPU_V7M3_PIPE] |447|  ; [ORIG 16-BIT INS]
     850                            .dwpsn  file "../Application/MAC/HAL/target/hal_rtc_wrapper.c",line 451,column 3,is_stmt,isa 1
     851                    $C$DW$59        .dwtag  DW_TAG_TI_branch
     852                            .dwattr $C$DW$59, DW_AT_low_pc(0x00)
     853                            .dwattr $C$DW$59, DW_AT_TI_call
     854                            .dwattr $C$DW$59, DW_AT_TI_indirect
     855                    
     856 00000012 4780              BLX       A1                    ; [DPU_V7M3_PIPE] |451|  ; [ORIG 16-BIT INS]
     857                            ; CALL OCCURS {}                 ; [] |451| 
     858                            .dwpsn  file "../Application/MAC/HAL/target/hal_rtc_wrapper.c",line 454,column 3,is_stmt,isa 1
     859 00000014 42B4              CMP       V1, V3                ; [DPU_V7M3_PIPE] |454|  ; [ORIG 16-BIT INS]
     860 00000016 D30F              BCC       ||$C$L21||            ; [DPU_V7M3_PIPE] |454|  ; [ORIG 16-BIT INS]
     861                            ; BRANCHCC OCCURS {||$C$L21||}   ; [] |454| 
     862                    ;* --------------------------------------------------------------------------*
     863                            .dwpsn  file "../Application/MAC/HAL/target/hal_rtc_wrapper.c",line 476,column 5,is_stmt,isa 1
     864 00000018 3480F5C4          RSB       V1, V1, #65536        ; [DPU_V7M3_PIPE] |476|  ; [KEEP 32-BIT INS]
     865 0000001c B117              CBZ       V4, ||$C$L20||        ; []  ; [ORIG 16-BIT INS]
     866                            .dwpsn  file "../Application/MAC/HAL/target/hal_rtc_wrapper.c",line 482,column 7,is_stmt,isa 1
     867 0000001e 1E64              SUBS      V1, V1, #1            ; [DPU_V7M3_PIPE] |482|  ; [ORIG 16-BIT INS]
     868                            .dwpsn  file "../Application/MAC/HAL/target/hal_rtc_wrapper.c",line 485,column 7,is_stmt,isa 1
     869 00000020 3780F5C7          RSB       V4, V4, #65536        ; [DPU_V7M3_PIPE] |485|  ; [KEEP 32-BIT INS]
     870                    ;* --------------------------------------------------------------------------*
     871 00000024           ||$C$L20||:    
     872                            .dwpsn  file "../Application/MAC/HAL/target/hal_rtc_wrapper.c",line 492,column 5,is_stmt,isa 1
     873 00000024 71FFF64F          MOV       A2, #65535            ; [DPU_V7M3_PIPE] |492|  ; [KEEP 32-BIT INS]
     874 00000028 197F              ADDS      V4, V4, V2            ; [DPU_V7M3_PIPE] |492|  ; [ORIG 16-BIT INS]
     875                            .dwpsn  file "../Application/MAC/HAL/target/hal_rtc_wrapper.c",line 489,column 5,is_stmt,isa 1
     876 0000002a 19A4              ADDS      V1, V1, V3            ; [DPU_V7M3_PIPE] |489|  ; [ORIG 16-BIT INS]
     877                            .dwpsn  file "../Application/MAC/HAL/target/hal_rtc_wrapper.c",line 492,column 5,is_stmt,isa 1
     878 0000002c 42B9              CMP       A2, V4                ; [DPU_V7M3_PIPE] |492|  ; [ORIG 16-BIT INS]
     879 0000002e BF3C              ITT       CC                    ; [DPU_V7M3_PIPE]  ; [ORIG 16-BIT INS]
     880                            .dwpsn  file "../Application/MAC/HAL/target/hal_rtc_wrapper.c",line 498,column 7,is_stmt,isa 1
TI ARM Assembler PC v18.1.3 Wed Nov 28 13:22:06 2018

Tools Copyright (c) 1996-2017 Texas Instruments Incorporated
C:\Users\Adrian\AppData\Local\Temp\{8ACD377C-A10A-4D34-8C0A-1BFA051003CA} PAGE   17

     881 00000030 1C64              ADDCC     V1, V1, #1            ; [DPU_V7M3_PIPE] |498|  ; [ORIG 16-BIT INS]
     882                            .dwpsn  file "../Application/MAC/HAL/target/hal_rtc_wrapper.c",line 501,column 7,is_stmt,isa 1
     883 00000032 3780F5A7          SUBCC     V4, V4, #65536        ; [DPU_V7M3_PIPE] |501|  ; [KEEP 32-BIT INS]
     884 00000036 E009              B         ||$C$L23||            ; [DPU_V7M3_PIPE] |501|  ; [ORIG 16-BIT INS]
     885                            ; BRANCH OCCURS {||$C$L23||}     ; [] |501| 
     886                    ;* --------------------------------------------------------------------------*
     887 00000038           ||$C$L21||:    
     888                            .dwpsn  file "../Application/MAC/HAL/target/hal_rtc_wrapper.c",line 457,column 5,is_stmt,isa 1
     889 00000038 42AF              CMP       V4, V2                ; [DPU_V7M3_PIPE] |457|  ; [ORIG 16-BIT INS]
     890 0000003a D905              BLS       ||$C$L22||            ; [DPU_V7M3_PIPE] |457|  ; [ORIG 16-BIT INS]
     891                            ; BRANCHCC OCCURS {||$C$L22||}   ; [] |457| 
     892                    ;* --------------------------------------------------------------------------*
     893                            .dwpsn  file "../Application/MAC/HAL/target/hal_rtc_wrapper.c",line 469,column 7,is_stmt,isa 1
     894 0000003c 1B34              SUBS      V1, V3, V1            ; [DPU_V7M3_PIPE] |469|  ; [ORIG 16-BIT INS]
     895                            .dwpsn  file "../Application/MAC/HAL/target/hal_rtc_wrapper.c",line 470,column 7,is_stmt,isa 1
     896 0000003e 1BEF              SUBS      V4, V2, V4            ; [DPU_V7M3_PIPE] |470|  ; [ORIG 16-BIT INS]
     897                            .dwpsn  file "../Application/MAC/HAL/target/hal_rtc_wrapper.c",line 469,column 7,is_stmt,isa 1
     898 00000040 1E64              SUBS      V1, V1, #1            ; [DPU_V7M3_PIPE] |469|  ; [ORIG 16-BIT INS]
     899                            .dwpsn  file "../Application/MAC/HAL/target/hal_rtc_wrapper.c",line 470,column 7,is_stmt,isa 1
     900 00000042 3780F507          ADD       V4, V4, #65536        ; [DPU_V7M3_PIPE] |470|  ; [KEEP 32-BIT INS]
     901 00000046 E001              B         ||$C$L23||            ; [DPU_V7M3_PIPE] |470|  ; [ORIG 16-BIT INS]
     902                            ; BRANCH OCCURS {||$C$L23||}     ; [] |470| 
     903                    ;* --------------------------------------------------------------------------*
     904 00000048           ||$C$L22||:    
     905                            .dwpsn  file "../Application/MAC/HAL/target/hal_rtc_wrapper.c",line 460,column 7,is_stmt,isa 1
     906 00000048 1B34              SUBS      V1, V3, V1            ; [DPU_V7M3_PIPE] |460|  ; [ORIG 16-BIT INS]
     907                            .dwpsn  file "../Application/MAC/HAL/target/hal_rtc_wrapper.c",line 461,column 7,is_stmt,isa 1
     908 0000004a 1BEF              SUBS      V4, V2, V4            ; [DPU_V7M3_PIPE] |461|  ; [ORIG 16-BIT INS]
     909                    ;* --------------------------------------------------------------------------*
     910 0000004c           ||$C$L23||:    
     911                            .dwpsn  file "../Application/MAC/HAL/target/hal_rtc_wrapper.c",line 505,column 3,is_stmt,isa 1
     912 0000004c 4904              LDR       A2, $C$CON22          ; [DPU_V7M3_PIPE] |505|  ; [ORIG 16-BIT INS]
     913 0000004e 6809              LDR       A2, [A2, #0]          ; [DPU_V7M3_PIPE] |505|  ; [ORIG 16-BIT INS]
     914                    $C$DW$60        .dwtag  DW_TAG_TI_branch
     915                            .dwattr $C$DW$60, DW_AT_low_pc(0x00)
     916                            .dwattr $C$DW$60, DW_AT_TI_call
     917                            .dwattr $C$DW$60, DW_AT_TI_indirect
     918                    
     919 00000050 4788              BLX       A2                    ; [DPU_V7M3_PIPE] |505|  ; [ORIG 16-BIT INS]
     920                            ; CALL OCCURS {}                 ; [] |505| 
     921 00000052 0438              LSLS      A1, V4, #16           ; [DPU_V7M3_PIPE]  ; [ORIG 16-BIT INS]
     922 00000054 0C00              LSRS      A1, A1, #16           ; [DPU_V7M3_PIPE]  ; [ORIG 16-BIT INS]
     923                            .dwpsn  file "../Application/MAC/HAL/target/hal_rtc_wrapper.c",line 508,column 3,is_stmt,isa 1
     924 00000056 4004EA40          ORR       A1, A1, V1, LSL #16   ; [DPU_V7M3_PIPE] |508|  ; [KEEP 32-BIT INS]
     925                    $C$DW$61        .dwtag  DW_TAG_TI_branch
     926                            .dwattr $C$DW$61, DW_AT_low_pc(0x00)
     927                            .dwattr $C$DW$61, DW_AT_TI_return
     928                    
     929 0000005a BDF8              POP       {A4, V1, V2, V3, V4, PC} ; [DPU_V7M3_PIPE]  ; [ORIG 16-BIT INS]
     930                            .dwcfi  cfa_offset, 0
     931                            .dwcfi  restore_reg, 7
     932                            .dwcfi  restore_reg, 6
     933                            .dwcfi  restore_reg, 5
     934                            .dwcfi  restore_reg, 4
     935                            .dwcfi  restore_reg, 3
TI ARM Assembler PC v18.1.3 Wed Nov 28 13:22:06 2018

Tools Copyright (c) 1996-2017 Texas Instruments Incorporated
C:\Users\Adrian\AppData\Local\Temp\{8ACD377C-A10A-4D34-8C0A-1BFA051003CA} PAGE   18

     936                            ; BRANCH OCCURS                  ; [] 
     937                            .dwattr $C$DW$50, DW_AT_TI_end_file("../Application/MAC/HAL/target/hal_rtc_wrapper.c")
     938                            .dwattr $C$DW$50, DW_AT_TI_end_line(0x1fd)
     939                            .dwattr $C$DW$50, DW_AT_TI_end_column(0x01)
     940                            .dwendentry
     941                            .dwendtag $C$DW$50
     942                    
     943 00000000                   .sect   ".text:halRtcTimerCompare"
     944                            .clink
     945                            .thumbfunc halRtcTimerCompare
     946 00000000                   .thumb
     947                            .global halRtcTimerCompare
     948                    
     949                    $C$DW$62        .dwtag  DW_TAG_subprogram
     950                            .dwattr $C$DW$62, DW_AT_name("halRtcTimerCompare")
     951                            .dwattr $C$DW$62, DW_AT_low_pc(halRtcTimerCompare)
     952                            .dwattr $C$DW$62, DW_AT_high_pc(0x00)
     953                            .dwattr $C$DW$62, DW_AT_TI_symbol_name("halRtcTimerCompare")
     954                            .dwattr $C$DW$62, DW_AT_external
     955                            .dwattr $C$DW$62, DW_AT_type(*$C$DW$T$767)
     956                            .dwattr $C$DW$62, DW_AT_TI_begin_file("../Application/MAC/HAL/target/hal_rtc_wrapper.c")
     957                            .dwattr $C$DW$62, DW_AT_TI_begin_line(0x214)
     958                            .dwattr $C$DW$62, DW_AT_TI_begin_column(0x08)
     959                            .dwattr $C$DW$62, DW_AT_decl_file("../Application/MAC/HAL/target/hal_rtc_wrapper.c")
     960                            .dwattr $C$DW$62, DW_AT_decl_line(0x214)
     961                            .dwattr $C$DW$62, DW_AT_decl_column(0x08)
     962                            .dwattr $C$DW$62, DW_AT_TI_max_frame_size(0x00)
     963                            .dwpsn  file "../Application/MAC/HAL/target/hal_rtc_wrapper.c",line 533,column 1,is_stmt,addre
     964                    
     965                            .dwfde $C$DW$CIE, halRtcTimerCompare
     966                    $C$DW$63        .dwtag  DW_TAG_formal_parameter
     967                            .dwattr $C$DW$63, DW_AT_name("time1")
     968                            .dwattr $C$DW$63, DW_AT_TI_symbol_name("time1")
     969                            .dwattr $C$DW$63, DW_AT_type(*$C$DW$T$767)
     970                            .dwattr $C$DW$63, DW_AT_location[DW_OP_reg0]
     971                    
     972                    $C$DW$64        .dwtag  DW_TAG_formal_parameter
     973                            .dwattr $C$DW$64, DW_AT_name("time2")
     974                            .dwattr $C$DW$64, DW_AT_TI_symbol_name("time2")
     975                            .dwattr $C$DW$64, DW_AT_type(*$C$DW$T$767)
     976                            .dwattr $C$DW$64, DW_AT_location[DW_OP_reg1]
     977                    
     978                    
     979                    ;*****************************************************************************
     980                    ;* FUNCTION NAME: halRtcTimerCompare                                         *
     981                    ;*                                                                           *
     982                    ;*   Regs Modified     : A1,SR                                               *
     983                    ;*   Regs Used         : A1,LR,SR                                            *
     984                    ;*   Local Frame Size  : 0 Args + 0 Auto + 0 Save = 0 byte                   *
     985                    ;*****************************************************************************
     986 00000000           halRtcTimerCompare:
     987                    ;* --------------------------------------------------------------------------*
     988                            .dwcfi  cfa_offset, 0
     989                            .dwpsn  file "../Application/MAC/HAL/target/hal_rtc_wrapper.c",line 534,column 3,is_stmt,isa 1
     990 00000000 2001              MOVS      A1, #1                ; [DPU_V7M3_PIPE] |534|  ; [ORIG 16-BIT INS]
TI ARM Assembler PC v18.1.3 Wed Nov 28 13:22:06 2018

Tools Copyright (c) 1996-2017 Texas Instruments Incorporated
C:\Users\Adrian\AppData\Local\Temp\{8ACD377C-A10A-4D34-8C0A-1BFA051003CA} PAGE   19

     991                    $C$DW$65        .dwtag  DW_TAG_TI_branch
     992                            .dwattr $C$DW$65, DW_AT_low_pc(0x00)
     993                            .dwattr $C$DW$65, DW_AT_TI_return
     994                    
     995 00000002 4770              BX        LR                    ; [DPU_V7M3_PIPE]  ; [ORIG 16-BIT INS]
     996                            ; BRANCH OCCURS                  ; [] 
     997                            .dwattr $C$DW$62, DW_AT_TI_end_file("../Application/MAC/HAL/target/hal_rtc_wrapper.c")
     998                            .dwattr $C$DW$62, DW_AT_TI_end_line(0x217)
     999                            .dwattr $C$DW$62, DW_AT_TI_end_column(0x01)
    1000                            .dwendentry
    1001                            .dwendtag $C$DW$62
    1002                    
    1003 00000000                   .sect   ".text:halRtcRegIntCBack"
    1004                            .clink
    1005                            .thumbfunc halRtcRegIntCBack
    1006 00000000                   .thumb
    1007                            .global halRtcRegIntCBack
    1008                    
    1009                    $C$DW$66        .dwtag  DW_TAG_subprogram
    1010                            .dwattr $C$DW$66, DW_AT_name("halRtcRegIntCBack")
    1011                            .dwattr $C$DW$66, DW_AT_low_pc(halRtcRegIntCBack)
    1012                            .dwattr $C$DW$66, DW_AT_high_pc(0x00)
    1013                            .dwattr $C$DW$66, DW_AT_TI_symbol_name("halRtcRegIntCBack")
    1014                            .dwattr $C$DW$66, DW_AT_external
    1015                            .dwattr $C$DW$66, DW_AT_TI_begin_file("../Application/MAC/HAL/target/hal_rtc_wrapper.c")
    1016                            .dwattr $C$DW$66, DW_AT_TI_begin_line(0x22c)
    1017                            .dwattr $C$DW$66, DW_AT_TI_begin_column(0x06)
    1018                            .dwattr $C$DW$66, DW_AT_decl_file("../Application/MAC/HAL/target/hal_rtc_wrapper.c")
    1019                            .dwattr $C$DW$66, DW_AT_decl_line(0x22c)
    1020                            .dwattr $C$DW$66, DW_AT_decl_column(0x06)
    1021                            .dwattr $C$DW$66, DW_AT_TI_max_frame_size(0x00)
    1022                            .dwpsn  file "../Application/MAC/HAL/target/hal_rtc_wrapper.c",line 557,column 1,is_stmt,addre
    1023                    
    1024                            .dwfde $C$DW$CIE, halRtcRegIntCBack
    1025                    $C$DW$67        .dwtag  DW_TAG_formal_parameter
    1026                            .dwattr $C$DW$67, DW_AT_name("rtcChan")
    1027                            .dwattr $C$DW$67, DW_AT_TI_symbol_name("rtcChan")
    1028                            .dwattr $C$DW$67, DW_AT_type(*$C$DW$T$10)
    1029                            .dwattr $C$DW$67, DW_AT_location[DW_OP_reg0]
    1030                    
    1031                    $C$DW$68        .dwtag  DW_TAG_formal_parameter
    1032                            .dwattr $C$DW$68, DW_AT_name("rtcCback")
    1033                            .dwattr $C$DW$68, DW_AT_TI_symbol_name("rtcCback")
    1034                            .dwattr $C$DW$68, DW_AT_type(*$C$DW$T$740)
    1035                            .dwattr $C$DW$68, DW_AT_location[DW_OP_reg1]
    1036                    
    1037                    
    1038                    ;*****************************************************************************
    1039                    ;* FUNCTION NAME: halRtcRegIntCBack                                          *
    1040                    ;*                                                                           *
    1041                    ;*   Regs Modified     : A1,A3,SR                                            *
    1042                    ;*   Regs Used         : A1,A2,A3,LR,SR                                      *
    1043                    ;*   Local Frame Size  : 0 Args + 0 Auto + 0 Save = 0 byte                   *
    1044                    ;*****************************************************************************
    1045                    halRtcRegIntCBack:
TI ARM Assembler PC v18.1.3 Wed Nov 28 13:22:06 2018

Tools Copyright (c) 1996-2017 Texas Instruments Incorporated
C:\Users\Adrian\AppData\Local\Temp\{8ACD377C-A10A-4D34-8C0A-1BFA051003CA} PAGE   20

    1046                    ;* --------------------------------------------------------------------------*
    1047                    ;* A3    assigned to rtcChan
    1048                    $C$DW$69        .dwtag  DW_TAG_variable
    1049                            .dwattr $C$DW$69, DW_AT_name("rtcChan")
    1050                            .dwattr $C$DW$69, DW_AT_TI_symbol_name("rtcChan")
    1051                            .dwattr $C$DW$69, DW_AT_type(*$C$DW$T$949)
    1052                            .dwattr $C$DW$69, DW_AT_location[DW_OP_reg2]
    1053                    
    1054                    ;* A2    assigned to rtcCback
    1055                    $C$DW$70        .dwtag  DW_TAG_variable
    1056                            .dwattr $C$DW$70, DW_AT_name("rtcCback")
    1057                            .dwattr $C$DW$70, DW_AT_TI_symbol_name("rtcCback")
    1058                            .dwattr $C$DW$70, DW_AT_type(*$C$DW$T$742)
    1059                            .dwattr $C$DW$70, DW_AT_location[DW_OP_reg1]
    1060                    
    1061                            .dwcfi  cfa_offset, 0
    1062 00000000 4602              MOV       A3, A1                ; [DPU_V7M3_PIPE] |557|  ; [ORIG 16-BIT INS]
    1063                            .dwpsn  file "../Application/MAC/HAL/target/hal_rtc_wrapper.c",line 561,column 5,is_stmt,isa 1
    1064 00000002 4805              LDR       A1, $C$CON24          ; [DPU_V7M3_PIPE] |561|  ; [ORIG 16-BIT INS]
    1065                            .dwpsn  file "../Application/MAC/HAL/target/hal_rtc_wrapper.c",line 559,column 3,is_stmt,isa 1
    1066 00000004 2A01              CMP       A3, #1                ; [DPU_V7M3_PIPE] |559|  ; [ORIG 16-BIT INS]
    1067 00000006 D003              BEQ       ||$C$L24||            ; [DPU_V7M3_PIPE] |559|  ; [ORIG 16-BIT INS]
    1068                            ; BRANCHCC OCCURS {||$C$L24||}   ; [] |559| 
    1069                    ;* --------------------------------------------------------------------------*
    1070                            .dwpsn  file "../Application/MAC/HAL/target/hal_rtc_wrapper.c",line 563,column 8,is_stmt,isa 1
    1071 00000008 2A02              CMP       A3, #2                ; [DPU_V7M3_PIPE] |563|  ; [ORIG 16-BIT INS]
    1072 0000000a BF18              IT        NE                    ; [DPU_V7M3_PIPE]  ; [ORIG 16-BIT INS]
    1073 0000000c 1D00              ADDNE     A1, A1, #4            ; [DPU_V7M3_PIPE]  ; [ORIG 16-BIT INS]
    1074                            .dwpsn  file "../Application/MAC/HAL/target/hal_rtc_wrapper.c",line 569,column 5,is_stmt,isa 1
    1075 0000000e E000              B         ||$C$L25||            ; [DPU_V7M3_PIPE] |569|  ; [ORIG 16-BIT INS]
    1076                            ; BRANCH OCCURS {||$C$L25||}     ; [] |569| 
    1077                    ;* --------------------------------------------------------------------------*
    1078 00000010           ||$C$L24||:    
    1079 00000010 1F00              SUBS      A1, A1, #4            ; [DPU_V7M3_PIPE]  ; [ORIG 16-BIT INS]
    1080                    ;* --------------------------------------------------------------------------*
    1081 00000012           ||$C$L25||:    
    1082                            .dwpsn  file "../Application/MAC/HAL/target/hal_rtc_wrapper.c",line 561,column 5,is_stmt,isa 1
    1083 00000012 6001              STR       A2, [A1, #0]          ; [DPU_V7M3_PIPE] |561|  ; [ORIG 16-BIT INS]
    1084                    $C$DW$71        .dwtag  DW_TAG_TI_branch
    1085                            .dwattr $C$DW$71, DW_AT_low_pc(0x00)
    1086                            .dwattr $C$DW$71, DW_AT_TI_return
    1087                    
    1088 00000014 4770              BX        LR                    ; [DPU_V7M3_PIPE]  ; [ORIG 16-BIT INS]
    1089                            ; BRANCH OCCURS                  ; [] 
    1090                            .dwattr $C$DW$66, DW_AT_TI_end_file("../Application/MAC/HAL/target/hal_rtc_wrapper.c")
    1091                            .dwattr $C$DW$66, DW_AT_TI_end_line(0x23d)
    1092                            .dwattr $C$DW$66, DW_AT_TI_end_column(0x01)
    1093                            .dwendentry
    1094                            .dwendtag $C$DW$66
    1095                    
    1096 00000000                   .sect   ".text:halReadRtcTimer"
    1097                            .clink
    1098                            .thumbfunc halReadRtcTimer
    1099 00000000                   .thumb
    1100                            .global halReadRtcTimer
TI ARM Assembler PC v18.1.3 Wed Nov 28 13:22:06 2018

Tools Copyright (c) 1996-2017 Texas Instruments Incorporated
C:\Users\Adrian\AppData\Local\Temp\{8ACD377C-A10A-4D34-8C0A-1BFA051003CA} PAGE   21

    1101                    
    1102                    $C$DW$72        .dwtag  DW_TAG_subprogram
    1103                            .dwattr $C$DW$72, DW_AT_name("halReadRtcTimer")
    1104                            .dwattr $C$DW$72, DW_AT_low_pc(halReadRtcTimer)
    1105                            .dwattr $C$DW$72, DW_AT_high_pc(0x00)
    1106                            .dwattr $C$DW$72, DW_AT_TI_symbol_name("halReadRtcTimer")
    1107                            .dwattr $C$DW$72, DW_AT_external
    1108                            .dwattr $C$DW$72, DW_AT_type(*$C$DW$T$767)
    1109                            .dwattr $C$DW$72, DW_AT_TI_begin_file("../Application/MAC/HAL/target/hal_rtc_wrapper.c")
    1110                            .dwattr $C$DW$72, DW_AT_TI_begin_line(0x120)
    1111                            .dwattr $C$DW$72, DW_AT_TI_begin_column(0x08)
    1112                            .dwattr $C$DW$72, DW_AT_decl_file("../Application/MAC/HAL/target/hal_rtc_wrapper.c")
    1113                            .dwattr $C$DW$72, DW_AT_decl_line(0x120)
    1114                            .dwattr $C$DW$72, DW_AT_decl_column(0x08)
    1115                            .dwattr $C$DW$72, DW_AT_TI_max_frame_size(0x10)
    1116                            .dwpsn  file "../Application/MAC/HAL/target/hal_rtc_wrapper.c",line 289,column 1,is_stmt,addre
    1117                    
    1118                            .dwfde $C$DW$CIE, halReadRtcTimer
    1119                    
    1120                    ;*****************************************************************************
    1121                    ;* FUNCTION NAME: halReadRtcTimer                                            *
    1122                    ;*                                                                           *
    1123                    ;*   Regs Modified     : A1,A2,A3,A4,V1,V2,V9,SP,LR,SR                       *
    1124                    ;*   Regs Used         : A1,A2,A3,A4,V1,V2,V9,SP,LR,SR                       *
    1125                    ;*   Local Frame Size  : 0 Args + 0 Auto + 12 Save = 12 byte                 *
    1126                    ;*****************************************************************************
    1127                    halReadRtcTimer:
    1128                    ;* --------------------------------------------------------------------------*
    1129                    ;* A2    assigned to $O$K6
    1130                    ;* A3    assigned to $O$R1
    1131                    ;* V1    assigned to secTime
    1132                    $C$DW$73        .dwtag  DW_TAG_variable
    1133                            .dwattr $C$DW$73, DW_AT_name("secTime")
    1134                            .dwattr $C$DW$73, DW_AT_TI_symbol_name("secTime")
    1135                            .dwattr $C$DW$73, DW_AT_type(*$C$DW$T$767)
    1136                            .dwattr $C$DW$73, DW_AT_location[DW_OP_reg4]
    1137                    
    1138                    ;* V2    assigned to fracTime
    1139                    $C$DW$74        .dwtag  DW_TAG_variable
    1140                            .dwattr $C$DW$74, DW_AT_name("fracTime")
    1141                            .dwattr $C$DW$74, DW_AT_TI_symbol_name("fracTime")
    1142                            .dwattr $C$DW$74, DW_AT_type(*$C$DW$T$767)
    1143                            .dwattr $C$DW$74, DW_AT_location[DW_OP_reg5]
    1144                    
    1145                            .dwcfi  cfa_offset, 0
    1146                            .dwpsn  file "../Application/MAC/HAL/target/hal_rtc_wrapper.c",line 294,column 3,is_stmt,isa 1
    1147 00000000 4808              LDR       A1, $C$CON26          ; [DPU_V7M3_PIPE] |294|  ; [ORIG 16-BIT INS]
    1148 00000002 B538              PUSH      {A4, V1, V2, LR}      ; [DPU_V7M3_PIPE]  ; [ORIG 16-BIT INS]
    1149                            .dwcfi  cfa_offset, 16
    1150                            .dwcfi  save_reg_to_mem, 14, -4
    1151                            .dwcfi  save_reg_to_mem, 5, -8
    1152                            .dwcfi  save_reg_to_mem, 4, -12
    1153                            .dwcfi  save_reg_to_mem, 3, -16
    1154 00000004 6800              LDR       A1, [A1, #0]          ; [DPU_V7M3_PIPE] |294|  ; [ORIG 16-BIT INS]
    1155                    $C$DW$75        .dwtag  DW_TAG_TI_branch
TI ARM Assembler PC v18.1.3 Wed Nov 28 13:22:06 2018

Tools Copyright (c) 1996-2017 Texas Instruments Incorporated
C:\Users\Adrian\AppData\Local\Temp\{8ACD377C-A10A-4D34-8C0A-1BFA051003CA} PAGE   22

    1156                            .dwattr $C$DW$75, DW_AT_low_pc(0x00)
    1157                            .dwattr $C$DW$75, DW_AT_TI_call
    1158                            .dwattr $C$DW$75, DW_AT_TI_indirect
    1159                    
    1160 00000006 4780              BLX       A1                    ; [DPU_V7M3_PIPE] |294|  ; [ORIG 16-BIT INS]
    1161                            ; CALL OCCURS {}                 ; [] |294| 
    1162 00000008 4907              LDR       A2, $C$CON27          ; [DPU_V7M3_PIPE]  ; [ORIG 16-BIT INS]
    1163                    ;* --------------------------------------------------------------------------*
    1164                    ;*   BEGIN LOOP ||$C$L26||
    1165                    ;*
    1166                    ;*   Loop source line                : 294
    1167                    ;*   Loop closing brace source line  : 294
    1168                    ;*   Known Minimum Trip Count        : 1
    1169                    ;*   Known Maximum Trip Count        : 4294967295
    1170                    ;*   Known Max Trip Count Factor     : 1
    1171                    ;* --------------------------------------------------------------------------*
    1172 0000000a           ||$C$L26||:    
    1173                            .dwpsn  file "C:/ti/simplelink_cc13x0_sdk_2_30_00_20/source/ti/devices/cc13x0/driverlib/aon_rt
    1174 0000000a 680C              LDR       V1, [A2, #0]          ; [DPU_V7M3_PIPE] |461|  ; [ORIG 16-BIT INS]
    1175                            .dwpsn  file "C:/ti/simplelink_cc13x0_sdk_2_30_00_20/source/ti/devices/cc13x0/driverlib/aon_rt
    1176 0000000c 684A              LDR       A3, [A2, #4]          ; [DPU_V7M3_PIPE] |493|  ; [ORIG 16-BIT INS]
    1177                            .dwpsn  file "C:/ti/simplelink_cc13x0_sdk_2_30_00_20/source/ti/devices/cc13x0/driverlib/aon_rt
    1178 0000000e 680A              LDR       A3, [A2, #0]          ; [DPU_V7M3_PIPE] |461|  ; [ORIG 16-BIT INS]
    1179                            .dwpsn  file "../Application/MAC/HAL/target/hal_rtc_wrapper.c",line 306,column 12,is_stmt,isa 
    1180 00000010 4294              CMP       V1, A3                ; [DPU_V7M3_PIPE] |306|  ; [ORIG 16-BIT INS]
    1181 00000012 D1FA              BNE       ||$C$L26||            ; [DPU_V7M3_PIPE] |306|  ; [ORIG 16-BIT INS]
    1182                            ; BRANCHCC OCCURS {||$C$L26||}   ; [] |306| 
    1183                    ;* --------------------------------------------------------------------------*
    1184                            .dwpsn  file "C:/ti/simplelink_cc13x0_sdk_2_30_00_20/source/ti/devices/cc13x0/driverlib/aon_rt
    1185 00000014 684D              LDR       V2, [A2, #4]          ; [DPU_V7M3_PIPE] |493|  ; [ORIG 16-BIT INS]
    1186                            .dwpsn  file "../Application/MAC/HAL/target/hal_rtc_wrapper.c",line 311,column 3,is_stmt,isa 1
    1187 00000016 4905              LDR       A2, $C$CON29          ; [DPU_V7M3_PIPE] |311|  ; [ORIG 16-BIT INS]
    1188 00000018 6809              LDR       A2, [A2, #0]          ; [DPU_V7M3_PIPE] |311|  ; [ORIG 16-BIT INS]
    1189                    $C$DW$76        .dwtag  DW_TAG_TI_branch
    1190                            .dwattr $C$DW$76, DW_AT_low_pc(0x00)
    1191                            .dwattr $C$DW$76, DW_AT_TI_call
    1192                            .dwattr $C$DW$76, DW_AT_TI_indirect
    1193                    
    1194 0000001a 4788              BLX       A2                    ; [DPU_V7M3_PIPE] |311|  ; [ORIG 16-BIT INS]
    1195                            ; CALL OCCURS {}                 ; [] |311| 
    1196                            .dwpsn  file "../Application/MAC/HAL/target/hal_rtc_wrapper.c",line 314,column 3,is_stmt,isa 1
    1197 0000001c 0420              LSLS      A1, V1, #16           ; [DPU_V7M3_PIPE] |314|  ; [ORIG 16-BIT INS]
    1198 0000001e 4015EA40          ORR       A1, A1, V2, LSR #16   ; [DPU_V7M3_PIPE] |314|  ; [KEEP 32-BIT INS]
    1199                    $C$DW$77        .dwtag  DW_TAG_TI_branch
    1200                            .dwattr $C$DW$77, DW_AT_low_pc(0x00)
    1201                            .dwattr $C$DW$77, DW_AT_TI_return
    1202                    
    1203 00000022 BD38              POP       {A4, V1, V2, PC}      ; [DPU_V7M3_PIPE]  ; [ORIG 16-BIT INS]
    1204                            .dwcfi  cfa_offset, 0
    1205                            .dwcfi  restore_reg, 5
    1206                            .dwcfi  restore_reg, 4
    1207                            .dwcfi  restore_reg, 3
    1208                            ; BRANCH OCCURS                  ; [] 
    1209                            .dwattr $C$DW$72, DW_AT_TI_end_file("../Application/MAC/HAL/target/hal_rtc_wrapper.c")
    1210                            .dwattr $C$DW$72, DW_AT_TI_end_line(0x13b)
TI ARM Assembler PC v18.1.3 Wed Nov 28 13:22:06 2018

Tools Copyright (c) 1996-2017 Texas Instruments Incorporated
C:\Users\Adrian\AppData\Local\Temp\{8ACD377C-A10A-4D34-8C0A-1BFA051003CA} PAGE   23

    1211                            .dwattr $C$DW$72, DW_AT_TI_end_column(0x01)
    1212                            .dwendentry
    1213                            .dwendtag $C$DW$72
    1214                    
    1215 00000000                   .sect   ".text:halInitRTC"
    1216                            .clink
    1217                            .thumbfunc halInitRTC
    1218 00000000                   .thumb
    1219                            .global halInitRTC
    1220                    
    1221                    $C$DW$78        .dwtag  DW_TAG_subprogram
    1222                            .dwattr $C$DW$78, DW_AT_name("halInitRTC")
    1223                            .dwattr $C$DW$78, DW_AT_low_pc(halInitRTC)
    1224                            .dwattr $C$DW$78, DW_AT_high_pc(0x00)
    1225                            .dwattr $C$DW$78, DW_AT_TI_symbol_name("halInitRTC")
    1226                            .dwattr $C$DW$78, DW_AT_external
    1227                            .dwattr $C$DW$78, DW_AT_TI_begin_file("../Application/MAC/HAL/target/hal_rtc_wrapper.c")
    1228                            .dwattr $C$DW$78, DW_AT_TI_begin_line(0x74)
    1229                            .dwattr $C$DW$78, DW_AT_TI_begin_column(0x06)
    1230                            .dwattr $C$DW$78, DW_AT_decl_file("../Application/MAC/HAL/target/hal_rtc_wrapper.c")
    1231                            .dwattr $C$DW$78, DW_AT_decl_line(0x74)
    1232                            .dwattr $C$DW$78, DW_AT_decl_column(0x06)
    1233                            .dwattr $C$DW$78, DW_AT_TI_max_frame_size(0x18)
    1234                            .dwpsn  file "../Application/MAC/HAL/target/hal_rtc_wrapper.c",line 117,column 1,is_stmt,addre
    1235                    
    1236                            .dwfde $C$DW$CIE, halInitRTC
    1237                    
    1238                    ;*****************************************************************************
    1239                    ;* FUNCTION NAME: halInitRTC                                                 *
    1240                    ;*                                                                           *
    1241                    ;*   Regs Modified     : A1,A2,A3,A4,V1,V2,V3,V4,V9,SP,LR,SR                 *
    1242                    ;*   Regs Used         : A1,A2,A3,A4,V1,V2,V3,V4,V9,SP,LR,SR                 *
    1243                    ;*   Local Frame Size  : 0 Args + 0 Auto + 20 Save = 20 byte                 *
    1244                    ;*****************************************************************************
    1245                    halInitRTC:
    1246                    ;* --------------------------------------------------------------------------*
    1247                    ;* V3    assigned to $O$C1
    1248                    ;* V2    assigned to $O$C2
    1249                    ;* A4    assigned to $O$C3
    1250                    ;* A1    assigned to $O$C4
    1251                    ;* V1    assigned to $O$C5
    1252                    ;* V4    assigned to cs
    1253                    $C$DW$79        .dwtag  DW_TAG_variable
    1254                            .dwattr $C$DW$79, DW_AT_name("cs")
    1255                            .dwattr $C$DW$79, DW_AT_TI_symbol_name("cs")
    1256                            .dwattr $C$DW$79, DW_AT_type(*$C$DW$T$1132)
    1257                            .dwattr $C$DW$79, DW_AT_location[DW_OP_reg7]
    1258                    
    1259                    ;* A1    assigned to ui32Cfg
    1260                    $C$DW$80        .dwtag  DW_TAG_variable
    1261                            .dwattr $C$DW$80, DW_AT_name("ui32Cfg")
    1262                            .dwattr $C$DW$80, DW_AT_TI_symbol_name("ui32Cfg")
    1263                            .dwattr $C$DW$80, DW_AT_type(*$C$DW$T$146)
    1264                            .dwattr $C$DW$80, DW_AT_location[DW_OP_reg0]
    1265                    
TI ARM Assembler PC v18.1.3 Wed Nov 28 13:22:06 2018

Tools Copyright (c) 1996-2017 Texas Instruments Incorporated
C:\Users\Adrian\AppData\Local\Temp\{8ACD377C-A10A-4D34-8C0A-1BFA051003CA} PAGE   24

    1266                    ;* A1    assigned to ui32Cfg
    1267                    $C$DW$81        .dwtag  DW_TAG_variable
    1268                            .dwattr $C$DW$81, DW_AT_name("ui32Cfg")
    1269                            .dwattr $C$DW$81, DW_AT_TI_symbol_name("ui32Cfg")
    1270                            .dwattr $C$DW$81, DW_AT_type(*$C$DW$T$146)
    1271                            .dwattr $C$DW$81, DW_AT_location[DW_OP_reg0]
    1272                    
    1273                            .dwcfi  cfa_offset, 0
    1274                            .dwpsn  file "../Application/MAC/HAL/target/hal_rtc_wrapper.c",line 120,column 3,is_stmt,isa 1
    1275 00000000 4829              LDR       A1, $C$CON36          ; [DPU_V7M3_PIPE] |120|  ; [ORIG 16-BIT INS]
    1276 00000002 B5F8              PUSH      {A4, V1, V2, V3, V4, LR} ; [DPU_V7M3_PIPE]  ; [ORIG 16-BIT INS]
    1277                            .dwcfi  cfa_offset, 24
    1278                            .dwcfi  save_reg_to_mem, 14, -4
    1279                            .dwcfi  save_reg_to_mem, 7, -8
    1280                            .dwcfi  save_reg_to_mem, 6, -12
    1281                            .dwcfi  save_reg_to_mem, 5, -16
    1282                            .dwcfi  save_reg_to_mem, 4, -20
    1283                            .dwcfi  save_reg_to_mem, 3, -24
    1284 00000004 6800              LDR       A1, [A1, #0]          ; [DPU_V7M3_PIPE] |120|  ; [ORIG 16-BIT INS]
    1285                    $C$DW$82        .dwtag  DW_TAG_TI_branch
    1286                            .dwattr $C$DW$82, DW_AT_low_pc(0x00)
    1287                            .dwattr $C$DW$82, DW_AT_TI_call
    1288                            .dwattr $C$DW$82, DW_AT_TI_indirect
    1289                    
    1290 00000006 4780              BLX       A1                    ; [DPU_V7M3_PIPE] |120|  ; [ORIG 16-BIT INS]
    1291                            ; CALL OCCURS {}                 ; [] |120| 
    1292 00000008 4607              MOV       V4, A1                ; [DPU_V7M3_PIPE] |120|  ; [ORIG 16-BIT INS]
    1293                            .dwpsn  file "../Application/MAC/HAL/target/hal_rtc_wrapper.c",line 123,column 3,is_stmt,isa 1
    1294 0000000a 2014              MOVS      A1, #20               ; [DPU_V7M3_PIPE] |123|  ; [ORIG 16-BIT INS]
    1295                    $C$DW$83        .dwtag  DW_TAG_TI_branch
    1296                            .dwattr $C$DW$83, DW_AT_low_pc(0x00)
    1297                            .dwattr $C$DW$83, DW_AT_name("ti_sysbios_hal_Hwi_disableInterrupt__E")
    1298                            .dwattr $C$DW$83, DW_AT_TI_call
    1299                    
    1300 0000000c FFFEF7FF!         BL        ti_sysbios_hal_Hwi_disableInterrupt__E ; [DPU_V7M3_PIPE] |123|  ; [KEEP 32-BIT INS]
    1301                            ; CALL OCCURS {ti_sysbios_hal_Hwi_disableInterrupt__E }  ; [] |123| 
    1302                            .dwpsn  file "C:/ti/simplelink_cc13x0_sdk_2_30_00_20/source/ti/devices/cc13x0/driverlib/aon_rt
    1303 00000010 4E21              LDR       V3, $C$CON31          ; [DPU_V7M3_PIPE] |214|  ; [ORIG 16-BIT INS]
    1304 00000012 2501              MOVS      V2, #1                ; [DPU_V7M3_PIPE] |214|  ; [ORIG 16-BIT INS]
    1305                            .dwpsn  file "C:/ti/simplelink_cc13x0_sdk_2_30_00_20/source/ti/devices/cc13x0/driverlib/aon_rt
    1306 00000014 2400              MOVS      V1, #0                ; [DPU_V7M3_PIPE] |700|  ; [ORIG 16-BIT INS]
    1307                            .dwpsn  file "C:/ti/simplelink_cc13x0_sdk_2_30_00_20/source/ti/devices/cc13x0/driverlib/aon_rt
    1308 00000016 6035              STR       V2, [V3, #0]          ; [DPU_V7M3_PIPE] |214|  ; [ORIG 16-BIT INS]
    1309                            .dwpsn  file "C:/ti/simplelink_cc13x0_sdk_2_30_00_20/source/ti/devices/cc13x0/driverlib/aon_rt
    1310 00000018 4B24              LDR       A4, $C$CON37          ; [DPU_V7M3_PIPE] |377|  ; [ORIG 16-BIT INS]
    1311                            .dwpsn  file "C:/ti/simplelink_cc13x0_sdk_2_30_00_20/source/ti/devices/cc13x0/driverlib/aon_rt
    1312 0000001a 4264F8C6          STR       V1, [V3, #612]        ; [DPU_V7M3_PIPE] |700|  ; [KEEP 32-BIT INS]
    1313 0000001e 1F1B              SUBS      A4, A4, #4            ; [DPU_V7M3_PIPE]  ; [ORIG 16-BIT INS]
    1314                            .dwpsn  file "C:/ti/simplelink_cc13x0_sdk_2_30_00_20/source/ti/devices/cc13x0/driverlib/aon_rt
    1315 00000020 601D              STR       V2, [A4, #0]          ; [DPU_V7M3_PIPE] |377|  ; [ORIG 16-BIT INS]
    1316                            .dwpsn  file "C:/ti/simplelink_cc13x0_sdk_2_30_00_20/source/ti/devices/cc13x0/driverlib/aon_rt
    1317 00000022 481E              LDR       A1, $C$CON33          ; [DPU_V7M3_PIPE] |705|  ; [ORIG 16-BIT INS]
    1318 00000024 6204              STR       V1, [A1, #32]         ; [DPU_V7M3_PIPE] |705|  ; [ORIG 16-BIT INS]
    1319                            .dwpsn  file "C:/ti/simplelink_cc13x0_sdk_2_30_00_20/source/ti/devices/cc13x0/driverlib/aon_rt
    1320 00000026 7180F44F          MOV       A2, #256              ; [DPU_V7M3_PIPE] |382|  ; [KEEP 32-BIT INS]
TI ARM Assembler PC v18.1.3 Wed Nov 28 13:22:06 2018

Tools Copyright (c) 1996-2017 Texas Instruments Incorporated
C:\Users\Adrian\AppData\Local\Temp\{8ACD377C-A10A-4D34-8C0A-1BFA051003CA} PAGE   25

    1321 0000002a 6019              STR       A2, [A4, #0]          ; [DPU_V7M3_PIPE] |382|  ; [ORIG 16-BIT INS]
    1322                            .dwpsn  file "C:/ti/simplelink_cc13x0_sdk_2_30_00_20/source/ti/devices/cc13x0/driverlib/aon_rt
    1323 0000002c 6404              STR       V1, [A1, #64]         ; [DPU_V7M3_PIPE] |710|  ; [ORIG 16-BIT INS]
    1324                            .dwpsn  file "C:/ti/simplelink_cc13x0_sdk_2_30_00_20/source/ti/devices/cc13x0/driverlib/aon_rt
    1325 0000002e 3080F44F          MOV       A1, #65536            ; [DPU_V7M3_PIPE] |387|  ; [KEEP 32-BIT INS]
    1326 00000032 6018              STR       A1, [A4, #0]          ; [DPU_V7M3_PIPE] |387|  ; [ORIG 16-BIT INS]
    1327 00000034 4628              MOV       A1, V2                ; [DPU_V7M3_PIPE] |387|  ; [ORIG 16-BIT INS]
    1328                            .dwpsn  file "../Application/MAC/HAL/target/hal_rtc_wrapper.c",line 144,column 3,is_stmt,isa 1
    1329                    $C$DW$84        .dwtag  DW_TAG_TI_branch
    1330                            .dwattr $C$DW$84, DW_AT_low_pc(0x00)
    1331                            .dwattr $C$DW$84, DW_AT_name("halClrRtcIntFlag")
    1332                            .dwattr $C$DW$84, DW_AT_TI_call
    1333                    
    1334 00000036 FFFEF7FF!         BL        halClrRtcIntFlag      ; [DPU_V7M3_PIPE] |144|  ; [KEEP 32-BIT INS]
    1335                            ; CALL OCCURS {halClrRtcIntFlag }  ; [] |144| 
    1336                            .dwpsn  file "../Application/MAC/HAL/target/hal_rtc_wrapper.c",line 145,column 3,is_stmt,isa 1
    1337 0000003a 2002              MOVS      A1, #2                ; [DPU_V7M3_PIPE] |145|  ; [ORIG 16-BIT INS]
    1338                    $C$DW$85        .dwtag  DW_TAG_TI_branch
    1339                            .dwattr $C$DW$85, DW_AT_low_pc(0x00)
    1340                            .dwattr $C$DW$85, DW_AT_name("halClrRtcIntFlag")
    1341                            .dwattr $C$DW$85, DW_AT_TI_call
    1342                    
    1343 0000003c FFFEF7FF!         BL        halClrRtcIntFlag      ; [DPU_V7M3_PIPE] |145|  ; [KEEP 32-BIT INS]
    1344                            ; CALL OCCURS {halClrRtcIntFlag }  ; [] |145| 
    1345                            .dwpsn  file "../Application/MAC/HAL/target/hal_rtc_wrapper.c",line 146,column 3,is_stmt,isa 1
    1346 00000040 2004              MOVS      A1, #4                ; [DPU_V7M3_PIPE] |146|  ; [ORIG 16-BIT INS]
    1347                    $C$DW$86        .dwtag  DW_TAG_TI_branch
    1348                            .dwattr $C$DW$86, DW_AT_low_pc(0x00)
    1349                            .dwattr $C$DW$86, DW_AT_name("halClrRtcIntFlag")
    1350                            .dwattr $C$DW$86, DW_AT_TI_call
    1351                    
    1352 00000042 FFFEF7FF!         BL        halClrRtcIntFlag      ; [DPU_V7M3_PIPE] |146|  ; [KEEP 32-BIT INS]
    1353                            ; CALL OCCURS {halClrRtcIntFlag }  ; [] |146| 
    1354 00000046 4628              MOV       A1, V2                ; [DPU_V7M3_PIPE] |146|  ; [ORIG 16-BIT INS]
    1355 00000048 4621              MOV       A2, V1                ; [DPU_V7M3_PIPE] |146|  ; [ORIG 16-BIT INS]
    1356                            .dwpsn  file "../Application/MAC/HAL/target/hal_rtc_wrapper.c",line 149,column 3,is_stmt,isa 1
    1357                    $C$DW$87        .dwtag  DW_TAG_TI_branch
    1358                            .dwattr $C$DW$87, DW_AT_low_pc(0x00)
    1359                            .dwattr $C$DW$87, DW_AT_name("halRtcRegIntCBack")
    1360                            .dwattr $C$DW$87, DW_AT_TI_call
    1361                    
    1362 0000004a FFFEF7FF!         BL        halRtcRegIntCBack     ; [DPU_V7M3_PIPE] |149|  ; [KEEP 32-BIT INS]
    1363                            ; CALL OCCURS {halRtcRegIntCBack }  ; [] |149| 
    1364                    ;* --------------------------------------------------------------------------*
    1365                            .dwpsn  file "../Application/MAC/HAL/target/hal_rtc_wrapper.c",line 150,column 3,is_stmt,isa 1
    1366 0000004e 2002              MOVS      A1, #2                ; [DPU_V7M3_PIPE] |150|  ; [ORIG 16-BIT INS]
    1367                    $C$DW$88        .dwtag  DW_TAG_TI_branch
    1368                            .dwattr $C$DW$88, DW_AT_low_pc(0x00)
    1369                            .dwattr $C$DW$88, DW_AT_name("halRtcRegIntCBack")
    1370                            .dwattr $C$DW$88, DW_AT_TI_call
    1371                    
    1372 00000050 FFFEF7FF!         BL        halRtcRegIntCBack     ; [DPU_V7M3_PIPE] |150|  ; [KEEP 32-BIT INS]
    1373                            ; CALL OCCURS {halRtcRegIntCBack }  ; [] |150| 
    1374                            .dwpsn  file "../Application/MAC/HAL/target/hal_rtc_wrapper.c",line 151,column 3,is_stmt,isa 1
    1375 00000054 2004              MOVS      A1, #4                ; [DPU_V7M3_PIPE] |151|  ; [ORIG 16-BIT INS]
TI ARM Assembler PC v18.1.3 Wed Nov 28 13:22:06 2018

Tools Copyright (c) 1996-2017 Texas Instruments Incorporated
C:\Users\Adrian\AppData\Local\Temp\{8ACD377C-A10A-4D34-8C0A-1BFA051003CA} PAGE   26

    1376                    $C$DW$89        .dwtag  DW_TAG_TI_branch
    1377                            .dwattr $C$DW$89, DW_AT_low_pc(0x00)
    1378                            .dwattr $C$DW$89, DW_AT_name("halRtcRegIntCBack")
    1379                            .dwattr $C$DW$89, DW_AT_TI_call
    1380                    
    1381 00000056 FFFEF7FF!         BL        halRtcRegIntCBack     ; [DPU_V7M3_PIPE] |151|  ; [KEEP 32-BIT INS]
    1382                            ; CALL OCCURS {halRtcRegIntCBack }  ; [] |151| 
    1383                            .dwpsn  file "C:/ti/simplelink_cc13x0_sdk_2_30_00_20/source/ti/devices/cc13x0/driverlib/aon_rt
    1384 0000005a 0C04F853          LDR       A1, [A4, #-4]         ; [DPU_V7M3_PIPE] |310|  ; [KEEP 32-BIT INS]
    1385                            .dwpsn  file "C:/ti/simplelink_cc13x0_sdk_2_30_00_20/source/ti/devices/cc13x0/driverlib/aon_rt
    1386 0000005e 6070F420          BIC       A1, A1, #3840         ; [DPU_V7M3_PIPE] |314|  ; [KEEP 32-BIT INS]
    1387                            .dwpsn  file "../Application/MAC/HAL/target/hal_rtc_wrapper.c",line 164,column 3,is_stmt,isa 1
    1388 00000062 490F              LDR       A2, $C$CON34          ; [DPU_V7M3_PIPE] |164|  ; [ORIG 16-BIT INS]
    1389                            .dwpsn  file "C:/ti/simplelink_cc13x0_sdk_2_30_00_20/source/ti/devices/cc13x0/driverlib/aon_rt
    1390 00000064 0C04F843          STR       A1, [A4, #-4]         ; [DPU_V7M3_PIPE] |314|  ; [KEEP 32-BIT INS]
    1391                            .dwpsn  file "C:/ti/simplelink_cc13x0_sdk_2_30_00_20/source/ti/devices/cc13x0/driverlib/aon_rt
    1392 00000068 0C04F853          LDR       A1, [A4, #-4]         ; [DPU_V7M3_PIPE] |345|  ; [KEEP 32-BIT INS]
    1393                            .dwpsn  file "C:/ti/simplelink_cc13x0_sdk_2_30_00_20/source/ti/devices/cc13x0/driverlib/aon_rt
    1394 0000006c 2080F420          BIC       A1, A1, #262144       ; [DPU_V7M3_PIPE] |346|  ; [KEEP 32-BIT INS]
    1395 00000070 3040F440          ORR       A1, A1, #196608       ; [DPU_V7M3_PIPE] |346|  ; [KEEP 32-BIT INS]
    1396                            .dwpsn  file "C:/ti/simplelink_cc13x0_sdk_2_30_00_20/source/ti/devices/cc13x0/driverlib/aon_rt
    1397 00000074 0C04F843          STR       A1, [A4, #-4]         ; [DPU_V7M3_PIPE] |349|  ; [KEEP 32-BIT INS]
    1398                            .dwpsn  file "../Application/MAC/HAL/target/hal_rtc_wrapper.c",line 164,column 3,is_stmt,isa 1
    1399 00000078 6808              LDR       A1, [A2, #0]          ; [DPU_V7M3_PIPE] |164|  ; [ORIG 16-BIT INS]
    1400 0000007a 6802              LDR       A3, [A1, #0]          ; [DPU_V7M3_PIPE] |164|  ; [ORIG 16-BIT INS]
    1401 0000007c 2123              MOVS      A2, #35               ; [DPU_V7M3_PIPE] |164|  ; [ORIG 16-BIT INS]
    1402 0000007e 4620              MOV       A1, V1                ; [DPU_V7M3_PIPE] |164|  ; [ORIG 16-BIT INS]
    1403                    $C$DW$90        .dwtag  DW_TAG_TI_branch
    1404                            .dwattr $C$DW$90, DW_AT_low_pc(0x00)
    1405                            .dwattr $C$DW$90, DW_AT_TI_call
    1406                            .dwattr $C$DW$90, DW_AT_TI_indirect
    1407                    
    1408 00000080 4790              BLX       A3                    ; [DPU_V7M3_PIPE] |164|  ; [ORIG 16-BIT INS]
    1409                            ; CALL OCCURS {}                 ; [] |164| 
    1410                            .dwpsn  file "C:/ti/simplelink_cc13x0_sdk_2_30_00_20/source/ti/devices/cc13x0/driverlib/aon_rt
    1411 00000082 5C1CF846          STR       V2, [V3, #-28]        ; [DPU_V7M3_PIPE] |177|  ; [KEEP 32-BIT INS]
    1412                            .dwpsn  file "../Application/MAC/HAL/target/hal_rtc_wrapper.c",line 171,column 3,is_stmt,isa 1
    1413 00000086 2014              MOVS      A1, #20               ; [DPU_V7M3_PIPE] |171|  ; [ORIG 16-BIT INS]
    1414                    $C$DW$91        .dwtag  DW_TAG_TI_branch
    1415                            .dwattr $C$DW$91, DW_AT_low_pc(0x00)
    1416                            .dwattr $C$DW$91, DW_AT_name("ti_sysbios_hal_Hwi_enableInterrupt__E")
    1417                            .dwattr $C$DW$91, DW_AT_TI_call
    1418                    
    1419 00000088 FFFEF7FF!         BL        ti_sysbios_hal_Hwi_enableInterrupt__E ; [DPU_V7M3_PIPE] |171|  ; [KEEP 32-BIT INS]
    1420                            ; CALL OCCURS {ti_sysbios_hal_Hwi_enableInterrupt__E }  ; [] |171| 
    1421                            .dwpsn  file "../Application/MAC/HAL/target/hal_rtc_wrapper.c",line 173,column 3,is_stmt,isa 1
    1422 0000008c 4805              LDR       A1, $C$CON35          ; [DPU_V7M3_PIPE] |173|  ; [ORIG 16-BIT INS]
    1423 0000008e 6801              LDR       A2, [A1, #0]          ; [DPU_V7M3_PIPE] |173|  ; [ORIG 16-BIT INS]
    1424 00000090 4638              MOV       A1, V4                ; [DPU_V7M3_PIPE] |173|  ; [ORIG 16-BIT INS]
    1425                    $C$DW$92        .dwtag  DW_TAG_TI_branch
    1426                            .dwattr $C$DW$92, DW_AT_low_pc(0x00)
    1427                            .dwattr $C$DW$92, DW_AT_TI_call
    1428                            .dwattr $C$DW$92, DW_AT_TI_indirect
    1429                    
    1430 00000092 4788              BLX       A2                    ; [DPU_V7M3_PIPE] |173|  ; [ORIG 16-BIT INS]
TI ARM Assembler PC v18.1.3 Wed Nov 28 13:22:06 2018

Tools Copyright (c) 1996-2017 Texas Instruments Incorporated
C:\Users\Adrian\AppData\Local\Temp\{8ACD377C-A10A-4D34-8C0A-1BFA051003CA} PAGE   27

    1431                            ; CALL OCCURS {}                 ; [] |173| 
    1432                    $C$DW$93        .dwtag  DW_TAG_TI_branch
    1433                            .dwattr $C$DW$93, DW_AT_low_pc(0x00)
    1434                            .dwattr $C$DW$93, DW_AT_TI_return
    1435                    
    1436 00000094 BDF8              POP       {A4, V1, V2, V3, V4, PC} ; [DPU_V7M3_PIPE]  ; [ORIG 16-BIT INS]
    1437                            .dwcfi  cfa_offset, 0
    1438                            .dwcfi  restore_reg, 7
    1439                            .dwcfi  restore_reg, 6
    1440                            .dwcfi  restore_reg, 5
    1441                            .dwcfi  restore_reg, 4
    1442                            .dwcfi  restore_reg, 3
    1443                            ; BRANCH OCCURS                  ; [] 
    1444                            .dwattr $C$DW$78, DW_AT_TI_end_file("../Application/MAC/HAL/target/hal_rtc_wrapper.c")
    1445                            .dwattr $C$DW$78, DW_AT_TI_end_line(0xb0)
    1446                            .dwattr $C$DW$78, DW_AT_TI_end_column(0x01)
    1447                            .dwendentry
    1448                            .dwendtag $C$DW$78
    1449                    
    1450 00000000                   .sect   ".text:halGetRtcIntFlag"
    1451                            .clink
    1452                            .thumbfunc halGetRtcIntFlag
    1453 00000000                   .thumb
    1454                            .global halGetRtcIntFlag
    1455                    
    1456                    $C$DW$94        .dwtag  DW_TAG_subprogram
    1457                            .dwattr $C$DW$94, DW_AT_name("halGetRtcIntFlag")
    1458                            .dwattr $C$DW$94, DW_AT_low_pc(halGetRtcIntFlag)
    1459                            .dwattr $C$DW$94, DW_AT_high_pc(0x00)
    1460                            .dwattr $C$DW$94, DW_AT_TI_symbol_name("halGetRtcIntFlag")
    1461                            .dwattr $C$DW$94, DW_AT_external
    1462                            .dwattr $C$DW$94, DW_AT_type(*$C$DW$T$771)
    1463                            .dwattr $C$DW$94, DW_AT_TI_begin_file("../Application/MAC/HAL/target/hal_rtc_wrapper.c")
    1464                            .dwattr $C$DW$94, DW_AT_TI_begin_line(0x14e)
    1465                            .dwattr $C$DW$94, DW_AT_TI_begin_column(0x07)
    1466                            .dwattr $C$DW$94, DW_AT_decl_file("../Application/MAC/HAL/target/hal_rtc_wrapper.c")
    1467                            .dwattr $C$DW$94, DW_AT_decl_line(0x14e)
    1468                            .dwattr $C$DW$94, DW_AT_decl_column(0x07)
    1469                            .dwattr $C$DW$94, DW_AT_TI_max_frame_size(0x00)
    1470                            .dwpsn  file "../Application/MAC/HAL/target/hal_rtc_wrapper.c",line 335,column 1,is_stmt,addre
    1471                    
    1472                            .dwfde $C$DW$CIE, halGetRtcIntFlag
    1473                    $C$DW$95        .dwtag  DW_TAG_formal_parameter
    1474                            .dwattr $C$DW$95, DW_AT_name("rtcChan")
    1475                            .dwattr $C$DW$95, DW_AT_TI_symbol_name("rtcChan")
    1476                            .dwattr $C$DW$95, DW_AT_type(*$C$DW$T$10)
    1477                            .dwattr $C$DW$95, DW_AT_location[DW_OP_reg0]
    1478                    
    1479                    
    1480                    ;*****************************************************************************
    1481                    ;* FUNCTION NAME: halGetRtcIntFlag                                           *
    1482                    ;*                                                                           *
    1483                    ;*   Regs Modified     : A1,A2,SR                                            *
    1484                    ;*   Regs Used         : A1,A2,LR,SR                                         *
    1485                    ;*   Local Frame Size  : 0 Args + 0 Auto + 0 Save = 0 byte                   *
TI ARM Assembler PC v18.1.3 Wed Nov 28 13:22:06 2018

Tools Copyright (c) 1996-2017 Texas Instruments Incorporated
C:\Users\Adrian\AppData\Local\Temp\{8ACD377C-A10A-4D34-8C0A-1BFA051003CA} PAGE   28

    1486                    ;*****************************************************************************
    1487                    halGetRtcIntFlag:
    1488                    ;* --------------------------------------------------------------------------*
    1489                    ;* A1    assigned to rtcChan
    1490                    $C$DW$96        .dwtag  DW_TAG_variable
    1491                            .dwattr $C$DW$96, DW_AT_name("rtcChan")
    1492                            .dwattr $C$DW$96, DW_AT_TI_symbol_name("rtcChan")
    1493                            .dwattr $C$DW$96, DW_AT_type(*$C$DW$T$949)
    1494                            .dwattr $C$DW$96, DW_AT_location[DW_OP_reg0]
    1495                    
    1496                            .dwcfi  cfa_offset, 0
    1497                            .dwpsn  file "../Application/MAC/HAL/target/hal_rtc_wrapper.c",line 339,column 5,is_stmt,isa 1
    1498 00000000 4906              LDR       A2, $C$CON38          ; [DPU_V7M3_PIPE] |339|  ; [ORIG 16-BIT INS]
    1499 00000002 2801              CMP       A1, #1                ; [DPU_V7M3_PIPE] |339|  ; [ORIG 16-BIT INS]
    1500 00000004 BF08              IT        EQ                    ; [DPU_V7M3_PIPE]  ; [ORIG 16-BIT INS]
    1501 00000006 1C08              MOVEQ     A1, A2                ; [DPU_V7M3_PIPE] |339|  ; [ORIG 16-BIT INS]
    1502 00000008 D005              BEQ       ||$C$L27||            ; [DPU_V7M3_PIPE] |339|  ; [ORIG 16-BIT INS]
    1503                            ; BRANCHCC OCCURS {||$C$L27||}   ; [] |339| 
    1504                    ;* --------------------------------------------------------------------------*
    1505 0000000a 2802              CMP       A1, #2                ; [DPU_V7M3_PIPE] |339|  ; [ORIG 16-BIT INS]
    1506 0000000c BF07              ITTEE     EQ                    ; [DPU_V7M3_PIPE]  ; [ORIG 16-BIT INS]
    1507 0000000e 1C08              MOVEQ     A1, A2                ; [DPU_V7M3_PIPE] |339|  ; [ORIG 16-BIT INS]
    1508 00000010 1C40              ADDEQ     A1, A1, #1            ; [DPU_V7M3_PIPE]  ; [ORIG 16-BIT INS]
    1509 00000012 1C08              MOVNE     A1, A2                ; [DPU_V7M3_PIPE] |339|  ; [ORIG 16-BIT INS]
    1510 00000014 1C80              ADDNE     A1, A1, #2            ; [DPU_V7M3_PIPE]  ; [ORIG 16-BIT INS]
    1511                    ;* --------------------------------------------------------------------------*
    1512 00000016           ||$C$L27||:    
    1513 00000016 7800              LDRB      A1, [A1, #0]          ; [DPU_V7M3_PIPE] |339|  ; [ORIG 16-BIT INS]
    1514                    $C$DW$97        .dwtag  DW_TAG_TI_branch
    1515                            .dwattr $C$DW$97, DW_AT_low_pc(0x00)
    1516                            .dwattr $C$DW$97, DW_AT_TI_return
    1517                    
    1518 00000018 4770              BX        LR                    ; [DPU_V7M3_PIPE]  ; [ORIG 16-BIT INS]
    1519                            ; BRANCH OCCURS                  ; [] 
    1520                            .dwattr $C$DW$94, DW_AT_TI_end_file("../Application/MAC/HAL/target/hal_rtc_wrapper.c")
    1521                            .dwattr $C$DW$94, DW_AT_TI_end_line(0x15d)
    1522                            .dwattr $C$DW$94, DW_AT_TI_end_column(0x01)
    1523                            .dwendentry
    1524                            .dwendtag $C$DW$94
    1525                    
    1526 00000000                   .sect   ".text:halClearRtcTimerEvent"
    1527                            .clink
    1528                            .thumbfunc halClearRtcTimerEvent
    1529 00000000                   .thumb
    1530                            .global halClearRtcTimerEvent
    1531                    
    1532                    $C$DW$98        .dwtag  DW_TAG_subprogram
    1533                            .dwattr $C$DW$98, DW_AT_name("halClearRtcTimerEvent")
    1534                            .dwattr $C$DW$98, DW_AT_low_pc(halClearRtcTimerEvent)
    1535                            .dwattr $C$DW$98, DW_AT_high_pc(0x00)
    1536                            .dwattr $C$DW$98, DW_AT_TI_symbol_name("halClearRtcTimerEvent")
    1537                            .dwattr $C$DW$98, DW_AT_external
    1538                            .dwattr $C$DW$98, DW_AT_TI_begin_file("../Application/MAC/HAL/target/hal_rtc_wrapper.c")
    1539                            .dwattr $C$DW$98, DW_AT_TI_begin_line(0xfb)
    1540                            .dwattr $C$DW$98, DW_AT_TI_begin_column(0x06)
TI ARM Assembler PC v18.1.3 Wed Nov 28 13:22:06 2018

Tools Copyright (c) 1996-2017 Texas Instruments Incorporated
C:\Users\Adrian\AppData\Local\Temp\{8ACD377C-A10A-4D34-8C0A-1BFA051003CA} PAGE   29

    1541                            .dwattr $C$DW$98, DW_AT_decl_file("../Application/MAC/HAL/target/hal_rtc_wrapper.c")
    1542                            .dwattr $C$DW$98, DW_AT_decl_line(0xfb)
    1543                            .dwattr $C$DW$98, DW_AT_decl_column(0x06)
    1544                            .dwattr $C$DW$98, DW_AT_TI_max_frame_size(0x10)
    1545                            .dwpsn  file "../Application/MAC/HAL/target/hal_rtc_wrapper.c",line 252,column 1,is_stmt,addre
    1546                    
    1547                            .dwfde $C$DW$CIE, halClearRtcTimerEvent
    1548                    $C$DW$99        .dwtag  DW_TAG_formal_parameter
    1549                            .dwattr $C$DW$99, DW_AT_name("rtcChan")
    1550                            .dwattr $C$DW$99, DW_AT_TI_symbol_name("rtcChan")
    1551                            .dwattr $C$DW$99, DW_AT_type(*$C$DW$T$767)
    1552                            .dwattr $C$DW$99, DW_AT_location[DW_OP_reg0]
    1553                    
    1554                    
    1555                    ;*****************************************************************************
    1556                    ;* FUNCTION NAME: halClearRtcTimerEvent                                      *
    1557                    ;*                                                                           *
    1558                    ;*   Regs Modified     : A1,A2,A3,A4,V1,V2,V9,SP,LR,SR                       *
    1559                    ;*   Regs Used         : A1,A2,A3,A4,V1,V2,V9,SP,LR,SR                       *
    1560                    ;*   Local Frame Size  : 0 Args + 0 Auto + 12 Save = 12 byte                 *
    1561                    ;*****************************************************************************
    1562                    halClearRtcTimerEvent:
    1563                    ;* --------------------------------------------------------------------------*
    1564                    ;* A3    assigned to $O$K12
    1565                    ;* A2    assigned to $O$K17
    1566                    ;* V1    assigned to rtcChan
    1567                    $C$DW$100       .dwtag  DW_TAG_variable
    1568                            .dwattr $C$DW$100, DW_AT_name("rtcChan")
    1569                            .dwattr $C$DW$100, DW_AT_TI_symbol_name("rtcChan")
    1570                            .dwattr $C$DW$100, DW_AT_type(*$C$DW$T$1290)
    1571                            .dwattr $C$DW$100, DW_AT_location[DW_OP_reg4]
    1572                    
    1573                    ;* A4    assigned to cs
    1574                    $C$DW$101       .dwtag  DW_TAG_variable
    1575                            .dwattr $C$DW$101, DW_AT_name("cs")
    1576                            .dwattr $C$DW$101, DW_AT_TI_symbol_name("cs")
    1577                            .dwattr $C$DW$101, DW_AT_type(*$C$DW$T$1132)
    1578                            .dwattr $C$DW$101, DW_AT_location[DW_OP_reg3]
    1579                    
    1580                            .dwcfi  cfa_offset, 0
    1581 00000000 B538              PUSH      {A4, V1, V2, LR}      ; [DPU_V7M3_PIPE]  ; [ORIG 16-BIT INS]
    1582                            .dwcfi  cfa_offset, 16
    1583                            .dwcfi  save_reg_to_mem, 14, -4
    1584                            .dwcfi  save_reg_to_mem, 5, -8
    1585                            .dwcfi  save_reg_to_mem, 4, -12
    1586                            .dwcfi  save_reg_to_mem, 3, -16
    1587 00000002 4604              MOV       V1, A1                ; [DPU_V7M3_PIPE] |252|  ; [ORIG 16-BIT INS]
    1588                            .dwpsn  file "../Application/MAC/HAL/target/hal_rtc_wrapper.c",line 255,column 3,is_stmt,isa 1
    1589 00000004 4818              LDR       A1, $C$CON47          ; [DPU_V7M3_PIPE] |255|  ; [ORIG 16-BIT INS]
    1590 00000006 6800              LDR       A1, [A1, #0]          ; [DPU_V7M3_PIPE] |255|  ; [ORIG 16-BIT INS]
    1591                    $C$DW$102       .dwtag  DW_TAG_TI_branch
    1592                            .dwattr $C$DW$102, DW_AT_low_pc(0x00)
    1593                            .dwattr $C$DW$102, DW_AT_TI_call
    1594                            .dwattr $C$DW$102, DW_AT_TI_indirect
    1595                    
TI ARM Assembler PC v18.1.3 Wed Nov 28 13:22:06 2018

Tools Copyright (c) 1996-2017 Texas Instruments Incorporated
C:\Users\Adrian\AppData\Local\Temp\{8ACD377C-A10A-4D34-8C0A-1BFA051003CA} PAGE   30

    1596 00000008 4780              BLX       A1                    ; [DPU_V7M3_PIPE] |255|  ; [ORIG 16-BIT INS]
    1597                            ; CALL OCCURS {}                 ; [] |255| 
    1598 0000000a 4603              MOV       A4, A1                ; [DPU_V7M3_PIPE] |255|  ; [ORIG 16-BIT INS]
    1599                            .dwpsn  file "C:/ti/simplelink_cc13x0_sdk_2_30_00_20/source/ti/devices/cc13x0/driverlib/aon_rt
    1600 0000000c 4814              LDR       A1, $C$CON43          ; [DPU_V7M3_PIPE] |710|  ; [ORIG 16-BIT INS]
    1601                            .dwpsn  file "C:/ti/simplelink_cc13x0_sdk_2_30_00_20/source/ti/devices/cc13x0/driverlib/aon_rt
    1602 0000000e 0861              LSRS      A2, V1, #1            ; [DPU_V7M3_PIPE] |698|  ; [ORIG 16-BIT INS]
    1603 00000010 D303              BCC       ||$C$L28||            ; [DPU_V7M3_PIPE] |698|  ; [ORIG 16-BIT INS]
    1604                            ; BRANCHCC OCCURS {||$C$L28||}   ; [] |698| 
    1605                    ;* --------------------------------------------------------------------------*
    1606                            .dwpsn  file "C:/ti/simplelink_cc13x0_sdk_2_30_00_20/source/ti/devices/cc13x0/driverlib/aon_rt
    1607 00000012 2200              MOVS      A3, #0                ; [DPU_V7M3_PIPE] |700|  ; [ORIG 16-BIT INS]
    1608 00000014 0120F1A0          SUB       A2, A1, #32           ; [DPU_V7M3_PIPE]  ; [KEEP 32-BIT INS]
    1609 00000018 600A              STR       A3, [A2, #0]          ; [DPU_V7M3_PIPE] |700|  ; [ORIG 16-BIT INS]
    1610                    ;* --------------------------------------------------------------------------*
    1611 0000001a           ||$C$L28||:    
    1612                            .dwpsn  file "C:/ti/simplelink_cc13x0_sdk_2_30_00_20/source/ti/devices/cc13x0/driverlib/aon_rt
    1613 0000001a 0862              LSRS      A3, V1, #1            ; [DPU_V7M3_PIPE] |703|  ; [ORIG 16-BIT INS]
    1614 0000001c 08A1              LSRS      A2, V1, #2            ; [DPU_V7M3_PIPE] |703|  ; [ORIG 16-BIT INS]
    1615 0000001e BF24              ITT       CS                    ; [DPU_V7M3_PIPE]  ; [ORIG 16-BIT INS]
    1616                            .dwpsn  file "C:/ti/simplelink_cc13x0_sdk_2_30_00_20/source/ti/devices/cc13x0/driverlib/aon_rt
    1617 00000020 2100              MOVCS     A2, #0                ; [DPU_V7M3_PIPE] |705|  ; [ORIG 16-BIT INS]
    1618 00000022 6001              STRCS     A2, [A1, #0]          ; [DPU_V7M3_PIPE] |705|  ; [ORIG 16-BIT INS]
    1619                            .dwpsn  file "C:/ti/simplelink_cc13x0_sdk_2_30_00_20/source/ti/devices/cc13x0/driverlib/aon_rt
    1620 00000024 08E5              LSRS      V2, V1, #3            ; [DPU_V7M3_PIPE] |708|  ; [ORIG 16-BIT INS]
    1621 00000026 0194EA4F          LSR       A2, V1, #2            ; [DPU_V7M3_PIPE] |708|  ; [KEEP 32-BIT INS]
    1622 0000002a D302              BCC       ||$C$L29||            ; [DPU_V7M3_PIPE] |708|  ; [ORIG 16-BIT INS]
    1623                            ; BRANCHCC OCCURS {||$C$L29||}   ; [] |708| 
    1624                    ;* --------------------------------------------------------------------------*
    1625                            .dwpsn  file "C:/ti/simplelink_cc13x0_sdk_2_30_00_20/source/ti/devices/cc13x0/driverlib/aon_rt
    1626 0000002c 2500              MOVS      V2, #0                ; [DPU_V7M3_PIPE] |710|  ; [ORIG 16-BIT INS]
    1627 0000002e 3020              ADDS      A1, A1, #32           ; [DPU_V7M3_PIPE]  ; [ORIG 16-BIT INS]
    1628 00000030 6005              STR       V2, [A1, #0]          ; [DPU_V7M3_PIPE] |710|  ; [ORIG 16-BIT INS]
    1629                    ;* --------------------------------------------------------------------------*
    1630 00000032           ||$C$L29||:    
    1631                            .dwpsn  file "C:/ti/simplelink_cc13x0_sdk_2_30_00_20/source/ti/devices/cc13x0/driverlib/aon_rt
    1632 00000032 480C              LDR       A1, $C$CON45          ; [DPU_V7M3_PIPE] |387|  ; [ORIG 16-BIT INS]
    1633                            .dwpsn  file "C:/ti/simplelink_cc13x0_sdk_2_30_00_20/source/ti/devices/cc13x0/driverlib/aon_rt
    1634 00000034 0865              LSRS      V2, V1, #1            ; [DPU_V7M3_PIPE] |375|  ; [ORIG 16-BIT INS]
    1635 00000036 BF24              ITT       CS                    ; [DPU_V7M3_PIPE]  ; [ORIG 16-BIT INS]
    1636                            .dwpsn  file "C:/ti/simplelink_cc13x0_sdk_2_30_00_20/source/ti/devices/cc13x0/driverlib/aon_rt
    1637 00000038 2501              MOVCS     V2, #1                ; [DPU_V7M3_PIPE] |377|  ; [ORIG 16-BIT INS]
    1638 0000003a 6005              STRCS     V2, [A1, #0]          ; [DPU_V7M3_PIPE] |377|  ; [ORIG 16-BIT INS]
    1639                            .dwpsn  file "C:/ti/simplelink_cc13x0_sdk_2_30_00_20/source/ti/devices/cc13x0/driverlib/aon_rt
    1640 0000003c 0852              LSRS      A3, A3, #1            ; [DPU_V7M3_PIPE] |380|  ; [ORIG 16-BIT INS]
    1641 0000003e BF24              ITT       CS                    ; [DPU_V7M3_PIPE]  ; [ORIG 16-BIT INS]
    1642                            .dwpsn  file "C:/ti/simplelink_cc13x0_sdk_2_30_00_20/source/ti/devices/cc13x0/driverlib/aon_rt
    1643 00000040 7280F44F          MOVCS     A3, #256              ; [DPU_V7M3_PIPE] |382|  ; [KEEP 32-BIT INS]
    1644 00000044 6002              STRCS     A3, [A1, #0]          ; [DPU_V7M3_PIPE] |382|  ; [ORIG 16-BIT INS]
    1645                            .dwpsn  file "C:/ti/simplelink_cc13x0_sdk_2_30_00_20/source/ti/devices/cc13x0/driverlib/aon_rt
    1646 00000046 0849              LSRS      A2, A2, #1            ; [DPU_V7M3_PIPE] |385|  ; [ORIG 16-BIT INS]
    1647 00000048 BF24              ITT       CS                    ; [DPU_V7M3_PIPE]  ; [ORIG 16-BIT INS]
    1648                            .dwpsn  file "C:/ti/simplelink_cc13x0_sdk_2_30_00_20/source/ti/devices/cc13x0/driverlib/aon_rt
    1649 0000004a 3180F44F          MOVCS     A2, #65536            ; [DPU_V7M3_PIPE] |387|  ; [KEEP 32-BIT INS]
    1650 0000004e 6001              STRCS     A2, [A1, #0]          ; [DPU_V7M3_PIPE] |387|  ; [ORIG 16-BIT INS]
TI ARM Assembler PC v18.1.3 Wed Nov 28 13:22:06 2018

Tools Copyright (c) 1996-2017 Texas Instruments Incorporated
C:\Users\Adrian\AppData\Local\Temp\{8ACD377C-A10A-4D34-8C0A-1BFA051003CA} PAGE   31

    1651                            .dwpsn  file "../Application/MAC/HAL/target/hal_rtc_wrapper.c",line 264,column 3,is_stmt,isa 1
    1652 00000050 B2E0              UXTB      A1, V1                ; [DPU_V7M3_PIPE] |264|  ; [ORIG 16-BIT INS]
    1653                    $C$DW$103       .dwtag  DW_TAG_TI_branch
    1654                            .dwattr $C$DW$103, DW_AT_low_pc(0x00)
    1655                            .dwattr $C$DW$103, DW_AT_name("halClrRtcIntFlag")
    1656                            .dwattr $C$DW$103, DW_AT_TI_call
    1657                    
    1658 00000052 FFFEF7FF!         BL        halClrRtcIntFlag      ; [DPU_V7M3_PIPE] |264|  ; [KEEP 32-BIT INS]
    1659                            ; CALL OCCURS {halClrRtcIntFlag }  ; [] |264| 
    1660                            .dwpsn  file "../Application/MAC/HAL/target/hal_rtc_wrapper.c",line 266,column 3,is_stmt,isa 1
    1661 00000056 4805              LDR       A1, $C$CON48          ; [DPU_V7M3_PIPE] |266|  ; [ORIG 16-BIT INS]
    1662 00000058 6801              LDR       A2, [A1, #0]          ; [DPU_V7M3_PIPE] |266|  ; [ORIG 16-BIT INS]
    1663 0000005a 4618              MOV       A1, A4                ; [DPU_V7M3_PIPE] |266|  ; [ORIG 16-BIT INS]
    1664                    $C$DW$104       .dwtag  DW_TAG_TI_branch
    1665                            .dwattr $C$DW$104, DW_AT_low_pc(0x00)
    1666                            .dwattr $C$DW$104, DW_AT_TI_call
    1667                            .dwattr $C$DW$104, DW_AT_TI_indirect
    1668                    
    1669 0000005c 4788              BLX       A2                    ; [DPU_V7M3_PIPE] |266|  ; [ORIG 16-BIT INS]
    1670                            ; CALL OCCURS {}                 ; [] |266| 
    1671                    $C$DW$105       .dwtag  DW_TAG_TI_branch
    1672                            .dwattr $C$DW$105, DW_AT_low_pc(0x00)
    1673                            .dwattr $C$DW$105, DW_AT_TI_return
    1674                    
    1675 0000005e BD38              POP       {A4, V1, V2, PC}      ; [DPU_V7M3_PIPE]  ; [ORIG 16-BIT INS]
    1676                            .dwcfi  cfa_offset, 0
    1677                            .dwcfi  restore_reg, 5
    1678                            .dwcfi  restore_reg, 4
    1679                            .dwcfi  restore_reg, 3
    1680                            ; BRANCH OCCURS                  ; [] 
    1681                            .dwattr $C$DW$98, DW_AT_TI_end_file("../Application/MAC/HAL/target/hal_rtc_wrapper.c")
    1682                            .dwattr $C$DW$98, DW_AT_TI_end_line(0x10d)
    1683                            .dwattr $C$DW$98, DW_AT_TI_end_column(0x01)
    1684                            .dwendentry
    1685                            .dwendtag $C$DW$98
    1686                    
    1687 00000000                   .sect   ".text:RTC_ISR"
    1688                            .clink
    1689                            .thumbfunc RTC_ISR
    1690 00000000                   .thumb
    1691                            .global RTC_ISR
    1692                    
    1693                    $C$DW$106       .dwtag  DW_TAG_subprogram
    1694                            .dwattr $C$DW$106, DW_AT_name("RTC_ISR")
    1695                            .dwattr $C$DW$106, DW_AT_low_pc(RTC_ISR)
    1696                            .dwattr $C$DW$106, DW_AT_high_pc(0x00)
    1697                            .dwattr $C$DW$106, DW_AT_TI_symbol_name("RTC_ISR")
    1698                            .dwattr $C$DW$106, DW_AT_external
    1699                            .dwattr $C$DW$106, DW_AT_TI_begin_file("../Application/MAC/HAL/target/hal_rtc_wrapper.c")
    1700                            .dwattr $C$DW$106, DW_AT_TI_begin_line(0x24f)
    1701                            .dwattr $C$DW$106, DW_AT_TI_begin_column(0x06)
    1702                            .dwattr $C$DW$106, DW_AT_decl_file("../Application/MAC/HAL/target/hal_rtc_wrapper.c")
    1703                            .dwattr $C$DW$106, DW_AT_decl_line(0x24f)
    1704                            .dwattr $C$DW$106, DW_AT_decl_column(0x06)
    1705                            .dwattr $C$DW$106, DW_AT_TI_max_frame_size(0x10)
TI ARM Assembler PC v18.1.3 Wed Nov 28 13:22:06 2018

Tools Copyright (c) 1996-2017 Texas Instruments Incorporated
C:\Users\Adrian\AppData\Local\Temp\{8ACD377C-A10A-4D34-8C0A-1BFA051003CA} PAGE   32

    1706                            .dwpsn  file "../Application/MAC/HAL/target/hal_rtc_wrapper.c",line 592,column 1,is_stmt,addre
    1707                    
    1708                            .dwfde $C$DW$CIE, RTC_ISR
    1709                    
    1710                    ;*****************************************************************************
    1711                    ;* FUNCTION NAME: RTC_ISR                                                    *
    1712                    ;*                                                                           *
    1713                    ;*   Regs Modified     : A1,A2,A3,A4,V1,V2,V3,V9,SP,LR,SR                    *
    1714                    ;*   Regs Used         : A1,A2,A3,A4,V1,V2,V3,V9,SP,LR,SR                    *
    1715                    ;*   Local Frame Size  : 0 Args + 0 Auto + 16 Save = 16 byte                 *
    1716                    ;*****************************************************************************
    1717                    RTC_ISR:
    1718                    ;* --------------------------------------------------------------------------*
    1719                    ;* A1    assigned to $O$C4
    1720                    ;* A1    assigned to $O$C5
    1721                    ;* A1    assigned to $O$C6
    1722                    ;* A1    assigned to $O$K17
    1723                    ;* A1    assigned to $O$K17
    1724                    ;* A1    assigned to $O$K17
    1725                    ;* V1    assigned to $O$K6
    1726                    ;* V3    assigned to cs
    1727                    $C$DW$107       .dwtag  DW_TAG_variable
    1728                            .dwattr $C$DW$107, DW_AT_name("cs")
    1729                            .dwattr $C$DW$107, DW_AT_TI_symbol_name("cs")
    1730                            .dwattr $C$DW$107, DW_AT_type(*$C$DW$T$1132)
    1731                            .dwattr $C$DW$107, DW_AT_location[DW_OP_reg6]
    1732                    
    1733                            .dwcfi  cfa_offset, 0
    1734                            .dwpsn  file "../Application/MAC/HAL/target/hal_rtc_wrapper.c",line 595,column 3,is_stmt,isa 1
    1735 00000000 4819              LDR       A1, $C$CON49          ; [DPU_V7M3_PIPE] |595|  ; [ORIG 16-BIT INS]
    1736 00000002 B570              PUSH      {V1, V2, V3, LR}      ; [DPU_V7M3_PIPE]  ; [ORIG 16-BIT INS]
    1737                            .dwcfi  cfa_offset, 16
    1738                            .dwcfi  save_reg_to_mem, 14, -4
    1739                            .dwcfi  save_reg_to_mem, 6, -8
    1740                            .dwcfi  save_reg_to_mem, 5, -12
    1741                            .dwcfi  save_reg_to_mem, 4, -16
    1742 00000004 6800              LDR       A1, [A1, #0]          ; [DPU_V7M3_PIPE] |595|  ; [ORIG 16-BIT INS]
    1743                    $C$DW$108       .dwtag  DW_TAG_TI_branch
    1744                            .dwattr $C$DW$108, DW_AT_low_pc(0x00)
    1745                            .dwattr $C$DW$108, DW_AT_TI_call
    1746                            .dwattr $C$DW$108, DW_AT_TI_indirect
    1747                    
    1748 00000006 4780              BLX       A1                    ; [DPU_V7M3_PIPE] |595|  ; [ORIG 16-BIT INS]
    1749                            ; CALL OCCURS {}                 ; [] |595| 
    1750                            .dwpsn  file "C:/ti/simplelink_cc13x0_sdk_2_30_00_20/source/ti/devices/cc13x0/driverlib/aon_rt
    1751 00000008 4C18              LDR       V1, $C$CON55          ; [DPU_V7M3_PIPE] |420|  ; [ORIG 16-BIT INS]
    1752                            .dwpsn  file "../Application/MAC/HAL/target/hal_rtc_wrapper.c",line 625,column 5,is_stmt,isa 1
    1753 0000000a 4D19              LDR       V2, $C$CON56          ; [DPU_V7M3_PIPE] |625|  ; [ORIG 16-BIT INS]
    1754                            .dwpsn  file "../Application/MAC/HAL/target/hal_rtc_wrapper.c",line 595,column 3,is_stmt,isa 1
    1755 0000000c 4606              MOV       V3, A1                ; [DPU_V7M3_PIPE] |595|  ; [ORIG 16-BIT INS]
    1756 0000000e 3464              ADDS      V1, V1, #100          ; [DPU_V7M3_PIPE]  ; [ORIG 16-BIT INS]
    1757                            .dwpsn  file "C:/ti/simplelink_cc13x0_sdk_2_30_00_20/source/ti/devices/cc13x0/driverlib/aon_rt
    1758 00000010 6820              LDR       A1, [V1, #0]          ; [DPU_V7M3_PIPE] |420|  ; [ORIG 16-BIT INS]
    1759 00000012 B150              CBZ       A1, ||$C$L31||        ; []  ; [ORIG 16-BIT INS]
    1760                            ; BRANCHCC OCCURS {||$C$L31||}   ; [] |420| 
TI ARM Assembler PC v18.1.3 Wed Nov 28 13:22:06 2018

Tools Copyright (c) 1996-2017 Texas Instruments Incorporated
C:\Users\Adrian\AppData\Local\Temp\{8ACD377C-A10A-4D34-8C0A-1BFA051003CA} PAGE   33

    1761                    ;* --------------------------------------------------------------------------*
    1762                            .dwpsn  file "../Application/MAC/HAL/target/hal_rtc_wrapper.c",line 602,column 5,is_stmt,isa 1
    1763 00000014 2001              MOVS      A1, #1                ; [DPU_V7M3_PIPE] |602|  ; [ORIG 16-BIT INS]
    1764                    $C$DW$109       .dwtag  DW_TAG_TI_branch
    1765                            .dwattr $C$DW$109, DW_AT_low_pc(0x00)
    1766                            .dwattr $C$DW$109, DW_AT_name("halSetRtcIntFlag")
    1767                            .dwattr $C$DW$109, DW_AT_TI_call
    1768                    
    1769 00000016 FFFEF7FF!         BL        halSetRtcIntFlag      ; [DPU_V7M3_PIPE] |602|  ; [KEEP 32-BIT INS]
    1770                            ; CALL OCCURS {halSetRtcIntFlag }  ; [] |602| 
    1771                            .dwpsn  file "../Application/MAC/HAL/target/hal_rtc_wrapper.c",line 605,column 5,is_stmt,isa 1
    1772 0000001a 4628              MOV       A1, V2                ; [DPU_V7M3_PIPE] |605|  ; [ORIG 16-BIT INS]
    1773 0000001c 1D00              ADDS      A1, A1, #4            ; [DPU_V7M3_PIPE]  ; [ORIG 16-BIT INS]
    1774 0000001e 6800              LDR       A1, [A1, #0]          ; [DPU_V7M3_PIPE] |605|  ; [ORIG 16-BIT INS]
    1775 00000020 B100              CBZ       A1, ||$C$L30||        ; []  ; [ORIG 16-BIT INS]
    1776                            ; BRANCHCC OCCURS {||$C$L30||}   ; [] |605| 
    1777                    ;* --------------------------------------------------------------------------*
    1778                            .dwpsn  file "../Application/MAC/HAL/target/hal_rtc_wrapper.c",line 605,column 25,is_stmt,isa 
    1779                    $C$DW$110       .dwtag  DW_TAG_TI_branch
    1780                            .dwattr $C$DW$110, DW_AT_low_pc(0x00)
    1781                            .dwattr $C$DW$110, DW_AT_TI_call
    1782                            .dwattr $C$DW$110, DW_AT_TI_indirect
    1783                    
    1784 00000022 4780              BLX       A1                    ; [DPU_V7M3_PIPE] |605|  ; [ORIG 16-BIT INS]
    1785                            ; CALL OCCURS {}                 ; [] |605| 
    1786                    ;* --------------------------------------------------------------------------*
    1787 00000024           ||$C$L30||:    
    1788                            .dwpsn  file "../Application/MAC/HAL/target/hal_rtc_wrapper.c",line 607,column 5,is_stmt,isa 1
    1789 00000024 2001              MOVS      A1, #1                ; [DPU_V7M3_PIPE] |607|  ; [ORIG 16-BIT INS]
    1790                    $C$DW$111       .dwtag  DW_TAG_TI_branch
    1791                            .dwattr $C$DW$111, DW_AT_low_pc(0x00)
    1792                            .dwattr $C$DW$111, DW_AT_name("halClearRtcTimerEvent")
    1793                            .dwattr $C$DW$111, DW_AT_TI_call
    1794                    
    1795 00000026 FFFEF7FF!         BL        halClearRtcTimerEvent ; [DPU_V7M3_PIPE] |607|  ; [KEEP 32-BIT INS]
    1796                            ; CALL OCCURS {halClearRtcTimerEvent }  ; [] |607| 
    1797                    ;* --------------------------------------------------------------------------*
    1798 0000002a           ||$C$L31||:    
    1799                            .dwpsn  file "C:/ti/simplelink_cc13x0_sdk_2_30_00_20/source/ti/devices/cc13x0/driverlib/aon_rt
    1800 0000002a 6A20              LDR       A1, [V1, #32]         ; [DPU_V7M3_PIPE] |425|  ; [ORIG 16-BIT INS]
    1801 0000002c B150              CBZ       A1, ||$C$L33||        ; []  ; [ORIG 16-BIT INS]
    1802                            ; BRANCHCC OCCURS {||$C$L33||}   ; [] |425| 
    1803                    ;* --------------------------------------------------------------------------*
    1804                            .dwpsn  file "../Application/MAC/HAL/target/hal_rtc_wrapper.c",line 612,column 5,is_stmt,isa 1
    1805 0000002e 2002              MOVS      A1, #2                ; [DPU_V7M3_PIPE] |612|  ; [ORIG 16-BIT INS]
    1806                    $C$DW$112       .dwtag  DW_TAG_TI_branch
    1807                            .dwattr $C$DW$112, DW_AT_low_pc(0x00)
    1808                            .dwattr $C$DW$112, DW_AT_name("halSetRtcIntFlag")
    1809                            .dwattr $C$DW$112, DW_AT_TI_call
    1810                    
    1811 00000030 FFFEF7FF!         BL        halSetRtcIntFlag      ; [DPU_V7M3_PIPE] |612|  ; [KEEP 32-BIT INS]
    1812                            ; CALL OCCURS {halSetRtcIntFlag }  ; [] |612| 
    1813                            .dwpsn  file "../Application/MAC/HAL/target/hal_rtc_wrapper.c",line 615,column 5,is_stmt,isa 1
    1814 00000034 4628              MOV       A1, V2                ; [DPU_V7M3_PIPE] |615|  ; [ORIG 16-BIT INS]
    1815 00000036 3008              ADDS      A1, A1, #8            ; [DPU_V7M3_PIPE]  ; [ORIG 16-BIT INS]
TI ARM Assembler PC v18.1.3 Wed Nov 28 13:22:06 2018

Tools Copyright (c) 1996-2017 Texas Instruments Incorporated
C:\Users\Adrian\AppData\Local\Temp\{8ACD377C-A10A-4D34-8C0A-1BFA051003CA} PAGE   34

    1816 00000038 6800              LDR       A1, [A1, #0]          ; [DPU_V7M3_PIPE] |615|  ; [ORIG 16-BIT INS]
    1817 0000003a B100              CBZ       A1, ||$C$L32||        ; []  ; [ORIG 16-BIT INS]
    1818                            ; BRANCHCC OCCURS {||$C$L32||}   ; [] |615| 
    1819                    ;* --------------------------------------------------------------------------*
    1820                            .dwpsn  file "../Application/MAC/HAL/target/hal_rtc_wrapper.c",line 615,column 25,is_stmt,isa 
    1821                    $C$DW$113       .dwtag  DW_TAG_TI_branch
    1822                            .dwattr $C$DW$113, DW_AT_low_pc(0x00)
    1823                            .dwattr $C$DW$113, DW_AT_TI_call
    1824                            .dwattr $C$DW$113, DW_AT_TI_indirect
    1825                    
    1826 0000003c 4780              BLX       A1                    ; [DPU_V7M3_PIPE] |615|  ; [ORIG 16-BIT INS]
    1827                            ; CALL OCCURS {}                 ; [] |615| 
    1828                    ;* --------------------------------------------------------------------------*
    1829 0000003e           ||$C$L32||:    
    1830                            .dwpsn  file "../Application/MAC/HAL/target/hal_rtc_wrapper.c",line 617,column 5,is_stmt,isa 1
    1831 0000003e 2002              MOVS      A1, #2                ; [DPU_V7M3_PIPE] |617|  ; [ORIG 16-BIT INS]
    1832                    $C$DW$114       .dwtag  DW_TAG_TI_branch
    1833                            .dwattr $C$DW$114, DW_AT_low_pc(0x00)
    1834                            .dwattr $C$DW$114, DW_AT_name("halClearRtcTimerEvent")
    1835                            .dwattr $C$DW$114, DW_AT_TI_call
    1836                    
    1837 00000040 FFFEF7FF!         BL        halClearRtcTimerEvent ; [DPU_V7M3_PIPE] |617|  ; [KEEP 32-BIT INS]
    1838                            ; CALL OCCURS {halClearRtcTimerEvent }  ; [] |617| 
    1839                    ;* --------------------------------------------------------------------------*
    1840 00000044           ||$C$L33||:    
    1841                            .dwpsn  file "C:/ti/simplelink_cc13x0_sdk_2_30_00_20/source/ti/devices/cc13x0/driverlib/aon_rt
    1842 00000044 6C20              LDR       A1, [V1, #64]         ; [DPU_V7M3_PIPE] |430|  ; [ORIG 16-BIT INS]
    1843 00000046 B150              CBZ       A1, ||$C$L35||        ; []  ; [ORIG 16-BIT INS]
    1844                            ; BRANCHCC OCCURS {||$C$L35||}   ; [] |430| 
    1845                    ;* --------------------------------------------------------------------------*
    1846                            .dwpsn  file "../Application/MAC/HAL/target/hal_rtc_wrapper.c",line 622,column 5,is_stmt,isa 1
    1847 00000048 2004              MOVS      A1, #4                ; [DPU_V7M3_PIPE] |622|  ; [ORIG 16-BIT INS]
    1848                    $C$DW$115       .dwtag  DW_TAG_TI_branch
    1849                            .dwattr $C$DW$115, DW_AT_low_pc(0x00)
    1850                            .dwattr $C$DW$115, DW_AT_name("halSetRtcIntFlag")
    1851                            .dwattr $C$DW$115, DW_AT_TI_call
    1852                    
    1853 0000004a FFFEF7FF!         BL        halSetRtcIntFlag      ; [DPU_V7M3_PIPE] |622|  ; [KEEP 32-BIT INS]
    1854                            ; CALL OCCURS {halSetRtcIntFlag }  ; [] |622| 
    1855                            .dwpsn  file "../Application/MAC/HAL/target/hal_rtc_wrapper.c",line 625,column 5,is_stmt,isa 1
    1856 0000004e 4628              MOV       A1, V2                ; [DPU_V7M3_PIPE] |625|  ; [ORIG 16-BIT INS]
    1857 00000050 300C              ADDS      A1, A1, #12           ; [DPU_V7M3_PIPE]  ; [ORIG 16-BIT INS]
    1858 00000052 6800              LDR       A1, [A1, #0]          ; [DPU_V7M3_PIPE] |625|  ; [ORIG 16-BIT INS]
    1859 00000054 B100              CBZ       A1, ||$C$L34||        ; []  ; [ORIG 16-BIT INS]
    1860                            ; BRANCHCC OCCURS {||$C$L34||}   ; [] |625| 
    1861                    ;* --------------------------------------------------------------------------*
    1862                            .dwpsn  file "../Application/MAC/HAL/target/hal_rtc_wrapper.c",line 625,column 25,is_stmt,isa 
    1863                    $C$DW$116       .dwtag  DW_TAG_TI_branch
    1864                            .dwattr $C$DW$116, DW_AT_low_pc(0x00)
    1865                            .dwattr $C$DW$116, DW_AT_TI_call
    1866                            .dwattr $C$DW$116, DW_AT_TI_indirect
    1867                    
    1868 00000056 4780              BLX       A1                    ; [DPU_V7M3_PIPE] |625|  ; [ORIG 16-BIT INS]
    1869                            ; CALL OCCURS {}                 ; [] |625| 
    1870                    ;* --------------------------------------------------------------------------*
TI ARM Assembler PC v18.1.3 Wed Nov 28 13:22:06 2018

Tools Copyright (c) 1996-2017 Texas Instruments Incorporated
C:\Users\Adrian\AppData\Local\Temp\{8ACD377C-A10A-4D34-8C0A-1BFA051003CA} PAGE   35

    1871 00000058           ||$C$L34||:    
    1872                            .dwpsn  file "../Application/MAC/HAL/target/hal_rtc_wrapper.c",line 627,column 5,is_stmt,isa 1
    1873 00000058 2004              MOVS      A1, #4                ; [DPU_V7M3_PIPE] |627|  ; [ORIG 16-BIT INS]
    1874                    $C$DW$117       .dwtag  DW_TAG_TI_branch
    1875                            .dwattr $C$DW$117, DW_AT_low_pc(0x00)
    1876                            .dwattr $C$DW$117, DW_AT_name("halClearRtcTimerEvent")
    1877                            .dwattr $C$DW$117, DW_AT_TI_call
    1878                    
    1879 0000005a FFFEF7FF!         BL        halClearRtcTimerEvent ; [DPU_V7M3_PIPE] |627|  ; [KEEP 32-BIT INS]
    1880                            ; CALL OCCURS {halClearRtcTimerEvent }  ; [] |627| 
    1881                    ;* --------------------------------------------------------------------------*
    1882 0000005e           ||$C$L35||:    
    1883                            .dwpsn  file "../Application/MAC/HAL/target/hal_rtc_wrapper.c",line 630,column 3,is_stmt,isa 1
    1884 0000005e 4805              LDR       A1, $C$CON57          ; [DPU_V7M3_PIPE] |630|  ; [ORIG 16-BIT INS]
    1885 00000060 6801              LDR       A2, [A1, #0]          ; [DPU_V7M3_PIPE] |630|  ; [ORIG 16-BIT INS]
    1886 00000062 4630              MOV       A1, V3                ; [DPU_V7M3_PIPE] |630|  ; [ORIG 16-BIT INS]
    1887                    $C$DW$118       .dwtag  DW_TAG_TI_branch
    1888                            .dwattr $C$DW$118, DW_AT_low_pc(0x00)
    1889                            .dwattr $C$DW$118, DW_AT_TI_call
    1890                            .dwattr $C$DW$118, DW_AT_TI_indirect
    1891                    
    1892 00000064 4788              BLX       A2                    ; [DPU_V7M3_PIPE] |630|  ; [ORIG 16-BIT INS]
    1893                            ; CALL OCCURS {}                 ; [] |630| 
    1894                    $C$DW$119       .dwtag  DW_TAG_TI_branch
    1895                            .dwattr $C$DW$119, DW_AT_low_pc(0x00)
    1896                            .dwattr $C$DW$119, DW_AT_TI_return
    1897                    
    1898 00000066 BD70              POP       {V1, V2, V3, PC}      ; [DPU_V7M3_PIPE]  ; [ORIG 16-BIT INS]
    1899                            .dwcfi  cfa_offset, 0
    1900                            .dwcfi  restore_reg, 6
    1901                            .dwcfi  restore_reg, 5
    1902                            .dwcfi  restore_reg, 4
    1903                            ; BRANCH OCCURS                  ; [] 
    1904                            .dwattr $C$DW$106, DW_AT_TI_end_file("../Application/MAC/HAL/target/hal_rtc_wrapper.c")
    1905                            .dwattr $C$DW$106, DW_AT_TI_end_line(0x279)
    1906                            .dwattr $C$DW$106, DW_AT_TI_end_column(0x01)
    1907                            .dwendentry
    1908                            .dwendtag $C$DW$106
    1909                    
    1910                    ;******************************************************************************
    1911                    ;* CONSTANT TABLE                                                             *
    1912                    ;******************************************************************************
    1913 0000001c                   .sect   ".text:halClrRtcIntFlag"
    1914                            .align  4
    1915 0000001c 00000001! ||$C$CON2||:    .bits   ||$O1$$||+1,32
    1916                    ;******************************************************************************
    1917                    ;* CONSTANT TABLE                                                             *
    1918                    ;******************************************************************************
    1919 000000c8                   .sect   ".text:halSetRtcTimerEvent"
    1920                            .align  4
    1921 000000c8 00000000! ||$C$CON4||:    .bits   ICall_enterCriticalSection,32
    1922                            .align  4
    1923 000000cc 43240280  ||$C$CON5||:    .bits   1126433408,32
    1924                            .align  4
    1925 000000d0 432402A0  ||$C$CON6||:    .bits   1126433440,32
TI ARM Assembler PC v18.1.3 Wed Nov 28 13:22:06 2018

Tools Copyright (c) 1996-2017 Texas Instruments Incorporated
C:\Users\Adrian\AppData\Local\Temp\{8ACD377C-A10A-4D34-8C0A-1BFA051003CA} PAGE   36

    1926                            .align  4
    1927 000000d4 432402C0  ||$C$CON7||:    .bits   1126433472,32
    1928                            .align  4
    1929 000000d8 40092004  ||$C$CON8||:    .bits   1074339844,32
    1930                            .align  4
    1931 000000dc 00000000! ||$C$CON14||:   .bits   ICall_leaveCriticalSection,32
    1932                    ;******************************************************************************
    1933                    ;* CONSTANT TABLE                                                             *
    1934                    ;******************************************************************************
    1935 0000001c                   .sect   ".text:halSetRtcIntFlag"
    1936                            .align  4
    1937 0000001c 00000001! ||$C$CON18||:   .bits   ||$O1$$||+1,32
    1938                    ;******************************************************************************
    1939                    ;* CONSTANT TABLE                                                             *
    1940                    ;******************************************************************************
    1941 0000005c                   .sect   ".text:halRtcTimerDelta"
    1942                            .align  4
    1943 0000005c 00000000! ||$C$CON21||:   .bits   ICall_enterCriticalSection,32
    1944                            .align  4
    1945 00000060 00000000! ||$C$CON22||:   .bits   ICall_leaveCriticalSection,32
    1946                    ;******************************************************************************
    1947                    ;* CONSTANT TABLE                                                             *
    1948                    ;******************************************************************************
    1949 00000016                   .sect   ".text:halRtcRegIntCBack"
    1950                            .align  4
    1951 00000016 000846C0! ||$C$CON24||:   .bits   ||$O1$$||+8,32
         0000001a 00000000 
    1952                    ;******************************************************************************
    1953                    ;* CONSTANT TABLE                                                             *
    1954                    ;******************************************************************************
    1955 00000024                   .sect   ".text:halReadRtcTimer"
    1956                            .align  4
    1957 00000024 00000000! ||$C$CON26||:   .bits   ICall_enterCriticalSection,32
    1958                            .align  4
    1959 00000028 40092008  ||$C$CON27||:   .bits   1074339848,32
    1960                            .align  4
    1961 0000002c 00000000! ||$C$CON29||:   .bits   ICall_leaveCriticalSection,32
    1962                    ;******************************************************************************
    1963                    ;* CONSTANT TABLE                                                             *
    1964                    ;******************************************************************************
    1965 00000096                   .sect   ".text:halInitRTC"
    1966                            .align  4
    1967 00000096 001C46C0  ||$C$CON31||:   .bits   1126432796,32
         0000009a 00004324 
    1968                            .align  4
    1969 0000009a 02804324  ||$C$CON33||:   .bits   1126433408,32
         0000009e 00004324 
    1970                            .align  4
    1971 0000009e 01844324  ||$C$CON34||:   .bits   268435844,32
         000000a2 00001000 
    1972                            .align  4
    1973 000000a2 00001000! ||$C$CON35||:   .bits   ICall_leaveCriticalSection,32
         000000a6 00000000 
    1974                            .align  4
    1975 000000a6 00000000! ||$C$CON36||:   .bits   ICall_enterCriticalSection,32
TI ARM Assembler PC v18.1.3 Wed Nov 28 13:22:06 2018

Tools Copyright (c) 1996-2017 Texas Instruments Incorporated
C:\Users\Adrian\AppData\Local\Temp\{8ACD377C-A10A-4D34-8C0A-1BFA051003CA} PAGE   37

         000000aa 00000000 
    1976                            .align  4
    1977 000000aa 20080000  ||$C$CON37||:   .bits   1074339848,32
         000000ae 00004009 
    1978                    ;******************************************************************************
    1979                    ;* CONSTANT TABLE                                                             *
    1980                    ;******************************************************************************
    1981 0000001a                   .sect   ".text:halGetRtcIntFlag"
    1982                            .align  4
    1983 0000001a 000046C0! ||$C$CON38||:   .bits   ||$O1$$||,32
         0000001e 00000000 
    1984                    ;******************************************************************************
    1985                    ;* CONSTANT TABLE                                                             *
    1986                    ;******************************************************************************
    1987 00000060                   .sect   ".text:halClearRtcTimerEvent"
    1988                            .align  4
    1989 00000060 432402A0  ||$C$CON43||:   .bits   1126433440,32
    1990                            .align  4
    1991 00000064 40092004  ||$C$CON45||:   .bits   1074339844,32
    1992                            .align  4
    1993 00000068 00000000! ||$C$CON47||:   .bits   ICall_enterCriticalSection,32
    1994                            .align  4
    1995 0000006c 00000000! ||$C$CON48||:   .bits   ICall_leaveCriticalSection,32
    1996                    ;******************************************************************************
    1997                    ;* CONSTANT TABLE                                                             *
    1998                    ;******************************************************************************
    1999 00000068                   .sect   ".text:RTC_ISR"
    2000                            .align  4
    2001 00000068 00000000! ||$C$CON49||:   .bits   ICall_enterCriticalSection,32
    2002                            .align  4
    2003 0000006c 4324001C  ||$C$CON55||:   .bits   1126432796,32
    2004                            .align  4
    2005 00000070 00000000! ||$C$CON56||:   .bits   ||$O1$$||,32
    2006                            .align  4
    2007 00000074 00000000! ||$C$CON57||:   .bits   ICall_leaveCriticalSection,32
    2008                    ;*****************************************************************************
    2009                    ;* UNDEFINED EXTERNAL REFERENCES                                             *
    2010                    ;*****************************************************************************
    2011                            .global ICall_enterCriticalSection
    2012                            .global ICall_leaveCriticalSection
    2013                            .global ti_sysbios_hal_Hwi_disableInterrupt__E
    2014                            .global ti_sysbios_hal_Hwi_enableInterrupt__E
    2015                    
    2016                    ;******************************************************************************
    2017                    ;* BUILD ATTRIBUTES                                                           *
    2018                    ;******************************************************************************
    2019                            .battr "aeabi", Tag_File, 1, Tag_ABI_PCS_wchar_t(2)
    2020                            .battr "aeabi", Tag_File, 1, Tag_ABI_FP_rounding(0)
    2021                            .battr "aeabi", Tag_File, 1, Tag_ABI_FP_denormal(0)
    2022                            .battr "aeabi", Tag_File, 1, Tag_ABI_FP_exceptions(0)
    2023                            .battr "aeabi", Tag_File, 1, Tag_ABI_FP_number_model(1)
    2024                            .battr "aeabi", Tag_File, 1, Tag_ABI_enum_size(1)
    2025                            .battr "aeabi", Tag_File, 1, Tag_ABI_optimization_goals(0)
    2026                            .battr "aeabi", Tag_File, 1, Tag_ABI_FP_optimization_goals(0)
    2027                            .battr "TI", Tag_File, 1, Tag_Bitfield_layout(2)
TI ARM Assembler PC v18.1.3 Wed Nov 28 13:22:06 2018

Tools Copyright (c) 1996-2017 Texas Instruments Incorporated
C:\Users\Adrian\AppData\Local\Temp\{8ACD377C-A10A-4D34-8C0A-1BFA051003CA} PAGE   38

    2028                            .battr "aeabi", Tag_File, 1, Tag_ABI_VFP_args(3)
    2029                            .battr "TI", Tag_File, 1, Tag_FP_interface(1)
    2030                    
    2031                    ;******************************************************************************
    2032                    ;* TYPE INFORMATION                                                           *
    2033                    ;******************************************************************************
    2034                    
    2035                    $C$DW$T$646     .dwtag  DW_TAG_enumeration_type
    2036                            .dwattr $C$DW$T$646, DW_AT_byte_size(0x01)
    2037                    $C$DW$120       .dwtag  DW_TAG_enumerator
    2038                            .dwattr $C$DW$120, DW_AT_name("FAPI_PROGRAM_DATA")
    2039                            .dwattr $C$DW$120, DW_AT_const_value(0x02)
    2040                            .dwattr $C$DW$120, DW_AT_decl_file("C:/ti/simplelink_cc13x0_sdk_2_30_00_20/source/ti/devices/c
    2041                            .dwattr $C$DW$120, DW_AT_decl_line(0xa6)
    2042                            .dwattr $C$DW$120, DW_AT_decl_column(0x05)
    2043                    
    2044                    $C$DW$121       .dwtag  DW_TAG_enumerator
    2045                            .dwattr $C$DW$121, DW_AT_name("FAPI_ERASE_SECTOR")
    2046                            .dwattr $C$DW$121, DW_AT_const_value(0x06)
    2047                            .dwattr $C$DW$121, DW_AT_decl_file("C:/ti/simplelink_cc13x0_sdk_2_30_00_20/source/ti/devices/c
    2048                            .dwattr $C$DW$121, DW_AT_decl_line(0xa7)
    2049                            .dwattr $C$DW$121, DW_AT_decl_column(0x05)
    2050                    
    2051                    $C$DW$122       .dwtag  DW_TAG_enumerator
    2052                            .dwattr $C$DW$122, DW_AT_name("FAPI_ERASE_BANK")
    2053                            .dwattr $C$DW$122, DW_AT_const_value(0x08)
    2054                            .dwattr $C$DW$122, DW_AT_decl_file("C:/ti/simplelink_cc13x0_sdk_2_30_00_20/source/ti/devices/c
    2055                            .dwattr $C$DW$122, DW_AT_decl_line(0xa8)
    2056                            .dwattr $C$DW$122, DW_AT_decl_column(0x05)
    2057                    
    2058                    $C$DW$123       .dwtag  DW_TAG_enumerator
    2059                            .dwattr $C$DW$123, DW_AT_name("FAPI_VALIDATE_SECTOR")
    2060                            .dwattr $C$DW$123, DW_AT_const_value(0x0e)
    2061                            .dwattr $C$DW$123, DW_AT_decl_file("C:/ti/simplelink_cc13x0_sdk_2_30_00_20/source/ti/devices/c
    2062                            .dwattr $C$DW$123, DW_AT_decl_line(0xa9)
    2063                            .dwattr $C$DW$123, DW_AT_decl_column(0x05)
    2064                    
    2065                    $C$DW$124       .dwtag  DW_TAG_enumerator
    2066                            .dwattr $C$DW$124, DW_AT_name("FAPI_CLEAR_STATUS")
    2067                            .dwattr $C$DW$124, DW_AT_const_value(0x10)
    2068                            .dwattr $C$DW$124, DW_AT_decl_file("C:/ti/simplelink_cc13x0_sdk_2_30_00_20/source/ti/devices/c
    2069                            .dwattr $C$DW$124, DW_AT_decl_line(0xaa)
    2070                            .dwattr $C$DW$124, DW_AT_decl_column(0x05)
    2071                    
    2072                    $C$DW$125       .dwtag  DW_TAG_enumerator
    2073                            .dwattr $C$DW$125, DW_AT_name("FAPI_PROGRAM_RESUME")
    2074                            .dwattr $C$DW$125, DW_AT_const_value(0x14)
    2075                            .dwattr $C$DW$125, DW_AT_decl_file("C:/ti/simplelink_cc13x0_sdk_2_30_00_20/source/ti/devices/c
    2076                            .dwattr $C$DW$125, DW_AT_decl_line(0xab)
    2077                            .dwattr $C$DW$125, DW_AT_decl_column(0x05)
    2078                    
    2079                    $C$DW$126       .dwtag  DW_TAG_enumerator
    2080                            .dwattr $C$DW$126, DW_AT_name("FAPI_ERASE_RESUME")
    2081                            .dwattr $C$DW$126, DW_AT_const_value(0x16)
    2082                            .dwattr $C$DW$126, DW_AT_decl_file("C:/ti/simplelink_cc13x0_sdk_2_30_00_20/source/ti/devices/c
TI ARM Assembler PC v18.1.3 Wed Nov 28 13:22:06 2018

Tools Copyright (c) 1996-2017 Texas Instruments Incorporated
C:\Users\Adrian\AppData\Local\Temp\{8ACD377C-A10A-4D34-8C0A-1BFA051003CA} PAGE   39

    2083                            .dwattr $C$DW$126, DW_AT_decl_line(0xac)
    2084                            .dwattr $C$DW$126, DW_AT_decl_column(0x05)
    2085                    
    2086                    $C$DW$127       .dwtag  DW_TAG_enumerator
    2087                            .dwattr $C$DW$127, DW_AT_name("FAPI_CLEAR_MORE")
    2088                            .dwattr $C$DW$127, DW_AT_const_value(0x18)
    2089                            .dwattr $C$DW$127, DW_AT_decl_file("C:/ti/simplelink_cc13x0_sdk_2_30_00_20/source/ti/devices/c
    2090                            .dwattr $C$DW$127, DW_AT_decl_line(0xad)
    2091                            .dwattr $C$DW$127, DW_AT_decl_column(0x05)
    2092                    
    2093                    $C$DW$128       .dwtag  DW_TAG_enumerator
    2094                            .dwattr $C$DW$128, DW_AT_name("FAPI_PROGRAM_SECTOR")
    2095                            .dwattr $C$DW$128, DW_AT_const_value(0x20)
    2096                            .dwattr $C$DW$128, DW_AT_decl_file("C:/ti/simplelink_cc13x0_sdk_2_30_00_20/source/ti/devices/c
    2097                            .dwattr $C$DW$128, DW_AT_decl_line(0xae)
    2098                            .dwattr $C$DW$128, DW_AT_decl_column(0x05)
    2099                    
    2100                    $C$DW$129       .dwtag  DW_TAG_enumerator
    2101                            .dwattr $C$DW$129, DW_AT_name("FAPI_ERASE_OTP")
    2102                            .dwattr $C$DW$129, DW_AT_const_value(0x30)
    2103                            .dwattr $C$DW$129, DW_AT_decl_file("C:/ti/simplelink_cc13x0_sdk_2_30_00_20/source/ti/devices/c
    2104                            .dwattr $C$DW$129, DW_AT_decl_line(0xaf)
    2105                            .dwattr $C$DW$129, DW_AT_decl_column(0x05)
    2106                    
    2107                            .dwattr $C$DW$T$646, DW_AT_decl_file("C:/ti/simplelink_cc13x0_sdk_2_30_00_20/source/ti/devices
    2108                            .dwattr $C$DW$T$646, DW_AT_decl_line(0xa5)
    2109                            .dwattr $C$DW$T$646, DW_AT_decl_column(0x01)
    2110                            .dwendtag $C$DW$T$646
    2111                    
    2112                    $C$DW$T$647     .dwtag  DW_TAG_typedef
    2113                            .dwattr $C$DW$T$647, DW_AT_name("tFlashStateCommandsType")
    2114                            .dwattr $C$DW$T$647, DW_AT_type(*$C$DW$T$646)
    2115                            .dwattr $C$DW$T$647, DW_AT_language(DW_LANG_C)
    2116                            .dwattr $C$DW$T$647, DW_AT_decl_file("C:/ti/simplelink_cc13x0_sdk_2_30_00_20/source/ti/devices
    2117                            .dwattr $C$DW$T$647, DW_AT_decl_line(0xb0)
    2118                            .dwattr $C$DW$T$647, DW_AT_decl_column(0x03)
    2119                    
    2120                    
    2121                    $C$DW$T$648     .dwtag  DW_TAG_enumeration_type
    2122                            .dwattr $C$DW$T$648, DW_AT_byte_size(0x01)
    2123                    $C$DW$130       .dwtag  DW_TAG_enumerator
    2124                            .dwattr $C$DW$130, DW_AT_name("ICALL_RTI_APP_CMD_EVENT")
    2125                            .dwattr $C$DW$130, DW_AT_const_value(0xe0)
    2126                            .dwattr $C$DW$130, DW_AT_decl_file("C:/ti/simplelink_cc13x0_sdk_2_30_00_20/source/ti/ti154stac
    2127                            .dwattr $C$DW$130, DW_AT_decl_line(0x3de)
    2128                            .dwattr $C$DW$130, DW_AT_decl_column(0x04)
    2129                    
    2130                    $C$DW$131       .dwtag  DW_TAG_enumerator
    2131                            .dwattr $C$DW$131, DW_AT_name("ICALL_RTI_STACK_CMD_EVENT")
    2132                            .dwattr $C$DW$131, DW_AT_const_value(0xe1)
    2133                            .dwattr $C$DW$131, DW_AT_decl_file("C:/ti/simplelink_cc13x0_sdk_2_30_00_20/source/ti/ti154stac
    2134                            .dwattr $C$DW$131, DW_AT_decl_line(0x3e0)
    2135                            .dwattr $C$DW$131, DW_AT_decl_column(0x04)
    2136                    
    2137                    $C$DW$132       .dwtag  DW_TAG_enumerator
TI ARM Assembler PC v18.1.3 Wed Nov 28 13:22:06 2018

Tools Copyright (c) 1996-2017 Texas Instruments Incorporated
C:\Users\Adrian\AppData\Local\Temp\{8ACD377C-A10A-4D34-8C0A-1BFA051003CA} PAGE   40

    2138                            .dwattr $C$DW$132, DW_AT_name("ICALL_RTI_APP_ASYNC_CMD_EVENT")
    2139                            .dwattr $C$DW$132, DW_AT_const_value(0xe2)
    2140                            .dwattr $C$DW$132, DW_AT_decl_file("C:/ti/simplelink_cc13x0_sdk_2_30_00_20/source/ti/ti154stac
    2141                            .dwattr $C$DW$132, DW_AT_decl_line(0x3e2)
    2142                            .dwattr $C$DW$132, DW_AT_decl_column(0x04)
    2143                    
    2144                    $C$DW$133       .dwtag  DW_TAG_enumerator
    2145                            .dwattr $C$DW$133, DW_AT_name("ICALL_RTI_APP_SYNC_CMD_EVENT")
    2146                            .dwattr $C$DW$133, DW_AT_const_value(0xe3)
    2147                            .dwattr $C$DW$133, DW_AT_decl_file("C:/ti/simplelink_cc13x0_sdk_2_30_00_20/source/ti/ti154stac
    2148                            .dwattr $C$DW$133, DW_AT_decl_line(0x3e4)
    2149                            .dwattr $C$DW$133, DW_AT_decl_column(0x04)
    2150                    
    2151                    $C$DW$134       .dwtag  DW_TAG_enumerator
    2152                            .dwattr $C$DW$134, DW_AT_name("ICALL_RCN_APP_ASYNC_CMD_EVENT")
    2153                            .dwattr $C$DW$134, DW_AT_const_value(0xe4)
    2154                            .dwattr $C$DW$134, DW_AT_decl_file("C:/ti/simplelink_cc13x0_sdk_2_30_00_20/source/ti/ti154stac
    2155                            .dwattr $C$DW$134, DW_AT_decl_line(0x3e6)
    2156                            .dwattr $C$DW$134, DW_AT_decl_column(0x04)
    2157                    
    2158                    $C$DW$135       .dwtag  DW_TAG_enumerator
    2159                            .dwattr $C$DW$135, DW_AT_name("ICALL_RCN_APP_SYNC_CMD_EVENT")
    2160                            .dwattr $C$DW$135, DW_AT_const_value(0xe5)
    2161                            .dwattr $C$DW$135, DW_AT_decl_file("C:/ti/simplelink_cc13x0_sdk_2_30_00_20/source/ti/ti154stac
    2162                            .dwattr $C$DW$135, DW_AT_decl_line(0x3e8)
    2163                            .dwattr $C$DW$135, DW_AT_decl_column(0x04)
    2164                    
    2165                            .dwattr $C$DW$T$648, DW_AT_decl_file("C:/ti/simplelink_cc13x0_sdk_2_30_00_20/source/ti/ti154st
    2166                            .dwattr $C$DW$T$648, DW_AT_decl_line(0x3dc)
    2167                            .dwattr $C$DW$T$648, DW_AT_decl_column(0x01)
    2168                            .dwendtag $C$DW$T$648
    2169                    
    2170                    $C$DW$T$649     .dwtag  DW_TAG_typedef
    2171                            .dwattr $C$DW$T$649, DW_AT_name("ICall_RemotiCmdEvent_t")
    2172                            .dwattr $C$DW$T$649, DW_AT_type(*$C$DW$T$648)
    2173                            .dwattr $C$DW$T$649, DW_AT_language(DW_LANG_C)
    2174                            .dwattr $C$DW$T$649, DW_AT_decl_file("C:/ti/simplelink_cc13x0_sdk_2_30_00_20/source/ti/ti154st
    2175                            .dwattr $C$DW$T$649, DW_AT_decl_line(0x3e9)
    2176                            .dwattr $C$DW$T$649, DW_AT_decl_column(0x02)
    2177                    
    2178                    
    2179                    $C$DW$T$144     .dwtag  DW_TAG_structure_type
    2180                            .dwattr $C$DW$T$144, DW_AT_byte_size(0x10)
    2181                    $C$DW$136       .dwtag  DW_TAG_member
    2182                            .dwattr $C$DW$136, DW_AT_type(*$C$DW$T$14)
    2183                            .dwattr $C$DW$136, DW_AT_name("__max_align1")
    2184                            .dwattr $C$DW$136, DW_AT_TI_symbol_name("__max_align1")
    2185                            .dwattr $C$DW$136, DW_AT_data_member_location[DW_OP_plus_uconst 0x0]
    2186                            .dwattr $C$DW$136, DW_AT_accessibility(DW_ACCESS_public)
    2187                            .dwattr $C$DW$136, DW_AT_decl_file("C:/ti/ccsv8/tools/compiler/ti-cgt-arm_18.1.3.LTS/include/s
    2188                            .dwattr $C$DW$136, DW_AT_decl_line(0x70)
    2189                            .dwattr $C$DW$136, DW_AT_decl_column(0x0c)
    2190                    
    2191                    $C$DW$137       .dwtag  DW_TAG_member
    2192                            .dwattr $C$DW$137, DW_AT_type(*$C$DW$T$18)
TI ARM Assembler PC v18.1.3 Wed Nov 28 13:22:06 2018

Tools Copyright (c) 1996-2017 Texas Instruments Incorporated
C:\Users\Adrian\AppData\Local\Temp\{8ACD377C-A10A-4D34-8C0A-1BFA051003CA} PAGE   41

    2193                            .dwattr $C$DW$137, DW_AT_name("__max_align2")
    2194                            .dwattr $C$DW$137, DW_AT_TI_symbol_name("__max_align2")
    2195                            .dwattr $C$DW$137, DW_AT_data_member_location[DW_OP_plus_uconst 0x8]
    2196                            .dwattr $C$DW$137, DW_AT_accessibility(DW_ACCESS_public)
    2197                            .dwattr $C$DW$137, DW_AT_decl_file("C:/ti/ccsv8/tools/compiler/ti-cgt-arm_18.1.3.LTS/include/s
    2198                            .dwattr $C$DW$137, DW_AT_decl_line(0x71)
    2199                            .dwattr $C$DW$137, DW_AT_decl_column(0x0e)
    2200                    
    2201                            .dwattr $C$DW$T$144, DW_AT_decl_file("C:/ti/ccsv8/tools/compiler/ti-cgt-arm_18.1.3.LTS/include
    2202                            .dwattr $C$DW$T$144, DW_AT_decl_line(0x6f)
    2203                            .dwattr $C$DW$T$144, DW_AT_decl_column(0x10)
    2204                            .dwendtag $C$DW$T$144
    2205                    
    2206                    $C$DW$T$650     .dwtag  DW_TAG_typedef
    2207                            .dwattr $C$DW$T$650, DW_AT_name("__max_align_t")
    2208                            .dwattr $C$DW$T$650, DW_AT_type(*$C$DW$T$144)
    2209                            .dwattr $C$DW$T$650, DW_AT_language(DW_LANG_C)
    2210                            .dwattr $C$DW$T$650, DW_AT_decl_file("C:/ti/ccsv8/tools/compiler/ti-cgt-arm_18.1.3.LTS/include
    2211                            .dwattr $C$DW$T$650, DW_AT_decl_line(0x72)
    2212                            .dwattr $C$DW$T$650, DW_AT_decl_column(0x03)
    2213                    
    2214                    
    2215                    $C$DW$T$189     .dwtag  DW_TAG_structure_type
    2216                            .dwattr $C$DW$T$189, DW_AT_byte_size(0x4c)
    2217                    $C$DW$138       .dwtag  DW_TAG_member
    2218                            .dwattr $C$DW$138, DW_AT_type(*$C$DW$T$152)
    2219                            .dwattr $C$DW$138, DW_AT_name("Crc32")
    2220                            .dwattr $C$DW$138, DW_AT_TI_symbol_name("Crc32")
    2221                            .dwattr $C$DW$138, DW_AT_data_member_location[DW_OP_plus_uconst 0x0]
    2222                            .dwattr $C$DW$138, DW_AT_accessibility(DW_ACCESS_public)
    2223                            .dwattr $C$DW$138, DW_AT_decl_file("C:\ti\simplelink_cc13x0_sdk_2_30_00_20\source\ti\devices\c
    2224                            .dwattr $C$DW$138, DW_AT_decl_line(0x76)
    2225                            .dwattr $C$DW$138, DW_AT_decl_column(0x25)
    2226                    
    2227                    $C$DW$139       .dwtag  DW_TAG_member
    2228                            .dwattr $C$DW$139, DW_AT_type(*$C$DW$T$155)
    2229                            .dwattr $C$DW$139, DW_AT_name("FlashGetSize")
    2230                            .dwattr $C$DW$139, DW_AT_TI_symbol_name("FlashGetSize")
    2231                            .dwattr $C$DW$139, DW_AT_data_member_location[DW_OP_plus_uconst 0x4]
    2232                            .dwattr $C$DW$139, DW_AT_accessibility(DW_ACCESS_public)
    2233                            .dwattr $C$DW$139, DW_AT_decl_file("C:\ti\simplelink_cc13x0_sdk_2_30_00_20\source\ti\devices\c
    2234                            .dwattr $C$DW$139, DW_AT_decl_line(0x77)
    2235                            .dwattr $C$DW$139, DW_AT_decl_column(0x25)
    2236                    
    2237                    $C$DW$140       .dwtag  DW_TAG_member
    2238                            .dwattr $C$DW$140, DW_AT_type(*$C$DW$T$156)
    2239                            .dwattr $C$DW$140, DW_AT_name("GetChipId")
    2240                            .dwattr $C$DW$140, DW_AT_TI_symbol_name("GetChipId")
    2241                            .dwattr $C$DW$140, DW_AT_data_member_location[DW_OP_plus_uconst 0x8]
    2242                            .dwattr $C$DW$140, DW_AT_accessibility(DW_ACCESS_public)
    2243                            .dwattr $C$DW$140, DW_AT_decl_file("C:\ti\simplelink_cc13x0_sdk_2_30_00_20\source\ti\devices\c
    2244                            .dwattr $C$DW$140, DW_AT_decl_line(0x78)
    2245                            .dwattr $C$DW$140, DW_AT_decl_column(0x25)
    2246                    
    2247                    $C$DW$141       .dwtag  DW_TAG_member
TI ARM Assembler PC v18.1.3 Wed Nov 28 13:22:06 2018

Tools Copyright (c) 1996-2017 Texas Instruments Incorporated
C:\Users\Adrian\AppData\Local\Temp\{8ACD377C-A10A-4D34-8C0A-1BFA051003CA} PAGE   42

    2248                            .dwattr $C$DW$141, DW_AT_type(*$C$DW$T$159)
    2249                            .dwattr $C$DW$141, DW_AT_name("ReservedLocation1")
    2250                            .dwattr $C$DW$141, DW_AT_TI_symbol_name("ReservedLocation1")
    2251                            .dwattr $C$DW$141, DW_AT_data_member_location[DW_OP_plus_uconst 0xc]
    2252                            .dwattr $C$DW$141, DW_AT_accessibility(DW_ACCESS_public)
    2253                            .dwattr $C$DW$141, DW_AT_decl_file("C:\ti\simplelink_cc13x0_sdk_2_30_00_20\source\ti\devices\c
    2254                            .dwattr $C$DW$141, DW_AT_decl_line(0x79)
    2255                            .dwattr $C$DW$141, DW_AT_decl_column(0x25)
    2256                    
    2257                    $C$DW$142       .dwtag  DW_TAG_member
    2258                            .dwattr $C$DW$142, DW_AT_type(*$C$DW$T$160)
    2259                            .dwattr $C$DW$142, DW_AT_name("ReservedLocation2")
    2260                            .dwattr $C$DW$142, DW_AT_TI_symbol_name("ReservedLocation2")
    2261                            .dwattr $C$DW$142, DW_AT_data_member_location[DW_OP_plus_uconst 0x10]
    2262                            .dwattr $C$DW$142, DW_AT_accessibility(DW_ACCESS_public)
    2263                            .dwattr $C$DW$142, DW_AT_decl_file("C:\ti\simplelink_cc13x0_sdk_2_30_00_20\source\ti\devices\c
    2264                            .dwattr $C$DW$142, DW_AT_decl_line(0x7a)
    2265                            .dwattr $C$DW$142, DW_AT_decl_column(0x25)
    2266                    
    2267                    $C$DW$143       .dwtag  DW_TAG_member
    2268                            .dwattr $C$DW$143, DW_AT_type(*$C$DW$T$161)
    2269                            .dwattr $C$DW$143, DW_AT_name("ReservedLocation3")
    2270                            .dwattr $C$DW$143, DW_AT_TI_symbol_name("ReservedLocation3")
    2271                            .dwattr $C$DW$143, DW_AT_data_member_location[DW_OP_plus_uconst 0x14]
    2272                            .dwattr $C$DW$143, DW_AT_accessibility(DW_ACCESS_public)
    2273                            .dwattr $C$DW$143, DW_AT_decl_file("C:\ti\simplelink_cc13x0_sdk_2_30_00_20\source\ti\devices\c
    2274                            .dwattr $C$DW$143, DW_AT_decl_line(0x7b)
    2275                            .dwattr $C$DW$143, DW_AT_decl_column(0x25)
    2276                    
    2277                    $C$DW$144       .dwtag  DW_TAG_member
    2278                            .dwattr $C$DW$144, DW_AT_type(*$C$DW$T$164)
    2279                            .dwattr $C$DW$144, DW_AT_name("ResetDevice")
    2280                            .dwattr $C$DW$144, DW_AT_TI_symbol_name("ResetDevice")
    2281                            .dwattr $C$DW$144, DW_AT_data_member_location[DW_OP_plus_uconst 0x18]
    2282                            .dwattr $C$DW$144, DW_AT_accessibility(DW_ACCESS_public)
    2283                            .dwattr $C$DW$144, DW_AT_decl_file("C:\ti\simplelink_cc13x0_sdk_2_30_00_20\source\ti\devices\c
    2284                            .dwattr $C$DW$144, DW_AT_decl_line(0x7c)
    2285                            .dwattr $C$DW$144, DW_AT_decl_column(0x25)
    2286                    
    2287                    $C$DW$145       .dwtag  DW_TAG_member
    2288                            .dwattr $C$DW$145, DW_AT_type(*$C$DW$T$170)
    2289                            .dwattr $C$DW$145, DW_AT_name("Fletcher32")
    2290                            .dwattr $C$DW$145, DW_AT_TI_symbol_name("Fletcher32")
    2291                            .dwattr $C$DW$145, DW_AT_data_member_location[DW_OP_plus_uconst 0x1c]
    2292                            .dwattr $C$DW$145, DW_AT_accessibility(DW_ACCESS_public)
    2293                            .dwattr $C$DW$145, DW_AT_decl_file("C:\ti\simplelink_cc13x0_sdk_2_30_00_20\source\ti\devices\c
    2294                            .dwattr $C$DW$145, DW_AT_decl_line(0x7d)
    2295                            .dwattr $C$DW$145, DW_AT_decl_column(0x25)
    2296                    
    2297                    $C$DW$146       .dwtag  DW_TAG_member
    2298                            .dwattr $C$DW$146, DW_AT_type(*$C$DW$T$174)
    2299                            .dwattr $C$DW$146, DW_AT_name("MinValue")
    2300                            .dwattr $C$DW$146, DW_AT_TI_symbol_name("MinValue")
    2301                            .dwattr $C$DW$146, DW_AT_data_member_location[DW_OP_plus_uconst 0x20]
    2302                            .dwattr $C$DW$146, DW_AT_accessibility(DW_ACCESS_public)
TI ARM Assembler PC v18.1.3 Wed Nov 28 13:22:06 2018

Tools Copyright (c) 1996-2017 Texas Instruments Incorporated
C:\Users\Adrian\AppData\Local\Temp\{8ACD377C-A10A-4D34-8C0A-1BFA051003CA} PAGE   43

    2303                            .dwattr $C$DW$146, DW_AT_decl_file("C:\ti\simplelink_cc13x0_sdk_2_30_00_20\source\ti\devices\c
    2304                            .dwattr $C$DW$146, DW_AT_decl_line(0x7e)
    2305                            .dwattr $C$DW$146, DW_AT_decl_column(0x25)
    2306                    
    2307                    $C$DW$147       .dwtag  DW_TAG_member
    2308                            .dwattr $C$DW$147, DW_AT_type(*$C$DW$T$175)
    2309                            .dwattr $C$DW$147, DW_AT_name("MaxValue")
    2310                            .dwattr $C$DW$147, DW_AT_TI_symbol_name("MaxValue")
    2311                            .dwattr $C$DW$147, DW_AT_data_member_location[DW_OP_plus_uconst 0x24]
    2312                            .dwattr $C$DW$147, DW_AT_accessibility(DW_ACCESS_public)
    2313                            .dwattr $C$DW$147, DW_AT_decl_file("C:\ti\simplelink_cc13x0_sdk_2_30_00_20\source\ti\devices\c
    2314                            .dwattr $C$DW$147, DW_AT_decl_line(0x7f)
    2315                            .dwattr $C$DW$147, DW_AT_decl_column(0x25)
    2316                    
    2317                    $C$DW$148       .dwtag  DW_TAG_member
    2318                            .dwattr $C$DW$148, DW_AT_type(*$C$DW$T$176)
    2319                            .dwattr $C$DW$148, DW_AT_name("MeanValue")
    2320                            .dwattr $C$DW$148, DW_AT_TI_symbol_name("MeanValue")
    2321                            .dwattr $C$DW$148, DW_AT_data_member_location[DW_OP_plus_uconst 0x28]
    2322                            .dwattr $C$DW$148, DW_AT_accessibility(DW_ACCESS_public)
    2323                            .dwattr $C$DW$148, DW_AT_decl_file("C:\ti\simplelink_cc13x0_sdk_2_30_00_20\source\ti\devices\c
    2324                            .dwattr $C$DW$148, DW_AT_decl_line(0x80)
    2325                            .dwattr $C$DW$148, DW_AT_decl_column(0x25)
    2326                    
    2327                    $C$DW$149       .dwtag  DW_TAG_member
    2328                            .dwattr $C$DW$149, DW_AT_type(*$C$DW$T$177)
    2329                            .dwattr $C$DW$149, DW_AT_name("StandDeviationValue")
    2330                            .dwattr $C$DW$149, DW_AT_TI_symbol_name("StandDeviationValue")
    2331                            .dwattr $C$DW$149, DW_AT_data_member_location[DW_OP_plus_uconst 0x2c]
    2332                            .dwattr $C$DW$149, DW_AT_accessibility(DW_ACCESS_public)
    2333                            .dwattr $C$DW$149, DW_AT_decl_file("C:\ti\simplelink_cc13x0_sdk_2_30_00_20\source\ti\devices\c
    2334                            .dwattr $C$DW$149, DW_AT_decl_line(0x81)
    2335                            .dwattr $C$DW$149, DW_AT_decl_column(0x25)
    2336                    
    2337                    $C$DW$150       .dwtag  DW_TAG_member
    2338                            .dwattr $C$DW$150, DW_AT_type(*$C$DW$T$180)
    2339                            .dwattr $C$DW$150, DW_AT_name("ReservedLocation4")
    2340                            .dwattr $C$DW$150, DW_AT_TI_symbol_name("ReservedLocation4")
    2341                            .dwattr $C$DW$150, DW_AT_data_member_location[DW_OP_plus_uconst 0x30]
    2342                            .dwattr $C$DW$150, DW_AT_accessibility(DW_ACCESS_public)
    2343                            .dwattr $C$DW$150, DW_AT_decl_file("C:\ti\simplelink_cc13x0_sdk_2_30_00_20\source\ti\devices\c
    2344                            .dwattr $C$DW$150, DW_AT_decl_line(0x82)
    2345                            .dwattr $C$DW$150, DW_AT_decl_column(0x25)
    2346                    
    2347                    $C$DW$151       .dwtag  DW_TAG_member
    2348                            .dwattr $C$DW$151, DW_AT_type(*$C$DW$T$181)
    2349                            .dwattr $C$DW$151, DW_AT_name("ReservedLocation5")
    2350                            .dwattr $C$DW$151, DW_AT_TI_symbol_name("ReservedLocation5")
    2351                            .dwattr $C$DW$151, DW_AT_data_member_location[DW_OP_plus_uconst 0x34]
    2352                            .dwattr $C$DW$151, DW_AT_accessibility(DW_ACCESS_public)
    2353                            .dwattr $C$DW$151, DW_AT_decl_file("C:\ti\simplelink_cc13x0_sdk_2_30_00_20\source\ti\devices\c
    2354                            .dwattr $C$DW$151, DW_AT_decl_line(0x83)
    2355                            .dwattr $C$DW$151, DW_AT_decl_column(0x25)
    2356                    
    2357                    $C$DW$152       .dwtag  DW_TAG_member
TI ARM Assembler PC v18.1.3 Wed Nov 28 13:22:06 2018

Tools Copyright (c) 1996-2017 Texas Instruments Incorporated
C:\Users\Adrian\AppData\Local\Temp\{8ACD377C-A10A-4D34-8C0A-1BFA051003CA} PAGE   44

    2358                            .dwattr $C$DW$152, DW_AT_type(*$C$DW$T$182)
    2359                            .dwattr $C$DW$152, DW_AT_name("HFSourceSafeSwitch")
    2360                            .dwattr $C$DW$152, DW_AT_TI_symbol_name("HFSourceSafeSwitch")
    2361                            .dwattr $C$DW$152, DW_AT_data_member_location[DW_OP_plus_uconst 0x38]
    2362                            .dwattr $C$DW$152, DW_AT_accessibility(DW_ACCESS_public)
    2363                            .dwattr $C$DW$152, DW_AT_decl_file("C:\ti\simplelink_cc13x0_sdk_2_30_00_20\source\ti\devices\c
    2364                            .dwattr $C$DW$152, DW_AT_decl_line(0x84)
    2365                            .dwattr $C$DW$152, DW_AT_decl_column(0x25)
    2366                    
    2367                    $C$DW$153       .dwtag  DW_TAG_member
    2368                            .dwattr $C$DW$153, DW_AT_type(*$C$DW$T$185)
    2369                            .dwattr $C$DW$153, DW_AT_name("SelectCompAInput")
    2370                            .dwattr $C$DW$153, DW_AT_TI_symbol_name("SelectCompAInput")
    2371                            .dwattr $C$DW$153, DW_AT_data_member_location[DW_OP_plus_uconst 0x3c]
    2372                            .dwattr $C$DW$153, DW_AT_accessibility(DW_ACCESS_public)
    2373                            .dwattr $C$DW$153, DW_AT_decl_file("C:\ti\simplelink_cc13x0_sdk_2_30_00_20\source\ti\devices\c
    2374                            .dwattr $C$DW$153, DW_AT_decl_line(0x85)
    2375                            .dwattr $C$DW$153, DW_AT_decl_column(0x25)
    2376                    
    2377                    $C$DW$154       .dwtag  DW_TAG_member
    2378                            .dwattr $C$DW$154, DW_AT_type(*$C$DW$T$186)
    2379                            .dwattr $C$DW$154, DW_AT_name("SelectCompARef")
    2380                            .dwattr $C$DW$154, DW_AT_TI_symbol_name("SelectCompARef")
    2381                            .dwattr $C$DW$154, DW_AT_data_member_location[DW_OP_plus_uconst 0x40]
    2382                            .dwattr $C$DW$154, DW_AT_accessibility(DW_ACCESS_public)
    2383                            .dwattr $C$DW$154, DW_AT_decl_file("C:\ti\simplelink_cc13x0_sdk_2_30_00_20\source\ti\devices\c
    2384                            .dwattr $C$DW$154, DW_AT_decl_line(0x86)
    2385                            .dwattr $C$DW$154, DW_AT_decl_column(0x25)
    2386                    
    2387                    $C$DW$155       .dwtag  DW_TAG_member
    2388                            .dwattr $C$DW$155, DW_AT_type(*$C$DW$T$187)
    2389                            .dwattr $C$DW$155, DW_AT_name("SelectADCCompBInput")
    2390                            .dwattr $C$DW$155, DW_AT_TI_symbol_name("SelectADCCompBInput")
    2391                            .dwattr $C$DW$155, DW_AT_data_member_location[DW_OP_plus_uconst 0x44]
    2392                            .dwattr $C$DW$155, DW_AT_accessibility(DW_ACCESS_public)
    2393                            .dwattr $C$DW$155, DW_AT_decl_file("C:\ti\simplelink_cc13x0_sdk_2_30_00_20\source\ti\devices\c
    2394                            .dwattr $C$DW$155, DW_AT_decl_line(0x87)
    2395                            .dwattr $C$DW$155, DW_AT_decl_column(0x25)
    2396                    
    2397                    $C$DW$156       .dwtag  DW_TAG_member
    2398                            .dwattr $C$DW$156, DW_AT_type(*$C$DW$T$188)
    2399                            .dwattr $C$DW$156, DW_AT_name("SelectCompBRef")
    2400                            .dwattr $C$DW$156, DW_AT_TI_symbol_name("SelectCompBRef")
    2401                            .dwattr $C$DW$156, DW_AT_data_member_location[DW_OP_plus_uconst 0x48]
    2402                            .dwattr $C$DW$156, DW_AT_accessibility(DW_ACCESS_public)
    2403                            .dwattr $C$DW$156, DW_AT_decl_file("C:\ti\simplelink_cc13x0_sdk_2_30_00_20\source\ti\devices\c
    2404                            .dwattr $C$DW$156, DW_AT_decl_line(0x88)
    2405                            .dwattr $C$DW$156, DW_AT_decl_column(0x25)
    2406                    
    2407                            .dwattr $C$DW$T$189, DW_AT_decl_file("C:\ti\simplelink_cc13x0_sdk_2_30_00_20\source\ti\devices
    2408                            .dwattr $C$DW$T$189, DW_AT_decl_line(0x75)
    2409                            .dwattr $C$DW$T$189, DW_AT_decl_column(0x01)
    2410                            .dwendtag $C$DW$T$189
    2411                    
    2412                    $C$DW$T$651     .dwtag  DW_TAG_typedef
TI ARM Assembler PC v18.1.3 Wed Nov 28 13:22:06 2018

Tools Copyright (c) 1996-2017 Texas Instruments Incorporated
C:\Users\Adrian\AppData\Local\Temp\{8ACD377C-A10A-4D34-8C0A-1BFA051003CA} PAGE   45

    2413                            .dwattr $C$DW$T$651, DW_AT_name("HARD_API_T")
    2414                            .dwattr $C$DW$T$651, DW_AT_type(*$C$DW$T$189)
    2415                            .dwattr $C$DW$T$651, DW_AT_language(DW_LANG_C)
    2416                            .dwattr $C$DW$T$651, DW_AT_decl_file("C:\ti\simplelink_cc13x0_sdk_2_30_00_20\source\ti\devices
    2417                            .dwattr $C$DW$T$651, DW_AT_decl_line(0x89)
    2418                            .dwattr $C$DW$T$651, DW_AT_decl_column(0x03)
    2419                    
    2420                    
    2421                    $C$DW$T$190     .dwtag  DW_TAG_structure_type
    2422                            .dwattr $C$DW$T$190, DW_AT_byte_size(0x08)
    2423                    $C$DW$157       .dwtag  DW_TAG_member
    2424                            .dwattr $C$DW$157, DW_AT_type(*$C$DW$T$10)
    2425                            .dwattr $C$DW$157, DW_AT_name("quot")
    2426                            .dwattr $C$DW$157, DW_AT_TI_symbol_name("quot")
    2427                            .dwattr $C$DW$157, DW_AT_data_member_location[DW_OP_plus_uconst 0x0]
    2428                            .dwattr $C$DW$157, DW_AT_accessibility(DW_ACCESS_public)
    2429                            .dwattr $C$DW$157, DW_AT_decl_file("C:/ti/ccsv8/tools/compiler/ti-cgt-arm_18.1.3.LTS/include/s
    2430                            .dwattr $C$DW$157, DW_AT_decl_line(0x49)
    2431                            .dwattr $C$DW$157, DW_AT_decl_column(0x16)
    2432                    
    2433                    $C$DW$158       .dwtag  DW_TAG_member
    2434                            .dwattr $C$DW$158, DW_AT_type(*$C$DW$T$10)
    2435                            .dwattr $C$DW$158, DW_AT_name("rem")
    2436                            .dwattr $C$DW$158, DW_AT_TI_symbol_name("rem")
    2437                            .dwattr $C$DW$158, DW_AT_data_member_location[DW_OP_plus_uconst 0x4]
    2438                            .dwattr $C$DW$158, DW_AT_accessibility(DW_ACCESS_public)
    2439                            .dwattr $C$DW$158, DW_AT_decl_file("C:/ti/ccsv8/tools/compiler/ti-cgt-arm_18.1.3.LTS/include/s
    2440                            .dwattr $C$DW$158, DW_AT_decl_line(0x49)
    2441                            .dwattr $C$DW$158, DW_AT_decl_column(0x1c)
    2442                    
    2443                            .dwattr $C$DW$T$190, DW_AT_decl_file("C:/ti/ccsv8/tools/compiler/ti-cgt-arm_18.1.3.LTS/include
    2444                            .dwattr $C$DW$T$190, DW_AT_decl_line(0x49)
    2445                            .dwattr $C$DW$T$190, DW_AT_decl_column(0x10)
    2446                            .dwendtag $C$DW$T$190
    2447                    
    2448                    $C$DW$T$652     .dwtag  DW_TAG_typedef
    2449                            .dwattr $C$DW$T$652, DW_AT_name("div_t")
    2450                            .dwattr $C$DW$T$652, DW_AT_type(*$C$DW$T$190)
    2451                            .dwattr $C$DW$T$652, DW_AT_language(DW_LANG_C)
    2452                            .dwattr $C$DW$T$652, DW_AT_decl_file("C:/ti/ccsv8/tools/compiler/ti-cgt-arm_18.1.3.LTS/include
    2453                            .dwattr $C$DW$T$652, DW_AT_decl_line(0x49)
    2454                            .dwattr $C$DW$T$652, DW_AT_decl_column(0x23)
    2455                    
    2456                    
    2457                    $C$DW$T$191     .dwtag  DW_TAG_structure_type
    2458                            .dwattr $C$DW$T$191, DW_AT_byte_size(0x08)
    2459                    $C$DW$159       .dwtag  DW_TAG_member
    2460                            .dwattr $C$DW$159, DW_AT_type(*$C$DW$T$10)
    2461                            .dwattr $C$DW$159, DW_AT_name("quot")
    2462                            .dwattr $C$DW$159, DW_AT_TI_symbol_name("quot")
    2463                            .dwattr $C$DW$159, DW_AT_data_member_location[DW_OP_plus_uconst 0x0]
    2464                            .dwattr $C$DW$159, DW_AT_accessibility(DW_ACCESS_public)
    2465                            .dwattr $C$DW$159, DW_AT_decl_file("C:/ti/ccsv8/tools/compiler/ti-cgt-arm_18.1.3.LTS/include/s
    2466                            .dwattr $C$DW$159, DW_AT_decl_line(0x4e)
    2467                            .dwattr $C$DW$159, DW_AT_decl_column(0x16)
TI ARM Assembler PC v18.1.3 Wed Nov 28 13:22:06 2018

Tools Copyright (c) 1996-2017 Texas Instruments Incorporated
C:\Users\Adrian\AppData\Local\Temp\{8ACD377C-A10A-4D34-8C0A-1BFA051003CA} PAGE   46

    2468                    
    2469                    $C$DW$160       .dwtag  DW_TAG_member
    2470                            .dwattr $C$DW$160, DW_AT_type(*$C$DW$T$10)
    2471                            .dwattr $C$DW$160, DW_AT_name("rem")
    2472                            .dwattr $C$DW$160, DW_AT_TI_symbol_name("rem")
    2473                            .dwattr $C$DW$160, DW_AT_data_member_location[DW_OP_plus_uconst 0x4]
    2474                            .dwattr $C$DW$160, DW_AT_accessibility(DW_ACCESS_public)
    2475                            .dwattr $C$DW$160, DW_AT_decl_file("C:/ti/ccsv8/tools/compiler/ti-cgt-arm_18.1.3.LTS/include/s
    2476                            .dwattr $C$DW$160, DW_AT_decl_line(0x4e)
    2477                            .dwattr $C$DW$160, DW_AT_decl_column(0x1c)
    2478                    
    2479                            .dwattr $C$DW$T$191, DW_AT_decl_file("C:/ti/ccsv8/tools/compiler/ti-cgt-arm_18.1.3.LTS/include
    2480                            .dwattr $C$DW$T$191, DW_AT_decl_line(0x4e)
    2481                            .dwattr $C$DW$T$191, DW_AT_decl_column(0x10)
    2482                            .dwendtag $C$DW$T$191
    2483                    
    2484                    $C$DW$T$653     .dwtag  DW_TAG_typedef
    2485                            .dwattr $C$DW$T$653, DW_AT_name("ldiv_t")
    2486                            .dwattr $C$DW$T$653, DW_AT_type(*$C$DW$T$191)
    2487                            .dwattr $C$DW$T$653, DW_AT_language(DW_LANG_C)
    2488                            .dwattr $C$DW$T$653, DW_AT_decl_file("C:/ti/ccsv8/tools/compiler/ti-cgt-arm_18.1.3.LTS/include
    2489                            .dwattr $C$DW$T$653, DW_AT_decl_line(0x4e)
    2490                            .dwattr $C$DW$T$653, DW_AT_decl_column(0x23)
    2491                    
    2492                    
    2493                    $C$DW$T$192     .dwtag  DW_TAG_structure_type
    2494                            .dwattr $C$DW$T$192, DW_AT_byte_size(0x10)
    2495                    $C$DW$161       .dwtag  DW_TAG_member
    2496                            .dwattr $C$DW$161, DW_AT_type(*$C$DW$T$14)
    2497                            .dwattr $C$DW$161, DW_AT_name("quot")
    2498                            .dwattr $C$DW$161, DW_AT_TI_symbol_name("quot")
    2499                            .dwattr $C$DW$161, DW_AT_data_member_location[DW_OP_plus_uconst 0x0]
    2500                            .dwattr $C$DW$161, DW_AT_accessibility(DW_ACCESS_public)
    2501                            .dwattr $C$DW$161, DW_AT_decl_file("C:/ti/ccsv8/tools/compiler/ti-cgt-arm_18.1.3.LTS/include/s
    2502                            .dwattr $C$DW$161, DW_AT_decl_line(0x56)
    2503                            .dwattr $C$DW$161, DW_AT_decl_column(0x1c)
    2504                    
    2505                    $C$DW$162       .dwtag  DW_TAG_member
    2506                            .dwattr $C$DW$162, DW_AT_type(*$C$DW$T$14)
    2507                            .dwattr $C$DW$162, DW_AT_name("rem")
    2508                            .dwattr $C$DW$162, DW_AT_TI_symbol_name("rem")
    2509                            .dwattr $C$DW$162, DW_AT_data_member_location[DW_OP_plus_uconst 0x8]
    2510                            .dwattr $C$DW$162, DW_AT_accessibility(DW_ACCESS_public)
    2511                            .dwattr $C$DW$162, DW_AT_decl_file("C:/ti/ccsv8/tools/compiler/ti-cgt-arm_18.1.3.LTS/include/s
    2512                            .dwattr $C$DW$162, DW_AT_decl_line(0x56)
    2513                            .dwattr $C$DW$162, DW_AT_decl_column(0x22)
    2514                    
    2515                            .dwattr $C$DW$T$192, DW_AT_decl_file("C:/ti/ccsv8/tools/compiler/ti-cgt-arm_18.1.3.LTS/include
    2516                            .dwattr $C$DW$T$192, DW_AT_decl_line(0x56)
    2517                            .dwattr $C$DW$T$192, DW_AT_decl_column(0x10)
    2518                            .dwendtag $C$DW$T$192
    2519                    
    2520                    $C$DW$T$654     .dwtag  DW_TAG_typedef
    2521                            .dwattr $C$DW$T$654, DW_AT_name("lldiv_t")
    2522                            .dwattr $C$DW$T$654, DW_AT_type(*$C$DW$T$192)
TI ARM Assembler PC v18.1.3 Wed Nov 28 13:22:06 2018

Tools Copyright (c) 1996-2017 Texas Instruments Incorporated
C:\Users\Adrian\AppData\Local\Temp\{8ACD377C-A10A-4D34-8C0A-1BFA051003CA} PAGE   47

    2523                            .dwattr $C$DW$T$654, DW_AT_language(DW_LANG_C)
    2524                            .dwattr $C$DW$T$654, DW_AT_decl_file("C:/ti/ccsv8/tools/compiler/ti-cgt-arm_18.1.3.LTS/include
    2525                            .dwattr $C$DW$T$654, DW_AT_decl_line(0x56)
    2526                            .dwattr $C$DW$T$654, DW_AT_decl_column(0x29)
    2527                    
    2528                    
    2529                    $C$DW$T$197     .dwtag  DW_TAG_structure_type
    2530                            .dwattr $C$DW$T$197, DW_AT_byte_size(0x08)
    2531                    $C$DW$163       .dwtag  DW_TAG_member
    2532                            .dwattr $C$DW$163, DW_AT_type(*$C$DW$T$195)
    2533                            .dwattr $C$DW$163, DW_AT_name("pointerStack")
    2534                            .dwattr $C$DW$163, DW_AT_TI_symbol_name("pointerStack")
    2535                            .dwattr $C$DW$163, DW_AT_data_member_location[DW_OP_plus_uconst 0x0]
    2536                            .dwattr $C$DW$163, DW_AT_accessibility(DW_ACCESS_public)
    2537                            .dwattr $C$DW$163, DW_AT_decl_file("C:/ti/simplelink_cc13x0_sdk_2_30_00_20/source/ti/ti154stac
    2538                            .dwattr $C$DW$163, DW_AT_decl_line(0x3f5)
    2539                            .dwattr $C$DW$163, DW_AT_decl_column(0x16)
    2540                    
    2541                    $C$DW$164       .dwtag  DW_TAG_member
    2542                            .dwattr $C$DW$164, DW_AT_type(*$C$DW$T$196)
    2543                            .dwattr $C$DW$164, DW_AT_name("directAPI")
    2544                            .dwattr $C$DW$164, DW_AT_TI_symbol_name("directAPI")
    2545                            .dwattr $C$DW$164, DW_AT_data_member_location[DW_OP_plus_uconst 0x4]
    2546                            .dwattr $C$DW$164, DW_AT_accessibility(DW_ACCESS_public)
    2547                            .dwattr $C$DW$164, DW_AT_decl_file("C:/ti/simplelink_cc13x0_sdk_2_30_00_20/source/ti/ti154stac
    2548                            .dwattr $C$DW$164, DW_AT_decl_line(0x3f6)
    2549                            .dwattr $C$DW$164, DW_AT_decl_column(0x15)
    2550                    
    2551                            .dwattr $C$DW$T$197, DW_AT_decl_file("C:/ti/simplelink_cc13x0_sdk_2_30_00_20/source/ti/ti154st
    2552                            .dwattr $C$DW$T$197, DW_AT_decl_line(0x3f4)
    2553                            .dwattr $C$DW$T$197, DW_AT_decl_column(0x01)
    2554                            .dwendtag $C$DW$T$197
    2555                    
    2556                    $C$DW$T$199     .dwtag  DW_TAG_typedef
    2557                            .dwattr $C$DW$T$199, DW_AT_name("icall_directAPIMsg_t")
    2558                            .dwattr $C$DW$T$199, DW_AT_type(*$C$DW$T$197)
    2559                            .dwattr $C$DW$T$199, DW_AT_language(DW_LANG_C)
    2560                            .dwattr $C$DW$T$199, DW_AT_decl_file("C:/ti/simplelink_cc13x0_sdk_2_30_00_20/source/ti/ti154st
    2561                            .dwattr $C$DW$T$199, DW_AT_decl_line(0x3f7)
    2562                            .dwattr $C$DW$T$199, DW_AT_decl_column(0x03)
    2563                    
    2564                    
    2565                    $C$DW$T$200     .dwtag  DW_TAG_structure_type
    2566                            .dwattr $C$DW$T$200, DW_AT_byte_size(0x14)
    2567                    $C$DW$165       .dwtag  DW_TAG_member
    2568                            .dwattr $C$DW$165, DW_AT_type(*$C$DW$T$198)
    2569                            .dwattr $C$DW$165, DW_AT_name("hdr")
    2570                            .dwattr $C$DW$165, DW_AT_TI_symbol_name("hdr")
    2571                            .dwattr $C$DW$165, DW_AT_data_member_location[DW_OP_plus_uconst 0x0]
    2572                            .dwattr $C$DW$165, DW_AT_accessibility(DW_ACCESS_public)
    2573                            .dwattr $C$DW$165, DW_AT_decl_file("C:/ti/simplelink_cc13x0_sdk_2_30_00_20/source/ti/ti154stac
    2574                            .dwattr $C$DW$165, DW_AT_decl_line(0x3fb)
    2575                            .dwattr $C$DW$165, DW_AT_decl_column(0x10)
    2576                    
    2577                    $C$DW$166       .dwtag  DW_TAG_member
TI ARM Assembler PC v18.1.3 Wed Nov 28 13:22:06 2018

Tools Copyright (c) 1996-2017 Texas Instruments Incorporated
C:\Users\Adrian\AppData\Local\Temp\{8ACD377C-A10A-4D34-8C0A-1BFA051003CA} PAGE   48

    2578                            .dwattr $C$DW$166, DW_AT_type(*$C$DW$T$199)
    2579                            .dwattr $C$DW$166, DW_AT_name("msg")
    2580                            .dwattr $C$DW$166, DW_AT_TI_symbol_name("msg")
    2581                            .dwattr $C$DW$166, DW_AT_data_member_location[DW_OP_plus_uconst 0xc]
    2582                            .dwattr $C$DW$166, DW_AT_accessibility(DW_ACCESS_public)
    2583                            .dwattr $C$DW$166, DW_AT_decl_file("C:/ti/simplelink_cc13x0_sdk_2_30_00_20/source/ti/ti154stac
    2584                            .dwattr $C$DW$166, DW_AT_decl_line(0x3fc)
    2585                            .dwattr $C$DW$166, DW_AT_decl_column(0x1a)
    2586                    
    2587                            .dwattr $C$DW$T$200, DW_AT_decl_file("C:/ti/simplelink_cc13x0_sdk_2_30_00_20/source/ti/ti154st
    2588                            .dwattr $C$DW$T$200, DW_AT_decl_line(0x3fa)
    2589                            .dwattr $C$DW$T$200, DW_AT_decl_column(0x01)
    2590                            .dwendtag $C$DW$T$200
    2591                    
    2592                    $C$DW$T$655     .dwtag  DW_TAG_typedef
    2593                            .dwattr $C$DW$T$655, DW_AT_name("icallLiteMsg_t")
    2594                            .dwattr $C$DW$T$655, DW_AT_type(*$C$DW$T$200)
    2595                            .dwattr $C$DW$T$655, DW_AT_language(DW_LANG_C)
    2596                            .dwattr $C$DW$T$655, DW_AT_decl_file("C:/ti/simplelink_cc13x0_sdk_2_30_00_20/source/ti/ti154st
    2597                            .dwattr $C$DW$T$655, DW_AT_decl_line(0x3fd)
    2598                            .dwattr $C$DW$T$655, DW_AT_decl_column(0x03)
    2599                    
    2600                    
    2601                    $C$DW$T$204     .dwtag  DW_TAG_structure_type
    2602                            .dwattr $C$DW$T$204, DW_AT_byte_size(0x08)
    2603                    $C$DW$167       .dwtag  DW_TAG_member
    2604                            .dwattr $C$DW$167, DW_AT_type(*$C$DW$T$10)
    2605                            .dwattr $C$DW$167, DW_AT_name("length")
    2606                            .dwattr $C$DW$167, DW_AT_TI_symbol_name("length")
    2607                            .dwattr $C$DW$167, DW_AT_data_member_location[DW_OP_plus_uconst 0x0]
    2608                            .dwattr $C$DW$167, DW_AT_accessibility(DW_ACCESS_public)
    2609                            .dwattr $C$DW$167, DW_AT_decl_file("C:/ti/simplelink_cc13x0_sdk_2_30_00_20/kernel/tirtos/packa
    2610                            .dwattr $C$DW$167, DW_AT_decl_line(0x36f)
    2611                            .dwattr $C$DW$167, DW_AT_decl_column(0x16)
    2612                    
    2613                    $C$DW$168       .dwtag  DW_TAG_member
    2614                            .dwattr $C$DW$168, DW_AT_type(*$C$DW$T$203)
    2615                            .dwattr $C$DW$168, DW_AT_name("elem")
    2616                            .dwattr $C$DW$168, DW_AT_TI_symbol_name("elem")
    2617                            .dwattr $C$DW$168, DW_AT_data_member_location[DW_OP_plus_uconst 0x4]
    2618                            .dwattr $C$DW$168, DW_AT_accessibility(DW_ACCESS_public)
    2619                            .dwattr $C$DW$168, DW_AT_decl_file("C:/ti/simplelink_cc13x0_sdk_2_30_00_20/kernel/tirtos/packa
    2620                            .dwattr $C$DW$168, DW_AT_decl_line(0x36f)
    2621                            .dwattr $C$DW$168, DW_AT_decl_column(0x44)
    2622                    
    2623                            .dwattr $C$DW$T$204, DW_AT_decl_file("C:/ti/simplelink_cc13x0_sdk_2_30_00_20/kernel/tirtos/pac
    2624                            .dwattr $C$DW$T$204, DW_AT_decl_line(0x36f)
    2625                            .dwattr $C$DW$T$204, DW_AT_decl_column(0x10)
    2626                            .dwendtag $C$DW$T$204
    2627                    
    2628                    $C$DW$T$656     .dwtag  DW_TAG_typedef
    2629                            .dwattr $C$DW$T$656, DW_AT_name("ARRAY1_ti_sysbios_family_arm_m3_Hwi_hooks")
    2630                            .dwattr $C$DW$T$656, DW_AT_type(*$C$DW$T$204)
    2631                            .dwattr $C$DW$T$656, DW_AT_language(DW_LANG_C)
    2632                            .dwattr $C$DW$T$656, DW_AT_decl_file("C:/ti/simplelink_cc13x0_sdk_2_30_00_20/kernel/tirtos/pac
TI ARM Assembler PC v18.1.3 Wed Nov 28 13:22:06 2018

Tools Copyright (c) 1996-2017 Texas Instruments Incorporated
C:\Users\Adrian\AppData\Local\Temp\{8ACD377C-A10A-4D34-8C0A-1BFA051003CA} PAGE   49

    2633                            .dwattr $C$DW$T$656, DW_AT_decl_line(0x36f)
    2634                            .dwattr $C$DW$T$656, DW_AT_decl_column(0x4c)
    2635                    
    2636                    
    2637                    $C$DW$T$207     .dwtag  DW_TAG_structure_type
    2638                            .dwattr $C$DW$T$207, DW_AT_byte_size(0x08)
    2639                    $C$DW$169       .dwtag  DW_TAG_member
    2640                            .dwattr $C$DW$169, DW_AT_type(*$C$DW$T$10)
    2641                            .dwattr $C$DW$169, DW_AT_name("length")
    2642                            .dwattr $C$DW$169, DW_AT_TI_symbol_name("length")
    2643                            .dwattr $C$DW$169, DW_AT_data_member_location[DW_OP_plus_uconst 0x0]
    2644                            .dwattr $C$DW$169, DW_AT_accessibility(DW_ACCESS_public)
    2645                            .dwattr $C$DW$169, DW_AT_decl_file("C:/ti/simplelink_cc13x0_sdk_2_30_00_20/kernel/tirtos/packa
    2646                            .dwattr $C$DW$169, DW_AT_decl_line(0x370)
    2647                            .dwattr $C$DW$169, DW_AT_decl_column(0x16)
    2648                    
    2649                    $C$DW$170       .dwtag  DW_TAG_member
    2650                            .dwattr $C$DW$170, DW_AT_type(*$C$DW$T$206)
    2651                            .dwattr $C$DW$170, DW_AT_name("elem")
    2652                            .dwattr $C$DW$170, DW_AT_TI_symbol_name("elem")
    2653                            .dwattr $C$DW$170, DW_AT_data_member_location[DW_OP_plus_uconst 0x4]
    2654                            .dwattr $C$DW$170, DW_AT_accessibility(DW_ACCESS_public)
    2655                            .dwattr $C$DW$170, DW_AT_decl_file("C:/ti/simplelink_cc13x0_sdk_2_30_00_20/kernel/tirtos/packa
    2656                            .dwattr $C$DW$170, DW_AT_decl_line(0x370)
    2657                            .dwattr $C$DW$170, DW_AT_decl_column(0x4a)
    2658                    
    2659                            .dwattr $C$DW$T$207, DW_AT_decl_file("C:/ti/simplelink_cc13x0_sdk_2_30_00_20/kernel/tirtos/pac
    2660                            .dwattr $C$DW$T$207, DW_AT_decl_line(0x370)
    2661                            .dwattr $C$DW$T$207, DW_AT_decl_column(0x10)
    2662                            .dwendtag $C$DW$T$207
    2663                    
    2664                    $C$DW$T$657     .dwtag  DW_TAG_typedef
    2665                            .dwattr $C$DW$T$657, DW_AT_name("CARRAY1_ti_sysbios_family_arm_m3_Hwi_hooks")
    2666                            .dwattr $C$DW$T$657, DW_AT_type(*$C$DW$T$207)
    2667                            .dwattr $C$DW$T$657, DW_AT_language(DW_LANG_C)
    2668                            .dwattr $C$DW$T$657, DW_AT_decl_file("C:/ti/simplelink_cc13x0_sdk_2_30_00_20/kernel/tirtos/pac
    2669                            .dwattr $C$DW$T$657, DW_AT_decl_line(0x370)
    2670                            .dwattr $C$DW$T$657, DW_AT_decl_column(0x52)
    2671                    
    2672                    $C$DW$T$658     .dwtag  DW_TAG_typedef
    2673                            .dwattr $C$DW$T$658, DW_AT_name("CT__ti_sysbios_family_arm_m3_Hwi_hooks")
    2674                            .dwattr $C$DW$T$658, DW_AT_type(*$C$DW$T$657)
    2675                            .dwattr $C$DW$T$658, DW_AT_language(DW_LANG_C)
    2676                            .dwattr $C$DW$T$658, DW_AT_decl_file("C:/ti/simplelink_cc13x0_sdk_2_30_00_20/kernel/tirtos/pac
    2677                            .dwattr $C$DW$T$658, DW_AT_decl_line(0x372)
    2678                            .dwattr $C$DW$T$658, DW_AT_decl_column(0x34)
    2679                    
    2680                    $C$DW$T$659     .dwtag  DW_TAG_typedef
    2681                            .dwattr $C$DW$T$659, DW_AT_name("__TA_ti_sysbios_family_arm_m3_Hwi_hooks")
    2682                            .dwattr $C$DW$T$659, DW_AT_type(*$C$DW$T$657)
    2683                            .dwattr $C$DW$T$659, DW_AT_language(DW_LANG_C)
    2684                            .dwattr $C$DW$T$659, DW_AT_decl_file("C:/ti/simplelink_cc13x0_sdk_2_30_00_20/kernel/tirtos/pac
    2685                            .dwattr $C$DW$T$659, DW_AT_decl_line(0x371)
    2686                            .dwattr $C$DW$T$659, DW_AT_decl_column(0x34)
    2687                    
TI ARM Assembler PC v18.1.3 Wed Nov 28 13:22:06 2018

Tools Copyright (c) 1996-2017 Texas Instruments Incorporated
C:\Users\Adrian\AppData\Local\Temp\{8ACD377C-A10A-4D34-8C0A-1BFA051003CA} PAGE   50

    2688                    
    2689                    $C$DW$T$214     .dwtag  DW_TAG_union_type
    2690                            .dwattr $C$DW$T$214, DW_AT_byte_size(0x02)
    2691                    $C$DW$171       .dwtag  DW_TAG_member
    2692                            .dwattr $C$DW$171, DW_AT_type(*$C$DW$T$210)
    2693                            .dwattr $C$DW$171, DW_AT_name("entityId")
    2694                            .dwattr $C$DW$171, DW_AT_TI_symbol_name("entityId")
    2695                            .dwattr $C$DW$171, DW_AT_data_member_location[DW_OP_plus_uconst 0x0]
    2696                            .dwattr $C$DW$171, DW_AT_accessibility(DW_ACCESS_public)
    2697                            .dwattr $C$DW$171, DW_AT_decl_file("C:/ti/simplelink_cc13x0_sdk_2_30_00_20/source/ti/ti154stac
    2698                            .dwattr $C$DW$171, DW_AT_decl_line(0x1fe)
    2699                            .dwattr $C$DW$171, DW_AT_decl_column(0x14)
    2700                    
    2701                    $C$DW$172       .dwtag  DW_TAG_member
    2702                            .dwattr $C$DW$172, DW_AT_type(*$C$DW$T$213)
    2703                            .dwattr $C$DW$172, DW_AT_name("servId")
    2704                            .dwattr $C$DW$172, DW_AT_TI_symbol_name("servId")
    2705                            .dwattr $C$DW$172, DW_AT_data_member_location[DW_OP_plus_uconst 0x0]
    2706                            .dwattr $C$DW$172, DW_AT_accessibility(DW_ACCESS_public)
    2707                            .dwattr $C$DW$172, DW_AT_decl_file("C:/ti/simplelink_cc13x0_sdk_2_30_00_20/source/ti/ti154stac
    2708                            .dwattr $C$DW$172, DW_AT_decl_line(0x200)
    2709                            .dwattr $C$DW$172, DW_AT_decl_column(0x17)
    2710                    
    2711                            .dwattr $C$DW$T$214, DW_AT_decl_file("C:/ti/simplelink_cc13x0_sdk_2_30_00_20/source/ti/ti154st
    2712                            .dwattr $C$DW$T$214, DW_AT_decl_line(0x1fc)
    2713                            .dwattr $C$DW$T$214, DW_AT_decl_column(0x03)
    2714                            .dwendtag $C$DW$T$214
    2715                    
    2716                    
    2717                    $C$DW$T$215     .dwtag  DW_TAG_union_type
    2718                            .dwattr $C$DW$T$215, DW_AT_byte_size(0x02)
    2719                    $C$DW$173       .dwtag  DW_TAG_member
    2720                            .dwattr $C$DW$173, DW_AT_type(*$C$DW$T$213)
    2721                            .dwattr $C$DW$173, DW_AT_name("servId")
    2722                            .dwattr $C$DW$173, DW_AT_TI_symbol_name("servId")
    2723                            .dwattr $C$DW$173, DW_AT_data_member_location[DW_OP_plus_uconst 0x0]
    2724                            .dwattr $C$DW$173, DW_AT_accessibility(DW_ACCESS_public)
    2725                            .dwattr $C$DW$173, DW_AT_decl_file("C:/ti/simplelink_cc13x0_sdk_2_30_00_20/source/ti/ti154stac
    2726                            .dwattr $C$DW$173, DW_AT_decl_line(0x211)
    2727                            .dwattr $C$DW$173, DW_AT_decl_column(0x17)
    2728                    
    2729                    $C$DW$174       .dwtag  DW_TAG_member
    2730                            .dwattr $C$DW$174, DW_AT_type(*$C$DW$T$210)
    2731                            .dwattr $C$DW$174, DW_AT_name("entityId")
    2732                            .dwattr $C$DW$174, DW_AT_TI_symbol_name("entityId")
    2733                            .dwattr $C$DW$174, DW_AT_data_member_location[DW_OP_plus_uconst 0x0]
    2734                            .dwattr $C$DW$174, DW_AT_accessibility(DW_ACCESS_public)
    2735                            .dwattr $C$DW$174, DW_AT_decl_file("C:/ti/simplelink_cc13x0_sdk_2_30_00_20/source/ti/ti154stac
    2736                            .dwattr $C$DW$174, DW_AT_decl_line(0x213)
    2737                            .dwattr $C$DW$174, DW_AT_decl_column(0x14)
    2738                    
    2739                            .dwattr $C$DW$T$215, DW_AT_decl_file("C:/ti/simplelink_cc13x0_sdk_2_30_00_20/source/ti/ti154st
    2740                            .dwattr $C$DW$T$215, DW_AT_decl_line(0x20f)
    2741                            .dwattr $C$DW$T$215, DW_AT_decl_column(0x03)
    2742                            .dwendtag $C$DW$T$215
TI ARM Assembler PC v18.1.3 Wed Nov 28 13:22:06 2018

Tools Copyright (c) 1996-2017 Texas Instruments Incorporated
C:\Users\Adrian\AppData\Local\Temp\{8ACD377C-A10A-4D34-8C0A-1BFA051003CA} PAGE   51

    2743                    
    2744                    
    2745                    $C$DW$T$221     .dwtag  DW_TAG_union_type
    2746                            .dwattr $C$DW$T$221, DW_AT_byte_size(0x04)
    2747                    $C$DW$175       .dwtag  DW_TAG_member
    2748                            .dwattr $C$DW$175, DW_AT_type(*$C$DW$T$216)
    2749                            .dwattr $C$DW$175, DW_AT_name("f")
    2750                            .dwattr $C$DW$175, DW_AT_TI_symbol_name("f")
    2751                            .dwattr $C$DW$175, DW_AT_data_member_location[DW_OP_plus_uconst 0x0]
    2752                            .dwattr $C$DW$175, DW_AT_accessibility(DW_ACCESS_public)
    2753                            .dwattr $C$DW$175, DW_AT_decl_file("C:/ti/xdctools_3_50_08_24_core/packages/xdc/std.h")
    2754                            .dwattr $C$DW$175, DW_AT_decl_line(0xb7)
    2755                            .dwattr $C$DW$175, DW_AT_decl_column(0x0f)
    2756                    
    2757                    $C$DW$176       .dwtag  DW_TAG_member
    2758                            .dwattr $C$DW$176, DW_AT_type(*$C$DW$T$220)
    2759                            .dwattr $C$DW$176, DW_AT_name("a")
    2760                            .dwattr $C$DW$176, DW_AT_TI_symbol_name("a")
    2761                            .dwattr $C$DW$176, DW_AT_data_member_location[DW_OP_plus_uconst 0x0]
    2762                            .dwattr $C$DW$176, DW_AT_accessibility(DW_ACCESS_public)
    2763                            .dwattr $C$DW$176, DW_AT_decl_file("C:/ti/xdctools_3_50_08_24_core/packages/xdc/std.h")
    2764                            .dwattr $C$DW$176, DW_AT_decl_line(0xb8)
    2765                            .dwattr $C$DW$176, DW_AT_decl_column(0x0f)
    2766                    
    2767                            .dwattr $C$DW$T$221, DW_AT_decl_file("C:/ti/xdctools_3_50_08_24_core/packages/xdc/std.h")
    2768                            .dwattr $C$DW$T$221, DW_AT_decl_line(0xb6)
    2769                            .dwattr $C$DW$T$221, DW_AT_decl_column(0x0f)
    2770                            .dwendtag $C$DW$T$221
    2771                    
    2772                    $C$DW$T$660     .dwtag  DW_TAG_typedef
    2773                            .dwattr $C$DW$T$660, DW_AT_name("xdc_FloatData")
    2774                            .dwattr $C$DW$T$660, DW_AT_type(*$C$DW$T$221)
    2775                            .dwattr $C$DW$T$660, DW_AT_language(DW_LANG_C)
    2776                            .dwattr $C$DW$T$660, DW_AT_decl_file("C:/ti/xdctools_3_50_08_24_core/packages/xdc/std.h")
    2777                            .dwattr $C$DW$T$660, DW_AT_decl_line(0xb9)
    2778                            .dwattr $C$DW$T$660, DW_AT_decl_column(0x03)
    2779                    
    2780                    
    2781                    $C$DW$T$224     .dwtag  DW_TAG_structure_type
    2782                            .dwattr $C$DW$T$224, DW_AT_name(".ggroup1")
    2783                            .dwattr $C$DW$T$224, DW_AT_byte_size(0x10)
    2784                    $C$DW$177       .dwtag  DW_TAG_member
    2785                            .dwattr $C$DW$177, DW_AT_type(*$C$DW$T$222)
    2786                            .dwattr $C$DW$177, DW_AT_name("rtcIntOccurred")
    2787                            .dwattr $C$DW$177, DW_AT_TI_symbol_name("rtcIntOccurred")
    2788                            .dwattr $C$DW$177, DW_AT_data_member_location[DW_OP_plus_uconst 0x0]
    2789                            .dwattr $C$DW$177, DW_AT_accessibility(DW_ACCESS_public)
    2790                    
    2791                    $C$DW$178       .dwtag  DW_TAG_member
    2792                            .dwattr $C$DW$178, DW_AT_type(*$C$DW$T$223)
    2793                            .dwattr $C$DW$178, DW_AT_name("rtcIntCback")
    2794                            .dwattr $C$DW$178, DW_AT_TI_symbol_name("rtcIntCback")
    2795                            .dwattr $C$DW$178, DW_AT_data_member_location[DW_OP_plus_uconst 0x4]
    2796                            .dwattr $C$DW$178, DW_AT_accessibility(DW_ACCESS_public)
    2797                    
TI ARM Assembler PC v18.1.3 Wed Nov 28 13:22:06 2018

Tools Copyright (c) 1996-2017 Texas Instruments Incorporated
C:\Users\Adrian\AppData\Local\Temp\{8ACD377C-A10A-4D34-8C0A-1BFA051003CA} PAGE   52

    2798                            .dwendtag $C$DW$T$224
    2799                    
    2800                    
    2801                    $C$DW$T$225     .dwtag  DW_TAG_structure_type
    2802                            .dwattr $C$DW$T$225, DW_AT_name("_ICall_LiteCmdStatus_")
    2803                            .dwattr $C$DW$T$225, DW_AT_byte_size(0x01)
    2804                    $C$DW$179       .dwtag  DW_TAG_member
    2805                            .dwattr $C$DW$179, DW_AT_type(*$C$DW$T$209)
    2806                            .dwattr $C$DW$179, DW_AT_name("cmdId")
    2807                            .dwattr $C$DW$179, DW_AT_TI_symbol_name("cmdId")
    2808                            .dwattr $C$DW$179, DW_AT_data_member_location[DW_OP_plus_uconst 0x0]
    2809                            .dwattr $C$DW$179, DW_AT_accessibility(DW_ACCESS_public)
    2810                            .dwattr $C$DW$179, DW_AT_decl_file("C:/ti/simplelink_cc13x0_sdk_2_30_00_20/source/ti/ti154stac
    2811                            .dwattr $C$DW$179, DW_AT_decl_line(0x3f0)
    2812                            .dwattr $C$DW$179, DW_AT_decl_column(0x11)
    2813                    
    2814                            .dwattr $C$DW$T$225, DW_AT_decl_file("C:/ti/simplelink_cc13x0_sdk_2_30_00_20/source/ti/ti154st
    2815                            .dwattr $C$DW$T$225, DW_AT_decl_line(0x3ee)
    2816                            .dwattr $C$DW$T$225, DW_AT_decl_column(0x10)
    2817                            .dwendtag $C$DW$T$225
    2818                    
    2819                    $C$DW$T$662     .dwtag  DW_TAG_typedef
    2820                            .dwattr $C$DW$T$662, DW_AT_name("ICall_LiteCmdStatus")
    2821                            .dwattr $C$DW$T$662, DW_AT_type(*$C$DW$T$225)
    2822                            .dwattr $C$DW$T$662, DW_AT_language(DW_LANG_C)
    2823                            .dwattr $C$DW$T$662, DW_AT_decl_file("C:/ti/simplelink_cc13x0_sdk_2_30_00_20/source/ti/ti154st
    2824                            .dwattr $C$DW$T$662, DW_AT_decl_line(0x3f1)
    2825                            .dwattr $C$DW$T$662, DW_AT_decl_column(0x03)
    2826                    
    2827                    $C$DW$T$2       .dwtag  DW_TAG_unspecified_type
    2828                            .dwattr $C$DW$T$2, DW_AT_name("void")
    2829                    
    2830                    $C$DW$T$3       .dwtag  DW_TAG_pointer_type
    2831                            .dwattr $C$DW$T$3, DW_AT_type(*$C$DW$T$2)
    2832                            .dwattr $C$DW$T$3, DW_AT_address_class(0x20)
    2833                    
    2834                    $C$DW$T$663     .dwtag  DW_TAG_typedef
    2835                            .dwattr $C$DW$T$663, DW_AT_name("ICall_Semaphore")
    2836                            .dwattr $C$DW$T$663, DW_AT_type(*$C$DW$T$3)
    2837                            .dwattr $C$DW$T$663, DW_AT_language(DW_LANG_C)
    2838                            .dwattr $C$DW$T$663, DW_AT_decl_file("C:/ti/simplelink_cc13x0_sdk_2_30_00_20/source/ti/ti154st
    2839                            .dwattr $C$DW$T$663, DW_AT_decl_line(0x1ac)
    2840                            .dwattr $C$DW$T$663, DW_AT_decl_column(0x0f)
    2841                    
    2842                    $C$DW$T$240     .dwtag  DW_TAG_typedef
    2843                            .dwattr $C$DW$T$240, DW_AT_name("ICall_SyncHandle")
    2844                            .dwattr $C$DW$T$240, DW_AT_type(*$C$DW$T$3)
    2845                            .dwattr $C$DW$T$240, DW_AT_language(DW_LANG_C)
    2846                            .dwattr $C$DW$T$240, DW_AT_decl_file("C:/ti/simplelink_cc13x0_sdk_2_30_00_20/source/ti/ti154st
    2847                            .dwattr $C$DW$T$240, DW_AT_decl_line(0x1aa)
    2848                            .dwattr $C$DW$T$240, DW_AT_decl_column(0x0f)
    2849                    
    2850                    $C$DW$T$288     .dwtag  DW_TAG_typedef
    2851                            .dwattr $C$DW$T$288, DW_AT_name("ICall_TimerID")
    2852                            .dwattr $C$DW$T$288, DW_AT_type(*$C$DW$T$3)
TI ARM Assembler PC v18.1.3 Wed Nov 28 13:22:06 2018

Tools Copyright (c) 1996-2017 Texas Instruments Incorporated
C:\Users\Adrian\AppData\Local\Temp\{8ACD377C-A10A-4D34-8C0A-1BFA051003CA} PAGE   53

    2853                            .dwattr $C$DW$T$288, DW_AT_language(DW_LANG_C)
    2854                            .dwattr $C$DW$T$288, DW_AT_decl_file("C:/ti/simplelink_cc13x0_sdk_2_30_00_20/source/ti/ti154st
    2855                            .dwattr $C$DW$T$288, DW_AT_decl_line(0x1b7)
    2856                            .dwattr $C$DW$T$288, DW_AT_decl_column(0x0f)
    2857                    
    2858                    $C$DW$T$345     .dwtag  DW_TAG_typedef
    2859                            .dwattr $C$DW$T$345, DW_AT_name("xdc_Ptr")
    2860                            .dwattr $C$DW$T$345, DW_AT_type(*$C$DW$T$3)
    2861                            .dwattr $C$DW$T$345, DW_AT_language(DW_LANG_C)
    2862                            .dwattr $C$DW$T$345, DW_AT_decl_file("C:/ti/xdctools_3_50_08_24_core/packages/xdc/std.h")
    2863                            .dwattr $C$DW$T$345, DW_AT_decl_line(0x2e)
    2864                            .dwattr $C$DW$T$345, DW_AT_decl_column(0x1a)
    2865                    
    2866                    $C$DW$T$664     .dwtag  DW_TAG_typedef
    2867                            .dwattr $C$DW$T$664, DW_AT_name("CT__ti_sysbios_BIOS_Module__gateObj")
    2868                            .dwattr $C$DW$T$664, DW_AT_type(*$C$DW$T$345)
    2869                            .dwattr $C$DW$T$664, DW_AT_language(DW_LANG_C)
    2870                            .dwattr $C$DW$T$664, DW_AT_decl_file("C:/ti/simplelink_cc13x0_sdk_2_30_00_20/kernel/tirtos/pac
    2871                            .dwattr $C$DW$T$664, DW_AT_decl_line(0xa3)
    2872                            .dwattr $C$DW$T$664, DW_AT_decl_column(0x11)
    2873                    
    2874                    $C$DW$T$665     .dwtag  DW_TAG_typedef
    2875                            .dwattr $C$DW$T$665, DW_AT_name("CT__ti_sysbios_BIOS_Module__gatePrms")
