TI ARM Assembler PC v18.1.3 Wed Nov 28 13:22:08 2018

Tools Copyright (c) 1996-2017 Texas Instruments Incorporated
C:\Users\Adrian\AppData\Local\Temp\{FE5CC9C4-3D95-42C7-8599-A02F5AAB02A5} PAGE    1

       1                    ;******************************************************************************
       2                    ;* TI ARM C/C++ Codegen                                        PC v18.1.3.LTS *
       3                    ;* Date/Time created: Wed Nov 28 13:22:08 2018                                *
       4                    ;******************************************************************************
       5                            .compiler_opts --abi=eabi --arm_vmrs_si_workaround=off --code_state=16 --diag_wrap=off --embed
       6 00000000                   .thumb
       7                    
       8                    $C$DW$CU        .dwtag  DW_TAG_compile_unit
       9                            .dwattr $C$DW$CU, DW_AT_name("../Application/MAC/OSAL/osal_clock.c")
      10                            .dwattr $C$DW$CU, DW_AT_producer("TI TI ARM C/C++ Codegen PC v18.1.3.LTS Copyright (c) 1996-20
      11                            .dwattr $C$DW$CU, DW_AT_TI_version(0x01)
      12                            .dwattr $C$DW$CU, DW_AT_comp_dir("C:\Users\Adrian\workspace_v8\collector_cc1350lp\collector_cc
      13                    
      14                    $C$DW$1 .dwtag  DW_TAG_subprogram
      15                            .dwattr $C$DW$1, DW_AT_name("SysTickIntEnable")
      16                            .dwattr $C$DW$1, DW_AT_TI_symbol_name("SysTickIntEnable")
      17                            .dwattr $C$DW$1, DW_AT_declaration
      18                            .dwattr $C$DW$1, DW_AT_external
      19                            .dwattr $C$DW$1, DW_AT_decl_file("C:/ti/simplelink_cc13x0_sdk_2_30_00_20/source/ti/devices/cc1
      20                            .dwattr $C$DW$1, DW_AT_decl_line(0xb8)
      21                            .dwattr $C$DW$1, DW_AT_decl_column(0x01)
      22                            .dwendtag $C$DW$1
      23                    
      24                    
      25                    $C$DW$2 .dwtag  DW_TAG_subprogram
      26                            .dwattr $C$DW$2, DW_AT_name("SysTickIntDisable")
      27                            .dwattr $C$DW$2, DW_AT_TI_symbol_name("SysTickIntDisable")
      28                            .dwattr $C$DW$2, DW_AT_declaration
      29                            .dwattr $C$DW$2, DW_AT_external
      30                            .dwattr $C$DW$2, DW_AT_decl_file("C:/ti/simplelink_cc13x0_sdk_2_30_00_20/source/ti/devices/cc1
      31                            .dwattr $C$DW$2, DW_AT_decl_line(0xc9)
      32                            .dwattr $C$DW$2, DW_AT_decl_column(0x01)
      33                            .dwendtag $C$DW$2
      34                    
      35                    
      36                    $C$DW$3 .dwtag  DW_TAG_subprogram
      37                            .dwattr $C$DW$3, DW_AT_name("osalClockUpdate")
      38                            .dwattr $C$DW$3, DW_AT_TI_symbol_name("osalClockUpdate")
      39                            .dwattr $C$DW$3, DW_AT_declaration
      40                            .dwattr $C$DW$3, DW_AT_external
      41                            .dwattr $C$DW$3, DW_AT_decl_file("../Application/MAC/OSAL/osal_clock.c")
      42                            .dwattr $C$DW$3, DW_AT_decl_line(0x101)
      43                            .dwattr $C$DW$3, DW_AT_decl_column(0x0d)
      44                    $C$DW$4 .dwtag  DW_TAG_formal_parameter
      45                            .dwattr $C$DW$4, DW_AT_type(*$C$DW$T$86)
      46                    
      47                            .dwendtag $C$DW$3
      48                    
      49                    $C$DW$5 .dwtag  DW_TAG_variable
      50                            .dwattr $C$DW$5, DW_AT_name("ICall_enterCriticalSection")
      51                            .dwattr $C$DW$5, DW_AT_TI_symbol_name("ICall_enterCriticalSection")
      52                            .dwattr $C$DW$5, DW_AT_type(*$C$DW$T$160)
      53                            .dwattr $C$DW$5, DW_AT_declaration
      54                            .dwattr $C$DW$5, DW_AT_external
      55                            .dwattr $C$DW$5, DW_AT_decl_file("C:/ti/simplelink_cc13x0_sdk_2_30_00_20/source/ti/ti154stack/
TI ARM Assembler PC v18.1.3 Wed Nov 28 13:22:08 2018

Tools Copyright (c) 1996-2017 Texas Instruments Incorporated
C:\Users\Adrian\AppData\Local\Temp\{FE5CC9C4-3D95-42C7-8599-A02F5AAB02A5} PAGE    2

      56                            .dwattr $C$DW$5, DW_AT_decl_line(0x384)
      57                            .dwattr $C$DW$5, DW_AT_decl_column(0x16)
      58                    
      59                    $C$DW$6 .dwtag  DW_TAG_variable
      60                            .dwattr $C$DW$6, DW_AT_name("ICall_leaveCriticalSection")
      61                            .dwattr $C$DW$6, DW_AT_TI_symbol_name("ICall_leaveCriticalSection")
      62                            .dwattr $C$DW$6, DW_AT_type(*$C$DW$T$163)
      63                            .dwattr $C$DW$6, DW_AT_declaration
      64                            .dwattr $C$DW$6, DW_AT_external
      65                            .dwattr $C$DW$6, DW_AT_decl_file("C:/ti/simplelink_cc13x0_sdk_2_30_00_20/source/ti/ti154stack/
      66                            .dwattr $C$DW$6, DW_AT_decl_line(0x387)
      67                            .dwattr $C$DW$6, DW_AT_decl_column(0x16)
      68                    
      69                    
      70                    $C$DW$7 .dwtag  DW_TAG_subprogram
      71                            .dwattr $C$DW$7, DW_AT_name("osalTimerUpdate")
      72                            .dwattr $C$DW$7, DW_AT_TI_symbol_name("osalTimerUpdate")
      73                            .dwattr $C$DW$7, DW_AT_declaration
      74                            .dwattr $C$DW$7, DW_AT_external
      75                            .dwattr $C$DW$7, DW_AT_decl_file("C:\ti\simplelink_cc13x0_sdk_2_30_00_20\source\ti\ti154stack\
      76                            .dwattr $C$DW$7, DW_AT_decl_line(0x79)
      77                            .dwattr $C$DW$7, DW_AT_decl_column(0x0f)
      78                    $C$DW$8 .dwtag  DW_TAG_formal_parameter
      79                            .dwattr $C$DW$8, DW_AT_type(*$C$DW$T$86)
      80                    
      81                            .dwendtag $C$DW$7
      82                    
      83 00000000                   .sect   ".data:$O1$$", RW
      84                            .align  4
      85                            .elfsym ||$O1$$||,SYM_SIZE(8)
      86 00000000           ||$O1$$||:
      87 00000000 00000000          .bits   0,32                    ; $O1$$.timeMSec @ 0
      88 00000004 00000000          .bits   0,32                    ; $O1$$.OSAL_timeSeconds @ 32
      89                    
      90                    
      91                    ;*********************************************************************
      92                    ;* GROUPED GLOBALS FOR $O1$$                                         *
      93                    ;*********************************************************************
      94          00000000! timeMSec:       .set    ||$O1$$||+0
      95                    $C$DW$9 .dwtag  DW_TAG_variable
      96                            .dwattr $C$DW$9, DW_AT_name("timeMSec")
      97                            .dwattr $C$DW$9, DW_AT_TI_symbol_name("timeMSec")
      98                            .dwattr $C$DW$9, DW_AT_type(*$C$DW$T$86)
      99                            .dwattr $C$DW$9, DW_AT_location[DW_OP_addr timeMSec]
     100                            .dwattr $C$DW$9, DW_AT_decl_file("../Application/MAC/OSAL/osal_clock.c")
     101                            .dwattr $C$DW$9, DW_AT_decl_line(0xa5)
     102                            .dwattr $C$DW$9, DW_AT_decl_column(0x0f)
     103                    
     104          00000004! OSAL_timeSeconds:       .set    ||$O1$$||+4
     105                            .global OSAL_timeSeconds
     106                    $C$DW$10        .dwtag  DW_TAG_variable
     107                            .dwattr $C$DW$10, DW_AT_name("OSAL_timeSeconds")
     108                            .dwattr $C$DW$10, DW_AT_TI_symbol_name("OSAL_timeSeconds")
     109                            .dwattr $C$DW$10, DW_AT_location[DW_OP_addr OSAL_timeSeconds]
     110                            .dwattr $C$DW$10, DW_AT_type(*$C$DW$T$215)
TI ARM Assembler PC v18.1.3 Wed Nov 28 13:22:08 2018

Tools Copyright (c) 1996-2017 Texas Instruments Incorporated
C:\Users\Adrian\AppData\Local\Temp\{FE5CC9C4-3D95-42C7-8599-A02F5AAB02A5} PAGE    3

     111                            .dwattr $C$DW$10, DW_AT_external
     112                            .dwattr $C$DW$10, DW_AT_decl_file("../Application/MAC/OSAL/osal_clock.c")
     113                            .dwattr $C$DW$10, DW_AT_decl_line(0xa9)
     114                            .dwattr $C$DW$10, DW_AT_decl_column(0x09)
     115                    
     116                    ;       C:\ti\ccsv8\tools\compiler\ti-cgt-arm_18.1.3.LTS\bin\armopt.exe C:/Users/Adrian/workspace_v8/c
     117 00000000                   .sect   ".text:osal_setClock"
     118                            .clink
     119                            .thumbfunc osal_setClock
     120 00000000                   .thumb
     121                            .global osal_setClock
     122                    
     123                    $C$DW$11        .dwtag  DW_TAG_subprogram
     124                            .dwattr $C$DW$11, DW_AT_name("osal_setClock")
     125                            .dwattr $C$DW$11, DW_AT_low_pc(osal_setClock)
     126                            .dwattr $C$DW$11, DW_AT_high_pc(0x00)
     127                            .dwattr $C$DW$11, DW_AT_TI_symbol_name("osal_setClock")
     128                            .dwattr $C$DW$11, DW_AT_external
     129                            .dwattr $C$DW$11, DW_AT_TI_begin_file("../Application/MAC/OSAL/osal_clock.c")
     130                            .dwattr $C$DW$11, DW_AT_TI_begin_line(0x135)
     131                            .dwattr $C$DW$11, DW_AT_TI_begin_column(0x06)
     132                            .dwattr $C$DW$11, DW_AT_decl_file("../Application/MAC/OSAL/osal_clock.c")
     133                            .dwattr $C$DW$11, DW_AT_decl_line(0x135)
     134                            .dwattr $C$DW$11, DW_AT_decl_column(0x06)
     135                            .dwattr $C$DW$11, DW_AT_TI_max_frame_size(0x08)
     136                            .dwpsn  file "../Application/MAC/OSAL/osal_clock.c",line 310,column 1,is_stmt,address osal_set
     137                    
     138                            .dwfde $C$DW$CIE, osal_setClock
     139                    $C$DW$12        .dwtag  DW_TAG_formal_parameter
     140                            .dwattr $C$DW$12, DW_AT_name("newTime")
     141                            .dwattr $C$DW$12, DW_AT_TI_symbol_name("newTime")
     142                            .dwattr $C$DW$12, DW_AT_type(*$C$DW$T$215)
     143                            .dwattr $C$DW$12, DW_AT_location[DW_OP_reg0]
     144                    
     145                    
     146                    ;*****************************************************************************
     147                    ;* FUNCTION NAME: osal_setClock                                              *
     148                    ;*                                                                           *
     149                    ;*   Regs Modified     : A1,A2,A3,A4,V1,V9,SP,LR,SR                          *
     150                    ;*   Regs Used         : A1,A2,A3,A4,V1,V9,SP,LR,SR                          *
     151                    ;*   Local Frame Size  : 0 Args + 0 Auto + 8 Save = 8 byte                   *
     152                    ;*****************************************************************************
     153                    osal_setClock:
     154                    ;* --------------------------------------------------------------------------*
     155                    ;* V1    assigned to newTime
     156                    $C$DW$13        .dwtag  DW_TAG_variable
     157                            .dwattr $C$DW$13, DW_AT_name("newTime")
     158                            .dwattr $C$DW$13, DW_AT_TI_symbol_name("newTime")
     159                            .dwattr $C$DW$13, DW_AT_type(*$C$DW$T$313)
     160                            .dwattr $C$DW$13, DW_AT_location[DW_OP_reg4]
     161                    
     162                            .dwcfi  cfa_offset, 0
     163 00000000 B510              PUSH      {V1, LR}              ; [DPU_V7M3_PIPE]  ; [ORIG 16-BIT INS]
     164                            .dwcfi  cfa_offset, 8
     165                            .dwcfi  save_reg_to_mem, 14, -4
TI ARM Assembler PC v18.1.3 Wed Nov 28 13:22:08 2018

Tools Copyright (c) 1996-2017 Texas Instruments Incorporated
C:\Users\Adrian\AppData\Local\Temp\{FE5CC9C4-3D95-42C7-8599-A02F5AAB02A5} PAGE    4

     166                            .dwcfi  save_reg_to_mem, 4, -8
     167 00000002 4604              MOV       V1, A1                ; [DPU_V7M3_PIPE] |310|  ; [ORIG 16-BIT INS]
     168                            .dwpsn  file "../Application/MAC/OSAL/osal_clock.c",line 311,column 3,is_stmt,isa 1
     169 00000004 4804              LDR       A1, $C$CON1           ; [DPU_V7M3_PIPE] |311|  ; [ORIG 16-BIT INS]
     170 00000006 6800              LDR       A1, [A1, #0]          ; [DPU_V7M3_PIPE] |311|  ; [ORIG 16-BIT INS]
     171                    $C$DW$14        .dwtag  DW_TAG_TI_branch
     172                            .dwattr $C$DW$14, DW_AT_low_pc(0x00)
     173                            .dwattr $C$DW$14, DW_AT_TI_call
     174                            .dwattr $C$DW$14, DW_AT_TI_indirect
     175                    
     176 00000008 4780              BLX       A1                    ; [DPU_V7M3_PIPE] |311|  ; [ORIG 16-BIT INS]
     177                            ; CALL OCCURS {}                 ; [] |311| 
     178 0000000a 4904              LDR       A2, $C$CON2           ; [DPU_V7M3_PIPE] |311|  ; [ORIG 16-BIT INS]
     179 0000000c 600C              STR       V1, [A2, #0]          ; [DPU_V7M3_PIPE] |311|  ; [ORIG 16-BIT INS]
     180 0000000e 4904              LDR       A2, $C$CON3           ; [DPU_V7M3_PIPE] |311|  ; [ORIG 16-BIT INS]
     181 00000010 6809              LDR       A2, [A2, #0]          ; [DPU_V7M3_PIPE] |311|  ; [ORIG 16-BIT INS]
     182                    $C$DW$15        .dwtag  DW_TAG_TI_branch
     183                            .dwattr $C$DW$15, DW_AT_low_pc(0x00)
     184                            .dwattr $C$DW$15, DW_AT_TI_call
     185                            .dwattr $C$DW$15, DW_AT_TI_indirect
     186                    
     187 00000012 4788              BLX       A2                    ; [DPU_V7M3_PIPE] |311|  ; [ORIG 16-BIT INS]
     188                            ; CALL OCCURS {}                 ; [] |311| 
     189                    $C$DW$16        .dwtag  DW_TAG_TI_branch
     190                            .dwattr $C$DW$16, DW_AT_low_pc(0x00)
     191                            .dwattr $C$DW$16, DW_AT_TI_return
     192                    
     193 00000014 BD10              POP       {V1, PC}              ; [DPU_V7M3_PIPE]  ; [ORIG 16-BIT INS]
     194                            .dwcfi  cfa_offset, 0
     195                            .dwcfi  restore_reg, 4
     196                            ; BRANCH OCCURS                  ; [] 
     197                            .dwattr $C$DW$11, DW_AT_TI_end_file("../Application/MAC/OSAL/osal_clock.c")
     198                            .dwattr $C$DW$11, DW_AT_TI_end_line(0x138)
     199                            .dwattr $C$DW$11, DW_AT_TI_end_column(0x01)
     200                            .dwendentry
     201                            .dwendtag $C$DW$11
     202                    
     203 00000000                   .sect   ".text:osal_getClock"
     204                            .clink
     205                            .thumbfunc osal_getClock
     206 00000000                   .thumb
     207                            .global osal_getClock
     208                    
     209                    $C$DW$17        .dwtag  DW_TAG_subprogram
     210                            .dwattr $C$DW$17, DW_AT_name("osal_getClock")
     211                            .dwattr $C$DW$17, DW_AT_low_pc(osal_getClock)
     212                            .dwattr $C$DW$17, DW_AT_high_pc(0x00)
     213                            .dwattr $C$DW$17, DW_AT_TI_symbol_name("osal_getClock")
     214                            .dwattr $C$DW$17, DW_AT_external
     215                            .dwattr $C$DW$17, DW_AT_type(*$C$DW$T$215)
     216                            .dwattr $C$DW$17, DW_AT_TI_begin_file("../Application/MAC/OSAL/osal_clock.c")
     217                            .dwattr $C$DW$17, DW_AT_TI_begin_line(0x146)
     218                            .dwattr $C$DW$17, DW_AT_TI_begin_column(0x09)
     219                            .dwattr $C$DW$17, DW_AT_decl_file("../Application/MAC/OSAL/osal_clock.c")
     220                            .dwattr $C$DW$17, DW_AT_decl_line(0x146)
TI ARM Assembler PC v18.1.3 Wed Nov 28 13:22:08 2018

Tools Copyright (c) 1996-2017 Texas Instruments Incorporated
C:\Users\Adrian\AppData\Local\Temp\{FE5CC9C4-3D95-42C7-8599-A02F5AAB02A5} PAGE    5

     221                            .dwattr $C$DW$17, DW_AT_decl_column(0x09)
     222                            .dwattr $C$DW$17, DW_AT_TI_max_frame_size(0x00)
     223                            .dwpsn  file "../Application/MAC/OSAL/osal_clock.c",line 327,column 1,is_stmt,address osal_get
     224                    
     225                            .dwfde $C$DW$CIE, osal_getClock
     226                    
     227                    ;*****************************************************************************
     228                    ;* FUNCTION NAME: osal_getClock                                              *
     229                    ;*                                                                           *
     230                    ;*   Regs Modified     : A1                                                  *
     231                    ;*   Regs Used         : A1,LR                                               *
     232                    ;*   Local Frame Size  : 0 Args + 0 Auto + 0 Save = 0 byte                   *
     233                    ;*****************************************************************************
     234 00000000           osal_getClock:
     235                    ;* --------------------------------------------------------------------------*
     236                            .dwcfi  cfa_offset, 0
     237                            .dwpsn  file "../Application/MAC/OSAL/osal_clock.c",line 328,column 3,is_stmt,isa 1
     238 00000000 4801              LDR       A1, $C$CON5           ; [DPU_V7M3_PIPE] |328|  ; [ORIG 16-BIT INS]
     239 00000002 6800              LDR       A1, [A1, #0]          ; [DPU_V7M3_PIPE] |328|  ; [ORIG 16-BIT INS]
     240                    $C$DW$18        .dwtag  DW_TAG_TI_branch
     241                            .dwattr $C$DW$18, DW_AT_low_pc(0x00)
     242                            .dwattr $C$DW$18, DW_AT_TI_return
     243                    
     244 00000004 4770              BX        LR                    ; [DPU_V7M3_PIPE]  ; [ORIG 16-BIT INS]
     245                            ; BRANCH OCCURS                  ; [] 
     246                            .dwattr $C$DW$17, DW_AT_TI_end_file("../Application/MAC/OSAL/osal_clock.c")
     247                            .dwattr $C$DW$17, DW_AT_TI_end_line(0x149)
     248                            .dwattr $C$DW$17, DW_AT_TI_end_column(0x01)
     249                            .dwendentry
     250                            .dwendtag $C$DW$17
     251                    
     252 00000000                   .sect   ".text:monthLength"
     253                            .clink
     254                            .thumbfunc monthLength
     255 00000000                   .thumb
     256                    
     257                    $C$DW$19        .dwtag  DW_TAG_subprogram
     258                            .dwattr $C$DW$19, DW_AT_name("monthLength")
     259                            .dwattr $C$DW$19, DW_AT_low_pc(monthLength)
     260                            .dwattr $C$DW$19, DW_AT_high_pc(0x00)
     261                            .dwattr $C$DW$19, DW_AT_TI_symbol_name("monthLength")
     262                            .dwattr $C$DW$19, DW_AT_type(*$C$DW$T$21)
     263                            .dwattr $C$DW$19, DW_AT_TI_begin_file("../Application/MAC/OSAL/osal_clock.c")
     264                            .dwattr $C$DW$19, DW_AT_TI_begin_line(0x17f)
     265                            .dwattr $C$DW$19, DW_AT_TI_begin_column(0x0e)
     266                            .dwattr $C$DW$19, DW_AT_decl_file("../Application/MAC/OSAL/osal_clock.c")
     267                            .dwattr $C$DW$19, DW_AT_decl_line(0x17f)
     268                            .dwattr $C$DW$19, DW_AT_decl_column(0x0e)
     269                            .dwattr $C$DW$19, DW_AT_TI_max_frame_size(0x00)
     270                            .dwpsn  file "../Application/MAC/OSAL/osal_clock.c",line 384,column 1,is_stmt,address monthLen
     271                    
     272                            .dwfde $C$DW$CIE, monthLength
     273                    $C$DW$20        .dwtag  DW_TAG_formal_parameter
     274                            .dwattr $C$DW$20, DW_AT_name("lpyr")
     275                            .dwattr $C$DW$20, DW_AT_TI_symbol_name("lpyr")
TI ARM Assembler PC v18.1.3 Wed Nov 28 13:22:08 2018

Tools Copyright (c) 1996-2017 Texas Instruments Incorporated
C:\Users\Adrian\AppData\Local\Temp\{FE5CC9C4-3D95-42C7-8599-A02F5AAB02A5} PAGE    6

     276                            .dwattr $C$DW$20, DW_AT_type(*$C$DW$T$10)
     277                            .dwattr $C$DW$20, DW_AT_location[DW_OP_reg0]
     278                    
     279                    $C$DW$21        .dwtag  DW_TAG_formal_parameter
     280                            .dwattr $C$DW$21, DW_AT_name("mon")
     281                            .dwattr $C$DW$21, DW_AT_TI_symbol_name("mon")
     282                            .dwattr $C$DW$21, DW_AT_type(*$C$DW$T$10)
     283                            .dwattr $C$DW$21, DW_AT_location[DW_OP_reg1]
     284                    
     285                    
     286                    ;*****************************************************************************
     287                    ;* FUNCTION NAME: monthLength                                                *
     288                    ;*                                                                           *
     289                    ;*   Regs Modified     : A1,A2,SR                                            *
     290                    ;*   Regs Used         : A1,A2,LR,SR                                         *
     291                    ;*   Local Frame Size  : 0 Args + 0 Auto + 0 Save = 0 byte                   *
     292                    ;*****************************************************************************
     293                    monthLength:
     294                    ;* --------------------------------------------------------------------------*
     295                    ;* A1    assigned to lpyr
     296                    $C$DW$22        .dwtag  DW_TAG_variable
     297                            .dwattr $C$DW$22, DW_AT_name("lpyr")
     298                            .dwattr $C$DW$22, DW_AT_TI_symbol_name("lpyr")
     299                            .dwattr $C$DW$22, DW_AT_type(*$C$DW$T$239)
     300                            .dwattr $C$DW$22, DW_AT_location[DW_OP_reg0]
     301                    
     302                    ;* A2    assigned to mon
     303                    $C$DW$23        .dwtag  DW_TAG_variable
     304                            .dwattr $C$DW$23, DW_AT_name("mon")
     305                            .dwattr $C$DW$23, DW_AT_TI_symbol_name("mon")
     306                            .dwattr $C$DW$23, DW_AT_type(*$C$DW$T$21)
     307                            .dwattr $C$DW$23, DW_AT_location[DW_OP_reg1]
     308                    
     309                    ;* A1    assigned to days
     310                    $C$DW$24        .dwtag  DW_TAG_variable
     311                            .dwattr $C$DW$24, DW_AT_name("days")
     312                            .dwattr $C$DW$24, DW_AT_TI_symbol_name("days")
     313                            .dwattr $C$DW$24, DW_AT_type(*$C$DW$T$10)
     314                            .dwattr $C$DW$24, DW_AT_location[DW_OP_reg0]
     315                    
     316                            .dwcfi  cfa_offset, 0
     317                            .dwpsn  file "../Application/MAC/OSAL/osal_clock.c",line 387,column 2,is_stmt,isa 1
     318 00000000 2901              CMP       A2, #1                ; [DPU_V7M3_PIPE] |387|  ; [ORIG 16-BIT INS]
     319 00000002 D008              BEQ       ||$C$L1||             ; [DPU_V7M3_PIPE] |387|  ; [ORIG 16-BIT INS]
     320                            ; BRANCHCC OCCURS {||$C$L1||}    ; [] |387| 
     321                    ;* --------------------------------------------------------------------------*
     322                            .dwcfi  remember_state
     323                            .dwpsn  file "../Application/MAC/OSAL/osal_clock.c",line 393,column 5,is_stmt,isa 1
     324 00000004 2906              CMP       A2, #6                ; [DPU_V7M3_PIPE] |393|  ; [ORIG 16-BIT INS]
     325 00000006 BFC4              ITT       GT                    ; [DPU_V7M3_PIPE]  ; [ORIG 16-BIT INS]
     326                            .dwpsn  file "../Application/MAC/OSAL/osal_clock.c",line 395,column 7,is_stmt,isa 1
     327 00000008 1E49              SUBGT     A2, A2, #1            ; [DPU_V7M3_PIPE] |395|  ; [ORIG 16-BIT INS]
     328 0000000a B2C9              UXTBGT    A2, A2                ; [DPU_V7M3_PIPE] |395|  ; [ORIG 16-BIT INS]
     329                            .dwpsn  file "../Application/MAC/OSAL/osal_clock.c",line 400,column 7,is_stmt,isa 1
     330 0000000c 0848              LSRS      A1, A2, #1            ; [DPU_V7M3_PIPE] |400|  ; [ORIG 16-BIT INS]
TI ARM Assembler PC v18.1.3 Wed Nov 28 13:22:08 2018

Tools Copyright (c) 1996-2017 Texas Instruments Incorporated
C:\Users\Adrian\AppData\Local\Temp\{FE5CC9C4-3D95-42C7-8599-A02F5AAB02A5} PAGE    7

     331 0000000e BF2C              ITE       CS                    ; [DPU_V7M3_PIPE]  ; [ORIG 16-BIT INS]
     332 00000010 201E              MOVCS     A1, #30               ; [DPU_V7M3_PIPE] |400|  ; [ORIG 16-BIT INS]
     333 00000012 201F              MOVCC     A1, #31               ; [DPU_V7M3_PIPE] |400|  ; [ORIG 16-BIT INS]
     334                    $C$DW$25        .dwtag  DW_TAG_TI_branch
     335                            .dwattr $C$DW$25, DW_AT_low_pc(0x00)
     336                            .dwattr $C$DW$25, DW_AT_TI_return
     337                    
     338 00000014 4770              BX        LR                    ; [DPU_V7M3_PIPE]  ; [ORIG 16-BIT INS]
     339                            ; BRANCH OCCURS                  ; [] 
     340                            .dwcfi  restore_state
     341                    ;* --------------------------------------------------------------------------*
     342 00000016           ||$C$L1||:    
     343                            .dwpsn  file "../Application/MAC/OSAL/osal_clock.c",line 389,column 3,is_stmt,isa 1
     344 00000016 301C              ADDS      A1, A1, #28           ; [DPU_V7M3_PIPE] |389|  ; [ORIG 16-BIT INS]
     345 00000018 B2C0              UXTB      A1, A1                ; [DPU_V7M3_PIPE] |389|  ; [ORIG 16-BIT INS]
     346                    ;* --------------------------------------------------------------------------*
     347                    $C$DW$26        .dwtag  DW_TAG_TI_branch
     348                            .dwattr $C$DW$26, DW_AT_low_pc(0x00)
     349                            .dwattr $C$DW$26, DW_AT_TI_return
     350                    
     351 0000001a 4770              BX        LR                    ; [DPU_V7M3_PIPE]  ; [ORIG 16-BIT INS]
     352                            ; BRANCH OCCURS                  ; [] 
     353                            .dwattr $C$DW$19, DW_AT_TI_end_file("../Application/MAC/OSAL/osal_clock.c")
     354                            .dwattr $C$DW$19, DW_AT_TI_end_line(0x195)
     355                            .dwattr $C$DW$19, DW_AT_TI_end_column(0x01)
     356                            .dwendentry
     357                            .dwendtag $C$DW$19
     358                    
     359 00000000                   .sect   ".text:osal_ConvertUTCTime"
     360                            .clink
     361                            .thumbfunc osal_ConvertUTCTime
     362 00000000                   .thumb
     363                            .global osal_ConvertUTCTime
     364                    
     365                    $C$DW$27        .dwtag  DW_TAG_subprogram
     366                            .dwattr $C$DW$27, DW_AT_name("osal_ConvertUTCTime")
     367                            .dwattr $C$DW$27, DW_AT_low_pc(osal_ConvertUTCTime)
     368                            .dwattr $C$DW$27, DW_AT_high_pc(0x00)
     369                            .dwattr $C$DW$27, DW_AT_TI_symbol_name("osal_ConvertUTCTime")
     370                            .dwattr $C$DW$27, DW_AT_external
     371                            .dwattr $C$DW$27, DW_AT_TI_begin_file("../Application/MAC/OSAL/osal_clock.c")
     372                            .dwattr $C$DW$27, DW_AT_TI_begin_line(0x157)
     373                            .dwattr $C$DW$27, DW_AT_TI_begin_column(0x06)
     374                            .dwattr $C$DW$27, DW_AT_decl_file("../Application/MAC/OSAL/osal_clock.c")
     375                            .dwattr $C$DW$27, DW_AT_decl_line(0x157)
     376                            .dwattr $C$DW$27, DW_AT_decl_column(0x06)
     377                            .dwattr $C$DW$27, DW_AT_TI_max_frame_size(0x18)
     378                            .dwpsn  file "../Application/MAC/OSAL/osal_clock.c",line 344,column 1,is_stmt,address osal_Con
     379                    
     380                            .dwfde $C$DW$CIE, osal_ConvertUTCTime
     381                    $C$DW$28        .dwtag  DW_TAG_formal_parameter
     382                            .dwattr $C$DW$28, DW_AT_name("tm")
     383                            .dwattr $C$DW$28, DW_AT_TI_symbol_name("tm")
     384                            .dwattr $C$DW$28, DW_AT_type(*$C$DW$T$190)
     385                            .dwattr $C$DW$28, DW_AT_location[DW_OP_reg0]
TI ARM Assembler PC v18.1.3 Wed Nov 28 13:22:08 2018

Tools Copyright (c) 1996-2017 Texas Instruments Incorporated
C:\Users\Adrian\AppData\Local\Temp\{FE5CC9C4-3D95-42C7-8599-A02F5AAB02A5} PAGE    8

     386                    
     387                    $C$DW$29        .dwtag  DW_TAG_formal_parameter
     388                            .dwattr $C$DW$29, DW_AT_name("secTime")
     389                            .dwattr $C$DW$29, DW_AT_TI_symbol_name("secTime")
     390                            .dwattr $C$DW$29, DW_AT_type(*$C$DW$T$215)
     391                            .dwattr $C$DW$29, DW_AT_location[DW_OP_reg1]
     392                    
     393                    
     394                    ;*****************************************************************************
     395                    ;* FUNCTION NAME: osal_ConvertUTCTime                                        *
     396                    ;*                                                                           *
     397                    ;*   Regs Modified     : A1,A2,A3,A4,V1,V2,V3,V4,V5,V9,SP,LR,SR              *
     398                    ;*   Regs Used         : A1,A2,A3,A4,V1,V2,V3,V4,V5,V9,SP,LR,SR              *
     399                    ;*   Local Frame Size  : 0 Args + 0 Auto + 24 Save = 24 byte                 *
     400                    ;*****************************************************************************
     401                    osal_ConvertUTCTime:
     402                    ;* --------------------------------------------------------------------------*
     403                    ;* V3    assigned to $O$C6
     404                    ;* V1    assigned to $O$U26
     405                    ;* A3    assigned to $O$v3
     406                    ;* A3    assigned to $O$v2
     407                    ;* V3    assigned to $O$v1
     408                    ;* A1    assigned to $O$S2
     409                    ;* A1    assigned to $O$S4
     410                    ;* A2    assigned to $O$S5
     411                    ;* V2    assigned to tm
     412                    $C$DW$30        .dwtag  DW_TAG_variable
     413                            .dwattr $C$DW$30, DW_AT_name("tm")
     414                            .dwattr $C$DW$30, DW_AT_TI_symbol_name("tm")
     415                            .dwattr $C$DW$30, DW_AT_type(*$C$DW$T$191)
     416                            .dwattr $C$DW$30, DW_AT_location[DW_OP_reg5]
     417                    
     418                    ;* A2    assigned to secTime
     419                    $C$DW$31        .dwtag  DW_TAG_variable
     420                            .dwattr $C$DW$31, DW_AT_name("secTime")
     421                            .dwattr $C$DW$31, DW_AT_TI_symbol_name("secTime")
     422                            .dwattr $C$DW$31, DW_AT_type(*$C$DW$T$313)
     423                            .dwattr $C$DW$31, DW_AT_location[DW_OP_reg1]
     424                    
     425                    ;* A4    assigned to numDays
     426                    $C$DW$32        .dwtag  DW_TAG_variable
     427                            .dwattr $C$DW$32, DW_AT_name("numDays")
     428                            .dwattr $C$DW$32, DW_AT_TI_symbol_name("numDays")
     429                            .dwattr $C$DW$32, DW_AT_type(*$C$DW$T$22)
     430                            .dwattr $C$DW$32, DW_AT_location[DW_OP_reg3]
     431                    
     432                            .dwcfi  cfa_offset, 0
     433                            .dwpsn  file "../Application/MAC/OSAL/osal_clock.c",line 348,column 5,is_stmt,isa 1
     434 00000000 4B3A              LDR       A4, $C$CON6           ; [DPU_V7M3_PIPE] |348|  ; [ORIG 16-BIT INS]
     435 00000002 41F0E92D          PUSH      {V1, V2, V3, V4, V5, LR} ; [DPU_V7M3_PIPE]  ; [KEEP 32-BIT INS]
     436                            .dwcfi  cfa_offset, 24
     437                            .dwcfi  save_reg_to_mem, 14, -4
     438                            .dwcfi  save_reg_to_mem, 8, -8
     439                            .dwcfi  save_reg_to_mem, 7, -12
     440                            .dwcfi  save_reg_to_mem, 6, -16
TI ARM Assembler PC v18.1.3 Wed Nov 28 13:22:08 2018

Tools Copyright (c) 1996-2017 Texas Instruments Incorporated
C:\Users\Adrian\AppData\Local\Temp\{FE5CC9C4-3D95-42C7-8599-A02F5AAB02A5} PAGE    9

     441                            .dwcfi  save_reg_to_mem, 5, -20
     442                            .dwcfi  save_reg_to_mem, 4, -24
     443                            .dwpsn  file "../Application/MAC/OSAL/osal_clock.c",line 344,column 1,is_stmt,isa 1
     444 00000006 4605              MOV       V2, A1                ; [DPU_V7M3_PIPE] |344|  ; [ORIG 16-BIT INS]
     445                            .dwpsn  file "../Application/MAC/OSAL/osal_clock.c",line 348,column 5,is_stmt,isa 1
     446 00000008 223C              MOVS      A3, #60               ; [DPU_V7M3_PIPE] |348|  ; [ORIG 16-BIT INS]
     447 0000000a F0F3FBB1          UDIV      A1, A2, A4            ; [DPU_V7M3_PIPE] |348|  ; [KEEP 32-BIT INS]
     448 0000000e 4358              MULS      A1, A1, A4            ; [DPU_V7M3_PIPE] |348|  ; [ORIG 16-BIT INS]
     449 00000010 1A0E              SUBS      V3, A2, A1            ; [DPU_V7M3_PIPE] |348|  ; [ORIG 16-BIT INS]
     450 00000012 F0F2FBB6          UDIV      A1, V3, A3            ; [DPU_V7M3_PIPE] |348|  ; [KEEP 32-BIT INS]
     451 00000016 4350              MULS      A1, A1, A3            ; [DPU_V7M3_PIPE] |348|  ; [ORIG 16-BIT INS]
     452 00000018 1A30              SUBS      A1, V3, A1            ; [DPU_V7M3_PIPE] |348|  ; [ORIG 16-BIT INS]
     453 0000001a 7028              STRB      A1, [V2, #0]          ; [DPU_V7M3_PIPE] |348|  ; [ORIG 16-BIT INS]
     454                            .dwpsn  file "../Application/MAC/OSAL/osal_clock.c",line 349,column 5,is_stmt,isa 1
     455 0000001c 6061F44F          MOV       A1, #3600             ; [DPU_V7M3_PIPE] |349|  ; [KEEP 32-BIT INS]
     456 00000020 F4F0FBB6          UDIV      V1, V3, A1            ; [DPU_V7M3_PIPE] |349|  ; [KEEP 32-BIT INS]
     457 00000024 4344              MULS      V1, V1, A1            ; [DPU_V7M3_PIPE] |349|  ; [ORIG 16-BIT INS]
     458 00000026 1B34              SUBS      V1, V3, V1            ; [DPU_V7M3_PIPE] |349|  ; [ORIG 16-BIT INS]
     459                            .dwpsn  file "../Application/MAC/OSAL/osal_clock.c",line 350,column 5,is_stmt,isa 1
     460 00000028 F0F0FBB6          UDIV      A1, V3, A1            ; [DPU_V7M3_PIPE] |350|  ; [KEEP 32-BIT INS]
     461                            .dwpsn  file "../Application/MAC/OSAL/osal_clock.c",line 349,column 5,is_stmt,isa 1
     462 0000002c F2F2FBB4          UDIV      A3, V1, A3            ; [DPU_V7M3_PIPE] |349|  ; [KEEP 32-BIT INS]
     463                            .dwpsn  file "../Application/MAC/OSAL/osal_clock.c",line 350,column 5,is_stmt,isa 1
     464 00000030 70A8              STRB      A1, [V2, #2]          ; [DPU_V7M3_PIPE] |350|  ; [ORIG 16-BIT INS]
     465                            .dwpsn  file "../Application/MAC/OSAL/osal_clock.c",line 357,column 13,is_stmt,isa 1
     466 00000032 76C8F44F          MOV       V3, #400              ; [DPU_V7M3_PIPE] |357|  ; [KEEP 32-BIT INS]
     467                            .dwpsn  file "../Application/MAC/OSAL/osal_clock.c",line 349,column 5,is_stmt,isa 1
     468 00000036 706A              STRB      A3, [V2, #1]          ; [DPU_V7M3_PIPE] |349|  ; [ORIG 16-BIT INS]
     469                            .dwpsn  file "../Application/MAC/OSAL/osal_clock.c",line 355,column 20,is_stmt,isa 1
     470 00000038 F0F3FBB1          UDIV      A1, A2, A4            ; [DPU_V7M3_PIPE] |355|  ; [KEEP 32-BIT INS]
     471                            .dwpsn  file "../Application/MAC/OSAL/osal_clock.c",line 356,column 5,is_stmt,isa 1
     472 0000003c 62FAF44F          MOV       A3, #2000             ; [DPU_V7M3_PIPE] |356|  ; [KEEP 32-BIT INS]
     473                            .dwpsn  file "../Application/MAC/OSAL/osal_clock.c",line 355,column 20,is_stmt,isa 1
     474 00000040 B283              UXTH      A4, A1                ; [DPU_V7M3_PIPE] |355|  ; [ORIG 16-BIT INS]
     475                            .dwpsn  file "../Application/MAC/OSAL/osal_clock.c",line 359,column 7,is_stmt,isa 1
     476 00000042 2064              MOVS      A1, #100              ; [DPU_V7M3_PIPE] |359|  ; [ORIG 16-BIT INS]
     477                            .dwpsn  file "../Application/MAC/OSAL/osal_clock.c",line 357,column 5,is_stmt,isa 1
     478 00000044 E010              B         ||$C$L6||             ; [DPU_V7M3_PIPE] |357|  ; [ORIG 16-BIT INS]
     479                            ; BRANCH OCCURS {||$C$L6||}      ; [] |357| 
     480                    ;* --------------------------------------------------------------------------*
     481 00000046           ||$C$L2||:    
     482 00000046 B13C              CBZ       V1, ||$C$L3||         ; []  ; [ORIG 16-BIT INS]
     483                            .dwpsn  file "../Application/MAC/OSAL/osal_clock.c",line 359,column 7,is_stmt,isa 1
     484                            ; BRANCHCC OCCURS {||$C$L3||}    ; [] |359| 
     485                    ;* --------------------------------------------------------------------------*
     486 00000048 F1F0FB92          SDIV      A2, A3, A1            ; [DPU_V7M3_PIPE] |359|  ; [KEEP 32-BIT INS]
     487 0000004c 4341              MULS      A2, A2, A1            ; [DPU_V7M3_PIPE] |359|  ; [ORIG 16-BIT INS]
     488 0000004e 1A57              SUBS      V4, A3, A2            ; [DPU_V7M3_PIPE] |359|  ; [ORIG 16-BIT INS]
     489 00000050 D004              BEQ       ||$C$L4||             ; [DPU_V7M3_PIPE] |359|  ; [ORIG 16-BIT INS]
     490                            ; BRANCHCC OCCURS {||$C$L4||}    ; [] |359| 
     491                    ;* --------------------------------------------------------------------------*
     492 00000052 0F03F012          TST       A3, #3                ; [DPU_V7M3_PIPE] |359|  ; [KEEP 32-BIT INS]
     493 00000056 D101              BNE       ||$C$L4||             ; [DPU_V7M3_PIPE] |359|  ; [ORIG 16-BIT INS]
     494                            ; BRANCHCC OCCURS {||$C$L4||}    ; [] |359| 
     495                    ;* --------------------------------------------------------------------------*
TI ARM Assembler PC v18.1.3 Wed Nov 28 13:22:08 2018

Tools Copyright (c) 1996-2017 Texas Instruments Incorporated
C:\Users\Adrian\AppData\Local\Temp\{FE5CC9C4-3D95-42C7-8599-A02F5AAB02A5} PAGE   10

     496 00000058           ||$C$L3||:    
     497 00000058 4925              LDR       A2, $C$CON7           ; [DPU_V7M3_PIPE] |359|  ; [ORIG 16-BIT INS]
     498 0000005a E001              B         ||$C$L5||             ; [DPU_V7M3_PIPE] |359|  ; [ORIG 16-BIT INS]
     499                            ; BRANCH OCCURS {||$C$L5||}      ; [] |359| 
     500                    ;* --------------------------------------------------------------------------*
     501 0000005c           ||$C$L4||:    
     502 0000005c 71B6F46F          MVN       A2, #364              ; [DPU_V7M3_PIPE] |359|  ; [KEEP 32-BIT INS]
     503                    ;* --------------------------------------------------------------------------*
     504 00000060           ||$C$L5||:    
     505 00000060 185B              ADDS      A4, A4, A2            ; [DPU_V7M3_PIPE] |359|  ; [ORIG 16-BIT INS]
     506                            .dwpsn  file "../Application/MAC/OSAL/osal_clock.c",line 360,column 7,is_stmt,isa 1
     507 00000062 1C52              ADDS      A3, A3, #1            ; [DPU_V7M3_PIPE] |360|  ; [ORIG 16-BIT INS]
     508                            .dwpsn  file "../Application/MAC/OSAL/osal_clock.c",line 359,column 7,is_stmt,isa 1
     509 00000064 B29B              UXTH      A4, A4                ; [DPU_V7M3_PIPE] |359|  ; [ORIG 16-BIT INS]
     510                            .dwpsn  file "../Application/MAC/OSAL/osal_clock.c",line 360,column 7,is_stmt,isa 1
     511 00000066 B292              UXTH      A3, A3                ; [DPU_V7M3_PIPE] |360|  ; [ORIG 16-BIT INS]
     512                    ;* --------------------------------------------------------------------------*
     513                    ;*   BEGIN LOOP ||$C$L6||
     514                    ;* --------------------------------------------------------------------------*
     515 00000068           ||$C$L6||:    
     516                            .dwpsn  file "../Application/MAC/OSAL/osal_clock.c",line 357,column 13,is_stmt,isa 1
     517 00000068 F1F6FB92          SDIV      A2, A3, V3            ; [DPU_V7M3_PIPE] |357|  ; [KEEP 32-BIT INS]
     518 0000006c 4371              MULS      A2, A2, V3            ; [DPU_V7M3_PIPE] |357|  ; [ORIG 16-BIT INS]
     519 0000006e 1A54              SUBS      V1, A3, A2            ; [DPU_V7M3_PIPE] |357|  ; [ORIG 16-BIT INS]
     520 00000070 D00A              BEQ       ||$C$L8||             ; [DPU_V7M3_PIPE] |357|  ; [ORIG 16-BIT INS]
     521                            ; BRANCHCC OCCURS {||$C$L8||}    ; [] |357| 
     522                    ;* --------------------------------------------------------------------------*
     523 00000072 F1F0FB92          SDIV      A2, A3, A1            ; [DPU_V7M3_PIPE] |357|  ; [KEEP 32-BIT INS]
     524 00000076 4341              MULS      A2, A2, A1            ; [DPU_V7M3_PIPE] |357|  ; [ORIG 16-BIT INS]
     525 00000078 1A57              SUBS      V4, A3, A2            ; [DPU_V7M3_PIPE] |357|  ; [ORIG 16-BIT INS]
     526 0000007a D002              BEQ       ||$C$L7||             ; [DPU_V7M3_PIPE] |357|  ; [ORIG 16-BIT INS]
     527                            ; BRANCHCC OCCURS {||$C$L7||}    ; [] |357| 
     528                    ;* --------------------------------------------------------------------------*
     529 0000007c 0F03F012          TST       A3, #3                ; [DPU_V7M3_PIPE] |357|  ; [KEEP 32-BIT INS]
     530 00000080 D002              BEQ       ||$C$L8||             ; [DPU_V7M3_PIPE] |357|  ; [ORIG 16-BIT INS]
     531                            ; BRANCHCC OCCURS {||$C$L8||}    ; [] |357| 
     532                    ;* --------------------------------------------------------------------------*
     533 00000082           ||$C$L7||:    
     534 00000082 116DF240          MOV       A2, #365              ; [DPU_V7M3_PIPE] |357|  ; [KEEP 32-BIT INS]
     535 00000086 E001              B         ||$C$L9||             ; [DPU_V7M3_PIPE] |357|  ; [ORIG 16-BIT INS]
     536                            ; BRANCH OCCURS {||$C$L9||}      ; [] |357| 
     537                    ;* --------------------------------------------------------------------------*
     538 00000088           ||$C$L8||:    
     539 00000088 71B7F44F          MOV       A2, #366              ; [DPU_V7M3_PIPE] |357|  ; [KEEP 32-BIT INS]
     540                    ;* --------------------------------------------------------------------------*
     541 0000008c           ||$C$L9||:    
     542 0000008c 4299              CMP       A2, A4                ; [DPU_V7M3_PIPE] |357|  ; [ORIG 16-BIT INS]
     543 0000008e DDDA              BLE       ||$C$L2||             ; [DPU_V7M3_PIPE] |357|  ; [ORIG 16-BIT INS]
     544                            ; BRANCHCC OCCURS {||$C$L2||}    ; [] |357| 
     545                    ;* --------------------------------------------------------------------------*
     546                            .dwpsn  file "../Application/MAC/OSAL/osal_clock.c",line 363,column 5,is_stmt,isa 1
     547 00000090 0800F04F          MOV       V5, #0                ; [DPU_V7M3_PIPE] |363|  ; [KEEP 32-BIT INS]
     548 00000094 80EA              STRH      A3, [V2, #6]          ; [DPU_V7M3_PIPE]  ; [ORIG 16-BIT INS]
     549 00000096 4607              MOV       V4, A1                ; [DPU_V7M3_PIPE]  ; [ORIG 16-BIT INS]
     550 00000098 8004F885          STRB      V5, [V2, #4]          ; [DPU_V7M3_PIPE] |363|  ; [KEEP 32-BIT INS]
TI ARM Assembler PC v18.1.3 Wed Nov 28 13:22:08 2018

Tools Copyright (c) 1996-2017 Texas Instruments Incorporated
C:\Users\Adrian\AppData\Local\Temp\{FE5CC9C4-3D95-42C7-8599-A02F5AAB02A5} PAGE   11

     551 0000009c 4646              MOV       V3, V5                ; [DPU_V7M3_PIPE] |363|  ; [ORIG 16-BIT INS]
     552                            .dwpsn  file "../Application/MAC/OSAL/osal_clock.c",line 364,column 5,is_stmt,isa 1
     553 0000009e E012              B         ||$C$L13||            ; [DPU_V7M3_PIPE] |364|  ; [ORIG 16-BIT INS]
     554                            ; BRANCH OCCURS {||$C$L13||}     ; [] |364| 
     555                    ;* --------------------------------------------------------------------------*
     556 000000a0           ||$C$L10||:    
     557                            .dwpsn  file "../Application/MAC/OSAL/osal_clock.c",line 366,column 7,is_stmt,isa 1
     558 000000a0 2001              MOVS      A1, #1                ; [DPU_V7M3_PIPE] |366|  ; [ORIG 16-BIT INS]
     559 000000a2 B144              CBZ       V1, ||$C$L12||        ; []  ; [ORIG 16-BIT INS]
     560                            ; BRANCHCC OCCURS {||$C$L12||}   ; [] |366| 
     561                    ;* --------------------------------------------------------------------------*
     562 000000a4 F1F7FB92          SDIV      A2, A3, V4            ; [DPU_V7M3_PIPE] |366|  ; [KEEP 32-BIT INS]
     563 000000a8 4379              MULS      A2, A2, V4            ; [DPU_V7M3_PIPE] |366|  ; [ORIG 16-BIT INS]
     564 000000aa 1A51              SUBS      A2, A3, A2            ; [DPU_V7M3_PIPE] |366|  ; [ORIG 16-BIT INS]
     565 000000ac D002              BEQ       ||$C$L11||            ; [DPU_V7M3_PIPE] |366|  ; [ORIG 16-BIT INS]
     566                            ; BRANCHCC OCCURS {||$C$L11||}   ; [] |366| 
     567                    ;* --------------------------------------------------------------------------*
     568 000000ae 0F03F012          TST       A3, #3                ; [DPU_V7M3_PIPE] |366|  ; [KEEP 32-BIT INS]
     569 000000b2 D000              BEQ       ||$C$L12||            ; [DPU_V7M3_PIPE] |366|  ; [ORIG 16-BIT INS]
     570                            ; BRANCHCC OCCURS {||$C$L12||}   ; [] |366| 
     571                    ;* --------------------------------------------------------------------------*
     572 000000b4           ||$C$L11||:    
     573 000000b4 4640              MOV       A1, V5                ; [DPU_V7M3_PIPE]  ; [ORIG 16-BIT INS]
     574                    ;* --------------------------------------------------------------------------*
     575 000000b6           ||$C$L12||:    
     576 000000b6 4631              MOV       A2, V3                ; [DPU_V7M3_PIPE] |366|  ; [ORIG 16-BIT INS]
     577                    $C$DW$33        .dwtag  DW_TAG_TI_branch
     578                            .dwattr $C$DW$33, DW_AT_low_pc(0x00)
     579                            .dwattr $C$DW$33, DW_AT_name("monthLength")
     580                            .dwattr $C$DW$33, DW_AT_TI_call
     581                    
     582 000000b8 FFFEF7FF!         BL        monthLength           ; [DPU_V7M3_PIPE] |366|  ; [KEEP 32-BIT INS]
     583                            ; CALL OCCURS {monthLength }     ; [] |366| 
     584                            .dwpsn  file "../Application/MAC/OSAL/osal_clock.c",line 367,column 7,is_stmt,isa 1
     585 000000bc 1C76              ADDS      V3, V3, #1            ; [DPU_V7M3_PIPE] |367|  ; [ORIG 16-BIT INS]
     586 000000be B2F6              UXTB      V3, V3                ; [DPU_V7M3_PIPE] |367|  ; [ORIG 16-BIT INS]
     587                            .dwpsn  file "../Application/MAC/OSAL/osal_clock.c",line 366,column 7,is_stmt,isa 1
     588 000000c0 1A1B              SUBS      A4, A4, A1            ; [DPU_V7M3_PIPE] |366|  ; [ORIG 16-BIT INS]
     589                            .dwpsn  file "../Application/MAC/OSAL/osal_clock.c",line 367,column 7,is_stmt,isa 1
     590 000000c2 712E              STRB      V3, [V2, #4]          ; [DPU_V7M3_PIPE] |367|  ; [ORIG 16-BIT INS]
     591                            .dwpsn  file "../Application/MAC/OSAL/osal_clock.c",line 366,column 7,is_stmt,isa 1
     592 000000c4 B29B              UXTH      A4, A4                ; [DPU_V7M3_PIPE] |366|  ; [ORIG 16-BIT INS]
     593                    ;* --------------------------------------------------------------------------*
     594                    ;*   BEGIN LOOP ||$C$L13||
     595                    ;* --------------------------------------------------------------------------*
     596 000000c6           ||$C$L13||:    
     597                            .dwpsn  file "../Application/MAC/OSAL/osal_clock.c",line 364,column 13,is_stmt,isa 1
     598 000000c6 2001              MOVS      A1, #1                ; [DPU_V7M3_PIPE] |364|  ; [ORIG 16-BIT INS]
     599 000000c8 B144              CBZ       V1, ||$C$L15||        ; []  ; [ORIG 16-BIT INS]
     600                            ; BRANCHCC OCCURS {||$C$L15||}   ; [] |364| 
     601                    ;* --------------------------------------------------------------------------*
     602 000000ca F1F7FB92          SDIV      A2, A3, V4            ; [DPU_V7M3_PIPE] |364|  ; [KEEP 32-BIT INS]
     603 000000ce 4379              MULS      A2, A2, V4            ; [DPU_V7M3_PIPE] |364|  ; [ORIG 16-BIT INS]
     604 000000d0 1A51              SUBS      A2, A3, A2            ; [DPU_V7M3_PIPE] |364|  ; [ORIG 16-BIT INS]
     605 000000d2 D002              BEQ       ||$C$L14||            ; [DPU_V7M3_PIPE] |364|  ; [ORIG 16-BIT INS]
TI ARM Assembler PC v18.1.3 Wed Nov 28 13:22:08 2018

Tools Copyright (c) 1996-2017 Texas Instruments Incorporated
C:\Users\Adrian\AppData\Local\Temp\{FE5CC9C4-3D95-42C7-8599-A02F5AAB02A5} PAGE   12

     606                            ; BRANCHCC OCCURS {||$C$L14||}   ; [] |364| 
     607                    ;* --------------------------------------------------------------------------*
     608 000000d4 0F03F012          TST       A3, #3                ; [DPU_V7M3_PIPE] |364|  ; [KEEP 32-BIT INS]
     609 000000d8 D000              BEQ       ||$C$L15||            ; [DPU_V7M3_PIPE] |364|  ; [ORIG 16-BIT INS]
     610                            ; BRANCHCC OCCURS {||$C$L15||}   ; [] |364| 
     611                    ;* --------------------------------------------------------------------------*
     612 000000da           ||$C$L14||:    
     613 000000da 4640              MOV       A1, V5                ; [DPU_V7M3_PIPE]  ; [ORIG 16-BIT INS]
     614                    ;* --------------------------------------------------------------------------*
     615 000000dc           ||$C$L15||:    
     616 000000dc 4631              MOV       A2, V3                ; [DPU_V7M3_PIPE] |364|  ; [ORIG 16-BIT INS]
     617                    $C$DW$34        .dwtag  DW_TAG_TI_branch
     618                            .dwattr $C$DW$34, DW_AT_low_pc(0x00)
     619                            .dwattr $C$DW$34, DW_AT_name("monthLength")
     620                            .dwattr $C$DW$34, DW_AT_TI_call
     621                    
     622 000000de FFFEF7FF!         BL        monthLength           ; [DPU_V7M3_PIPE] |364|  ; [KEEP 32-BIT INS]
     623                            ; CALL OCCURS {monthLength }     ; [] |364| 
     624 000000e2 4298              CMP       A1, A4                ; [DPU_V7M3_PIPE] |364|  ; [ORIG 16-BIT INS]
     625 000000e4 DDDC              BLE       ||$C$L10||            ; [DPU_V7M3_PIPE] |364|  ; [ORIG 16-BIT INS]
     626                            ; BRANCHCC OCCURS {||$C$L10||}   ; [] |364| 
     627                    ;* --------------------------------------------------------------------------*
     628                            .dwpsn  file "../Application/MAC/OSAL/osal_clock.c",line 370,column 5,is_stmt,isa 1
     629 000000e6 70EB              STRB      A4, [V2, #3]          ; [DPU_V7M3_PIPE] |370|  ; [ORIG 16-BIT INS]
     630                    $C$DW$35        .dwtag  DW_TAG_TI_branch
     631                            .dwattr $C$DW$35, DW_AT_low_pc(0x00)
     632                            .dwattr $C$DW$35, DW_AT_TI_return
     633                    
     634 000000e8 81F0E8BD          POP       {V1, V2, V3, V4, V5, PC} ; [DPU_V7M3_PIPE]  ; [KEEP 32-BIT INS]
     635                            .dwcfi  cfa_offset, 0
     636                            .dwcfi  restore_reg, 8
     637                            .dwcfi  restore_reg, 7
     638                            .dwcfi  restore_reg, 6
     639                            .dwcfi  restore_reg, 5
     640                            .dwcfi  restore_reg, 4
     641                            ; BRANCH OCCURS                  ; [] 
     642                            .dwattr $C$DW$27, DW_AT_TI_end_file("../Application/MAC/OSAL/osal_clock.c")
     643                            .dwattr $C$DW$27, DW_AT_TI_end_line(0x174)
     644                            .dwattr $C$DW$27, DW_AT_TI_end_column(0x01)
     645                            .dwendentry
     646                            .dwendtag $C$DW$27
     647                    
     648 00000000                   .sect   ".text:osal_ConvertUTCSecs"
     649                            .clink
     650                            .thumbfunc osal_ConvertUTCSecs
     651 00000000                   .thumb
     652                            .global osal_ConvertUTCSecs
     653                    
     654                    $C$DW$36        .dwtag  DW_TAG_subprogram
     655                            .dwattr $C$DW$36, DW_AT_name("osal_ConvertUTCSecs")
     656                            .dwattr $C$DW$36, DW_AT_low_pc(osal_ConvertUTCSecs)
     657                            .dwattr $C$DW$36, DW_AT_high_pc(0x00)
     658                            .dwattr $C$DW$36, DW_AT_TI_symbol_name("osal_ConvertUTCSecs")
     659                            .dwattr $C$DW$36, DW_AT_external
     660                            .dwattr $C$DW$36, DW_AT_type(*$C$DW$T$215)
TI ARM Assembler PC v18.1.3 Wed Nov 28 13:22:08 2018

Tools Copyright (c) 1996-2017 Texas Instruments Incorporated
C:\Users\Adrian\AppData\Local\Temp\{FE5CC9C4-3D95-42C7-8599-A02F5AAB02A5} PAGE   13

     661                            .dwattr $C$DW$36, DW_AT_TI_begin_file("../Application/MAC/OSAL/osal_clock.c")
     662                            .dwattr $C$DW$36, DW_AT_TI_begin_line(0x1a0)
     663                            .dwattr $C$DW$36, DW_AT_TI_begin_column(0x09)
     664                            .dwattr $C$DW$36, DW_AT_decl_file("../Application/MAC/OSAL/osal_clock.c")
     665                            .dwattr $C$DW$36, DW_AT_decl_line(0x1a0)
     666                            .dwattr $C$DW$36, DW_AT_decl_column(0x09)
     667                            .dwattr $C$DW$36, DW_AT_TI_max_frame_size(0x18)
     668                            .dwpsn  file "../Application/MAC/OSAL/osal_clock.c",line 417,column 1,is_stmt,address osal_Con
     669                    
     670                            .dwfde $C$DW$CIE, osal_ConvertUTCSecs
     671                    $C$DW$37        .dwtag  DW_TAG_formal_parameter
     672                            .dwattr $C$DW$37, DW_AT_name("tm")
     673                            .dwattr $C$DW$37, DW_AT_TI_symbol_name("tm")
     674                            .dwattr $C$DW$37, DW_AT_type(*$C$DW$T$190)
     675                            .dwattr $C$DW$37, DW_AT_location[DW_OP_reg0]
     676                    
     677                    
     678                    ;*****************************************************************************
     679                    ;* FUNCTION NAME: osal_ConvertUTCSecs                                        *
     680                    ;*                                                                           *
     681                    ;*   Regs Modified     : A1,A2,A3,A4,V1,V2,V3,V4,V9,SP,LR,SR                 *
     682                    ;*   Regs Used         : A1,A2,A3,A4,V1,V2,V3,V4,V9,SP,LR,SR                 *
     683                    ;*   Local Frame Size  : 0 Args + 0 Auto + 20 Save = 20 byte                 *
     684                    ;*****************************************************************************
     685                    osal_ConvertUTCSecs:
     686                    ;* --------------------------------------------------------------------------*
     687                    ;* V4    assigned to $O$U34
     688                    ;* V1    assigned to $O$v1
     689                    ;* A1    assigned to $O$S2
     690                    ;* A1    assigned to tm
     691                    $C$DW$38        .dwtag  DW_TAG_variable
     692                            .dwattr $C$DW$38, DW_AT_name("tm")
     693                            .dwattr $C$DW$38, DW_AT_TI_symbol_name("tm")
     694                            .dwattr $C$DW$38, DW_AT_type(*$C$DW$T$191)
     695                            .dwattr $C$DW$38, DW_AT_location[DW_OP_reg0]
     696                    
     697                    ;* V2    assigned to seconds
     698                    $C$DW$39        .dwtag  DW_TAG_variable
     699                            .dwattr $C$DW$39, DW_AT_name("seconds")
     700                            .dwattr $C$DW$39, DW_AT_TI_symbol_name("seconds")
     701                            .dwattr $C$DW$39, DW_AT_type(*$C$DW$T$86)
     702                            .dwattr $C$DW$39, DW_AT_location[DW_OP_reg5]
     703                    
     704                    ;* A3    assigned to days
     705                    $C$DW$40        .dwtag  DW_TAG_variable
     706                            .dwattr $C$DW$40, DW_AT_name("days")
     707                            .dwattr $C$DW$40, DW_AT_TI_symbol_name("days")
     708                            .dwattr $C$DW$40, DW_AT_type(*$C$DW$T$22)
     709                            .dwattr $C$DW$40, DW_AT_location[DW_OP_reg2]
     710                    
     711                    ;* A4    assigned to month
     712                    $C$DW$41        .dwtag  DW_TAG_variable
     713                            .dwattr $C$DW$41, DW_AT_name("month")
     714                            .dwattr $C$DW$41, DW_AT_TI_symbol_name("month")
     715                            .dwattr $C$DW$41, DW_AT_type(*$C$DW$T$228)
TI ARM Assembler PC v18.1.3 Wed Nov 28 13:22:08 2018

Tools Copyright (c) 1996-2017 Texas Instruments Incorporated
C:\Users\Adrian\AppData\Local\Temp\{FE5CC9C4-3D95-42C7-8599-A02F5AAB02A5} PAGE   14

     716                            .dwattr $C$DW$41, DW_AT_location[DW_OP_reg3]
     717                    
     718                    ;* V1    assigned to year
     719                    $C$DW$42        .dwtag  DW_TAG_variable
     720                            .dwattr $C$DW$42, DW_AT_name("year")
     721                            .dwattr $C$DW$42, DW_AT_TI_symbol_name("year")
     722                            .dwattr $C$DW$42, DW_AT_type(*$C$DW$T$22)
     723                            .dwattr $C$DW$42, DW_AT_location[DW_OP_reg4]
     724                    
     725                            .dwcfi  cfa_offset, 0
     726 00000000 B5F8              PUSH      {A4, V1, V2, V3, V4, LR} ; [DPU_V7M3_PIPE]  ; [ORIG 16-BIT INS]
     727                            .dwcfi  cfa_offset, 24
     728                            .dwcfi  save_reg_to_mem, 14, -4
     729                            .dwcfi  save_reg_to_mem, 7, -8
     730                            .dwcfi  save_reg_to_mem, 6, -12
     731                            .dwcfi  save_reg_to_mem, 5, -16
     732                            .dwcfi  save_reg_to_mem, 4, -20
     733                            .dwcfi  save_reg_to_mem, 3, -24
     734                            .dwpsn  file "../Application/MAC/OSAL/osal_clock.c",line 421,column 3,is_stmt,isa 1
     735 00000002 7882              LDRB      A3, [A1, #2]          ; [DPU_V7M3_PIPE] |421|  ; [ORIG 16-BIT INS]
     736 00000004 0191              LSLS      A2, A3, #6            ; [DPU_V7M3_PIPE] |421|  ; [ORIG 16-BIT INS]
     737 00000006 0182EBA1          SUB       A2, A2, A3, LSL #2    ; [DPU_V7M3_PIPE] |421|  ; [KEEP 32-BIT INS]
     738                            .dwpsn  file "../Application/MAC/OSAL/osal_clock.c",line 431,column 7,is_stmt,isa 1
     739 0000000a 88C4              LDRH      V1, [A1, #6]          ; [DPU_V7M3_PIPE] |431|  ; [ORIG 16-BIT INS]
     740                            .dwpsn  file "../Application/MAC/OSAL/osal_clock.c",line 421,column 3,is_stmt,isa 1
     741 0000000c 7842              LDRB      A3, [A1, #1]          ; [DPU_V7M3_PIPE] |421|  ; [ORIG 16-BIT INS]
     742 0000000e 1889              ADDS      A2, A2, A3            ; [DPU_V7M3_PIPE] |421|  ; [ORIG 16-BIT INS]
     743                            .dwpsn  file "../Application/MAC/OSAL/osal_clock.c",line 426,column 17,is_stmt,isa 1
     744 00000010 78C2              LDRB      A3, [A1, #3]          ; [DPU_V7M3_PIPE] |426|  ; [ORIG 16-BIT INS]
     745                            .dwpsn  file "../Application/MAC/OSAL/osal_clock.c",line 421,column 3,is_stmt,isa 1
     746 00000012 B289              UXTH      A2, A2                ; [DPU_V7M3_PIPE] |421|  ; [ORIG 16-BIT INS]
     747 00000014 018D              LSLS      V2, A2, #6            ; [DPU_V7M3_PIPE] |421|  ; [ORIG 16-BIT INS]
     748 00000016 0581EBA5          SUB       V2, V2, A2, LSL #2    ; [DPU_V7M3_PIPE] |421|  ; [KEEP 32-BIT INS]
     749 0000001a 7801              LDRB      A2, [A1, #0]          ; [DPU_V7M3_PIPE] |421|  ; [ORIG 16-BIT INS]
     750                            .dwpsn  file "../Application/MAC/OSAL/osal_clock.c",line 431,column 15,is_stmt,isa 1
     751 0000001c 7900              LDRB      A1, [A1, #4]          ; [DPU_V7M3_PIPE] |431|  ; [ORIG 16-BIT INS]
     752                            .dwpsn  file "../Application/MAC/OSAL/osal_clock.c",line 421,column 3,is_stmt,isa 1
     753 0000001e 186D              ADDS      V2, V2, A2            ; [DPU_V7M3_PIPE] |421|  ; [ORIG 16-BIT INS]
     754                            .dwpsn  file "../Application/MAC/OSAL/osal_clock.c",line 431,column 15,is_stmt,isa 1
     755 00000020 1E40              SUBS      A1, A1, #1            ; [DPU_V7M3_PIPE] |431|  ; [ORIG 16-BIT INS]
     756 00000022 B243              SXTB      A4, A1                ; [DPU_V7M3_PIPE] |431|  ; [ORIG 16-BIT INS]
     757 00000024 2B00              CMP       A4, #0                ; [DPU_V7M3_PIPE] |431|  ; [ORIG 16-BIT INS]
     758 00000026 D41A              BMI       ||$C$L19||            ; [DPU_V7M3_PIPE] |431|  ; [ORIG 16-BIT INS]
     759                            ; BRANCHCC OCCURS {||$C$L19||}   ; [] |431| 
     760                    ;* --------------------------------------------------------------------------*
     761 00000028 71C8F44F          MOV       A2, #400              ; [DPU_V7M3_PIPE]  ; [KEEP 32-BIT INS]
     762 0000002c F0F1FB94          SDIV      A1, V1, A2            ; [DPU_V7M3_PIPE]  ; [KEEP 32-BIT INS]
     763                            .dwpsn  file "../Application/MAC/OSAL/osal_clock.c",line 433,column 9,is_stmt,isa 1
     764 00000030 2664              MOVS      V3, #100              ; [DPU_V7M3_PIPE] |433|  ; [ORIG 16-BIT INS]
     765 00000032 4348              MULS      A1, A1, A2            ; [DPU_V7M3_PIPE]  ; [ORIG 16-BIT INS]
     766 00000034 1A27              SUBS      V4, V1, A1            ; [DPU_V7M3_PIPE]  ; [ORIG 16-BIT INS]
     767                    ;* --------------------------------------------------------------------------*
     768                    ;*   BEGIN LOOP ||$C$L16||
     769                    ;*
     770                    ;*   Loop source line                : 431
TI ARM Assembler PC v18.1.3 Wed Nov 28 13:22:08 2018

Tools Copyright (c) 1996-2017 Texas Instruments Incorporated
C:\Users\Adrian\AppData\Local\Temp\{FE5CC9C4-3D95-42C7-8599-A02F5AAB02A5} PAGE   15

     771                    ;*   Loop closing brace source line  : 434
     772                    ;*   Known Minimum Trip Count        : 1
     773                    ;*   Known Maximum Trip Count        : 128
     774                    ;*   Known Max Trip Count Factor     : 1
     775                    ;* --------------------------------------------------------------------------*
     776 00000036           ||$C$L16||:    
     777 00000036 2001              MOVS      A1, #1                ; [DPU_V7M3_PIPE] |433|  ; [ORIG 16-BIT INS]
     778 00000038 B147              CBZ       V4, ||$C$L18||        ; []  ; [ORIG 16-BIT INS]
     779                            ; BRANCHCC OCCURS {||$C$L18||}   ; [] |433| 
     780                    ;* --------------------------------------------------------------------------*
     781 0000003a F1F6FB94          SDIV      A2, V1, V3            ; [DPU_V7M3_PIPE] |433|  ; [KEEP 32-BIT INS]
     782 0000003e 4371              MULS      A2, A2, V3            ; [DPU_V7M3_PIPE] |433|  ; [ORIG 16-BIT INS]
     783 00000040 1A61              SUBS      A2, V1, A2            ; [DPU_V7M3_PIPE] |433|  ; [ORIG 16-BIT INS]
     784 00000042 D002              BEQ       ||$C$L17||            ; [DPU_V7M3_PIPE] |433|  ; [ORIG 16-BIT INS]
     785                            ; BRANCHCC OCCURS {||$C$L17||}   ; [] |433| 
     786                    ;* --------------------------------------------------------------------------*
     787 00000044 0F03F014          TST       V1, #3                ; [DPU_V7M3_PIPE] |433|  ; [KEEP 32-BIT INS]
     788 00000048 D000              BEQ       ||$C$L18||            ; [DPU_V7M3_PIPE] |433|  ; [ORIG 16-BIT INS]
     789                            ; BRANCHCC OCCURS {||$C$L18||}   ; [] |433| 
     790                    ;* --------------------------------------------------------------------------*
     791 0000004a           ||$C$L17||:    
     792 0000004a 2000              MOVS      A1, #0                ; [DPU_V7M3_PIPE] |433|  ; [ORIG 16-BIT INS]
     793                    ;* --------------------------------------------------------------------------*
     794 0000004c           ||$C$L18||:    
     795 0000004c B2D9              UXTB      A2, A4                ; [DPU_V7M3_PIPE] |433|  ; [ORIG 16-BIT INS]
     796                    $C$DW$43        .dwtag  DW_TAG_TI_branch
     797                            .dwattr $C$DW$43, DW_AT_low_pc(0x00)
     798                            .dwattr $C$DW$43, DW_AT_name("monthLength")
     799                            .dwattr $C$DW$43, DW_AT_TI_call
     800                    
     801 0000004e FFFEF7FF!         BL        monthLength           ; [DPU_V7M3_PIPE] |433|  ; [KEEP 32-BIT INS]
     802                            ; CALL OCCURS {monthLength }     ; [] |433| 
     803 00000052 1E5B              SUBS      A4, A4, #1            ; [DPU_V7M3_PIPE] |433|  ; [ORIG 16-BIT INS]
     804 00000054 B25B              SXTB      A4, A4                ; [DPU_V7M3_PIPE] |433|  ; [ORIG 16-BIT INS]
     805 00000056 1812              ADDS      A3, A3, A1            ; [DPU_V7M3_PIPE] |433|  ; [ORIG 16-BIT INS]
     806 00000058 2B00              CMP       A4, #0                ; [DPU_V7M3_PIPE] |433|  ; [ORIG 16-BIT INS]
     807 0000005a B292              UXTH      A3, A3                ; [DPU_V7M3_PIPE] |433|  ; [ORIG 16-BIT INS]
     808 0000005c D5EB              BPL       ||$C$L16||            ; [DPU_V7M3_PIPE] |433|  ; [ORIG 16-BIT INS]
     809                            ; BRANCHCC OCCURS {||$C$L16||}   ; [] |433| 
     810                    ;* --------------------------------------------------------------------------*
     811 0000005e           ||$C$L19||:    
     812                            .dwpsn  file "../Application/MAC/OSAL/osal_clock.c",line 442,column 9,is_stmt,isa 1
     813 0000005e 73C8F44F          MOV       A4, #400              ; [DPU_V7M3_PIPE] |442|  ; [KEEP 32-BIT INS]
     814 00000062 2164              MOVS      A2, #100              ; [DPU_V7M3_PIPE] |442|  ; [ORIG 16-BIT INS]
     815                            .dwpsn  file "../Application/MAC/OSAL/osal_clock.c",line 440,column 7,is_stmt,isa 1
     816 00000064 E012              B         ||$C$L24||            ; [DPU_V7M3_PIPE] |440|  ; [ORIG 16-BIT INS]
     817                            ; BRANCH OCCURS {||$C$L24||}     ; [] |440| 
     818                    ;* --------------------------------------------------------------------------*
     819 00000066           ||$C$L20||:    
     820                            .dwpsn  file "../Application/MAC/OSAL/osal_clock.c",line 442,column 9,is_stmt,isa 1
     821 00000066 F0F3FB94          SDIV      A1, V1, A4            ; [DPU_V7M3_PIPE] |442|  ; [KEEP 32-BIT INS]
     822 0000006a 4358              MULS      A1, A1, A4            ; [DPU_V7M3_PIPE] |442|  ; [ORIG 16-BIT INS]
     823 0000006c 1A27              SUBS      V4, V1, A1            ; [DPU_V7M3_PIPE] |442|  ; [ORIG 16-BIT INS]
     824 0000006e D00A              BEQ       ||$C$L22||            ; [DPU_V7M3_PIPE] |442|  ; [ORIG 16-BIT INS]
     825                            ; BRANCHCC OCCURS {||$C$L22||}   ; [] |442| 
TI ARM Assembler PC v18.1.3 Wed Nov 28 13:22:08 2018

Tools Copyright (c) 1996-2017 Texas Instruments Incorporated
C:\Users\Adrian\AppData\Local\Temp\{FE5CC9C4-3D95-42C7-8599-A02F5AAB02A5} PAGE   16

     826                    ;* --------------------------------------------------------------------------*
     827 00000070 F0F1FB94          SDIV      A1, V1, A2            ; [DPU_V7M3_PIPE] |442|  ; [KEEP 32-BIT INS]
     828 00000074 4348              MULS      A1, A1, A2            ; [DPU_V7M3_PIPE] |442|  ; [ORIG 16-BIT INS]
     829 00000076 1A27              SUBS      V4, V1, A1            ; [DPU_V7M3_PIPE] |442|  ; [ORIG 16-BIT INS]
     830 00000078 D002              BEQ       ||$C$L21||            ; [DPU_V7M3_PIPE] |442|  ; [ORIG 16-BIT INS]
     831                            ; BRANCHCC OCCURS {||$C$L21||}   ; [] |442| 
     832                    ;* --------------------------------------------------------------------------*
     833 0000007a 0F03F014          TST       V1, #3                ; [DPU_V7M3_PIPE] |442|  ; [KEEP 32-BIT INS]
     834 0000007e D002              BEQ       ||$C$L22||            ; [DPU_V7M3_PIPE] |442|  ; [ORIG 16-BIT INS]
     835                            ; BRANCHCC OCCURS {||$C$L22||}   ; [] |442| 
     836                    ;* --------------------------------------------------------------------------*
     837 00000080           ||$C$L21||:    
     838 00000080 126DF202          ADD       A3, A3, #365          ; [DPU_V7M3_PIPE] |442|  ; [KEEP 32-BIT INS]
     839 00000084 E001              B         ||$C$L23||            ; [DPU_V7M3_PIPE] |442|  ; [ORIG 16-BIT INS]
     840                            ; BRANCH OCCURS {||$C$L23||}     ; [] |442| 
     841                    ;* --------------------------------------------------------------------------*
     842 00000086           ||$C$L22||:    
     843 00000086 72B7F502          ADD       A3, A3, #366          ; [DPU_V7M3_PIPE] |442|  ; [KEEP 32-BIT INS]
     844                    ;* --------------------------------------------------------------------------*
     845 0000008a           ||$C$L23||:    
     846 0000008a B292              UXTH      A3, A3                ; [DPU_V7M3_PIPE] |442|  ; [ORIG 16-BIT INS]
     847                    ;* --------------------------------------------------------------------------*
     848                    ;*   BEGIN LOOP ||$C$L24||
     849                    ;*
     850                    ;*   Known Minimum Trip Count        : 1
     851                    ;*   Known Maximum Trip Count        : 65536
     852                    ;*   Known Max Trip Count Factor     : 1
     853                    ;* --------------------------------------------------------------------------*
     854 0000008c           ||$C$L24||:    
     855 0000008c 1E64              SUBS      V1, V1, #1            ; [DPU_V7M3_PIPE] |442|  ; [ORIG 16-BIT INS]
     856 0000008e B2A4              UXTH      V1, V1                ; [DPU_V7M3_PIPE] |442|  ; [ORIG 16-BIT INS]
     857 00000090 6FFAF5B4          CMP       V1, #2000             ; [DPU_V7M3_PIPE] |442|  ; [KEEP 32-BIT INS]
     858 00000094 DAE7              BGE       ||$C$L20||            ; [DPU_V7M3_PIPE] |442|  ; [ORIG 16-BIT INS]
     859                            ; BRANCHCC OCCURS {||$C$L20||}   ; [] |442| 
     860                    ;* --------------------------------------------------------------------------*
     861                            .dwpsn  file "../Application/MAC/OSAL/osal_clock.c",line 447,column 5,is_stmt,isa 1
     862 00000096 4802              LDR       A1, $C$CON8           ; [DPU_V7M3_PIPE] |447|  ; [ORIG 16-BIT INS]
     863 00000098 5002FB00          MLA       A1, A1, A3, V2        ; [DPU_V7M3_PIPE] |447|  ; [KEEP 32-BIT INS]
     864                    $C$DW$44        .dwtag  DW_TAG_TI_branch
     865                            .dwattr $C$DW$44, DW_AT_low_pc(0x00)
     866                            .dwattr $C$DW$44, DW_AT_TI_return
     867                    
     868 0000009c BDF8              POP       {A4, V1, V2, V3, V4, PC} ; [DPU_V7M3_PIPE]  ; [ORIG 16-BIT INS]
     869                            .dwcfi  cfa_offset, 0
     870                            .dwcfi  restore_reg, 7
     871                            .dwcfi  restore_reg, 6
     872                            .dwcfi  restore_reg, 5
     873                            .dwcfi  restore_reg, 4
     874                            .dwcfi  restore_reg, 3
     875                            ; BRANCH OCCURS                  ; [] 
     876                            .dwattr $C$DW$36, DW_AT_TI_end_file("../Application/MAC/OSAL/osal_clock.c")
     877                            .dwattr $C$DW$36, DW_AT_TI_end_line(0x1c3)
     878                            .dwattr $C$DW$36, DW_AT_TI_end_column(0x01)
     879                            .dwendentry
     880                            .dwendtag $C$DW$36
TI ARM Assembler PC v18.1.3 Wed Nov 28 13:22:08 2018

Tools Copyright (c) 1996-2017 Texas Instruments Incorporated
C:\Users\Adrian\AppData\Local\Temp\{FE5CC9C4-3D95-42C7-8599-A02F5AAB02A5} PAGE   17

     881                    
     882 00000000                   .sect   ".text:osalTimeUpdate"
     883                            .clink
     884                            .thumbfunc osalTimeUpdate
     885 00000000                   .thumb
     886                            .global osalTimeUpdate
     887                    
     888                    $C$DW$45        .dwtag  DW_TAG_subprogram
     889                            .dwattr $C$DW$45, DW_AT_name("osalTimeUpdate")
     890                            .dwattr $C$DW$45, DW_AT_low_pc(osalTimeUpdate)
     891                            .dwattr $C$DW$45, DW_AT_high_pc(0x00)
     892                            .dwattr $C$DW$45, DW_AT_TI_symbol_name("osalTimeUpdate")
     893                            .dwattr $C$DW$45, DW_AT_external
     894                            .dwattr $C$DW$45, DW_AT_TI_begin_file("../Application/MAC/OSAL/osal_clock.c")
     895                            .dwattr $C$DW$45, DW_AT_TI_begin_line(0xc4)
     896                            .dwattr $C$DW$45, DW_AT_TI_begin_column(0x06)
     897                            .dwattr $C$DW$45, DW_AT_decl_file("../Application/MAC/OSAL/osal_clock.c")
     898                            .dwattr $C$DW$45, DW_AT_decl_line(0xc4)
     899                            .dwattr $C$DW$45, DW_AT_decl_column(0x06)
     900                            .dwattr $C$DW$45, DW_AT_TI_max_frame_size(0x00)
     901                            .dwpsn  file "../Application/MAC/OSAL/osal_clock.c",line 197,column 1,is_stmt,address osalTime
     902                    
     903                            .dwfde $C$DW$CIE, osalTimeUpdate
     904                    
     905                    ;*****************************************************************************
     906                    ;* FUNCTION NAME: osalTimeUpdate                                             *
     907                    ;*                                                                           *
     908                    ;*   Regs Modified     :                                                     *
     909                    ;*   Regs Used         : LR                                                  *
     910                    ;*   Local Frame Size  : 0 Args + 0 Auto + 0 Save = 0 byte                   *
     911                    ;*****************************************************************************
     912 00000000           osalTimeUpdate:
     913                    ;* --------------------------------------------------------------------------*
     914                            .dwcfi  cfa_offset, 0
     915                    $C$DW$46        .dwtag  DW_TAG_TI_branch
     916                            .dwattr $C$DW$46, DW_AT_low_pc(0x00)
     917                            .dwattr $C$DW$46, DW_AT_TI_return
     918                    
     919 00000000 4770              BX        LR                    ; [DPU_V7M3_PIPE]  ; [ORIG 16-BIT INS]
     920                            ; BRANCH OCCURS                  ; [] 
     921                            .dwattr $C$DW$45, DW_AT_TI_end_file("../Application/MAC/OSAL/osal_clock.c")
     922                            .dwattr $C$DW$45, DW_AT_TI_end_line(0xf6)
     923                            .dwattr $C$DW$45, DW_AT_TI_end_column(0x01)
     924                            .dwendentry
     925                            .dwendtag $C$DW$45
     926                    
     927 00000000                   .sect   ".text:osalAdjustTimer"
     928                            .clink
     929                            .thumbfunc osalAdjustTimer
     930 00000000                   .thumb
     931                            .global osalAdjustTimer
     932                    
     933                    $C$DW$47        .dwtag  DW_TAG_subprogram
     934                            .dwattr $C$DW$47, DW_AT_name("osalAdjustTimer")
     935                            .dwattr $C$DW$47, DW_AT_low_pc(osalAdjustTimer)
TI ARM Assembler PC v18.1.3 Wed Nov 28 13:22:08 2018

Tools Copyright (c) 1996-2017 Texas Instruments Incorporated
C:\Users\Adrian\AppData\Local\Temp\{FE5CC9C4-3D95-42C7-8599-A02F5AAB02A5} PAGE   18

     936                            .dwattr $C$DW$47, DW_AT_high_pc(0x00)
     937                            .dwattr $C$DW$47, DW_AT_TI_symbol_name("osalAdjustTimer")
     938                            .dwattr $C$DW$47, DW_AT_external
     939                            .dwattr $C$DW$47, DW_AT_TI_begin_file("../Application/MAC/OSAL/osal_clock.c")
     940                            .dwattr $C$DW$47, DW_AT_TI_begin_line(0x11d)
     941                            .dwattr $C$DW$47, DW_AT_TI_begin_column(0x06)
     942                            .dwattr $C$DW$47, DW_AT_decl_file("../Application/MAC/OSAL/osal_clock.c")
     943                            .dwattr $C$DW$47, DW_AT_decl_line(0x11d)
     944                            .dwattr $C$DW$47, DW_AT_decl_column(0x06)
     945                            .dwattr $C$DW$47, DW_AT_TI_max_frame_size(0x18)
     946                            .dwpsn  file "../Application/MAC/OSAL/osal_clock.c",line 286,column 1,is_stmt,address osalAdju
     947                    
     948                            .dwfde $C$DW$CIE, osalAdjustTimer
     949                    $C$DW$48        .dwtag  DW_TAG_formal_parameter
     950                            .dwattr $C$DW$48, DW_AT_name("Msec")
     951                            .dwattr $C$DW$48, DW_AT_TI_symbol_name("Msec")
     952                            .dwattr $C$DW$48, DW_AT_type(*$C$DW$T$86)
     953                            .dwattr $C$DW$48, DW_AT_location[DW_OP_reg0]
     954                    
     955                    
     956                    ;*****************************************************************************
     957                    ;* FUNCTION NAME: osalAdjustTimer                                            *
     958                    ;*                                                                           *
     959                    ;*   Regs Modified     : A1,A2,A3,A4,V1,V2,V3,V4,V9,SP,LR,SR                 *
     960                    ;*   Regs Used         : A1,A2,A3,A4,V1,V2,V3,V4,V9,SP,LR,SR                 *
     961                    ;*   Local Frame Size  : 0 Args + 0 Auto + 20 Save = 20 byte                 *
     962                    ;*****************************************************************************
     963                    osalAdjustTimer:
     964                    ;* --------------------------------------------------------------------------*
     965                    ;* V3    assigned to $O$C1
     966                    ;* V3    assigned to $O$K11
     967                    ;* V1    assigned to $O$K4
     968                    ;* A3    assigned to $O$v2
     969                    ;* A2    assigned to $O$v1
     970                    ;* V2    assigned to Msec
     971                    $C$DW$49        .dwtag  DW_TAG_variable
     972                            .dwattr $C$DW$49, DW_AT_name("Msec")
     973                            .dwattr $C$DW$49, DW_AT_TI_symbol_name("Msec")
     974                            .dwattr $C$DW$49, DW_AT_type(*$C$DW$T$318)
     975                            .dwattr $C$DW$49, DW_AT_location[DW_OP_reg5]
     976                    
     977                            .dwcfi  cfa_offset, 0
     978 00000000 B5F8              PUSH      {A4, V1, V2, V3, V4, LR} ; [DPU_V7M3_PIPE]  ; [ORIG 16-BIT INS]
     979                            .dwcfi  cfa_offset, 24
     980                            .dwcfi  save_reg_to_mem, 14, -4
     981                            .dwcfi  save_reg_to_mem, 7, -8
     982                            .dwcfi  save_reg_to_mem, 6, -12
     983                            .dwcfi  save_reg_to_mem, 5, -16
     984                            .dwcfi  save_reg_to_mem, 4, -20
     985                            .dwcfi  save_reg_to_mem, 3, -24
     986                            .dwpsn  file "C:/ti/simplelink_cc13x0_sdk_2_30_00_20/source/ti/devices/cc13x0/driverlib/systic
     987 00000002 4C13              LDR       V1, $C$CON9           ; [DPU_V7M3_PIPE] |204|  ; [ORIG 16-BIT INS]
     988                            .dwpsn  file "../Application/MAC/OSAL/osal_clock.c",line 286,column 1,is_stmt,isa 1
     989 00000004 4605              MOV       V2, A1                ; [DPU_V7M3_PIPE] |286|  ; [ORIG 16-BIT INS]
     990                            .dwpsn  file "C:/ti/simplelink_cc13x0_sdk_2_30_00_20/source/ti/devices/cc13x0/driverlib/systic
TI ARM Assembler PC v18.1.3 Wed Nov 28 13:22:08 2018

Tools Copyright (c) 1996-2017 Texas Instruments Incorporated
C:\Users\Adrian\AppData\Local\Temp\{FE5CC9C4-3D95-42C7-8599-A02F5AAB02A5} PAGE   19

     991 00000006 6820              LDR       A1, [V1, #0]          ; [DPU_V7M3_PIPE] |204|  ; [ORIG 16-BIT INS]
     992 00000008 0002F020          BIC       A1, A1, #2            ; [DPU_V7M3_PIPE] |204|  ; [KEEP 32-BIT INS]
     993 0000000c 6020              STR       A1, [V1, #0]          ; [DPU_V7M3_PIPE] |204|  ; [ORIG 16-BIT INS]
     994                            .dwpsn  file "../Application/MAC/OSAL/osal_clock.c",line 262,column 3,is_stmt,isa 1
     995 0000000e 4811              LDR       A1, $C$CON10          ; [DPU_V7M3_PIPE] |262|  ; [ORIG 16-BIT INS]
     996 00000010 6800              LDR       A1, [A1, #0]          ; [DPU_V7M3_PIPE] |262|  ; [ORIG 16-BIT INS]
     997                    $C$DW$50        .dwtag  DW_TAG_TI_branch
     998                            .dwattr $C$DW$50, DW_AT_low_pc(0x00)
     999                            .dwattr $C$DW$50, DW_AT_TI_call
    1000                            .dwattr $C$DW$50, DW_AT_TI_indirect
    1001                    
    1002 00000012 4780              BLX       A1                    ; [DPU_V7M3_PIPE] |262|  ; [ORIG 16-BIT INS]
    1003                            ; CALL OCCURS {}                 ; [] |262| 
    1004                            .dwpsn  file "../Application/MAC/OSAL/osal_clock.c",line 264,column 3,is_stmt,isa 1
    1005 00000014 4E10              LDR       V3, $C$CON11          ; [DPU_V7M3_PIPE] |264|  ; [ORIG 16-BIT INS]
    1006 00000016 6831              LDR       A2, [V3, #0]          ; [DPU_V7M3_PIPE] |264|  ; [ORIG 16-BIT INS]
    1007                            .dwpsn  file "../Application/MAC/OSAL/osal_clock.c",line 267,column 3,is_stmt,isa 1
    1008 00000018 6872              LDR       A3, [V3, #4]          ; [DPU_V7M3_PIPE] |267|  ; [ORIG 16-BIT INS]
    1009                            .dwpsn  file "../Application/MAC/OSAL/osal_clock.c",line 264,column 3,is_stmt,isa 1
    1010 0000001a 1949              ADDS      A2, A2, V2            ; [DPU_V7M3_PIPE] |264|  ; [ORIG 16-BIT INS]
    1011                            .dwpsn  file "../Application/MAC/OSAL/osal_clock.c",line 267,column 3,is_stmt,isa 1
    1012 0000001c 7F7AF5B1          CMP       A2, #1000             ; [DPU_V7M3_PIPE] |267|  ; [KEEP 32-BIT INS]
    1013 00000020 D30A              BCC       ||$C$L25||            ; [DPU_V7M3_PIPE] |267|  ; [ORIG 16-BIT INS]
    1014                            ; BRANCHCC OCCURS {||$C$L25||}   ; [] |267| 
    1015                    ;* --------------------------------------------------------------------------*
    1016                            .dwpsn  file "../Application/MAC/OSAL/osal_clock.c",line 270,column 5,is_stmt,isa 1
    1017 00000022 737AF44F          MOV       A4, #1000             ; [DPU_V7M3_PIPE] |270|  ; [KEEP 32-BIT INS]
    1018 00000026 F7F3FBB1          UDIV      V4, A2, A4            ; [DPU_V7M3_PIPE] |270|  ; [KEEP 32-BIT INS]
    1019 0000002a 19D2              ADDS      A3, A3, V4            ; [DPU_V7M3_PIPE] |270|  ; [ORIG 16-BIT INS]
    1020 0000002c 6072              STR       A3, [V3, #4]          ; [DPU_V7M3_PIPE] |270|  ; [ORIG 16-BIT INS]
    1021 0000002e F7F3FBB1          UDIV      V4, A2, A4            ; [DPU_V7M3_PIPE] |270|  ; [KEEP 32-BIT INS]
    1022 00000032 F203FB07          MUL       A3, V4, A4            ; [DPU_V7M3_PIPE] |270|  ; [KEEP 32-BIT INS]
    1023 00000036 1A89              SUBS      A2, A2, A3            ; [DPU_V7M3_PIPE] |270|  ; [ORIG 16-BIT INS]
    1024                    ;* --------------------------------------------------------------------------*
    1025 00000038           ||$C$L25||:    
    1026 00000038 6031              STR       A2, [V3, #0]          ; [DPU_V7M3_PIPE] |270|  ; [ORIG 16-BIT INS]
    1027                            .dwpsn  file "../Application/MAC/OSAL/osal_clock.c",line 272,column 3,is_stmt,isa 1
    1028 0000003a 4908              LDR       A2, $C$CON12          ; [DPU_V7M3_PIPE] |272|  ; [ORIG 16-BIT INS]
    1029 0000003c 6809              LDR       A2, [A2, #0]          ; [DPU_V7M3_PIPE] |272|  ; [ORIG 16-BIT INS]
    1030                    $C$DW$51        .dwtag  DW_TAG_TI_branch
    1031                            .dwattr $C$DW$51, DW_AT_low_pc(0x00)
    1032                            .dwattr $C$DW$51, DW_AT_TI_call
    1033                            .dwattr $C$DW$51, DW_AT_TI_indirect
    1034                    
    1035 0000003e 4788              BLX       A2                    ; [DPU_V7M3_PIPE] |272|  ; [ORIG 16-BIT INS]
    1036                            ; CALL OCCURS {}                 ; [] |272| 
    1037                            .dwpsn  file "../Application/MAC/OSAL/osal_clock.c",line 291,column 3,is_stmt,isa 1
    1038 00000040 4628              MOV       A1, V2                ; [DPU_V7M3_PIPE] |291|  ; [ORIG 16-BIT INS]
    1039                    $C$DW$52        .dwtag  DW_TAG_TI_branch
    1040                            .dwattr $C$DW$52, DW_AT_low_pc(0x00)
    1041                            .dwattr $C$DW$52, DW_AT_name("osalTimerUpdate")
    1042                            .dwattr $C$DW$52, DW_AT_TI_call
    1043                    
    1044 00000042 FFFEF7FF!         BL        osalTimerUpdate       ; [DPU_V7M3_PIPE] |291|  ; [KEEP 32-BIT INS]
    1045                            ; CALL OCCURS {osalTimerUpdate }  ; [] |291| 
TI ARM Assembler PC v18.1.3 Wed Nov 28 13:22:08 2018

Tools Copyright (c) 1996-2017 Texas Instruments Incorporated
C:\Users\Adrian\AppData\Local\Temp\{FE5CC9C4-3D95-42C7-8599-A02F5AAB02A5} PAGE   20

    1046                            .dwpsn  file "C:/ti/simplelink_cc13x0_sdk_2_30_00_20/source/ti/devices/cc13x0/driverlib/systic
    1047 00000046 6820              LDR       A1, [V1, #0]          ; [DPU_V7M3_PIPE] |187|  ; [ORIG 16-BIT INS]
    1048 00000048 0002F040          ORR       A1, A1, #2            ; [DPU_V7M3_PIPE] |187|  ; [KEEP 32-BIT INS]
    1049 0000004c 6020              STR       A1, [V1, #0]          ; [DPU_V7M3_PIPE] |187|  ; [ORIG 16-BIT INS]
    1050                    $C$DW$53        .dwtag  DW_TAG_TI_branch
    1051                            .dwattr $C$DW$53, DW_AT_low_pc(0x00)
    1052                            .dwattr $C$DW$53, DW_AT_TI_return
    1053                    
    1054 0000004e BDF8              POP       {A4, V1, V2, V3, V4, PC} ; [DPU_V7M3_PIPE]  ; [ORIG 16-BIT INS]
    1055                            .dwcfi  cfa_offset, 0
    1056                            .dwcfi  restore_reg, 7
    1057                            .dwcfi  restore_reg, 6
    1058                            .dwcfi  restore_reg, 5
    1059                            .dwcfi  restore_reg, 4
    1060                            .dwcfi  restore_reg, 3
    1061                            ; BRANCH OCCURS                  ; [] 
    1062                            .dwattr $C$DW$47, DW_AT_TI_end_file("../Application/MAC/OSAL/osal_clock.c")
    1063                            .dwattr $C$DW$47, DW_AT_TI_end_line(0x127)
    1064                            .dwattr $C$DW$47, DW_AT_TI_end_column(0x01)
    1065                            .dwendentry
    1066                            .dwendtag $C$DW$47
    1067                    
    1068                    ;******************************************************************************
    1069                    ;* CONSTANT TABLE                                                             *
    1070                    ;******************************************************************************
    1071 00000016                   .sect   ".text:osal_setClock"
    1072                            .align  4
    1073 00000016 000046C0! ||$C$CON1||:    .bits   ICall_enterCriticalSection,32
         0000001a 00000000 
    1074                            .align  4
    1075 0000001a 00040000! ||$C$CON2||:    .bits   ||$O1$$||+4,32
         0000001e 00000000 
    1076                            .align  4
    1077 0000001e 00000000! ||$C$CON3||:    .bits   ICall_leaveCriticalSection,32
         00000022 00000000 
    1078                    ;******************************************************************************
    1079                    ;* CONSTANT TABLE                                                             *
    1080                    ;******************************************************************************
    1081 00000006                   .sect   ".text:osal_getClock"
    1082                            .align  4
    1083 00000006 000446C0! ||$C$CON5||:    .bits   ||$O1$$||+4,32
         0000000a 00000000 
    1084                    ;******************************************************************************
    1085                    ;* CONSTANT TABLE                                                             *
    1086                    ;******************************************************************************
    1087 000000ec                   .sect   ".text:osal_ConvertUTCTime"
    1088                            .align  4
    1089 000000ec 00015180  ||$C$CON6||:    .bits   86400,32
    1090                            .align  4
    1091 000000f0 FFFFFE92  ||$C$CON7||:    .bits   -366,32
    1092                    ;******************************************************************************
    1093                    ;* CONSTANT TABLE                                                             *
    1094                    ;******************************************************************************
    1095 0000009e                   .sect   ".text:osal_ConvertUTCSecs"
    1096                            .align  4
TI ARM Assembler PC v18.1.3 Wed Nov 28 13:22:08 2018

Tools Copyright (c) 1996-2017 Texas Instruments Incorporated
C:\Users\Adrian\AppData\Local\Temp\{FE5CC9C4-3D95-42C7-8599-A02F5AAB02A5} PAGE   21

    1097 0000009e 518046C0  ||$C$CON8||:    .bits   86400,32
         000000a2 00000001 
    1098                    ;******************************************************************************
    1099                    ;* CONSTANT TABLE                                                             *
    1100                    ;******************************************************************************
    1101 00000050                   .sect   ".text:osalAdjustTimer"
    1102                            .align  4
    1103 00000050 E000E010  ||$C$CON9||:    .bits   -536813552,32
    1104                            .align  4
    1105 00000054 00000000! ||$C$CON10||:   .bits   ICall_enterCriticalSection,32
    1106                            .align  4
    1107 00000058 00000000! ||$C$CON11||:   .bits   ||$O1$$||,32
    1108                            .align  4
    1109 0000005c 00000000! ||$C$CON12||:   .bits   ICall_leaveCriticalSection,32
    1110                    ;*****************************************************************************
    1111                    ;* UNDEFINED EXTERNAL REFERENCES                                             *
    1112                    ;*****************************************************************************
    1113                            .global ICall_enterCriticalSection
    1114                            .global ICall_leaveCriticalSection
    1115                            .global osalTimerUpdate
    1116                    
    1117                    ;******************************************************************************
    1118                    ;* BUILD ATTRIBUTES                                                           *
    1119                    ;******************************************************************************
    1120                            .battr "aeabi", Tag_File, 1, Tag_ABI_PCS_wchar_t(2)
    1121                            .battr "aeabi", Tag_File, 1, Tag_ABI_FP_rounding(0)
    1122                            .battr "aeabi", Tag_File, 1, Tag_ABI_FP_denormal(0)
    1123                            .battr "aeabi", Tag_File, 1, Tag_ABI_FP_exceptions(0)
    1124                            .battr "aeabi", Tag_File, 1, Tag_ABI_FP_number_model(1)
    1125                            .battr "aeabi", Tag_File, 1, Tag_ABI_enum_size(1)
    1126                            .battr "aeabi", Tag_File, 1, Tag_ABI_optimization_goals(0)
    1127                            .battr "aeabi", Tag_File, 1, Tag_ABI_FP_optimization_goals(0)
    1128                            .battr "TI", Tag_File, 1, Tag_Bitfield_layout(2)
    1129                            .battr "aeabi", Tag_File, 1, Tag_ABI_VFP_args(3)
    1130                            .battr "TI", Tag_File, 1, Tag_FP_interface(1)
    1131                    
    1132                    ;******************************************************************************
    1133                    ;* TYPE INFORMATION                                                           *
    1134                    ;******************************************************************************
    1135                    
    1136                    $C$DW$T$185     .dwtag  DW_TAG_enumeration_type
    1137                            .dwattr $C$DW$T$185, DW_AT_byte_size(0x01)
    1138                    $C$DW$54        .dwtag  DW_TAG_enumerator
    1139                            .dwattr $C$DW$54, DW_AT_name("FAPI_PROGRAM_DATA")
    1140                            .dwattr $C$DW$54, DW_AT_const_value(0x02)
    1141                            .dwattr $C$DW$54, DW_AT_decl_file("C:/ti/simplelink_cc13x0_sdk_2_30_00_20/source/ti/devices/cc
    1142                            .dwattr $C$DW$54, DW_AT_decl_line(0xa6)
    1143                            .dwattr $C$DW$54, DW_AT_decl_column(0x05)
    1144                    
    1145                    $C$DW$55        .dwtag  DW_TAG_enumerator
    1146                            .dwattr $C$DW$55, DW_AT_name("FAPI_ERASE_SECTOR")
    1147                            .dwattr $C$DW$55, DW_AT_const_value(0x06)
    1148                            .dwattr $C$DW$55, DW_AT_decl_file("C:/ti/simplelink_cc13x0_sdk_2_30_00_20/source/ti/devices/cc
    1149                            .dwattr $C$DW$55, DW_AT_decl_line(0xa7)
    1150                            .dwattr $C$DW$55, DW_AT_decl_column(0x05)
TI ARM Assembler PC v18.1.3 Wed Nov 28 13:22:08 2018

Tools Copyright (c) 1996-2017 Texas Instruments Incorporated
C:\Users\Adrian\AppData\Local\Temp\{FE5CC9C4-3D95-42C7-8599-A02F5AAB02A5} PAGE   22

    1151                    
    1152                    $C$DW$56        .dwtag  DW_TAG_enumerator
    1153                            .dwattr $C$DW$56, DW_AT_name("FAPI_ERASE_BANK")
    1154                            .dwattr $C$DW$56, DW_AT_const_value(0x08)
    1155                            .dwattr $C$DW$56, DW_AT_decl_file("C:/ti/simplelink_cc13x0_sdk_2_30_00_20/source/ti/devices/cc
    1156                            .dwattr $C$DW$56, DW_AT_decl_line(0xa8)
    1157                            .dwattr $C$DW$56, DW_AT_decl_column(0x05)
    1158                    
    1159                    $C$DW$57        .dwtag  DW_TAG_enumerator
    1160                            .dwattr $C$DW$57, DW_AT_name("FAPI_VALIDATE_SECTOR")
    1161                            .dwattr $C$DW$57, DW_AT_const_value(0x0e)
    1162                            .dwattr $C$DW$57, DW_AT_decl_file("C:/ti/simplelink_cc13x0_sdk_2_30_00_20/source/ti/devices/cc
    1163                            .dwattr $C$DW$57, DW_AT_decl_line(0xa9)
    1164                            .dwattr $C$DW$57, DW_AT_decl_column(0x05)
    1165                    
    1166                    $C$DW$58        .dwtag  DW_TAG_enumerator
    1167                            .dwattr $C$DW$58, DW_AT_name("FAPI_CLEAR_STATUS")
    1168                            .dwattr $C$DW$58, DW_AT_const_value(0x10)
    1169                            .dwattr $C$DW$58, DW_AT_decl_file("C:/ti/simplelink_cc13x0_sdk_2_30_00_20/source/ti/devices/cc
    1170                            .dwattr $C$DW$58, DW_AT_decl_line(0xaa)
    1171                            .dwattr $C$DW$58, DW_AT_decl_column(0x05)
    1172                    
    1173                    $C$DW$59        .dwtag  DW_TAG_enumerator
    1174                            .dwattr $C$DW$59, DW_AT_name("FAPI_PROGRAM_RESUME")
    1175                            .dwattr $C$DW$59, DW_AT_const_value(0x14)
    1176                            .dwattr $C$DW$59, DW_AT_decl_file("C:/ti/simplelink_cc13x0_sdk_2_30_00_20/source/ti/devices/cc
    1177                            .dwattr $C$DW$59, DW_AT_decl_line(0xab)
    1178                            .dwattr $C$DW$59, DW_AT_decl_column(0x05)
    1179                    
    1180                    $C$DW$60        .dwtag  DW_TAG_enumerator
    1181                            .dwattr $C$DW$60, DW_AT_name("FAPI_ERASE_RESUME")
    1182                            .dwattr $C$DW$60, DW_AT_const_value(0x16)
    1183                            .dwattr $C$DW$60, DW_AT_decl_file("C:/ti/simplelink_cc13x0_sdk_2_30_00_20/source/ti/devices/cc
    1184                            .dwattr $C$DW$60, DW_AT_decl_line(0xac)
    1185                            .dwattr $C$DW$60, DW_AT_decl_column(0x05)
    1186                    
    1187                    $C$DW$61        .dwtag  DW_TAG_enumerator
    1188                            .dwattr $C$DW$61, DW_AT_name("FAPI_CLEAR_MORE")
    1189                            .dwattr $C$DW$61, DW_AT_const_value(0x18)
    1190                            .dwattr $C$DW$61, DW_AT_decl_file("C:/ti/simplelink_cc13x0_sdk_2_30_00_20/source/ti/devices/cc
    1191                            .dwattr $C$DW$61, DW_AT_decl_line(0xad)
    1192                            .dwattr $C$DW$61, DW_AT_decl_column(0x05)
    1193                    
    1194                    $C$DW$62        .dwtag  DW_TAG_enumerator
    1195                            .dwattr $C$DW$62, DW_AT_name("FAPI_PROGRAM_SECTOR")
    1196                            .dwattr $C$DW$62, DW_AT_const_value(0x20)
    1197                            .dwattr $C$DW$62, DW_AT_decl_file("C:/ti/simplelink_cc13x0_sdk_2_30_00_20/source/ti/devices/cc
    1198                            .dwattr $C$DW$62, DW_AT_decl_line(0xae)
    1199                            .dwattr $C$DW$62, DW_AT_decl_column(0x05)
    1200                    
    1201                    $C$DW$63        .dwtag  DW_TAG_enumerator
    1202                            .dwattr $C$DW$63, DW_AT_name("FAPI_ERASE_OTP")
    1203                            .dwattr $C$DW$63, DW_AT_const_value(0x30)
    1204                            .dwattr $C$DW$63, DW_AT_decl_file("C:/ti/simplelink_cc13x0_sdk_2_30_00_20/source/ti/devices/cc
    1205                            .dwattr $C$DW$63, DW_AT_decl_line(0xaf)
TI ARM Assembler PC v18.1.3 Wed Nov 28 13:22:08 2018

Tools Copyright (c) 1996-2017 Texas Instruments Incorporated
C:\Users\Adrian\AppData\Local\Temp\{FE5CC9C4-3D95-42C7-8599-A02F5AAB02A5} PAGE   23

    1206                            .dwattr $C$DW$63, DW_AT_decl_column(0x05)
    1207                    
    1208                            .dwattr $C$DW$T$185, DW_AT_decl_file("C:/ti/simplelink_cc13x0_sdk_2_30_00_20/source/ti/devices
    1209                            .dwattr $C$DW$T$185, DW_AT_decl_line(0xa5)
    1210                            .dwattr $C$DW$T$185, DW_AT_decl_column(0x01)
    1211                            .dwendtag $C$DW$T$185
    1212                    
    1213                    $C$DW$T$186     .dwtag  DW_TAG_typedef
    1214                            .dwattr $C$DW$T$186, DW_AT_name("tFlashStateCommandsType")
    1215                            .dwattr $C$DW$T$186, DW_AT_type(*$C$DW$T$185)
    1216                            .dwattr $C$DW$T$186, DW_AT_language(DW_LANG_C)
    1217                            .dwattr $C$DW$T$186, DW_AT_decl_file("C:/ti/simplelink_cc13x0_sdk_2_30_00_20/source/ti/devices
    1218                            .dwattr $C$DW$T$186, DW_AT_decl_line(0xb0)
    1219                            .dwattr $C$DW$T$186, DW_AT_decl_column(0x03)
    1220                    
    1221                    
    1222                    $C$DW$T$187     .dwtag  DW_TAG_enumeration_type
    1223                            .dwattr $C$DW$T$187, DW_AT_byte_size(0x01)
    1224                    $C$DW$64        .dwtag  DW_TAG_enumerator
    1225                            .dwattr $C$DW$64, DW_AT_name("ICALL_RTI_APP_CMD_EVENT")
    1226                            .dwattr $C$DW$64, DW_AT_const_value(0xe0)
    1227                            .dwattr $C$DW$64, DW_AT_decl_file("C:/ti/simplelink_cc13x0_sdk_2_30_00_20/source/ti/ti154stack
    1228                            .dwattr $C$DW$64, DW_AT_decl_line(0x3de)
    1229                            .dwattr $C$DW$64, DW_AT_decl_column(0x04)
    1230                    
    1231                    $C$DW$65        .dwtag  DW_TAG_enumerator
    1232                            .dwattr $C$DW$65, DW_AT_name("ICALL_RTI_STACK_CMD_EVENT")
    1233                            .dwattr $C$DW$65, DW_AT_const_value(0xe1)
    1234                            .dwattr $C$DW$65, DW_AT_decl_file("C:/ti/simplelink_cc13x0_sdk_2_30_00_20/source/ti/ti154stack
    1235                            .dwattr $C$DW$65, DW_AT_decl_line(0x3e0)
    1236                            .dwattr $C$DW$65, DW_AT_decl_column(0x04)
    1237                    
    1238                    $C$DW$66        .dwtag  DW_TAG_enumerator
    1239                            .dwattr $C$DW$66, DW_AT_name("ICALL_RTI_APP_ASYNC_CMD_EVENT")
    1240                            .dwattr $C$DW$66, DW_AT_const_value(0xe2)
    1241                            .dwattr $C$DW$66, DW_AT_decl_file("C:/ti/simplelink_cc13x0_sdk_2_30_00_20/source/ti/ti154stack
    1242                            .dwattr $C$DW$66, DW_AT_decl_line(0x3e2)
    1243                            .dwattr $C$DW$66, DW_AT_decl_column(0x04)
    1244                    
    1245                    $C$DW$67        .dwtag  DW_TAG_enumerator
    1246                            .dwattr $C$DW$67, DW_AT_name("ICALL_RTI_APP_SYNC_CMD_EVENT")
    1247                            .dwattr $C$DW$67, DW_AT_const_value(0xe3)
    1248                            .dwattr $C$DW$67, DW_AT_decl_file("C:/ti/simplelink_cc13x0_sdk_2_30_00_20/source/ti/ti154stack
    1249                            .dwattr $C$DW$67, DW_AT_decl_line(0x3e4)
    1250                            .dwattr $C$DW$67, DW_AT_decl_column(0x04)
    1251                    
    1252                    $C$DW$68        .dwtag  DW_TAG_enumerator
    1253                            .dwattr $C$DW$68, DW_AT_name("ICALL_RCN_APP_ASYNC_CMD_EVENT")
    1254                            .dwattr $C$DW$68, DW_AT_const_value(0xe4)
    1255                            .dwattr $C$DW$68, DW_AT_decl_file("C:/ti/simplelink_cc13x0_sdk_2_30_00_20/source/ti/ti154stack
    1256                            .dwattr $C$DW$68, DW_AT_decl_line(0x3e6)
    1257                            .dwattr $C$DW$68, DW_AT_decl_column(0x04)
    1258                    
    1259                    $C$DW$69        .dwtag  DW_TAG_enumerator
    1260                            .dwattr $C$DW$69, DW_AT_name("ICALL_RCN_APP_SYNC_CMD_EVENT")
TI ARM Assembler PC v18.1.3 Wed Nov 28 13:22:08 2018

Tools Copyright (c) 1996-2017 Texas Instruments Incorporated
C:\Users\Adrian\AppData\Local\Temp\{FE5CC9C4-3D95-42C7-8599-A02F5AAB02A5} PAGE   24

    1261                            .dwattr $C$DW$69, DW_AT_const_value(0xe5)
    1262                            .dwattr $C$DW$69, DW_AT_decl_file("C:/ti/simplelink_cc13x0_sdk_2_30_00_20/source/ti/ti154stack
    1263                            .dwattr $C$DW$69, DW_AT_decl_line(0x3e8)
    1264                            .dwattr $C$DW$69, DW_AT_decl_column(0x04)
    1265                    
    1266                            .dwattr $C$DW$T$187, DW_AT_decl_file("C:/ti/simplelink_cc13x0_sdk_2_30_00_20/source/ti/ti154st
    1267                            .dwattr $C$DW$T$187, DW_AT_decl_line(0x3dc)
    1268                            .dwattr $C$DW$T$187, DW_AT_decl_column(0x01)
    1269                            .dwendtag $C$DW$T$187
    1270                    
    1271                    $C$DW$T$188     .dwtag  DW_TAG_typedef
    1272                            .dwattr $C$DW$T$188, DW_AT_name("ICall_RemotiCmdEvent_t")
    1273                            .dwattr $C$DW$T$188, DW_AT_type(*$C$DW$T$187)
    1274                            .dwattr $C$DW$T$188, DW_AT_language(DW_LANG_C)
    1275                            .dwattr $C$DW$T$188, DW_AT_decl_file("C:/ti/simplelink_cc13x0_sdk_2_30_00_20/source/ti/ti154st
    1276                            .dwattr $C$DW$T$188, DW_AT_decl_line(0x3e9)
    1277                            .dwattr $C$DW$T$188, DW_AT_decl_column(0x02)
    1278                    
    1279                    
    1280                    $C$DW$T$23      .dwtag  DW_TAG_structure_type
    1281                            .dwattr $C$DW$T$23, DW_AT_byte_size(0x08)
    1282                    $C$DW$70        .dwtag  DW_TAG_member
    1283                            .dwattr $C$DW$70, DW_AT_type(*$C$DW$T$21)
    1284                            .dwattr $C$DW$70, DW_AT_name("seconds")
    1285                            .dwattr $C$DW$70, DW_AT_TI_symbol_name("seconds")
    1286                            .dwattr $C$DW$70, DW_AT_data_member_location[DW_OP_plus_uconst 0x0]
    1287                            .dwattr $C$DW$70, DW_AT_accessibility(DW_ACCESS_public)
    1288                            .dwattr $C$DW$70, DW_AT_decl_file("..\Application\MAC\OSAL\osal_clock.h")
    1289                            .dwattr $C$DW$70, DW_AT_decl_line(0x50)
    1290                            .dwattr $C$DW$70, DW_AT_decl_column(0x09)
    1291                    
    1292                    $C$DW$71        .dwtag  DW_TAG_member
    1293                            .dwattr $C$DW$71, DW_AT_type(*$C$DW$T$21)
    1294                            .dwattr $C$DW$71, DW_AT_name("minutes")
    1295                            .dwattr $C$DW$71, DW_AT_TI_symbol_name("minutes")
    1296                            .dwattr $C$DW$71, DW_AT_data_member_location[DW_OP_plus_uconst 0x1]
    1297                            .dwattr $C$DW$71, DW_AT_accessibility(DW_ACCESS_public)
    1298                            .dwattr $C$DW$71, DW_AT_decl_file("..\Application\MAC\OSAL\osal_clock.h")
    1299                            .dwattr $C$DW$71, DW_AT_decl_line(0x51)
    1300                            .dwattr $C$DW$71, DW_AT_decl_column(0x09)
    1301                    
    1302                    $C$DW$72        .dwtag  DW_TAG_member
    1303                            .dwattr $C$DW$72, DW_AT_type(*$C$DW$T$21)
    1304                            .dwattr $C$DW$72, DW_AT_name("hour")
    1305                            .dwattr $C$DW$72, DW_AT_TI_symbol_name("hour")
    1306                            .dwattr $C$DW$72, DW_AT_data_member_location[DW_OP_plus_uconst 0x2]
    1307                            .dwattr $C$DW$72, DW_AT_accessibility(DW_ACCESS_public)
    1308                            .dwattr $C$DW$72, DW_AT_decl_file("..\Application\MAC\OSAL\osal_clock.h")
    1309                            .dwattr $C$DW$72, DW_AT_decl_line(0x52)
    1310                            .dwattr $C$DW$72, DW_AT_decl_column(0x09)
    1311                    
    1312                    $C$DW$73        .dwtag  DW_TAG_member
    1313                            .dwattr $C$DW$73, DW_AT_type(*$C$DW$T$21)
    1314                            .dwattr $C$DW$73, DW_AT_name("day")
    1315                            .dwattr $C$DW$73, DW_AT_TI_symbol_name("day")
TI ARM Assembler PC v18.1.3 Wed Nov 28 13:22:08 2018

Tools Copyright (c) 1996-2017 Texas Instruments Incorporated
C:\Users\Adrian\AppData\Local\Temp\{FE5CC9C4-3D95-42C7-8599-A02F5AAB02A5} PAGE   25

    1316                            .dwattr $C$DW$73, DW_AT_data_member_location[DW_OP_plus_uconst 0x3]
    1317                            .dwattr $C$DW$73, DW_AT_accessibility(DW_ACCESS_public)
    1318                            .dwattr $C$DW$73, DW_AT_decl_file("..\Application\MAC\OSAL\osal_clock.h")
    1319                            .dwattr $C$DW$73, DW_AT_decl_line(0x53)
    1320                            .dwattr $C$DW$73, DW_AT_decl_column(0x09)
    1321                    
    1322                    $C$DW$74        .dwtag  DW_TAG_member
    1323                            .dwattr $C$DW$74, DW_AT_type(*$C$DW$T$21)
    1324                            .dwattr $C$DW$74, DW_AT_name("month")
    1325                            .dwattr $C$DW$74, DW_AT_TI_symbol_name("month")
    1326                            .dwattr $C$DW$74, DW_AT_data_member_location[DW_OP_plus_uconst 0x4]
    1327                            .dwattr $C$DW$74, DW_AT_accessibility(DW_ACCESS_public)
    1328                            .dwattr $C$DW$74, DW_AT_decl_file("..\Application\MAC\OSAL\osal_clock.h")
    1329                            .dwattr $C$DW$74, DW_AT_decl_line(0x54)
    1330                            .dwattr $C$DW$74, DW_AT_decl_column(0x09)
    1331                    
    1332                    $C$DW$75        .dwtag  DW_TAG_member
    1333                            .dwattr $C$DW$75, DW_AT_type(*$C$DW$T$22)
    1334                            .dwattr $C$DW$75, DW_AT_name("year")
    1335                            .dwattr $C$DW$75, DW_AT_TI_symbol_name("year")
    1336                            .dwattr $C$DW$75, DW_AT_data_member_location[DW_OP_plus_uconst 0x6]
    1337                            .dwattr $C$DW$75, DW_AT_accessibility(DW_ACCESS_public)
    1338                            .dwattr $C$DW$75, DW_AT_decl_file("..\Application\MAC\OSAL\osal_clock.h")
    1339                            .dwattr $C$DW$75, DW_AT_decl_line(0x55)
    1340                            .dwattr $C$DW$75, DW_AT_decl_column(0x0a)
    1341                    
    1342                            .dwattr $C$DW$T$23, DW_AT_decl_file("..\Application\MAC\OSAL\osal_clock.h")
    1343                            .dwattr $C$DW$T$23, DW_AT_decl_line(0x4f)
    1344                            .dwattr $C$DW$T$23, DW_AT_decl_column(0x01)
    1345                            .dwendtag $C$DW$T$23
    1346                    
    1347                    $C$DW$T$189     .dwtag  DW_TAG_typedef
    1348                            .dwattr $C$DW$T$189, DW_AT_name("UTCTimeStruct")
    1349                            .dwattr $C$DW$T$189, DW_AT_type(*$C$DW$T$23)
    1350                            .dwattr $C$DW$T$189, DW_AT_language(DW_LANG_C)
    1351                            .dwattr $C$DW$T$189, DW_AT_decl_file("..\Application\MAC\OSAL\osal_clock.h")
    1352                            .dwattr $C$DW$T$189, DW_AT_decl_line(0x56)
    1353                            .dwattr $C$DW$T$189, DW_AT_decl_column(0x03)
    1354                    
    1355                    $C$DW$T$190     .dwtag  DW_TAG_pointer_type
    1356                            .dwattr $C$DW$T$190, DW_AT_type(*$C$DW$T$189)
    1357                            .dwattr $C$DW$T$190, DW_AT_address_class(0x20)
    1358                    
    1359                    $C$DW$T$191     .dwtag  DW_TAG_const_type
    1360                            .dwattr $C$DW$T$191, DW_AT_type(*$C$DW$T$190)
    1361                    
    1362                    
    1363                    $C$DW$T$24      .dwtag  DW_TAG_structure_type
    1364                            .dwattr $C$DW$T$24, DW_AT_byte_size(0x10)
    1365                    $C$DW$76        .dwtag  DW_TAG_member
    1366                            .dwattr $C$DW$76, DW_AT_type(*$C$DW$T$14)
    1367                            .dwattr $C$DW$76, DW_AT_name("__max_align1")
    1368                            .dwattr $C$DW$76, DW_AT_TI_symbol_name("__max_align1")
    1369                            .dwattr $C$DW$76, DW_AT_data_member_location[DW_OP_plus_uconst 0x0]
    1370                            .dwattr $C$DW$76, DW_AT_accessibility(DW_ACCESS_public)
TI ARM Assembler PC v18.1.3 Wed Nov 28 13:22:08 2018

Tools Copyright (c) 1996-2017 Texas Instruments Incorporated
C:\Users\Adrian\AppData\Local\Temp\{FE5CC9C4-3D95-42C7-8599-A02F5AAB02A5} PAGE   26

    1371                            .dwattr $C$DW$76, DW_AT_decl_file("C:/ti/ccsv8/tools/compiler/ti-cgt-arm_18.1.3.LTS/include/sy
    1372                            .dwattr $C$DW$76, DW_AT_decl_line(0x70)
    1373                            .dwattr $C$DW$76, DW_AT_decl_column(0x0c)
    1374                    
    1375                    $C$DW$77        .dwtag  DW_TAG_member
    1376                            .dwattr $C$DW$77, DW_AT_type(*$C$DW$T$18)
    1377                            .dwattr $C$DW$77, DW_AT_name("__max_align2")
    1378                            .dwattr $C$DW$77, DW_AT_TI_symbol_name("__max_align2")
    1379                            .dwattr $C$DW$77, DW_AT_data_member_location[DW_OP_plus_uconst 0x8]
    1380                            .dwattr $C$DW$77, DW_AT_accessibility(DW_ACCESS_public)
    1381                            .dwattr $C$DW$77, DW_AT_decl_file("C:/ti/ccsv8/tools/compiler/ti-cgt-arm_18.1.3.LTS/include/sy
    1382                            .dwattr $C$DW$77, DW_AT_decl_line(0x71)
    1383                            .dwattr $C$DW$77, DW_AT_decl_column(0x0e)
    1384                    
    1385                            .dwattr $C$DW$T$24, DW_AT_decl_file("C:/ti/ccsv8/tools/compiler/ti-cgt-arm_18.1.3.LTS/include/
    1386                            .dwattr $C$DW$T$24, DW_AT_decl_line(0x6f)
    1387                            .dwattr $C$DW$T$24, DW_AT_decl_column(0x10)
    1388                            .dwendtag $C$DW$T$24
    1389                    
    1390                    $C$DW$T$194     .dwtag  DW_TAG_typedef
    1391                            .dwattr $C$DW$T$194, DW_AT_name("__max_align_t")
    1392                            .dwattr $C$DW$T$194, DW_AT_type(*$C$DW$T$24)
    1393                            .dwattr $C$DW$T$194, DW_AT_language(DW_LANG_C)
    1394                            .dwattr $C$DW$T$194, DW_AT_decl_file("C:/ti/ccsv8/tools/compiler/ti-cgt-arm_18.1.3.LTS/include
    1395                            .dwattr $C$DW$T$194, DW_AT_decl_line(0x72)
    1396                            .dwattr $C$DW$T$194, DW_AT_decl_column(0x03)
    1397                    
    1398                    
    1399                    $C$DW$T$69      .dwtag  DW_TAG_structure_type
    1400                            .dwattr $C$DW$T$69, DW_AT_byte_size(0x4c)
    1401                    $C$DW$78        .dwtag  DW_TAG_member
    1402                            .dwattr $C$DW$78, DW_AT_type(*$C$DW$T$32)
    1403                            .dwattr $C$DW$78, DW_AT_name("Crc32")
    1404                            .dwattr $C$DW$78, DW_AT_TI_symbol_name("Crc32")
    1405                            .dwattr $C$DW$78, DW_AT_data_member_location[DW_OP_plus_uconst 0x0]
    1406                            .dwattr $C$DW$78, DW_AT_accessibility(DW_ACCESS_public)
    1407                            .dwattr $C$DW$78, DW_AT_decl_file("C:\ti\simplelink_cc13x0_sdk_2_30_00_20\source\ti\devices\cc
    1408                            .dwattr $C$DW$78, DW_AT_decl_line(0x76)
    1409                            .dwattr $C$DW$78, DW_AT_decl_column(0x25)
    1410                    
    1411                    $C$DW$79        .dwtag  DW_TAG_member
    1412                            .dwattr $C$DW$79, DW_AT_type(*$C$DW$T$35)
    1413                            .dwattr $C$DW$79, DW_AT_name("FlashGetSize")
    1414                            .dwattr $C$DW$79, DW_AT_TI_symbol_name("FlashGetSize")
    1415                            .dwattr $C$DW$79, DW_AT_data_member_location[DW_OP_plus_uconst 0x4]
    1416                            .dwattr $C$DW$79, DW_AT_accessibility(DW_ACCESS_public)
    1417                            .dwattr $C$DW$79, DW_AT_decl_file("C:\ti\simplelink_cc13x0_sdk_2_30_00_20\source\ti\devices\cc
    1418                            .dwattr $C$DW$79, DW_AT_decl_line(0x77)
    1419                            .dwattr $C$DW$79, DW_AT_decl_column(0x25)
    1420                    
    1421                    $C$DW$80        .dwtag  DW_TAG_member
    1422                            .dwattr $C$DW$80, DW_AT_type(*$C$DW$T$36)
    1423                            .dwattr $C$DW$80, DW_AT_name("GetChipId")
    1424                            .dwattr $C$DW$80, DW_AT_TI_symbol_name("GetChipId")
    1425                            .dwattr $C$DW$80, DW_AT_data_member_location[DW_OP_plus_uconst 0x8]
TI ARM Assembler PC v18.1.3 Wed Nov 28 13:22:08 2018

Tools Copyright (c) 1996-2017 Texas Instruments Incorporated
C:\Users\Adrian\AppData\Local\Temp\{FE5CC9C4-3D95-42C7-8599-A02F5AAB02A5} PAGE   27

    1426                            .dwattr $C$DW$80, DW_AT_accessibility(DW_ACCESS_public)
    1427                            .dwattr $C$DW$80, DW_AT_decl_file("C:\ti\simplelink_cc13x0_sdk_2_30_00_20\source\ti\devices\cc
    1428                            .dwattr $C$DW$80, DW_AT_decl_line(0x78)
    1429                            .dwattr $C$DW$80, DW_AT_decl_column(0x25)
    1430                    
    1431                    $C$DW$81        .dwtag  DW_TAG_member
    1432                            .dwattr $C$DW$81, DW_AT_type(*$C$DW$T$39)
    1433                            .dwattr $C$DW$81, DW_AT_name("ReservedLocation1")
    1434                            .dwattr $C$DW$81, DW_AT_TI_symbol_name("ReservedLocation1")
    1435                            .dwattr $C$DW$81, DW_AT_data_member_location[DW_OP_plus_uconst 0xc]
    1436                            .dwattr $C$DW$81, DW_AT_accessibility(DW_ACCESS_public)
    1437                            .dwattr $C$DW$81, DW_AT_decl_file("C:\ti\simplelink_cc13x0_sdk_2_30_00_20\source\ti\devices\cc
    1438                            .dwattr $C$DW$81, DW_AT_decl_line(0x79)
    1439                            .dwattr $C$DW$81, DW_AT_decl_column(0x25)
    1440                    
    1441                    $C$DW$82        .dwtag  DW_TAG_member
    1442                            .dwattr $C$DW$82, DW_AT_type(*$C$DW$T$40)
    1443                            .dwattr $C$DW$82, DW_AT_name("ReservedLocation2")
    1444                            .dwattr $C$DW$82, DW_AT_TI_symbol_name("ReservedLocation2")
    1445                            .dwattr $C$DW$82, DW_AT_data_member_location[DW_OP_plus_uconst 0x10]
    1446                            .dwattr $C$DW$82, DW_AT_accessibility(DW_ACCESS_public)
    1447                            .dwattr $C$DW$82, DW_AT_decl_file("C:\ti\simplelink_cc13x0_sdk_2_30_00_20\source\ti\devices\cc
    1448                            .dwattr $C$DW$82, DW_AT_decl_line(0x7a)
    1449                            .dwattr $C$DW$82, DW_AT_decl_column(0x25)
    1450                    
    1451                    $C$DW$83        .dwtag  DW_TAG_member
    1452                            .dwattr $C$DW$83, DW_AT_type(*$C$DW$T$41)
    1453                            .dwattr $C$DW$83, DW_AT_name("ReservedLocation3")
    1454                            .dwattr $C$DW$83, DW_AT_TI_symbol_name("ReservedLocation3")
    1455                            .dwattr $C$DW$83, DW_AT_data_member_location[DW_OP_plus_uconst 0x14]
    1456                            .dwattr $C$DW$83, DW_AT_accessibility(DW_ACCESS_public)
    1457                            .dwattr $C$DW$83, DW_AT_decl_file("C:\ti\simplelink_cc13x0_sdk_2_30_00_20\source\ti\devices\cc
    1458                            .dwattr $C$DW$83, DW_AT_decl_line(0x7b)
    1459                            .dwattr $C$DW$83, DW_AT_decl_column(0x25)
    1460                    
    1461                    $C$DW$84        .dwtag  DW_TAG_member
    1462                            .dwattr $C$DW$84, DW_AT_type(*$C$DW$T$44)
    1463                            .dwattr $C$DW$84, DW_AT_name("ResetDevice")
    1464                            .dwattr $C$DW$84, DW_AT_TI_symbol_name("ResetDevice")
    1465                            .dwattr $C$DW$84, DW_AT_data_member_location[DW_OP_plus_uconst 0x18]
    1466                            .dwattr $C$DW$84, DW_AT_accessibility(DW_ACCESS_public)
    1467                            .dwattr $C$DW$84, DW_AT_decl_file("C:\ti\simplelink_cc13x0_sdk_2_30_00_20\source\ti\devices\cc
    1468                            .dwattr $C$DW$84, DW_AT_decl_line(0x7c)
    1469                            .dwattr $C$DW$84, DW_AT_decl_column(0x25)
    1470                    
    1471                    $C$DW$85        .dwtag  DW_TAG_member
    1472                            .dwattr $C$DW$85, DW_AT_type(*$C$DW$T$50)
    1473                            .dwattr $C$DW$85, DW_AT_name("Fletcher32")
    1474                            .dwattr $C$DW$85, DW_AT_TI_symbol_name("Fletcher32")
    1475                            .dwattr $C$DW$85, DW_AT_data_member_location[DW_OP_plus_uconst 0x1c]
    1476                            .dwattr $C$DW$85, DW_AT_accessibility(DW_ACCESS_public)
    1477                            .dwattr $C$DW$85, DW_AT_decl_file("C:\ti\simplelink_cc13x0_sdk_2_30_00_20\source\ti\devices\cc
    1478                            .dwattr $C$DW$85, DW_AT_decl_line(0x7d)
    1479                            .dwattr $C$DW$85, DW_AT_decl_column(0x25)
    1480                    
TI ARM Assembler PC v18.1.3 Wed Nov 28 13:22:08 2018

Tools Copyright (c) 1996-2017 Texas Instruments Incorporated
C:\Users\Adrian\AppData\Local\Temp\{FE5CC9C4-3D95-42C7-8599-A02F5AAB02A5} PAGE   28

    1481                    $C$DW$86        .dwtag  DW_TAG_member
    1482                            .dwattr $C$DW$86, DW_AT_type(*$C$DW$T$54)
    1483                            .dwattr $C$DW$86, DW_AT_name("MinValue")
    1484                            .dwattr $C$DW$86, DW_AT_TI_symbol_name("MinValue")
    1485                            .dwattr $C$DW$86, DW_AT_data_member_location[DW_OP_plus_uconst 0x20]
    1486                            .dwattr $C$DW$86, DW_AT_accessibility(DW_ACCESS_public)
    1487                            .dwattr $C$DW$86, DW_AT_decl_file("C:\ti\simplelink_cc13x0_sdk_2_30_00_20\source\ti\devices\cc
    1488                            .dwattr $C$DW$86, DW_AT_decl_line(0x7e)
    1489                            .dwattr $C$DW$86, DW_AT_decl_column(0x25)
    1490                    
    1491                    $C$DW$87        .dwtag  DW_TAG_member
    1492                            .dwattr $C$DW$87, DW_AT_type(*$C$DW$T$55)
    1493                            .dwattr $C$DW$87, DW_AT_name("MaxValue")
    1494                            .dwattr $C$DW$87, DW_AT_TI_symbol_name("MaxValue")
    1495                            .dwattr $C$DW$87, DW_AT_data_member_location[DW_OP_plus_uconst 0x24]
    1496                            .dwattr $C$DW$87, DW_AT_accessibility(DW_ACCESS_public)
    1497                            .dwattr $C$DW$87, DW_AT_decl_file("C:\ti\simplelink_cc13x0_sdk_2_30_00_20\source\ti\devices\cc
    1498                            .dwattr $C$DW$87, DW_AT_decl_line(0x7f)
    1499                            .dwattr $C$DW$87, DW_AT_decl_column(0x25)
    1500                    
    1501                    $C$DW$88        .dwtag  DW_TAG_member
    1502                            .dwattr $C$DW$88, DW_AT_type(*$C$DW$T$56)
    1503                            .dwattr $C$DW$88, DW_AT_name("MeanValue")
    1504                            .dwattr $C$DW$88, DW_AT_TI_symbol_name("MeanValue")
    1505                            .dwattr $C$DW$88, DW_AT_data_member_location[DW_OP_plus_uconst 0x28]
    1506                            .dwattr $C$DW$88, DW_AT_accessibility(DW_ACCESS_public)
    1507                            .dwattr $C$DW$88, DW_AT_decl_file("C:\ti\simplelink_cc13x0_sdk_2_30_00_20\source\ti\devices\cc
    1508                            .dwattr $C$DW$88, DW_AT_decl_line(0x80)
    1509                            .dwattr $C$DW$88, DW_AT_decl_column(0x25)
    1510                    
    1511                    $C$DW$89        .dwtag  DW_TAG_member
    1512                            .dwattr $C$DW$89, DW_AT_type(*$C$DW$T$57)
    1513                            .dwattr $C$DW$89, DW_AT_name("StandDeviationValue")
    1514                            .dwattr $C$DW$89, DW_AT_TI_symbol_name("StandDeviationValue")
    1515                            .dwattr $C$DW$89, DW_AT_data_member_location[DW_OP_plus_uconst 0x2c]
    1516                            .dwattr $C$DW$89, DW_AT_accessibility(DW_ACCESS_public)
    1517                            .dwattr $C$DW$89, DW_AT_decl_file("C:\ti\simplelink_cc13x0_sdk_2_30_00_20\source\ti\devices\cc
    1518                            .dwattr $C$DW$89, DW_AT_decl_line(0x81)
    1519                            .dwattr $C$DW$89, DW_AT_decl_column(0x25)
    1520                    
    1521                    $C$DW$90        .dwtag  DW_TAG_member
    1522                            .dwattr $C$DW$90, DW_AT_type(*$C$DW$T$60)
    1523                            .dwattr $C$DW$90, DW_AT_name("ReservedLocation4")
    1524                            .dwattr $C$DW$90, DW_AT_TI_symbol_name("ReservedLocation4")
    1525                            .dwattr $C$DW$90, DW_AT_data_member_location[DW_OP_plus_uconst 0x30]
    1526                            .dwattr $C$DW$90, DW_AT_accessibility(DW_ACCESS_public)
    1527                            .dwattr $C$DW$90, DW_AT_decl_file("C:\ti\simplelink_cc13x0_sdk_2_30_00_20\source\ti\devices\cc
    1528                            .dwattr $C$DW$90, DW_AT_decl_line(0x82)
    1529                            .dwattr $C$DW$90, DW_AT_decl_column(0x25)
    1530                    
    1531                    $C$DW$91        .dwtag  DW_TAG_member
    1532                            .dwattr $C$DW$91, DW_AT_type(*$C$DW$T$61)
    1533                            .dwattr $C$DW$91, DW_AT_name("ReservedLocation5")
    1534                            .dwattr $C$DW$91, DW_AT_TI_symbol_name("ReservedLocation5")
    1535                            .dwattr $C$DW$91, DW_AT_data_member_location[DW_OP_plus_uconst 0x34]
TI ARM Assembler PC v18.1.3 Wed Nov 28 13:22:08 2018

Tools Copyright (c) 1996-2017 Texas Instruments Incorporated
C:\Users\Adrian\AppData\Local\Temp\{FE5CC9C4-3D95-42C7-8599-A02F5AAB02A5} PAGE   29

    1536                            .dwattr $C$DW$91, DW_AT_accessibility(DW_ACCESS_public)
    1537                            .dwattr $C$DW$91, DW_AT_decl_file("C:\ti\simplelink_cc13x0_sdk_2_30_00_20\source\ti\devices\cc
    1538                            .dwattr $C$DW$91, DW_AT_decl_line(0x83)
    1539                            .dwattr $C$DW$91, DW_AT_decl_column(0x25)
    1540                    
    1541                    $C$DW$92        .dwtag  DW_TAG_member
    1542                            .dwattr $C$DW$92, DW_AT_type(*$C$DW$T$62)
    1543                            .dwattr $C$DW$92, DW_AT_name("HFSourceSafeSwitch")
    1544                            .dwattr $C$DW$92, DW_AT_TI_symbol_name("HFSourceSafeSwitch")
    1545                            .dwattr $C$DW$92, DW_AT_data_member_location[DW_OP_plus_uconst 0x38]
    1546                            .dwattr $C$DW$92, DW_AT_accessibility(DW_ACCESS_public)
    1547                            .dwattr $C$DW$92, DW_AT_decl_file("C:\ti\simplelink_cc13x0_sdk_2_30_00_20\source\ti\devices\cc
    1548                            .dwattr $C$DW$92, DW_AT_decl_line(0x84)
    1549                            .dwattr $C$DW$92, DW_AT_decl_column(0x25)
    1550                    
    1551                    $C$DW$93        .dwtag  DW_TAG_member
    1552                            .dwattr $C$DW$93, DW_AT_type(*$C$DW$T$65)
    1553                            .dwattr $C$DW$93, DW_AT_name("SelectCompAInput")
    1554                            .dwattr $C$DW$93, DW_AT_TI_symbol_name("SelectCompAInput")
    1555                            .dwattr $C$DW$93, DW_AT_data_member_location[DW_OP_plus_uconst 0x3c]
    1556                            .dwattr $C$DW$93, DW_AT_accessibility(DW_ACCESS_public)
    1557                            .dwattr $C$DW$93, DW_AT_decl_file("C:\ti\simplelink_cc13x0_sdk_2_30_00_20\source\ti\devices\cc
    1558                            .dwattr $C$DW$93, DW_AT_decl_line(0x85)
    1559                            .dwattr $C$DW$93, DW_AT_decl_column(0x25)
    1560                    
    1561                    $C$DW$94        .dwtag  DW_TAG_member
    1562                            .dwattr $C$DW$94, DW_AT_type(*$C$DW$T$66)
    1563                            .dwattr $C$DW$94, DW_AT_name("SelectCompARef")
    1564                            .dwattr $C$DW$94, DW_AT_TI_symbol_name("SelectCompARef")
    1565                            .dwattr $C$DW$94, DW_AT_data_member_location[DW_OP_plus_uconst 0x40]
    1566                            .dwattr $C$DW$94, DW_AT_accessibility(DW_ACCESS_public)
    1567                            .dwattr $C$DW$94, DW_AT_decl_file("C:\ti\simplelink_cc13x0_sdk_2_30_00_20\source\ti\devices\cc
    1568                            .dwattr $C$DW$94, DW_AT_decl_line(0x86)
    1569                            .dwattr $C$DW$94, DW_AT_decl_column(0x25)
    1570                    
    1571                    $C$DW$95        .dwtag  DW_TAG_member
    1572                            .dwattr $C$DW$95, DW_AT_type(*$C$DW$T$67)
    1573                            .dwattr $C$DW$95, DW_AT_name("SelectADCCompBInput")
    1574                            .dwattr $C$DW$95, DW_AT_TI_symbol_name("SelectADCCompBInput")
    1575                            .dwattr $C$DW$95, DW_AT_data_member_location[DW_OP_plus_uconst 0x44]
    1576                            .dwattr $C$DW$95, DW_AT_accessibility(DW_ACCESS_public)
    1577                            .dwattr $C$DW$95, DW_AT_decl_file("C:\ti\simplelink_cc13x0_sdk_2_30_00_20\source\ti\devices\cc
    1578                            .dwattr $C$DW$95, DW_AT_decl_line(0x87)
    1579                            .dwattr $C$DW$95, DW_AT_decl_column(0x25)
    1580                    
    1581                    $C$DW$96        .dwtag  DW_TAG_member
    1582                            .dwattr $C$DW$96, DW_AT_type(*$C$DW$T$68)
    1583                            .dwattr $C$DW$96, DW_AT_name("SelectCompBRef")
    1584                            .dwattr $C$DW$96, DW_AT_TI_symbol_name("SelectCompBRef")
    1585                            .dwattr $C$DW$96, DW_AT_data_member_location[DW_OP_plus_uconst 0x48]
    1586                            .dwattr $C$DW$96, DW_AT_accessibility(DW_ACCESS_public)
    1587                            .dwattr $C$DW$96, DW_AT_decl_file("C:\ti\simplelink_cc13x0_sdk_2_30_00_20\source\ti\devices\cc
    1588                            .dwattr $C$DW$96, DW_AT_decl_line(0x88)
    1589                            .dwattr $C$DW$96, DW_AT_decl_column(0x25)
    1590                    
TI ARM Assembler PC v18.1.3 Wed Nov 28 13:22:08 2018

Tools Copyright (c) 1996-2017 Texas Instruments Incorporated
C:\Users\Adrian\AppData\Local\Temp\{FE5CC9C4-3D95-42C7-8599-A02F5AAB02A5} PAGE   30

    1591                            .dwattr $C$DW$T$69, DW_AT_decl_file("C:\ti\simplelink_cc13x0_sdk_2_30_00_20\source\ti\devices\
    1592                            .dwattr $C$DW$T$69, DW_AT_decl_line(0x75)
    1593                            .dwattr $C$DW$T$69, DW_AT_decl_column(0x01)
    1594                            .dwendtag $C$DW$T$69
    1595                    
    1596                    $C$DW$T$195     .dwtag  DW_TAG_typedef
    1597                            .dwattr $C$DW$T$195, DW_AT_name("HARD_API_T")
    1598                            .dwattr $C$DW$T$195, DW_AT_type(*$C$DW$T$69)
    1599                            .dwattr $C$DW$T$195, DW_AT_language(DW_LANG_C)
    1600                            .dwattr $C$DW$T$195, DW_AT_decl_file("C:\ti\simplelink_cc13x0_sdk_2_30_00_20\source\ti\devices
    1601                            .dwattr $C$DW$T$195, DW_AT_decl_line(0x89)
    1602                            .dwattr $C$DW$T$195, DW_AT_decl_column(0x03)
    1603                    
    1604                    
    1605                    $C$DW$T$70      .dwtag  DW_TAG_structure_type
    1606                            .dwattr $C$DW$T$70, DW_AT_byte_size(0x08)
    1607                    $C$DW$97        .dwtag  DW_TAG_member
    1608                            .dwattr $C$DW$97, DW_AT_type(*$C$DW$T$10)
    1609                            .dwattr $C$DW$97, DW_AT_name("quot")
    1610                            .dwattr $C$DW$97, DW_AT_TI_symbol_name("quot")
    1611                            .dwattr $C$DW$97, DW_AT_data_member_location[DW_OP_plus_uconst 0x0]
    1612                            .dwattr $C$DW$97, DW_AT_accessibility(DW_ACCESS_public)
    1613                            .dwattr $C$DW$97, DW_AT_decl_file("C:/ti/ccsv8/tools/compiler/ti-cgt-arm_18.1.3.LTS/include/st
    1614                            .dwattr $C$DW$97, DW_AT_decl_line(0x49)
    1615                            .dwattr $C$DW$97, DW_AT_decl_column(0x16)
    1616                    
    1617                    $C$DW$98        .dwtag  DW_TAG_member
    1618                            .dwattr $C$DW$98, DW_AT_type(*$C$DW$T$10)
    1619                            .dwattr $C$DW$98, DW_AT_name("rem")
    1620                            .dwattr $C$DW$98, DW_AT_TI_symbol_name("rem")
    1621                            .dwattr $C$DW$98, DW_AT_data_member_location[DW_OP_plus_uconst 0x4]
    1622                            .dwattr $C$DW$98, DW_AT_accessibility(DW_ACCESS_public)
    1623                            .dwattr $C$DW$98, DW_AT_decl_file("C:/ti/ccsv8/tools/compiler/ti-cgt-arm_18.1.3.LTS/include/st
    1624                            .dwattr $C$DW$98, DW_AT_decl_line(0x49)
    1625                            .dwattr $C$DW$98, DW_AT_decl_column(0x1c)
    1626                    
    1627                            .dwattr $C$DW$T$70, DW_AT_decl_file("C:/ti/ccsv8/tools/compiler/ti-cgt-arm_18.1.3.LTS/include/
    1628                            .dwattr $C$DW$T$70, DW_AT_decl_line(0x49)
    1629                            .dwattr $C$DW$T$70, DW_AT_decl_column(0x10)
    1630                            .dwendtag $C$DW$T$70
    1631                    
    1632                    $C$DW$T$196     .dwtag  DW_TAG_typedef
    1633                            .dwattr $C$DW$T$196, DW_AT_name("div_t")
    1634                            .dwattr $C$DW$T$196, DW_AT_type(*$C$DW$T$70)
    1635                            .dwattr $C$DW$T$196, DW_AT_language(DW_LANG_C)
    1636                            .dwattr $C$DW$T$196, DW_AT_decl_file("C:/ti/ccsv8/tools/compiler/ti-cgt-arm_18.1.3.LTS/include
    1637                            .dwattr $C$DW$T$196, DW_AT_decl_line(0x49)
    1638                            .dwattr $C$DW$T$196, DW_AT_decl_column(0x23)
    1639                    
    1640                    
    1641                    $C$DW$T$71      .dwtag  DW_TAG_structure_type
    1642                            .dwattr $C$DW$T$71, DW_AT_byte_size(0x08)
    1643                    $C$DW$99        .dwtag  DW_TAG_member
    1644                            .dwattr $C$DW$99, DW_AT_type(*$C$DW$T$10)
    1645                            .dwattr $C$DW$99, DW_AT_name("quot")
TI ARM Assembler PC v18.1.3 Wed Nov 28 13:22:08 2018

Tools Copyright (c) 1996-2017 Texas Instruments Incorporated
C:\Users\Adrian\AppData\Local\Temp\{FE5CC9C4-3D95-42C7-8599-A02F5AAB02A5} PAGE   31

    1646                            .dwattr $C$DW$99, DW_AT_TI_symbol_name("quot")
    1647                            .dwattr $C$DW$99, DW_AT_data_member_location[DW_OP_plus_uconst 0x0]
    1648                            .dwattr $C$DW$99, DW_AT_accessibility(DW_ACCESS_public)
    1649                            .dwattr $C$DW$99, DW_AT_decl_file("C:/ti/ccsv8/tools/compiler/ti-cgt-arm_18.1.3.LTS/include/st
    1650                            .dwattr $C$DW$99, DW_AT_decl_line(0x4e)
    1651                            .dwattr $C$DW$99, DW_AT_decl_column(0x16)
    1652                    
    1653                    $C$DW$100       .dwtag  DW_TAG_member
    1654                            .dwattr $C$DW$100, DW_AT_type(*$C$DW$T$10)
    1655                            .dwattr $C$DW$100, DW_AT_name("rem")
    1656                            .dwattr $C$DW$100, DW_AT_TI_symbol_name("rem")
    1657                            .dwattr $C$DW$100, DW_AT_data_member_location[DW_OP_plus_uconst 0x4]
    1658                            .dwattr $C$DW$100, DW_AT_accessibility(DW_ACCESS_public)
    1659                            .dwattr $C$DW$100, DW_AT_decl_file("C:/ti/ccsv8/tools/compiler/ti-cgt-arm_18.1.3.LTS/include/s
    1660                            .dwattr $C$DW$100, DW_AT_decl_line(0x4e)
    1661                            .dwattr $C$DW$100, DW_AT_decl_column(0x1c)
    1662                    
    1663                            .dwattr $C$DW$T$71, DW_AT_decl_file("C:/ti/ccsv8/tools/compiler/ti-cgt-arm_18.1.3.LTS/include/
    1664                            .dwattr $C$DW$T$71, DW_AT_decl_line(0x4e)
    1665                            .dwattr $C$DW$T$71, DW_AT_decl_column(0x10)
    1666                            .dwendtag $C$DW$T$71
    1667                    
    1668                    $C$DW$T$197     .dwtag  DW_TAG_typedef
    1669                            .dwattr $C$DW$T$197, DW_AT_name("ldiv_t")
    1670                            .dwattr $C$DW$T$197, DW_AT_type(*$C$DW$T$71)
    1671                            .dwattr $C$DW$T$197, DW_AT_language(DW_LANG_C)
    1672                            .dwattr $C$DW$T$197, DW_AT_decl_file("C:/ti/ccsv8/tools/compiler/ti-cgt-arm_18.1.3.LTS/include
    1673                            .dwattr $C$DW$T$197, DW_AT_decl_line(0x4e)
    1674                            .dwattr $C$DW$T$197, DW_AT_decl_column(0x23)
    1675                    
    1676                    
    1677                    $C$DW$T$72      .dwtag  DW_TAG_structure_type
    1678                            .dwattr $C$DW$T$72, DW_AT_byte_size(0x10)
    1679                    $C$DW$101       .dwtag  DW_TAG_member
    1680                            .dwattr $C$DW$101, DW_AT_type(*$C$DW$T$14)
    1681                            .dwattr $C$DW$101, DW_AT_name("quot")
    1682                            .dwattr $C$DW$101, DW_AT_TI_symbol_name("quot")
    1683                            .dwattr $C$DW$101, DW_AT_data_member_location[DW_OP_plus_uconst 0x0]
    1684                            .dwattr $C$DW$101, DW_AT_accessibility(DW_ACCESS_public)
    1685                            .dwattr $C$DW$101, DW_AT_decl_file("C:/ti/ccsv8/tools/compiler/ti-cgt-arm_18.1.3.LTS/include/s
    1686                            .dwattr $C$DW$101, DW_AT_decl_line(0x56)
    1687                            .dwattr $C$DW$101, DW_AT_decl_column(0x1c)
    1688                    
    1689                    $C$DW$102       .dwtag  DW_TAG_member
    1690                            .dwattr $C$DW$102, DW_AT_type(*$C$DW$T$14)
    1691                            .dwattr $C$DW$102, DW_AT_name("rem")
    1692                            .dwattr $C$DW$102, DW_AT_TI_symbol_name("rem")
    1693                            .dwattr $C$DW$102, DW_AT_data_member_location[DW_OP_plus_uconst 0x8]
    1694                            .dwattr $C$DW$102, DW_AT_accessibility(DW_ACCESS_public)
    1695                            .dwattr $C$DW$102, DW_AT_decl_file("C:/ti/ccsv8/tools/compiler/ti-cgt-arm_18.1.3.LTS/include/s
    1696                            .dwattr $C$DW$102, DW_AT_decl_line(0x56)
    1697                            .dwattr $C$DW$102, DW_AT_decl_column(0x22)
    1698                    
    1699                            .dwattr $C$DW$T$72, DW_AT_decl_file("C:/ti/ccsv8/tools/compiler/ti-cgt-arm_18.1.3.LTS/include/
    1700                            .dwattr $C$DW$T$72, DW_AT_decl_line(0x56)
TI ARM Assembler PC v18.1.3 Wed Nov 28 13:22:08 2018

Tools Copyright (c) 1996-2017 Texas Instruments Incorporated
C:\Users\Adrian\AppData\Local\Temp\{FE5CC9C4-3D95-42C7-8599-A02F5AAB02A5} PAGE   32

    1701                            .dwattr $C$DW$T$72, DW_AT_decl_column(0x10)
    1702                            .dwendtag $C$DW$T$72
    1703                    
    1704                    $C$DW$T$198     .dwtag  DW_TAG_typedef
    1705                            .dwattr $C$DW$T$198, DW_AT_name("lldiv_t")
    1706                            .dwattr $C$DW$T$198, DW_AT_type(*$C$DW$T$72)
    1707                            .dwattr $C$DW$T$198, DW_AT_language(DW_LANG_C)
    1708                            .dwattr $C$DW$T$198, DW_AT_decl_file("C:/ti/ccsv8/tools/compiler/ti-cgt-arm_18.1.3.LTS/include
    1709                            .dwattr $C$DW$T$198, DW_AT_decl_line(0x56)
    1710                            .dwattr $C$DW$T$198, DW_AT_decl_column(0x29)
    1711                    
    1712                    
    1713                    $C$DW$T$77      .dwtag  DW_TAG_structure_type
    1714                            .dwattr $C$DW$T$77, DW_AT_byte_size(0x08)
    1715                    $C$DW$103       .dwtag  DW_TAG_member
    1716                            .dwattr $C$DW$103, DW_AT_type(*$C$DW$T$75)
    1717                            .dwattr $C$DW$103, DW_AT_name("pointerStack")
    1718                            .dwattr $C$DW$103, DW_AT_TI_symbol_name("pointerStack")
    1719                            .dwattr $C$DW$103, DW_AT_data_member_location[DW_OP_plus_uconst 0x0]
    1720                            .dwattr $C$DW$103, DW_AT_accessibility(DW_ACCESS_public)
    1721                            .dwattr $C$DW$103, DW_AT_decl_file("C:/ti/simplelink_cc13x0_sdk_2_30_00_20/source/ti/ti154stac
    1722                            .dwattr $C$DW$103, DW_AT_decl_line(0x3f5)
    1723                            .dwattr $C$DW$103, DW_AT_decl_column(0x16)
    1724                    
    1725                    $C$DW$104       .dwtag  DW_TAG_member
    1726                            .dwattr $C$DW$104, DW_AT_type(*$C$DW$T$76)
    1727                            .dwattr $C$DW$104, DW_AT_name("directAPI")
    1728                            .dwattr $C$DW$104, DW_AT_TI_symbol_name("directAPI")
    1729                            .dwattr $C$DW$104, DW_AT_data_member_location[DW_OP_plus_uconst 0x4]
    1730                            .dwattr $C$DW$104, DW_AT_accessibility(DW_ACCESS_public)
    1731                            .dwattr $C$DW$104, DW_AT_decl_file("C:/ti/simplelink_cc13x0_sdk_2_30_00_20/source/ti/ti154stac
    1732                            .dwattr $C$DW$104, DW_AT_decl_line(0x3f6)
    1733                            .dwattr $C$DW$104, DW_AT_decl_column(0x15)
    1734                    
    1735                            .dwattr $C$DW$T$77, DW_AT_decl_file("C:/ti/simplelink_cc13x0_sdk_2_30_00_20/source/ti/ti154sta
    1736                            .dwattr $C$DW$T$77, DW_AT_decl_line(0x3f4)
    1737                            .dwattr $C$DW$T$77, DW_AT_decl_column(0x01)
    1738                            .dwendtag $C$DW$T$77
    1739                    
    1740                    $C$DW$T$79      .dwtag  DW_TAG_typedef
    1741                            .dwattr $C$DW$T$79, DW_AT_name("icall_directAPIMsg_t")
    1742                            .dwattr $C$DW$T$79, DW_AT_type(*$C$DW$T$77)
    1743                            .dwattr $C$DW$T$79, DW_AT_language(DW_LANG_C)
    1744                            .dwattr $C$DW$T$79, DW_AT_decl_file("C:/ti/simplelink_cc13x0_sdk_2_30_00_20/source/ti/ti154sta
    1745                            .dwattr $C$DW$T$79, DW_AT_decl_line(0x3f7)
    1746                            .dwattr $C$DW$T$79, DW_AT_decl_column(0x03)
    1747                    
    1748                    
    1749                    $C$DW$T$80      .dwtag  DW_TAG_structure_type
    1750                            .dwattr $C$DW$T$80, DW_AT_byte_size(0x14)
    1751                    $C$DW$105       .dwtag  DW_TAG_member
    1752                            .dwattr $C$DW$105, DW_AT_type(*$C$DW$T$78)
    1753                            .dwattr $C$DW$105, DW_AT_name("hdr")
    1754                            .dwattr $C$DW$105, DW_AT_TI_symbol_name("hdr")
    1755                            .dwattr $C$DW$105, DW_AT_data_member_location[DW_OP_plus_uconst 0x0]
TI ARM Assembler PC v18.1.3 Wed Nov 28 13:22:08 2018

Tools Copyright (c) 1996-2017 Texas Instruments Incorporated
C:\Users\Adrian\AppData\Local\Temp\{FE5CC9C4-3D95-42C7-8599-A02F5AAB02A5} PAGE   33

    1756                            .dwattr $C$DW$105, DW_AT_accessibility(DW_ACCESS_public)
    1757                            .dwattr $C$DW$105, DW_AT_decl_file("C:/ti/simplelink_cc13x0_sdk_2_30_00_20/source/ti/ti154stac
    1758                            .dwattr $C$DW$105, DW_AT_decl_line(0x3fb)
    1759                            .dwattr $C$DW$105, DW_AT_decl_column(0x10)
    1760                    
    1761                    $C$DW$106       .dwtag  DW_TAG_member
    1762                            .dwattr $C$DW$106, DW_AT_type(*$C$DW$T$79)
    1763                            .dwattr $C$DW$106, DW_AT_name("msg")
    1764                            .dwattr $C$DW$106, DW_AT_TI_symbol_name("msg")
    1765                            .dwattr $C$DW$106, DW_AT_data_member_location[DW_OP_plus_uconst 0xc]
    1766                            .dwattr $C$DW$106, DW_AT_accessibility(DW_ACCESS_public)
    1767                            .dwattr $C$DW$106, DW_AT_decl_file("C:/ti/simplelink_cc13x0_sdk_2_30_00_20/source/ti/ti154stac
    1768                            .dwattr $C$DW$106, DW_AT_decl_line(0x3fc)
    1769                            .dwattr $C$DW$106, DW_AT_decl_column(0x1a)
    1770                    
    1771                            .dwattr $C$DW$T$80, DW_AT_decl_file("C:/ti/simplelink_cc13x0_sdk_2_30_00_20/source/ti/ti154sta
    1772                            .dwattr $C$DW$T$80, DW_AT_decl_line(0x3fa)
    1773                            .dwattr $C$DW$T$80, DW_AT_decl_column(0x01)
    1774                            .dwendtag $C$DW$T$80
    1775                    
    1776                    $C$DW$T$199     .dwtag  DW_TAG_typedef
    1777                            .dwattr $C$DW$T$199, DW_AT_name("icallLiteMsg_t")
    1778                            .dwattr $C$DW$T$199, DW_AT_type(*$C$DW$T$80)
    1779                            .dwattr $C$DW$T$199, DW_AT_language(DW_LANG_C)
    1780                            .dwattr $C$DW$T$199, DW_AT_decl_file("C:/ti/simplelink_cc13x0_sdk_2_30_00_20/source/ti/ti154st
    1781                            .dwattr $C$DW$T$199, DW_AT_decl_line(0x3fd)
    1782                            .dwattr $C$DW$T$199, DW_AT_decl_column(0x03)
    1783                    
    1784                    
    1785                    $C$DW$T$83      .dwtag  DW_TAG_structure_type
    1786                            .dwattr $C$DW$T$83, DW_AT_byte_size(0x0c)
    1787                    $C$DW$107       .dwtag  DW_TAG_member
    1788                            .dwattr $C$DW$107, DW_AT_type(*$C$DW$T$81)
    1789                            .dwattr $C$DW$107, DW_AT_name("bufferHead")
    1790                            .dwattr $C$DW$107, DW_AT_TI_symbol_name("bufferHead")
    1791                            .dwattr $C$DW$107, DW_AT_data_member_location[DW_OP_plus_uconst 0x0]
    1792                            .dwattr $C$DW$107, DW_AT_accessibility(DW_ACCESS_public)
    1793                            .dwattr $C$DW$107, DW_AT_decl_file("C:/ti/simplelink_cc13x0_sdk_2_30_00_20/source/ti/ti154stac
    1794                            .dwattr $C$DW$107, DW_AT_decl_line(0x80)
    1795                            .dwattr $C$DW$107, DW_AT_decl_column(0x13)
    1796                    
    1797                    $C$DW$108       .dwtag  DW_TAG_member
    1798                            .dwattr $C$DW$108, DW_AT_type(*$C$DW$T$81)
    1799                            .dwattr $C$DW$108, DW_AT_name("bufferTail")
    1800                            .dwattr $C$DW$108, DW_AT_TI_symbol_name("bufferTail")
    1801                            .dwattr $C$DW$108, DW_AT_data_member_location[DW_OP_plus_uconst 0x2]
    1802                            .dwattr $C$DW$108, DW_AT_accessibility(DW_ACCESS_public)
    1803                            .dwattr $C$DW$108, DW_AT_decl_file("C:/ti/simplelink_cc13x0_sdk_2_30_00_20/source/ti/ti154stac
    1804                            .dwattr $C$DW$108, DW_AT_decl_line(0x81)
    1805                            .dwattr $C$DW$108, DW_AT_decl_column(0x13)
    1806                    
    1807                    $C$DW$109       .dwtag  DW_TAG_member
    1808                            .dwattr $C$DW$109, DW_AT_type(*$C$DW$T$22)
    1809                            .dwattr $C$DW$109, DW_AT_name("maxBufSize")
    1810                            .dwattr $C$DW$109, DW_AT_TI_symbol_name("maxBufSize")
TI ARM Assembler PC v18.1.3 Wed Nov 28 13:22:08 2018

Tools Copyright (c) 1996-2017 Texas Instruments Incorporated
C:\Users\Adrian\AppData\Local\Temp\{FE5CC9C4-3D95-42C7-8599-A02F5AAB02A5} PAGE   34

    1811                            .dwattr $C$DW$109, DW_AT_data_member_location[DW_OP_plus_uconst 0x4]
    1812                            .dwattr $C$DW$109, DW_AT_accessibility(DW_ACCESS_public)
    1813                            .dwattr $C$DW$109, DW_AT_decl_file("C:/ti/simplelink_cc13x0_sdk_2_30_00_20/source/ti/ti154stac
    1814                            .dwattr $C$DW$109, DW_AT_decl_line(0x82)
    1815                            .dwattr $C$DW$109, DW_AT_decl_column(0x0a)
    1816                    
    1817                    $C$DW$110       .dwtag  DW_TAG_member
    1818                            .dwattr $C$DW$110, DW_AT_type(*$C$DW$T$82)
    1819                            .dwattr $C$DW$110, DW_AT_name("pBuffer")
    1820                            .dwattr $C$DW$110, DW_AT_TI_symbol_name("pBuffer")
    1821                            .dwattr $C$DW$110, DW_AT_data_member_location[DW_OP_plus_uconst 0x8]
    1822                            .dwattr $C$DW$110, DW_AT_accessibility(DW_ACCESS_public)
    1823                            .dwattr $C$DW$110, DW_AT_decl_file("C:/ti/simplelink_cc13x0_sdk_2_30_00_20/source/ti/ti154stac
    1824                            .dwattr $C$DW$110, DW_AT_decl_line(0x83)
    1825                            .dwattr $C$DW$110, DW_AT_decl_column(0x0a)
    1826                    
    1827                            .dwattr $C$DW$T$83, DW_AT_decl_file("C:/ti/simplelink_cc13x0_sdk_2_30_00_20/source/ti/ti154sta
    1828                            .dwattr $C$DW$T$83, DW_AT_decl_line(0x7e)
    1829                            .dwattr $C$DW$T$83, DW_AT_decl_column(0x01)
    1830                            .dwendtag $C$DW$T$83
    1831                    
    1832                    $C$DW$T$85      .dwtag  DW_TAG_typedef
    1833                            .dwattr $C$DW$T$85, DW_AT_name("halUARTBufControl_t")
    1834                            .dwattr $C$DW$T$85, DW_AT_type(*$C$DW$T$83)
    1835                            .dwattr $C$DW$T$85, DW_AT_language(DW_LANG_C)
    1836                            .dwattr $C$DW$T$85, DW_AT_decl_file("C:/ti/simplelink_cc13x0_sdk_2_30_00_20/source/ti/ti154sta
    1837                            .dwattr $C$DW$T$85, DW_AT_decl_line(0x84)
    1838                            .dwattr $C$DW$T$85, DW_AT_decl_column(0x03)
    1839                    
    1840                    
    1841                    $C$DW$T$90      .dwtag  DW_TAG_structure_type
    1842                            .dwattr $C$DW$T$90, DW_AT_byte_size(0x2c)
    1843                    $C$DW$111       .dwtag  DW_TAG_member
    1844                            .dwattr $C$DW$111, DW_AT_type(*$C$DW$T$84)
    1845                            .dwattr $C$DW$111, DW_AT_name("configured")
    1846                            .dwattr $C$DW$111, DW_AT_TI_symbol_name("configured")
    1847                            .dwattr $C$DW$111, DW_AT_data_member_location[DW_OP_plus_uconst 0x0]
    1848                            .dwattr $C$DW$111, DW_AT_accessibility(DW_ACCESS_public)
    1849                            .dwattr $C$DW$111, DW_AT_decl_file("C:/ti/simplelink_cc13x0_sdk_2_30_00_20/source/ti/ti154stac
    1850                            .dwattr $C$DW$111, DW_AT_decl_line(0x88)
    1851                            .dwattr $C$DW$111, DW_AT_decl_column(0x17)
    1852                    
    1853                    $C$DW$112       .dwtag  DW_TAG_member
    1854                            .dwattr $C$DW$112, DW_AT_type(*$C$DW$T$21)
    1855                            .dwattr $C$DW$112, DW_AT_name("baudRate")
    1856                            .dwattr $C$DW$112, DW_AT_TI_symbol_name("baudRate")
    1857                            .dwattr $C$DW$112, DW_AT_data_member_location[DW_OP_plus_uconst 0x1]
    1858                            .dwattr $C$DW$112, DW_AT_accessibility(DW_ACCESS_public)
    1859                            .dwattr $C$DW$112, DW_AT_decl_file("C:/ti/simplelink_cc13x0_sdk_2_30_00_20/source/ti/ti154stac
    1860                            .dwattr $C$DW$112, DW_AT_decl_line(0x89)
    1861                            .dwattr $C$DW$112, DW_AT_decl_column(0x17)
    1862                    
    1863                    $C$DW$113       .dwtag  DW_TAG_member
    1864                            .dwattr $C$DW$113, DW_AT_type(*$C$DW$T$84)
    1865                            .dwattr $C$DW$113, DW_AT_name("flowControl")
TI ARM Assembler PC v18.1.3 Wed Nov 28 13:22:08 2018

Tools Copyright (c) 1996-2017 Texas Instruments Incorporated
C:\Users\Adrian\AppData\Local\Temp\{FE5CC9C4-3D95-42C7-8599-A02F5AAB02A5} PAGE   35

    1866                            .dwattr $C$DW$113, DW_AT_TI_symbol_name("flowControl")
    1867                            .dwattr $C$DW$113, DW_AT_data_member_location[DW_OP_plus_uconst 0x2]
    1868                            .dwattr $C$DW$113, DW_AT_accessibility(DW_ACCESS_public)
    1869                            .dwattr $C$DW$113, DW_AT_decl_file("C:/ti/simplelink_cc13x0_sdk_2_30_00_20/source/ti/ti154stac
    1870                            .dwattr $C$DW$113, DW_AT_decl_line(0x8a)
    1871                            .dwattr $C$DW$113, DW_AT_decl_column(0x17)
    1872                    
    1873                    $C$DW$114       .dwtag  DW_TAG_member
    1874                            .dwattr $C$DW$114, DW_AT_type(*$C$DW$T$22)
    1875                            .dwattr $C$DW$114, DW_AT_name("flowControlThreshold")
    1876                            .dwattr $C$DW$114, DW_AT_TI_symbol_name("flowControlThreshold")
    1877                            .dwattr $C$DW$114, DW_AT_data_member_location[DW_OP_plus_uconst 0x4]
    1878                            .dwattr $C$DW$114, DW_AT_accessibility(DW_ACCESS_public)
    1879                            .dwattr $C$DW$114, DW_AT_decl_file("C:/ti/simplelink_cc13x0_sdk_2_30_00_20/source/ti/ti154stac
    1880                            .dwattr $C$DW$114, DW_AT_decl_line(0x8b)
    1881                            .dwattr $C$DW$114, DW_AT_decl_column(0x17)
    1882                    
    1883                    $C$DW$115       .dwtag  DW_TAG_member
    1884                            .dwattr $C$DW$115, DW_AT_type(*$C$DW$T$21)
    1885                            .dwattr $C$DW$115, DW_AT_name("idleTimeout")
    1886                            .dwattr $C$DW$115, DW_AT_TI_symbol_name("idleTimeout")
    1887                            .dwattr $C$DW$115, DW_AT_data_member_location[DW_OP_plus_uconst 0x6]
    1888                            .dwattr $C$DW$115, DW_AT_accessibility(DW_ACCESS_public)
    1889                            .dwattr $C$DW$115, DW_AT_decl_file("C:/ti/simplelink_cc13x0_sdk_2_30_00_20/source/ti/ti154stac
    1890                            .dwattr $C$DW$115, DW_AT_decl_line(0x8c)
    1891                            .dwattr $C$DW$115, DW_AT_decl_column(0x17)
    1892                    
    1893                    $C$DW$116       .dwtag  DW_TAG_member
    1894                            .dwattr $C$DW$116, DW_AT_type(*$C$DW$T$85)
    1895                            .dwattr $C$DW$116, DW_AT_name("rx")
    1896                            .dwattr $C$DW$116, DW_AT_TI_symbol_name("rx")
    1897                            .dwattr $C$DW$116, DW_AT_data_member_location[DW_OP_plus_uconst 0x8]
    1898                            .dwattr $C$DW$116, DW_AT_accessibility(DW_ACCESS_public)
    1899                            .dwattr $C$DW$116, DW_AT_decl_file("C:/ti/simplelink_cc13x0_sdk_2_30_00_20/source/ti/ti154stac
    1900                            .dwattr $C$DW$116, DW_AT_decl_line(0x8d)
    1901                            .dwattr $C$DW$116, DW_AT_decl_column(0x17)
    1902                    
    1903                    $C$DW$117       .dwtag  DW_TAG_member
    1904                            .dwattr $C$DW$117, DW_AT_type(*$C$DW$T$85)
    1905                            .dwattr $C$DW$117, DW_AT_name("tx")
    1906                            .dwattr $C$DW$117, DW_AT_TI_symbol_name("tx")
    1907                            .dwattr $C$DW$117, DW_AT_data_member_location[DW_OP_plus_uconst 0x14]
    1908                            .dwattr $C$DW$117, DW_AT_accessibility(DW_ACCESS_public)
    1909                            .dwattr $C$DW$117, DW_AT_decl_file("C:/ti/simplelink_cc13x0_sdk_2_30_00_20/source/ti/ti154stac
    1910                            .dwattr $C$DW$117, DW_AT_decl_line(0x8e)
    1911                            .dwattr $C$DW$117, DW_AT_decl_column(0x17)
    1912                    
    1913                    $C$DW$118       .dwtag  DW_TAG_member
    1914                            .dwattr $C$DW$118, DW_AT_type(*$C$DW$T$84)
    1915                            .dwattr $C$DW$118, DW_AT_name("intEnable")
    1916                            .dwattr $C$DW$118, DW_AT_TI_symbol_name("intEnable")
    1917                            .dwattr $C$DW$118, DW_AT_data_member_location[DW_OP_plus_uconst 0x20]
    1918                            .dwattr $C$DW$118, DW_AT_accessibility(DW_ACCESS_public)
    1919                            .dwattr $C$DW$118, DW_AT_decl_file("C:/ti/simplelink_cc13x0_sdk_2_30_00_20/source/ti/ti154stac
    1920                            .dwattr $C$DW$118, DW_AT_decl_line(0x8f)
TI ARM Assembler PC v18.1.3 Wed Nov 28 13:22:08 2018

Tools Copyright (c) 1996-2017 Texas Instruments Incorporated
C:\Users\Adrian\AppData\Local\Temp\{FE5CC9C4-3D95-42C7-8599-A02F5AAB02A5} PAGE   36

    1921                            .dwattr $C$DW$118, DW_AT_decl_column(0x17)
    1922                    
    1923                    $C$DW$119       .dwtag  DW_TAG_member
    1924                            .dwattr $C$DW$119, DW_AT_type(*$C$DW$T$86)
    1925                            .dwattr $C$DW$119, DW_AT_name("rxChRvdTime")
    1926                            .dwattr $C$DW$119, DW_AT_TI_symbol_name("rxChRvdTime")
    1927                            .dwattr $C$DW$119, DW_AT_data_member_location[DW_OP_plus_uconst 0x24]
    1928                            .dwattr $C$DW$119, DW_AT_accessibility(DW_ACCESS_public)
    1929                            .dwattr $C$DW$119, DW_AT_decl_file("C:/ti/simplelink_cc13x0_sdk_2_30_00_20/source/ti/ti154stac
    1930                            .dwattr $C$DW$119, DW_AT_decl_line(0x90)
    1931                            .dwattr $C$DW$119, DW_AT_decl_column(0x17)
    1932                    
    1933                    $C$DW$120       .dwtag  DW_TAG_member
    1934                            .dwattr $C$DW$120, DW_AT_type(*$C$DW$T$89)
    1935                            .dwattr $C$DW$120, DW_AT_name("callBackFunc")
    1936                            .dwattr $C$DW$120, DW_AT_TI_symbol_name("callBackFunc")
    1937                            .dwattr $C$DW$120, DW_AT_data_member_location[DW_OP_plus_uconst 0x28]
    1938                            .dwattr $C$DW$120, DW_AT_accessibility(DW_ACCESS_public)
    1939                            .dwattr $C$DW$120, DW_AT_decl_file("C:/ti/simplelink_cc13x0_sdk_2_30_00_20/source/ti/ti154stac
    1940                            .dwattr $C$DW$120, DW_AT_decl_line(0x91)
    1941                            .dwattr $C$DW$120, DW_AT_decl_column(0x17)
    1942                    
    1943                            .dwattr $C$DW$T$90, DW_AT_decl_file("C:/ti/simplelink_cc13x0_sdk_2_30_00_20/source/ti/ti154sta
    1944                            .dwattr $C$DW$T$90, DW_AT_decl_line(0x87)
    1945                            .dwattr $C$DW$T$90, DW_AT_decl_column(0x01)
    1946                            .dwendtag $C$DW$T$90
    1947                    
    1948                    $C$DW$T$200     .dwtag  DW_TAG_typedef
    1949                            .dwattr $C$DW$T$200, DW_AT_name("halUARTCfg_t")
    1950                            .dwattr $C$DW$T$200, DW_AT_type(*$C$DW$T$90)
    1951                            .dwattr $C$DW$T$200, DW_AT_language(DW_LANG_C)
    1952                            .dwattr $C$DW$T$200, DW_AT_decl_file("C:/ti/simplelink_cc13x0_sdk_2_30_00_20/source/ti/ti154st
    1953                            .dwattr $C$DW$T$200, DW_AT_decl_line(0x92)
    1954                            .dwattr $C$DW$T$200, DW_AT_decl_column(0x02)
    1955                    
    1956                    
    1957                    $C$DW$T$91      .dwtag  DW_TAG_structure_type
    1958                            .dwattr $C$DW$T$91, DW_AT_byte_size(0x02)
    1959                    $C$DW$121       .dwtag  DW_TAG_member
    1960                            .dwattr $C$DW$121, DW_AT_type(*$C$DW$T$21)
    1961                            .dwattr $C$DW$121, DW_AT_name("event")
    1962                            .dwattr $C$DW$121, DW_AT_TI_symbol_name("event")
    1963                            .dwattr $C$DW$121, DW_AT_data_member_location[DW_OP_plus_uconst 0x0]
    1964                            .dwattr $C$DW$121, DW_AT_accessibility(DW_ACCESS_public)
    1965                            .dwattr $C$DW$121, DW_AT_decl_file("C:/ti/simplelink_cc13x0_sdk_2_30_00_20/source/ti/ti154stac
    1966                            .dwattr $C$DW$121, DW_AT_decl_line(0x79)
    1967                            .dwattr $C$DW$121, DW_AT_decl_column(0x0a)
    1968                    
    1969                    $C$DW$122       .dwtag  DW_TAG_member
    1970                            .dwattr $C$DW$122, DW_AT_type(*$C$DW$T$21)
    1971                            .dwattr $C$DW$122, DW_AT_name("status")
    1972                            .dwattr $C$DW$122, DW_AT_TI_symbol_name("status")
    1973                            .dwattr $C$DW$122, DW_AT_data_member_location[DW_OP_plus_uconst 0x1]
    1974                            .dwattr $C$DW$122, DW_AT_accessibility(DW_ACCESS_public)
    1975                            .dwattr $C$DW$122, DW_AT_decl_file("C:/ti/simplelink_cc13x0_sdk_2_30_00_20/source/ti/ti154stac
TI ARM Assembler PC v18.1.3 Wed Nov 28 13:22:08 2018

Tools Copyright (c) 1996-2017 Texas Instruments Incorporated
C:\Users\Adrian\AppData\Local\Temp\{FE5CC9C4-3D95-42C7-8599-A02F5AAB02A5} PAGE   37

    1976                            .dwattr $C$DW$122, DW_AT_decl_line(0x7a)
    1977                            .dwattr $C$DW$122, DW_AT_decl_column(0x0a)
    1978                    
    1979                            .dwattr $C$DW$T$91, DW_AT_decl_file("C:/ti/simplelink_cc13x0_sdk_2_30_00_20/source/ti/ti154sta
    1980                            .dwattr $C$DW$T$91, DW_AT_decl_line(0x78)
    1981                            .dwattr $C$DW$T$91, DW_AT_decl_column(0x01)
    1982                            .dwendtag $C$DW$T$91
    1983                    
    1984                    $C$DW$T$92      .dwtag  DW_TAG_typedef
    1985                            .dwattr $C$DW$T$92, DW_AT_name("osal_event_hdr_t")
    1986                            .dwattr $C$DW$T$92, DW_AT_type(*$C$DW$T$91)
    1987                            .dwattr $C$DW$T$92, DW_AT_language(DW_LANG_C)
    1988                            .dwattr $C$DW$T$92, DW_AT_decl_file("C:/ti/simplelink_cc13x0_sdk_2_30_00_20/source/ti/ti154sta
    1989                            .dwattr $C$DW$T$92, DW_AT_decl_line(0x7b)
    1990                            .dwattr $C$DW$T$92, DW_AT_decl_column(0x03)
    1991                    
    1992                    
    1993                    $C$DW$T$93      .dwtag  DW_TAG_structure_type
    1994                            .dwattr $C$DW$T$93, DW_AT_byte_size(0x04)
    1995                    $C$DW$123       .dwtag  DW_TAG_member
    1996                            .dwattr $C$DW$123, DW_AT_type(*$C$DW$T$92)
    1997                            .dwattr $C$DW$123, DW_AT_name("hdr")
    1998                            .dwattr $C$DW$123, DW_AT_TI_symbol_name("hdr")
    1999                            .dwattr $C$DW$123, DW_AT_data_member_location[DW_OP_plus_uconst 0x0]
    2000                            .dwattr $C$DW$123, DW_AT_accessibility(DW_ACCESS_public)
    2001                            .dwattr $C$DW$123, DW_AT_decl_file("C:/ti/simplelink_cc13x0_sdk_2_30_00_20/examples/rtos/CC135
    2002                            .dwattr $C$DW$123, DW_AT_decl_line(0xbc)
    2003                            .dwattr $C$DW$123, DW_AT_decl_column(0x14)
    2004                    
    2005                    $C$DW$124       .dwtag  DW_TAG_member
    2006                            .dwattr $C$DW$124, DW_AT_type(*$C$DW$T$21)
    2007                            .dwattr $C$DW$124, DW_AT_name("state")
    2008                            .dwattr $C$DW$124, DW_AT_TI_symbol_name("state")
    2009                            .dwattr $C$DW$124, DW_AT_data_member_location[DW_OP_plus_uconst 0x2]
    2010                            .dwattr $C$DW$124, DW_AT_accessibility(DW_ACCESS_public)
    2011                            .dwattr $C$DW$124, DW_AT_decl_file("C:/ti/simplelink_cc13x0_sdk_2_30_00_20/examples/rtos/CC135
    2012                            .dwattr $C$DW$124, DW_AT_decl_line(0xbd)
    2013                            .dwattr $C$DW$124, DW_AT_decl_column(0x09)
    2014                    
    2015                    $C$DW$125       .dwtag  DW_TAG_member
    2016                            .dwattr $C$DW$125, DW_AT_type(*$C$DW$T$21)
    2017                            .dwattr $C$DW$125, DW_AT_name("keys")
    2018                            .dwattr $C$DW$125, DW_AT_TI_symbol_name("keys")
    2019                            .dwattr $C$DW$125, DW_AT_data_member_location[DW_OP_plus_uconst 0x3]
    2020                            .dwattr $C$DW$125, DW_AT_accessibility(DW_ACCESS_public)
    2021                            .dwattr $C$DW$125, DW_AT_decl_file("C:/ti/simplelink_cc13x0_sdk_2_30_00_20/examples/rtos/CC135
    2022                            .dwattr $C$DW$125, DW_AT_decl_line(0xbe)
    2023                            .dwattr $C$DW$125, DW_AT_decl_column(0x09)
    2024                    
    2025                            .dwattr $C$DW$T$93, DW_AT_decl_file("C:/ti/simplelink_cc13x0_sdk_2_30_00_20/examples/rtos/CC13
    2026                            .dwattr $C$DW$T$93, DW_AT_decl_line(0xbb)
    2027                            .dwattr $C$DW$T$93, DW_AT_decl_column(0x01)
    2028                            .dwendtag $C$DW$T$93
    2029                    
    2030                    $C$DW$T$201     .dwtag  DW_TAG_typedef
TI ARM Assembler PC v18.1.3 Wed Nov 28 13:22:08 2018

Tools Copyright (c) 1996-2017 Texas Instruments Incorporated
C:\Users\Adrian\AppData\Local\Temp\{FE5CC9C4-3D95-42C7-8599-A02F5AAB02A5} PAGE   38

    2031                            .dwattr $C$DW$T$201, DW_AT_name("keyChange_t")
    2032                            .dwattr $C$DW$T$201, DW_AT_type(*$C$DW$T$93)
    2033                            .dwattr $C$DW$T$201, DW_AT_language(DW_LANG_C)
    2034                            .dwattr $C$DW$T$201, DW_AT_decl_file("C:/ti/simplelink_cc13x0_sdk_2_30_00_20/examples/rtos/CC1
    2035                            .dwattr $C$DW$T$201, DW_AT_decl_line(0xbf)
    2036                            .dwattr $C$DW$T$201, DW_AT_decl_column(0x03)
    2037                    
    2038                    
    2039                    $C$DW$T$100     .dwtag  DW_TAG_union_type
    2040                            .dwattr $C$DW$T$100, DW_AT_byte_size(0x02)
    2041                    $C$DW$126       .dwtag  DW_TAG_member
    2042                            .dwattr $C$DW$126, DW_AT_type(*$C$DW$T$96)
    2043                            .dwattr $C$DW$126, DW_AT_name("entityId")
    2044                            .dwattr $C$DW$126, DW_AT_TI_symbol_name("entityId")
    2045                            .dwattr $C$DW$126, DW_AT_data_member_location[DW_OP_plus_uconst 0x0]
    2046                            .dwattr $C$DW$126, DW_AT_accessibility(DW_ACCESS_public)
    2047                            .dwattr $C$DW$126, DW_AT_decl_file("C:/ti/simplelink_cc13x0_sdk_2_30_00_20/source/ti/ti154stac
    2048                            .dwattr $C$DW$126, DW_AT_decl_line(0x1fe)
    2049                            .dwattr $C$DW$126, DW_AT_decl_column(0x14)
    2050                    
    2051                    $C$DW$127       .dwtag  DW_TAG_member
    2052                            .dwattr $C$DW$127, DW_AT_type(*$C$DW$T$99)
    2053                            .dwattr $C$DW$127, DW_AT_name("servId")
    2054                            .dwattr $C$DW$127, DW_AT_TI_symbol_name("servId")
    2055                            .dwattr $C$DW$127, DW_AT_data_member_location[DW_OP_plus_uconst 0x0]
    2056                            .dwattr $C$DW$127, DW_AT_accessibility(DW_ACCESS_public)
    2057                            .dwattr $C$DW$127, DW_AT_decl_file("C:/ti/simplelink_cc13x0_sdk_2_30_00_20/source/ti/ti154stac
    2058                            .dwattr $C$DW$127, DW_AT_decl_line(0x200)
    2059                            .dwattr $C$DW$127, DW_AT_decl_column(0x17)
    2060                    
    2061                            .dwattr $C$DW$T$100, DW_AT_decl_file("C:/ti/simplelink_cc13x0_sdk_2_30_00_20/source/ti/ti154st
    2062                            .dwattr $C$DW$T$100, DW_AT_decl_line(0x1fc)
    2063                            .dwattr $C$DW$T$100, DW_AT_decl_column(0x03)
    2064                            .dwendtag $C$DW$T$100
    2065                    
    2066                    
    2067                    $C$DW$T$101     .dwtag  DW_TAG_union_type
    2068                            .dwattr $C$DW$T$101, DW_AT_byte_size(0x02)
    2069                    $C$DW$128       .dwtag  DW_TAG_member
    2070                            .dwattr $C$DW$128, DW_AT_type(*$C$DW$T$99)
    2071                            .dwattr $C$DW$128, DW_AT_name("servId")
    2072                            .dwattr $C$DW$128, DW_AT_TI_symbol_name("servId")
    2073                            .dwattr $C$DW$128, DW_AT_data_member_location[DW_OP_plus_uconst 0x0]
    2074                            .dwattr $C$DW$128, DW_AT_accessibility(DW_ACCESS_public)
    2075                            .dwattr $C$DW$128, DW_AT_decl_file("C:/ti/simplelink_cc13x0_sdk_2_30_00_20/source/ti/ti154stac
    2076                            .dwattr $C$DW$128, DW_AT_decl_line(0x211)
    2077                            .dwattr $C$DW$128, DW_AT_decl_column(0x17)
    2078                    
    2079                    $C$DW$129       .dwtag  DW_TAG_member
    2080                            .dwattr $C$DW$129, DW_AT_type(*$C$DW$T$96)
    2081                            .dwattr $C$DW$129, DW_AT_name("entityId")
    2082                            .dwattr $C$DW$129, DW_AT_TI_symbol_name("entityId")
    2083                            .dwattr $C$DW$129, DW_AT_data_member_location[DW_OP_plus_uconst 0x0]
    2084                            .dwattr $C$DW$129, DW_AT_accessibility(DW_ACCESS_public)
    2085                            .dwattr $C$DW$129, DW_AT_decl_file("C:/ti/simplelink_cc13x0_sdk_2_30_00_20/source/ti/ti154stac
TI ARM Assembler PC v18.1.3 Wed Nov 28 13:22:08 2018

Tools Copyright (c) 1996-2017 Texas Instruments Incorporated
C:\Users\Adrian\AppData\Local\Temp\{FE5CC9C4-3D95-42C7-8599-A02F5AAB02A5} PAGE   39

    2086                            .dwattr $C$DW$129, DW_AT_decl_line(0x213)
    2087                            .dwattr $C$DW$129, DW_AT_decl_column(0x14)
    2088                    
    2089                            .dwattr $C$DW$T$101, DW_AT_decl_file("C:/ti/simplelink_cc13x0_sdk_2_30_00_20/source/ti/ti154st
    2090                            .dwattr $C$DW$T$101, DW_AT_decl_line(0x20f)
    2091                            .dwattr $C$DW$T$101, DW_AT_decl_column(0x03)
    2092                            .dwendtag $C$DW$T$101
    2093                    
    2094                    
    2095                    $C$DW$T$102     .dwtag  DW_TAG_union_type
    2096                            .dwattr $C$DW$T$102, DW_AT_byte_size(0x02)
    2097                    $C$DW$130       .dwtag  DW_TAG_member
    2098                            .dwattr $C$DW$130, DW_AT_type(*$C$DW$T$84)
    2099                            .dwattr $C$DW$130, DW_AT_name("paramCTS")
    2100                            .dwattr $C$DW$130, DW_AT_TI_symbol_name("paramCTS")
    2101                            .dwattr $C$DW$130, DW_AT_data_member_location[DW_OP_plus_uconst 0x0]
    2102                            .dwattr $C$DW$130, DW_AT_accessibility(DW_ACCESS_public)
    2103                            .dwattr $C$DW$130, DW_AT_decl_file("C:/ti/simplelink_cc13x0_sdk_2_30_00_20/source/ti/ti154stac
    2104                            .dwattr $C$DW$130, DW_AT_decl_line(0x96)
    2105                            .dwattr $C$DW$130, DW_AT_decl_column(0x08)
    2106                    
    2107                    $C$DW$131       .dwtag  DW_TAG_member
    2108                            .dwattr $C$DW$131, DW_AT_type(*$C$DW$T$84)
    2109                            .dwattr $C$DW$131, DW_AT_name("paramRTS")
    2110                            .dwattr $C$DW$131, DW_AT_TI_symbol_name("paramRTS")
    2111                            .dwattr $C$DW$131, DW_AT_data_member_location[DW_OP_plus_uconst 0x0]
    2112                            .dwattr $C$DW$131, DW_AT_accessibility(DW_ACCESS_public)
    2113                            .dwattr $C$DW$131, DW_AT_decl_file("C:/ti/simplelink_cc13x0_sdk_2_30_00_20/source/ti/ti154stac
    2114                            .dwattr $C$DW$131, DW_AT_decl_line(0x97)
    2115                            .dwattr $C$DW$131, DW_AT_decl_column(0x08)
    2116                    
    2117                    $C$DW$132       .dwtag  DW_TAG_member
    2118                            .dwattr $C$DW$132, DW_AT_type(*$C$DW$T$84)
    2119                            .dwattr $C$DW$132, DW_AT_name("paramDSR")
    2120                            .dwattr $C$DW$132, DW_AT_TI_symbol_name("paramDSR")
    2121                            .dwattr $C$DW$132, DW_AT_data_member_location[DW_OP_plus_uconst 0x0]
    2122                            .dwattr $C$DW$132, DW_AT_accessibility(DW_ACCESS_public)
    2123                            .dwattr $C$DW$132, DW_AT_decl_file("C:/ti/simplelink_cc13x0_sdk_2_30_00_20/source/ti/ti154stac
    2124                            .dwattr $C$DW$132, DW_AT_decl_line(0x98)
    2125                            .dwattr $C$DW$132, DW_AT_decl_column(0x08)
    2126                    
    2127                    $C$DW$133       .dwtag  DW_TAG_member
    2128                            .dwattr $C$DW$133, DW_AT_type(*$C$DW$T$84)
    2129                            .dwattr $C$DW$133, DW_AT_name("paramDTR")
    2130                            .dwattr $C$DW$133, DW_AT_TI_symbol_name("paramDTR")
    2131                            .dwattr $C$DW$133, DW_AT_data_member_location[DW_OP_plus_uconst 0x0]
    2132                            .dwattr $C$DW$133, DW_AT_accessibility(DW_ACCESS_public)
    2133                            .dwattr $C$DW$133, DW_AT_decl_file("C:/ti/simplelink_cc13x0_sdk_2_30_00_20/source/ti/ti154stac
    2134                            .dwattr $C$DW$133, DW_AT_decl_line(0x99)
    2135                            .dwattr $C$DW$133, DW_AT_decl_column(0x08)
    2136                    
    2137                    $C$DW$134       .dwtag  DW_TAG_member
    2138                            .dwattr $C$DW$134, DW_AT_type(*$C$DW$T$84)
    2139                            .dwattr $C$DW$134, DW_AT_name("paramCD")
    2140                            .dwattr $C$DW$134, DW_AT_TI_symbol_name("paramCD")
TI ARM Assembler PC v18.1.3 Wed Nov 28 13:22:08 2018

Tools Copyright (c) 1996-2017 Texas Instruments Incorporated
C:\Users\Adrian\AppData\Local\Temp\{FE5CC9C4-3D95-42C7-8599-A02F5AAB02A5} PAGE   40

    2141                            .dwattr $C$DW$134, DW_AT_data_member_location[DW_OP_plus_uconst 0x0]
    2142                            .dwattr $C$DW$134, DW_AT_accessibility(DW_ACCESS_public)
    2143                            .dwattr $C$DW$134, DW_AT_decl_file("C:/ti/simplelink_cc13x0_sdk_2_30_00_20/source/ti/ti154stac
    2144                            .dwattr $C$DW$134, DW_AT_decl_line(0x9a)
    2145                            .dwattr $C$DW$134, DW_AT_decl_column(0x08)
    2146                    
    2147                    $C$DW$135       .dwtag  DW_TAG_member
    2148                            .dwattr $C$DW$135, DW_AT_type(*$C$DW$T$84)
    2149                            .dwattr $C$DW$135, DW_AT_name("paramRI")
    2150                            .dwattr $C$DW$135, DW_AT_TI_symbol_name("paramRI")
    2151                            .dwattr $C$DW$135, DW_AT_data_member_location[DW_OP_plus_uconst 0x0]
    2152                            .dwattr $C$DW$135, DW_AT_accessibility(DW_ACCESS_public)
    2153                            .dwattr $C$DW$135, DW_AT_decl_file("C:/ti/simplelink_cc13x0_sdk_2_30_00_20/source/ti/ti154stac
    2154                            .dwattr $C$DW$135, DW_AT_decl_line(0x9b)
    2155                            .dwattr $C$DW$135, DW_AT_decl_column(0x08)
    2156                    
    2157                    $C$DW$136       .dwtag  DW_TAG_member
    2158                            .dwattr $C$DW$136, DW_AT_type(*$C$DW$T$22)
    2159                            .dwattr $C$DW$136, DW_AT_name("baudRate")
    2160                            .dwattr $C$DW$136, DW_AT_TI_symbol_name("baudRate")
    2161                            .dwattr $C$DW$136, DW_AT_data_member_location[DW_OP_plus_uconst 0x0]
    2162                            .dwattr $C$DW$136, DW_AT_accessibility(DW_ACCESS_public)
    2163                            .dwattr $C$DW$136, DW_AT_decl_file("C:/ti/simplelink_cc13x0_sdk_2_30_00_20/source/ti/ti154stac
    2164                            .dwattr $C$DW$136, DW_AT_decl_line(0x9c)
    2165                            .dwattr $C$DW$136, DW_AT_decl_column(0x0a)
    2166                    
    2167                    $C$DW$137       .dwtag  DW_TAG_member
    2168                            .dwattr $C$DW$137, DW_AT_type(*$C$DW$T$84)
    2169                            .dwattr $C$DW$137, DW_AT_name("flowControl")
    2170                            .dwattr $C$DW$137, DW_AT_TI_symbol_name("flowControl")
    2171                            .dwattr $C$DW$137, DW_AT_data_member_location[DW_OP_plus_uconst 0x0]
    2172                            .dwattr $C$DW$137, DW_AT_accessibility(DW_ACCESS_public)
    2173                            .dwattr $C$DW$137, DW_AT_decl_file("C:/ti/simplelink_cc13x0_sdk_2_30_00_20/source/ti/ti154stac
    2174                            .dwattr $C$DW$137, DW_AT_decl_line(0x9d)
    2175                            .dwattr $C$DW$137, DW_AT_decl_column(0x08)
    2176                    
    2177                    $C$DW$138       .dwtag  DW_TAG_member
    2178                            .dwattr $C$DW$138, DW_AT_type(*$C$DW$T$84)
    2179                            .dwattr $C$DW$138, DW_AT_name("flushControl")
    2180                            .dwattr $C$DW$138, DW_AT_TI_symbol_name("flushControl")
    2181                            .dwattr $C$DW$138, DW_AT_data_member_location[DW_OP_plus_uconst 0x0]
    2182                            .dwattr $C$DW$138, DW_AT_accessibility(DW_ACCESS_public)
    2183                            .dwattr $C$DW$138, DW_AT_decl_file("C:/ti/simplelink_cc13x0_sdk_2_30_00_20/source/ti/ti154stac
    2184                            .dwattr $C$DW$138, DW_AT_decl_line(0x9e)
    2185                            .dwattr $C$DW$138, DW_AT_decl_column(0x08)
    2186                    
    2187                            .dwattr $C$DW$T$102, DW_AT_decl_file("C:/ti/simplelink_cc13x0_sdk_2_30_00_20/source/ti/ti154st
    2188                            .dwattr $C$DW$T$102, DW_AT_decl_line(0x95)
    2189                            .dwattr $C$DW$T$102, DW_AT_decl_column(0x01)
    2190                            .dwendtag $C$DW$T$102
    2191                    
    2192                    $C$DW$T$202     .dwtag  DW_TAG_typedef
    2193                            .dwattr $C$DW$T$202, DW_AT_name("halUARTIoctl_t")
    2194                            .dwattr $C$DW$T$202, DW_AT_type(*$C$DW$T$102)
    2195                            .dwattr $C$DW$T$202, DW_AT_language(DW_LANG_C)
TI ARM Assembler PC v18.1.3 Wed Nov 28 13:22:08 2018

Tools Copyright (c) 1996-2017 Texas Instruments Incorporated
C:\Users\Adrian\AppData\Local\Temp\{FE5CC9C4-3D95-42C7-8599-A02F5AAB02A5} PAGE   41

    2196                            .dwattr $C$DW$T$202, DW_AT_decl_file("C:/ti/simplelink_cc13x0_sdk_2_30_00_20/source/ti/ti154st
    2197                            .dwattr $C$DW$T$202, DW_AT_decl_line(0x9f)
    2198                            .dwattr $C$DW$T$202, DW_AT_decl_column(0x02)
    2199                    
    2200                    
    2201                    $C$DW$T$103     .dwtag  DW_TAG_structure_type
    2202                            .dwattr $C$DW$T$103, DW_AT_name(".ggroup1")
    2203                            .dwattr $C$DW$T$103, DW_AT_byte_size(0x08)
    2204                    $C$DW$139       .dwtag  DW_TAG_member
    2205                            .dwattr $C$DW$139, DW_AT_type(*$C$DW$T$11)
    2206                            .dwattr $C$DW$139, DW_AT_name("timeMSec")
    2207                            .dwattr $C$DW$139, DW_AT_TI_symbol_name("timeMSec")
    2208                            .dwattr $C$DW$139, DW_AT_data_member_location[DW_OP_plus_uconst 0x0]
    2209                            .dwattr $C$DW$139, DW_AT_accessibility(DW_ACCESS_public)
    2210                    
    2211                    $C$DW$140       .dwtag  DW_TAG_member
    2212                            .dwattr $C$DW$140, DW_AT_type(*$C$DW$T$11)
    2213                            .dwattr $C$DW$140, DW_AT_name("OSAL_timeSeconds")
    2214                            .dwattr $C$DW$140, DW_AT_TI_symbol_name("OSAL_timeSeconds")
    2215                            .dwattr $C$DW$140, DW_AT_data_member_location[DW_OP_plus_uconst 0x4]
    2216                            .dwattr $C$DW$140, DW_AT_accessibility(DW_ACCESS_public)
    2217                    
    2218                            .dwendtag $C$DW$T$103
    2219                    
    2220                    
    2221                    $C$DW$T$104     .dwtag  DW_TAG_structure_type
    2222                            .dwattr $C$DW$T$104, DW_AT_name("_ICall_LiteCmdStatus_")
    2223                            .dwattr $C$DW$T$104, DW_AT_byte_size(0x01)
    2224                    $C$DW$141       .dwtag  DW_TAG_member
    2225                            .dwattr $C$DW$141, DW_AT_type(*$C$DW$T$95)
    2226                            .dwattr $C$DW$141, DW_AT_name("cmdId")
    2227                            .dwattr $C$DW$141, DW_AT_TI_symbol_name("cmdId")
    2228                            .dwattr $C$DW$141, DW_AT_data_member_location[DW_OP_plus_uconst 0x0]
    2229                            .dwattr $C$DW$141, DW_AT_accessibility(DW_ACCESS_public)
    2230                            .dwattr $C$DW$141, DW_AT_decl_file("C:/ti/simplelink_cc13x0_sdk_2_30_00_20/source/ti/ti154stac
    2231                            .dwattr $C$DW$141, DW_AT_decl_line(0x3f0)
    2232                            .dwattr $C$DW$141, DW_AT_decl_column(0x11)
    2233                    
    2234                            .dwattr $C$DW$T$104, DW_AT_decl_file("C:/ti/simplelink_cc13x0_sdk_2_30_00_20/source/ti/ti154st
    2235                            .dwattr $C$DW$T$104, DW_AT_decl_line(0x3ee)
    2236                            .dwattr $C$DW$T$104, DW_AT_decl_column(0x10)
    2237                            .dwendtag $C$DW$T$104
    2238                    
    2239                    $C$DW$T$204     .dwtag  DW_TAG_typedef
    2240                            .dwattr $C$DW$T$204, DW_AT_name("ICall_LiteCmdStatus")
    2241                            .dwattr $C$DW$T$204, DW_AT_type(*$C$DW$T$104)
    2242                            .dwattr $C$DW$T$204, DW_AT_language(DW_LANG_C)
    2243                            .dwattr $C$DW$T$204, DW_AT_decl_file("C:/ti/simplelink_cc13x0_sdk_2_30_00_20/source/ti/ti154st
    2244                            .dwattr $C$DW$T$204, DW_AT_decl_line(0x3f1)
    2245                            .dwattr $C$DW$T$204, DW_AT_decl_column(0x03)
    2246                    
    2247                    $C$DW$T$2       .dwtag  DW_TAG_unspecified_type
    2248                            .dwattr $C$DW$T$2, DW_AT_name("void")
    2249                    
    2250                    $C$DW$T$3       .dwtag  DW_TAG_pointer_type
TI ARM Assembler PC v18.1.3 Wed Nov 28 13:22:08 2018

Tools Copyright (c) 1996-2017 Texas Instruments Incorporated
C:\Users\Adrian\AppData\Local\Temp\{FE5CC9C4-3D95-42C7-8599-A02F5AAB02A5} PAGE   42

    2251                            .dwattr $C$DW$T$3, DW_AT_type(*$C$DW$T$2)
    2252                            .dwattr $C$DW$T$3, DW_AT_address_class(0x20)
    2253                    
    2254                    $C$DW$T$205     .dwtag  DW_TAG_typedef
    2255                            .dwattr $C$DW$T$205, DW_AT_name("ICall_Semaphore")
    2256                            .dwattr $C$DW$T$205, DW_AT_type(*$C$DW$T$3)
    2257                            .dwattr $C$DW$T$205, DW_AT_language(DW_LANG_C)
    2258                            .dwattr $C$DW$T$205, DW_AT_decl_file("C:/ti/simplelink_cc13x0_sdk_2_30_00_20/source/ti/ti154st
    2259                            .dwattr $C$DW$T$205, DW_AT_decl_line(0x1ac)
    2260                            .dwattr $C$DW$T$205, DW_AT_decl_column(0x0f)
    2261                    
    2262                    $C$DW$T$120     .dwtag  DW_TAG_typedef
    2263                            .dwattr $C$DW$T$120, DW_AT_name("ICall_SyncHandle")
    2264                            .dwattr $C$DW$T$120, DW_AT_type(*$C$DW$T$3)
    2265                            .dwattr $C$DW$T$120, DW_AT_language(DW_LANG_C)
    2266                            .dwattr $C$DW$T$120, DW_AT_decl_file("C:/ti/simplelink_cc13x0_sdk_2_30_00_20/source/ti/ti154st
    2267                            .dwattr $C$DW$T$120, DW_AT_decl_line(0x1aa)
    2268                            .dwattr $C$DW$T$120, DW_AT_decl_column(0x0f)
    2269                    
    2270                    $C$DW$T$167     .dwtag  DW_TAG_typedef
    2271                            .dwattr $C$DW$T$167, DW_AT_name("ICall_TimerID")
    2272                            .dwattr $C$DW$T$167, DW_AT_type(*$C$DW$T$3)
    2273                            .dwattr $C$DW$T$167, DW_AT_language(DW_LANG_C)
    2274                            .dwattr $C$DW$T$167, DW_AT_decl_file("C:/ti/simplelink_cc13x0_sdk_2_30_00_20/source/ti/ti154st
    2275                            .dwattr $C$DW$T$167, DW_AT_decl_line(0x1b7)
    2276                            .dwattr $C$DW$T$167, DW_AT_decl_column(0x0f)
    2277                    
    2278                    $C$DW$T$206     .dwtag  DW_TAG_typedef
    2279                            .dwattr $C$DW$T$206, DW_AT_name("osal_msg_q_t")
    2280                            .dwattr $C$DW$T$206, DW_AT_type(*$C$DW$T$3)
    2281                            .dwattr $C$DW$T$206, DW_AT_language(DW_LANG_C)
    2282                            .dwattr $C$DW$T$206, DW_AT_decl_file("C:/ti/simplelink_cc13x0_sdk_2_30_00_20/source/ti/ti154st
    2283                            .dwattr $C$DW$T$206, DW_AT_decl_line(0x7d)
    2284                            .dwattr $C$DW$T$206, DW_AT_decl_column(0x10)
    2285                    
    2286                    
    2287                    $C$DW$T$42      .dwtag  DW_TAG_subroutine_type
    2288                            .dwattr $C$DW$T$42, DW_AT_language(DW_LANG_C)
    2289                            .dwendtag $C$DW$T$42
    2290                    
    2291                    $C$DW$T$43      .dwtag  DW_TAG_pointer_type
    2292                            .dwattr $C$DW$T$43, DW_AT_type(*$C$DW$T$42)
    2293                            .dwattr $C$DW$T$43, DW_AT_address_class(0x20)
    2294                    
    2295                    $C$DW$T$183     .dwtag  DW_TAG_typedef
    2296                            .dwattr $C$DW$T$183, DW_AT_name("APPASRTINTF_callAssrtHndler")
    2297                            .dwattr $C$DW$T$183, DW_AT_type(*$C$DW$T$43)
    2298                            .dwattr $C$DW$T$183, DW_AT_language(DW_LANG_C)
    2299                            .dwattr $C$DW$T$183, DW_AT_decl_file("C:/ti/simplelink_cc13x0_sdk_2_30_00_20/source/ti/ti154st
    2300                            .dwattr $C$DW$T$183, DW_AT_decl_line(0x43)
    2301                            .dwattr $C$DW$T$183, DW_AT_decl_column(0x10)
    2302                    
    2303                    $C$DW$T$62      .dwtag  DW_TAG_typedef
    2304                            .dwattr $C$DW$T$62, DW_AT_name("FPTR_HFSOURCESAFESWITCH_T")
    2305                            .dwattr $C$DW$T$62, DW_AT_type(*$C$DW$T$43)
TI ARM Assembler PC v18.1.3 Wed Nov 28 13:22:08 2018

Tools Copyright (c) 1996-2017 Texas Instruments Incorporated
C:\Users\Adrian\AppData\Local\Temp\{FE5CC9C4-3D95-42C7-8599-A02F5AAB02A5} PAGE   43

    2306                            .dwattr $C$DW$T$62, DW_AT_language(DW_LANG_C)
    2307                            .dwattr $C$DW$T$62, DW_AT_decl_file("C:\ti\simplelink_cc13x0_sdk_2_30_00_20\source\ti\devices\
    2308                            .dwattr $C$DW$T$62, DW_AT_decl_line(0x5f)
    2309                            .dwattr $C$DW$T$62, DW_AT_decl_column(0x19)
    2310                    
    2311                    $C$DW$T$44      .dwtag  DW_TAG_typedef
    2312                            .dwattr $C$DW$T$44, DW_AT_name("FPTR_RESETDEV_T")
    2313                            .dwattr $C$DW$T$44, DW_AT_type(*$C$DW$T$43)
    2314                            .dwattr $C$DW$T$44, DW_AT_language(DW_LANG_C)
    2315                            .dwattr $C$DW$T$44, DW_AT_decl_file("C:\ti\simplelink_cc13x0_sdk_2_30_00_20\source\ti\devices\
    2316                            .dwattr $C$DW$T$44, DW_AT_decl_line(0x4d)
    2317                            .dwattr $C$DW$T$44, DW_AT_decl_column(0x19)
    2318                    
    2319                    $C$DW$T$207     .dwtag  DW_TAG_typedef
    2320                            .dwattr $C$DW$T$207, DW_AT_name("FPTR_VOID_VOID_T")
    2321                            .dwattr $C$DW$T$207, DW_AT_type(*$C$DW$T$43)
    2322                            .dwattr $C$DW$T$207, DW_AT_language(DW_LANG_C)
    2323                            .dwattr $C$DW$T$207, DW_AT_decl_file("C:/ti/simplelink_cc13x0_sdk_2_30_00_20/source/ti/devices
    2324                            .dwattr $C$DW$T$207, DW_AT_decl_line(0x33)
    2325                            .dwattr $C$DW$T$207, DW_AT_decl_column(0x11)
    2326                    
    2327                    $C$DW$T$208     .dwtag  DW_TAG_typedef
    2328                            .dwattr $C$DW$T$208, DW_AT_name("__TI_atexit_fn")
    2329                            .dwattr $C$DW$T$208, DW_AT_type(*$C$DW$T$43)
    2330                            .dwattr $C$DW$T$208, DW_AT_language(DW_LANG_C)
    2331                            .dwattr $C$DW$T$208, DW_AT_decl_file("C:/ti/ccsv8/tools/compiler/ti-cgt-arm_18.1.3.LTS/include
    2332                            .dwattr $C$DW$T$208, DW_AT_decl_line(0xb2)
    2333                            .dwattr $C$DW$T$208, DW_AT_decl_column(0x14)
    2334                    
    2335                    
    2336                    $C$DW$T$58      .dwtag  DW_TAG_subroutine_type
    2337                            .dwattr $C$DW$T$58, DW_AT_language(DW_LANG_C)
    2338                    $C$DW$142       .dwtag  DW_TAG_formal_parameter
    2339                            .dwattr $C$DW$142, DW_AT_type(*$C$DW$T$26)
    2340                    
    2341                            .dwendtag $C$DW$T$58
    2342                    
    2343                    $C$DW$T$59      .dwtag  DW_TAG_pointer_type
    2344                            .dwattr $C$DW$T$59, DW_AT_type(*$C$DW$T$58)
    2345                            .dwattr $C$DW$T$59, DW_AT_address_class(0x20)
    2346                    
    2347                    $C$DW$T$60      .dwtag  DW_TAG_typedef
    2348                            .dwattr $C$DW$T$60, DW_AT_name("FPTR_RESERVED4_T")
    2349                            .dwattr $C$DW$T$60, DW_AT_type(*$C$DW$T$59)
    2350                            .dwattr $C$DW$T$60, DW_AT_language(DW_LANG_C)
    2351                            .dwattr $C$DW$T$60, DW_AT_decl_file("C:\ti\simplelink_cc13x0_sdk_2_30_00_20\source\ti\devices\
    2352                            .dwattr $C$DW$T$60, DW_AT_decl_line(0x61)
    2353                            .dwattr $C$DW$T$60, DW_AT_decl_column(0x19)
    2354                    
    2355                    $C$DW$T$61      .dwtag  DW_TAG_typedef
    2356                            .dwattr $C$DW$T$61, DW_AT_name("FPTR_RESERVED5_T")
    2357                            .dwattr $C$DW$T$61, DW_AT_type(*$C$DW$T$59)
    2358                            .dwattr $C$DW$T$61, DW_AT_language(DW_LANG_C)
    2359                            .dwattr $C$DW$T$61, DW_AT_decl_file("C:\ti\simplelink_cc13x0_sdk_2_30_00_20\source\ti\devices\
    2360                            .dwattr $C$DW$T$61, DW_AT_decl_line(0x63)
TI ARM Assembler PC v18.1.3 Wed Nov 28 13:22:08 2018

Tools Copyright (c) 1996-2017 Texas Instruments Incorporated
C:\Users\Adrian\AppData\Local\Temp\{FE5CC9C4-3D95-42C7-8599-A02F5AAB02A5} PAGE   44

    2361                            .dwattr $C$DW$T$61, DW_AT_decl_column(0x19)
    2362                    
    2363                    
    2364                    $C$DW$T$63      .dwtag  DW_TAG_subroutine_type
    2365                            .dwattr $C$DW$T$63, DW_AT_language(DW_LANG_C)
    2366                    $C$DW$143       .dwtag  DW_TAG_formal_parameter
    2367                            .dwattr $C$DW$143, DW_AT_type(*$C$DW$T$28)
    2368                    
    2369                            .dwendtag $C$DW$T$63
    2370                    
    2371                    $C$DW$T$64      .dwtag  DW_TAG_pointer_type
    2372                            .dwattr $C$DW$T$64, DW_AT_type(*$C$DW$T$63)
    2373                            .dwattr $C$DW$T$64, DW_AT_address_class(0x20)
    2374                    
    2375                    $C$DW$T$67      .dwtag  DW_TAG_typedef
    2376                            .dwattr $C$DW$T$67, DW_AT_name("FPTR_ADCCOMPBIN_T")
    2377                            .dwattr $C$DW$T$67, DW_AT_type(*$C$DW$T$64)
    2378                            .dwattr $C$DW$T$67, DW_AT_language(DW_LANG_C)
    2379                            .dwattr $C$DW$T$67, DW_AT_decl_file("C:\ti\simplelink_cc13x0_sdk_2_30_00_20\source\ti\devices\
    2380                            .dwattr $C$DW$T$67, DW_AT_decl_line(0x69)
    2381                            .dwattr $C$DW$T$67, DW_AT_decl_column(0x19)
    2382                    
    2383                    $C$DW$T$65      .dwtag  DW_TAG_typedef
    2384                            .dwattr $C$DW$T$65, DW_AT_name("FPTR_COMPAIN_T")
    2385                            .dwattr $C$DW$T$65, DW_AT_type(*$C$DW$T$64)
    2386                            .dwattr $C$DW$T$65, DW_AT_language(DW_LANG_C)
    2387                            .dwattr $C$DW$T$65, DW_AT_decl_file("C:\ti\simplelink_cc13x0_sdk_2_30_00_20\source\ti\devices\
    2388                            .dwattr $C$DW$T$65, DW_AT_decl_line(0x65)
    2389                            .dwattr $C$DW$T$65, DW_AT_decl_column(0x19)
    2390                    
    2391                    $C$DW$T$66      .dwtag  DW_TAG_typedef
    2392                            .dwattr $C$DW$T$66, DW_AT_name("FPTR_COMPAREF_T")
    2393                            .dwattr $C$DW$T$66, DW_AT_type(*$C$DW$T$64)
    2394                            .dwattr $C$DW$T$66, DW_AT_language(DW_LANG_C)
    2395                            .dwattr $C$DW$T$66, DW_AT_decl_file("C:\ti\simplelink_cc13x0_sdk_2_30_00_20\source\ti\devices\
    2396                            .dwattr $C$DW$T$66, DW_AT_decl_line(0x67)
    2397                            .dwattr $C$DW$T$66, DW_AT_decl_column(0x19)
    2398                    
    2399                    $C$DW$T$68      .dwtag  DW_TAG_typedef
    2400                            .dwattr $C$DW$T$68, DW_AT_name("FPTR_COMPBREF_T")
    2401                            .dwattr $C$DW$T$68, DW_AT_type(*$C$DW$T$64)
    2402                            .dwattr $C$DW$T$68, DW_AT_language(DW_LANG_C)
    2403                            .dwattr $C$DW$T$68, DW_AT_decl_file("C:\ti\simplelink_cc13x0_sdk_2_30_00_20\source\ti\devices\
    2404                            .dwattr $C$DW$T$68, DW_AT_decl_line(0x6b)
    2405                            .dwattr $C$DW$T$68, DW_AT_decl_column(0x19)
    2406                    
    2407                    $C$DW$T$209     .dwtag  DW_TAG_typedef
    2408                            .dwattr $C$DW$T$209, DW_AT_name("FPTR_VOID_UINT8_T")
    2409                            .dwattr $C$DW$T$209, DW_AT_type(*$C$DW$T$64)
    2410                            .dwattr $C$DW$T$209, DW_AT_language(DW_LANG_C)
    2411                            .dwattr $C$DW$T$209, DW_AT_decl_file("C:/ti/simplelink_cc13x0_sdk_2_30_00_20/source/ti/devices
    2412                            .dwattr $C$DW$T$209, DW_AT_decl_line(0x34)
    2413                            .dwattr $C$DW$T$209, DW_AT_decl_column(0x11)
    2414                    
    2415                    
TI ARM Assembler PC v18.1.3 Wed Nov 28 13:22:08 2018

Tools Copyright (c) 1996-2017 Texas Instruments Incorporated
C:\Users\Adrian\AppData\Local\Temp\{FE5CC9C4-3D95-42C7-8599-A02F5AAB02A5} PAGE   45

    2416                    $C$DW$T$87      .dwtag  DW_TAG_subroutine_type
    2417                            .dwattr $C$DW$T$87, DW_AT_language(DW_LANG_C)
    2418                    $C$DW$144       .dwtag  DW_TAG_formal_parameter
    2419                            .dwattr $C$DW$144, DW_AT_type(*$C$DW$T$21)
    2420                    
    2421                    $C$DW$145       .dwtag  DW_TAG_formal_parameter
    2422                            .dwattr $C$DW$145, DW_AT_type(*$C$DW$T$21)
    2423                    
    2424                            .dwendtag $C$DW$T$87
    2425                    
    2426                    $C$DW$T$88      .dwtag  DW_TAG_pointer_type
    2427                            .dwattr $C$DW$T$88, DW_AT_type(*$C$DW$T$87)
    2428                            .dwattr $C$DW$T$88, DW_AT_address_class(0x20)
    2429                    
    2430                    $C$DW$T$210     .dwtag  DW_TAG_typedef
    2431                            .dwattr $C$DW$T$210, DW_AT_name("assertCback_t")
    2432                            .dwattr $C$DW$T$210, DW_AT_type(*$C$DW$T$88)
    2433                            .dwattr $C$DW$T$210, DW_AT_language(DW_LANG_C)
    2434                            .dwattr $C$DW$T$210, DW_AT_decl_file("C:/ti/simplelink_cc13x0_sdk_2_30_00_20/source/ti/ti154st
    2435                            .dwattr $C$DW$T$210, DW_AT_decl_line(0xd3)
    2436                            .dwattr $C$DW$T$210, DW_AT_decl_column(0x10)
    2437                    
    2438                    $C$DW$T$89      .dwtag  DW_TAG_typedef
    2439                            .dwattr $C$DW$T$89, DW_AT_name("halUARTCBack_t")
    2440                            .dwattr $C$DW$T$89, DW_AT_type(*$C$DW$T$88)
    2441                            .dwattr $C$DW$T$89, DW_AT_language(DW_LANG_C)
    2442                            .dwattr $C$DW$T$89, DW_AT_decl_file("C:/ti/simplelink_cc13x0_sdk_2_30_00_20/source/ti/ti154sta
    2443                            .dwattr $C$DW$T$89, DW_AT_decl_line(0x7b)
    2444                            .dwattr $C$DW$T$89, DW_AT_decl_column(0x10)
    2445                    
    2446                    
    2447                    $C$DW$T$109     .dwtag  DW_TAG_subroutine_type
    2448                            .dwattr $C$DW$T$109, DW_AT_language(DW_LANG_C)
    2449                    $C$DW$146       .dwtag  DW_TAG_formal_parameter
    2450                            .dwattr $C$DW$146, DW_AT_type(*$C$DW$T$107)
    2451                    
    2452                            .dwendtag $C$DW$T$109
    2453                    
    2454                    $C$DW$T$110     .dwtag  DW_TAG_pointer_type
    2455                            .dwattr $C$DW$T$110, DW_AT_type(*$C$DW$T$109)
    2456                            .dwattr $C$DW$T$110, DW_AT_address_class(0x20)
    2457                    
    2458                    
    2459                    $C$DW$T$145     .dwtag  DW_TAG_subroutine_type
    2460                            .dwattr $C$DW$T$145, DW_AT_language(DW_LANG_C)
    2461                    $C$DW$147       .dwtag  DW_TAG_formal_parameter
    2462                            .dwattr $C$DW$147, DW_AT_type(*$C$DW$T$143)
    2463                    
    2464                    $C$DW$148       .dwtag  DW_TAG_formal_parameter
    2465                            .dwattr $C$DW$148, DW_AT_type(*$C$DW$T$144)
    2466                    
    2467                            .dwendtag $C$DW$T$145
    2468                    
    2469                    $C$DW$T$146     .dwtag  DW_TAG_pointer_type
    2470                            .dwattr $C$DW$T$146, DW_AT_type(*$C$DW$T$145)
TI ARM Assembler PC v18.1.3 Wed Nov 28 13:22:08 2018

Tools Copyright (c) 1996-2017 Texas Instruments Incorporated
C:\Users\Adrian\AppData\Local\Temp\{FE5CC9C4-3D95-42C7-8599-A02F5AAB02A5} PAGE   46

    2471                            .dwattr $C$DW$T$146, DW_AT_address_class(0x20)
    2472                    
    2473                    $C$DW$T$147     .dwtag  DW_TAG_typedef
    2474                            .dwattr $C$DW$T$147, DW_AT_name("ICall_PwrNotifyFn")
    2475                            .dwattr $C$DW$T$147, DW_AT_type(*$C$DW$T$146)
    2476                            .dwattr $C$DW$T$147, DW_AT_language(DW_LANG_C)
    2477                            .dwattr $C$DW$T$147, DW_AT_decl_file("C:/ti/simplelink_cc13x0_sdk_2_30_00_20/source/ti/ti154st
    2478                            .dwattr $C$DW$T$147, DW_AT_decl_line(0x333)
    2479                            .dwattr $C$DW$T$147, DW_AT_decl_column(0x10)
    2480                    
    2481                    
    2482                    $C$DW$T$161     .dwtag  DW_TAG_subroutine_type
    2483                            .dwattr $C$DW$T$161, DW_AT_language(DW_LANG_C)
    2484                    $C$DW$149       .dwtag  DW_TAG_formal_parameter
    2485                            .dwattr $C$DW$149, DW_AT_type(*$C$DW$T$157)
    2486                    
    2487                            .dwendtag $C$DW$T$161
    2488                    
    2489                    $C$DW$T$162     .dwtag  DW_TAG_pointer_type
    2490                            .dwattr $C$DW$T$162, DW_AT_type(*$C$DW$T$161)
    2491                            .dwattr $C$DW$T$162, DW_AT_address_class(0x20)
    2492                    
    2493                    $C$DW$T$163     .dwtag  DW_TAG_typedef
    2494                            .dwattr $C$DW$T$163, DW_AT_name("ICall_LeaveCS")
    2495                            .dwattr $C$DW$T$163, DW_AT_type(*$C$DW$T$162)
    2496                            .dwattr $C$DW$T$163, DW_AT_language(DW_LANG_C)
    2497                            .dwattr $C$DW$T$163, DW_AT_decl_file("C:/ti/simplelink_cc13x0_sdk_2_30_00_20/source/ti/ti154st
    2498                            .dwattr $C$DW$T$163, DW_AT_decl_line(0x37e)
    2499                            .dwattr $C$DW$T$163, DW_AT_decl_column(0x10)
    2500                    
    2501                    
    2502                    $C$DW$T$168     .dwtag  DW_TAG_subroutine_type
    2503                            .dwattr $C$DW$T$168, DW_AT_language(DW_LANG_C)
    2504                    $C$DW$150       .dwtag  DW_TAG_formal_parameter
    2505                            .dwattr $C$DW$150, DW_AT_type(*$C$DW$T$3)
    2506                    
    2507                            .dwendtag $C$DW$T$168
    2508                    
    2509                    $C$DW$T$169     .dwtag  DW_TAG_pointer_type
    2510                            .dwattr $C$DW$T$169, DW_AT_type(*$C$DW$T$168)
    2511                            .dwattr $C$DW$T$169, DW_AT_address_class(0x20)
    2512                    
    2513                    $C$DW$T$170     .dwtag  DW_TAG_typedef
    2514                            .dwattr $C$DW$T$170, DW_AT_name("ICall_TimerCback")
    2515                            .dwattr $C$DW$T$170, DW_AT_type(*$C$DW$T$169)
    2516                            .dwattr $C$DW$T$170, DW_AT_language(DW_LANG_C)
    2517                            .dwattr $C$DW$T$170, DW_AT_decl_file("C:/ti/simplelink_cc13x0_sdk_2_30_00_20/source/ti/ti154st
    2518                            .dwattr $C$DW$T$170, DW_AT_decl_line(0x1c8)
    2519                            .dwattr $C$DW$T$170, DW_AT_decl_column(0x10)
    2520                    
    2521                    $C$DW$T$211     .dwtag  DW_TAG_typedef
    2522                            .dwattr $C$DW$T$211, DW_AT_name("osal_highres_timer_cback_t")
    2523                            .dwattr $C$DW$T$211, DW_AT_type(*$C$DW$T$169)
    2524                            .dwattr $C$DW$T$211, DW_AT_language(DW_LANG_C)
    2525                            .dwattr $C$DW$T$211, DW_AT_decl_file("C:/ti/simplelink_cc13x0_sdk_2_30_00_20/source/ti/ti154st
TI ARM Assembler PC v18.1.3 Wed Nov 28 13:22:08 2018

Tools Copyright (c) 1996-2017 Texas Instruments Incorporated
C:\Users\Adrian\AppData\Local\Temp\{FE5CC9C4-3D95-42C7-8599-A02F5AAB02A5} PAGE   47

    2526                            .dwattr $C$DW$T$211, DW_AT_decl_line(0x81)
    2527                            .dwattr $C$DW$T$211, DW_AT_decl_column(0x10)
    2528                    
    2529                    $C$DW$T$212     .dwtag  DW_TAG_typedef
    2530                            .dwattr $C$DW$T$212, DW_AT_name("osal_icallMsg_hook_t")
    2531                            .dwattr $C$DW$T$212, DW_AT_type(*$C$DW$T$169)
    2532                            .dwattr $C$DW$T$212, DW_AT_language(DW_LANG_C)
    2533                            .dwattr $C$DW$T$212, DW_AT_decl_file("C:/ti/simplelink_cc13x0_sdk_2_30_00_20/source/ti/ti154st
    2534                            .dwattr $C$DW$T$212, DW_AT_decl_line(0x85)
    2535                            .dwattr $C$DW$T$212, DW_AT_decl_column(0x10)
    2536                    
    2537                    $C$DW$T$177     .dwtag  DW_TAG_const_type
    2538                            .dwattr $C$DW$T$177, DW_AT_type(*$C$DW$T$2)
    2539                    
    2540                    $C$DW$T$178     .dwtag  DW_TAG_pointer_type
    2541                            .dwattr $C$DW$T$178, DW_AT_type(*$C$DW$T$177)
    2542                            .dwattr $C$DW$T$178, DW_AT_address_class(0x20)
    2543                    
    2544                    
    2545                    $C$DW$T$221     .dwtag  DW_TAG_subroutine_type
    2546                            .dwattr $C$DW$T$221, DW_AT_language(DW_LANG_C)
    2547                    $C$DW$151       .dwtag  DW_TAG_formal_parameter
    2548                            .dwattr $C$DW$151, DW_AT_type(*$C$DW$T$220)
    2549                    
    2550                    $C$DW$152       .dwtag  DW_TAG_formal_parameter
    2551                            .dwattr $C$DW$152, DW_AT_type(*$C$DW$T$3)
    2552                    
    2553                            .dwendtag $C$DW$T$221
    2554                    
    2555                    $C$DW$T$222     .dwtag  DW_TAG_pointer_type
    2556                            .dwattr $C$DW$T$222, DW_AT_type(*$C$DW$T$221)
    2557                            .dwattr $C$DW$T$222, DW_AT_address_class(0x20)
    2558                    
    2559                    $C$DW$T$223     .dwtag  DW_TAG_typedef
    2560                            .dwattr $C$DW$T$223, DW_AT_name("ICall_RemoteTaskEntry")
    2561                            .dwattr $C$DW$T$223, DW_AT_type(*$C$DW$T$222)
    2562                            .dwattr $C$DW$T$223, DW_AT_language(DW_LANG_C)
    2563                            .dwattr $C$DW$T$223, DW_AT_decl_file("C:/ti/simplelink_cc13x0_sdk_2_30_00_20/source/ti/ti154st
    2564                            .dwattr $C$DW$T$223, DW_AT_decl_line(0x39b)
    2565                            .dwattr $C$DW$T$223, DW_AT_decl_column(0x10)
    2566                    
    2567                    $C$DW$T$4       .dwtag  DW_TAG_base_type
    2568                            .dwattr $C$DW$T$4, DW_AT_encoding(DW_ATE_boolean)
    2569                            .dwattr $C$DW$T$4, DW_AT_name("bool")
    2570                            .dwattr $C$DW$T$4, DW_AT_byte_size(0x01)
    2571                    
    2572                    $C$DW$T$5       .dwtag  DW_TAG_base_type
    2573                            .dwattr $C$DW$T$5, DW_AT_encoding(DW_ATE_signed_char)
    2574                            .dwattr $C$DW$T$5, DW_AT_name("signed char")
    2575                            .dwattr $C$DW$T$5, DW_AT_byte_size(0x01)
    2576                    
    2577                    $C$DW$T$224     .dwtag  DW_TAG_typedef
    2578                            .dwattr $C$DW$T$224, DW_AT_name("__int8_t")
    2579                            .dwattr $C$DW$T$224, DW_AT_type(*$C$DW$T$5)
    2580                            .dwattr $C$DW$T$224, DW_AT_language(DW_LANG_C)
TI ARM Assembler PC v18.1.3 Wed Nov 28 13:22:08 2018

Tools Copyright (c) 1996-2017 Texas Instruments Incorporated
C:\Users\Adrian\AppData\Local\Temp\{FE5CC9C4-3D95-42C7-8599-A02F5AAB02A5} PAGE   48

    2581                            .dwattr $C$DW$T$224, DW_AT_decl_file("C:/ti/ccsv8/tools/compiler/ti-cgt-arm_18.1.3.LTS/include
    2582                            .dwattr $C$DW$T$224, DW_AT_decl_line(0x39)
    2583                            .dwattr $C$DW$T$224, DW_AT_decl_column(0x16)
    2584                    
    2585                    $C$DW$T$225     .dwtag  DW_TAG_typedef
    2586                            .dwattr $C$DW$T$225, DW_AT_name("__int_least8_t")
    2587                            .dwattr $C$DW$T$225, DW_AT_type(*$C$DW$T$224)
    2588                            .dwattr $C$DW$T$225, DW_AT_language(DW_LANG_C)
    2589                            .dwattr $C$DW$T$225, DW_AT_decl_file("C:/ti/ccsv8/tools/compiler/ti-cgt-arm_18.1.3.LTS/include
    2590                            .dwattr $C$DW$T$225, DW_AT_decl_line(0x58)
    2591                            .dwattr $C$DW$T$225, DW_AT_decl_column(0x12)
    2592                    
    2593                    $C$DW$T$226     .dwtag  DW_TAG_typedef
    2594                            .dwattr $C$DW$T$226, DW_AT_name("int_least8_t")
    2595                            .dwattr $C$DW$T$226, DW_AT_type(*$C$DW$T$225)
    2596                            .dwattr $C$DW$T$226, DW_AT_language(DW_LANG_C)
    2597                            .dwattr $C$DW$T$226, DW_AT_decl_file("C:/ti/ccsv8/tools/compiler/ti-cgt-arm_18.1.3.LTS/include
    2598                            .dwattr $C$DW$T$226, DW_AT_decl_line(0x28)
    2599                            .dwattr $C$DW$T$226, DW_AT_decl_column(0x19)
    2600                    
    2601                    $C$DW$T$227     .dwtag  DW_TAG_typedef
    2602                            .dwattr $C$DW$T$227, DW_AT_name("int8_t")
    2603                            .dwattr $C$DW$T$227, DW_AT_type(*$C$DW$T$224)
    2604                            .dwattr $C$DW$T$227, DW_AT_language(DW_LANG_C)
    2605                            .dwattr $C$DW$T$227, DW_AT_decl_file("C:/ti/ccsv8/tools/compiler/ti-cgt-arm_18.1.3.LTS/include
    2606                            .dwattr $C$DW$T$227, DW_AT_decl_line(0x24)
    2607                            .dwattr $C$DW$T$227, DW_AT_decl_column(0x13)
    2608                    
    2609                    $C$DW$T$228     .dwtag  DW_TAG_typedef
    2610                            .dwattr $C$DW$T$228, DW_AT_name("int8")
    2611                            .dwattr $C$DW$T$228, DW_AT_type(*$C$DW$T$5)
    2612                            .dwattr $C$DW$T$228, DW_AT_language(DW_LANG_C)
    2613                            .dwattr $C$DW$T$228, DW_AT_decl_file("C:\ti\simplelink_cc13x0_sdk_2_30_00_20\source\ti\ti154st
    2614                            .dwattr $C$DW$T$228, DW_AT_decl_line(0x38)
    2615                            .dwattr $C$DW$T$228, DW_AT_decl_column(0x19)
    2616                    
    2617                    $C$DW$T$6       .dwtag  DW_TAG_base_type
    2618                            .dwattr $C$DW$T$6, DW_AT_encoding(DW_ATE_unsigned_char)
    2619                            .dwattr $C$DW$T$6, DW_AT_name("unsigned char")
    2620                            .dwattr $C$DW$T$6, DW_AT_byte_size(0x01)
    2621                    
    2622                    $C$DW$T$27      .dwtag  DW_TAG_typedef
    2623                            .dwattr $C$DW$T$27, DW_AT_name("__uint8_t")
    2624                            .dwattr $C$DW$T$27, DW_AT_type(*$C$DW$T$6)
    2625                            .dwattr $C$DW$T$27, DW_AT_language(DW_LANG_C)
    2626                            .dwattr $C$DW$T$27, DW_AT_decl_file("C:/ti/ccsv8/tools/compiler/ti-cgt-arm_18.1.3.LTS/include/
    2627                            .dwattr $C$DW$T$27, DW_AT_decl_line(0x3a)
    2628                            .dwattr $C$DW$T$27, DW_AT_decl_column(0x18)
    2629                    
    2630                    $C$DW$T$234     .dwtag  DW_TAG_typedef
    2631                            .dwattr $C$DW$T$234, DW_AT_name("__sa_family_t")
    2632                            .dwattr $C$DW$T$234, DW_AT_type(*$C$DW$T$27)
    2633                            .dwattr $C$DW$T$234, DW_AT_language(DW_LANG_C)
    2634                            .dwattr $C$DW$T$234, DW_AT_decl_file("C:/ti/ccsv8/tools/compiler/ti-cgt-arm_18.1.3.LTS/include
    2635                            .dwattr $C$DW$T$234, DW_AT_decl_line(0x43)
TI ARM Assembler PC v18.1.3 Wed Nov 28 13:22:08 2018

Tools Copyright (c) 1996-2017 Texas Instruments Incorporated
C:\Users\Adrian\AppData\Local\Temp\{FE5CC9C4-3D95-42C7-8599-A02F5AAB02A5} PAGE   49

    2636                            .dwattr $C$DW$T$234, DW_AT_decl_column(0x13)
    2637                    
    2638                    $C$DW$T$94      .dwtag  DW_TAG_typedef
    2639                            .dwattr $C$DW$T$94, DW_AT_name("__uint_least8_t")
    2640                            .dwattr $C$DW$T$94, DW_AT_type(*$C$DW$T$27)
    2641                            .dwattr $C$DW$T$94, DW_AT_language(DW_LANG_C)
    2642                            .dwattr $C$DW$T$94, DW_AT_decl_file("C:/ti/ccsv8/tools/compiler/ti-cgt-arm_18.1.3.LTS/include/
    2643                            .dwattr $C$DW$T$94, DW_AT_decl_line(0x6d)
    2644                            .dwattr $C$DW$T$94, DW_AT_decl_column(0x13)
    2645                    
    2646                    $C$DW$T$95      .dwtag  DW_TAG_typedef
    2647                            .dwattr $C$DW$T$95, DW_AT_name("uint_least8_t")
    2648                            .dwattr $C$DW$T$95, DW_AT_type(*$C$DW$T$94)
    2649                            .dwattr $C$DW$T$95, DW_AT_language(DW_LANG_C)
    2650                            .dwattr $C$DW$T$95, DW_AT_decl_file("C:/ti/ccsv8/tools/compiler/ti-cgt-arm_18.1.3.LTS/include/
    2651                            .dwattr $C$DW$T$95, DW_AT_decl_line(0x2d)
    2652                            .dwattr $C$DW$T$95, DW_AT_decl_column(0x1a)
    2653                    
    2654                    $C$DW$T$96      .dwtag  DW_TAG_typedef
    2655                            .dwattr $C$DW$T$96, DW_AT_name("ICall_EntityID")
    2656                            .dwattr $C$DW$T$96, DW_AT_type(*$C$DW$T$95)
    2657                            .dwattr $C$DW$T$96, DW_AT_language(DW_LANG_C)
    2658                            .dwattr $C$DW$T$96, DW_AT_decl_file("C:/ti/simplelink_cc13x0_sdk_2_30_00_20/source/ti/ti154sta
    2659                            .dwattr $C$DW$T$96, DW_AT_decl_line(0x1b4)
    2660                            .dwattr $C$DW$T$96, DW_AT_decl_column(0x17)
    2661                    
    2662                    $C$DW$T$165     .dwtag  DW_TAG_typedef
    2663                            .dwattr $C$DW$T$165, DW_AT_name("ICall_MSGFormat")
    2664                            .dwattr $C$DW$T$165, DW_AT_type(*$C$DW$T$95)
    2665                            .dwattr $C$DW$T$165, DW_AT_language(DW_LANG_C)
    2666                            .dwattr $C$DW$T$165, DW_AT_decl_file("C:/ti/simplelink_cc13x0_sdk_2_30_00_20/source/ti/ti154st
    2667                            .dwattr $C$DW$T$165, DW_AT_decl_line(0x1a4)
    2668                            .dwattr $C$DW$T$165, DW_AT_decl_column(0x17)
    2669                    
    2670                    $C$DW$T$28      .dwtag  DW_TAG_typedef
    2671                            .dwattr $C$DW$T$28, DW_AT_name("uint8_t")
    2672                            .dwattr $C$DW$T$28, DW_AT_type(*$C$DW$T$27)
    2673                            .dwattr $C$DW$T$28, DW_AT_language(DW_LANG_C)
    2674                            .dwattr $C$DW$T$28, DW_AT_decl_file("C:/ti/ccsv8/tools/compiler/ti-cgt-arm_18.1.3.LTS/include/
    2675                            .dwattr $C$DW$T$28, DW_AT_decl_line(0x38)
    2676                            .dwattr $C$DW$T$28, DW_AT_decl_column(0x14)
    2677                    
    2678                    $C$DW$T$29      .dwtag  DW_TAG_pointer_type
    2679                            .dwattr $C$DW$T$29, DW_AT_type(*$C$DW$T$28)
    2680                            .dwattr $C$DW$T$29, DW_AT_address_class(0x20)
    2681                    
    2682                    $C$DW$T$235     .dwtag  DW_TAG_volatile_type
    2683                            .dwattr $C$DW$T$235, DW_AT_type(*$C$DW$T$28)
    2684                    
    2685                    $C$DW$T$236     .dwtag  DW_TAG_typedef
    2686                            .dwattr $C$DW$T$236, DW_AT_name("tFwpWriteByte")
    2687                            .dwattr $C$DW$T$236, DW_AT_type(*$C$DW$T$235)
    2688                            .dwattr $C$DW$T$236, DW_AT_language(DW_LANG_C)
    2689                            .dwattr $C$DW$T$236, DW_AT_decl_file("C:/ti/simplelink_cc13x0_sdk_2_30_00_20/source/ti/devices
    2690                            .dwattr $C$DW$T$236, DW_AT_decl_line(0xde)
TI ARM Assembler PC v18.1.3 Wed Nov 28 13:22:08 2018

Tools Copyright (c) 1996-2017 Texas Instruments Incorporated
C:\Users\Adrian\AppData\Local\Temp\{FE5CC9C4-3D95-42C7-8599-A02F5AAB02A5} PAGE   50

    2691                            .dwattr $C$DW$T$236, DW_AT_decl_column(0x1a)
    2692                    
    2693                    $C$DW$T$21      .dwtag  DW_TAG_typedef
    2694                            .dwattr $C$DW$T$21, DW_AT_name("uint8")
    2695                            .dwattr $C$DW$T$21, DW_AT_type(*$C$DW$T$6)
    2696                            .dwattr $C$DW$T$21, DW_AT_language(DW_LANG_C)
    2697                            .dwattr $C$DW$T$21, DW_AT_decl_file("C:\ti\simplelink_cc13x0_sdk_2_30_00_20\source\ti\ti154sta
    2698                            .dwattr $C$DW$T$21, DW_AT_decl_line(0x39)
    2699                            .dwattr $C$DW$T$21, DW_AT_decl_column(0x19)
    2700                    
    2701                    $C$DW$T$237     .dwtag  DW_TAG_typedef
    2702                            .dwattr $C$DW$T$237, DW_AT_name("Status_t")
    2703                            .dwattr $C$DW$T$237, DW_AT_type(*$C$DW$T$21)
    2704                            .dwattr $C$DW$T$237, DW_AT_language(DW_LANG_C)
    2705                            .dwattr $C$DW$T$237, DW_AT_decl_file("..\Application\MAC\OSAL\comdef.h")
    2706                            .dwattr $C$DW$T$237, DW_AT_decl_line(0x77)
    2707                            .dwattr $C$DW$T$237, DW_AT_decl_column(0x0f)
    2708                    
    2709                    $C$DW$T$82      .dwtag  DW_TAG_pointer_type
    2710                            .dwattr $C$DW$T$82, DW_AT_type(*$C$DW$T$21)
    2711                            .dwattr $C$DW$T$82, DW_AT_address_class(0x20)
    2712                    
    2713                    $C$DW$T$239     .dwtag  DW_TAG_const_type
    2714                            .dwattr $C$DW$T$239, DW_AT_type(*$C$DW$T$21)
    2715                    
    2716                    $C$DW$T$7       .dwtag  DW_TAG_base_type
    2717                            .dwattr $C$DW$T$7, DW_AT_encoding(DW_ATE_signed_char)
    2718                            .dwattr $C$DW$T$7, DW_AT_name("wchar_t")
    2719                            .dwattr $C$DW$T$7, DW_AT_byte_size(0x02)
    2720                    
    2721                    $C$DW$T$8       .dwtag  DW_TAG_base_type
    2722                            .dwattr $C$DW$T$8, DW_AT_encoding(DW_ATE_signed)
    2723                            .dwattr $C$DW$T$8, DW_AT_name("short")
    2724                            .dwattr $C$DW$T$8, DW_AT_byte_size(0x02)
    2725                    
    2726                    $C$DW$T$240     .dwtag  DW_TAG_typedef
    2727                            .dwattr $C$DW$T$240, DW_AT_name("__int16_t")
    2728                            .dwattr $C$DW$T$240, DW_AT_type(*$C$DW$T$8)
    2729                            .dwattr $C$DW$T$240, DW_AT_language(DW_LANG_C)
    2730                            .dwattr $C$DW$T$240, DW_AT_decl_file("C:/ti/ccsv8/tools/compiler/ti-cgt-arm_18.1.3.LTS/include
    2731                            .dwattr $C$DW$T$240, DW_AT_decl_line(0x3b)
    2732                            .dwattr $C$DW$T$240, DW_AT_decl_column(0x11)
    2733                    
    2734                    $C$DW$T$241     .dwtag  DW_TAG_typedef
    2735                            .dwattr $C$DW$T$241, DW_AT_name("__int_least16_t")
    2736                            .dwattr $C$DW$T$241, DW_AT_type(*$C$DW$T$240)
    2737                            .dwattr $C$DW$T$241, DW_AT_language(DW_LANG_C)
    2738                            .dwattr $C$DW$T$241, DW_AT_decl_file("C:/ti/ccsv8/tools/compiler/ti-cgt-arm_18.1.3.LTS/include
    2739                            .dwattr $C$DW$T$241, DW_AT_decl_line(0x59)
    2740                            .dwattr $C$DW$T$241, DW_AT_decl_column(0x13)
    2741                    
    2742                    $C$DW$T$242     .dwtag  DW_TAG_typedef
    2743                            .dwattr $C$DW$T$242, DW_AT_name("int_least16_t")
    2744                            .dwattr $C$DW$T$242, DW_AT_type(*$C$DW$T$241)
    2745                            .dwattr $C$DW$T$242, DW_AT_language(DW_LANG_C)
TI ARM Assembler PC v18.1.3 Wed Nov 28 13:22:08 2018

Tools Copyright (c) 1996-2017 Texas Instruments Incorporated
C:\Users\Adrian\AppData\Local\Temp\{FE5CC9C4-3D95-42C7-8599-A02F5AAB02A5} PAGE   51

    2746                            .dwattr $C$DW$T$242, DW_AT_decl_file("C:/ti/ccsv8/tools/compiler/ti-cgt-arm_18.1.3.LTS/include
    2747                            .dwattr $C$DW$T$242, DW_AT_decl_line(0x29)
    2748                            .dwattr $C$DW$T$242, DW_AT_decl_column(0x1a)
    2749                    
    2750                    $C$DW$T$243     .dwtag  DW_TAG_typedef
    2751                            .dwattr $C$DW$T$243, DW_AT_name("int16_t")
    2752                            .dwattr $C$DW$T$243, DW_AT_type(*$C$DW$T$240)
    2753                            .dwattr $C$DW$T$243, DW_AT_language(DW_LANG_C)
    2754                            .dwattr $C$DW$T$243, DW_AT_decl_file("C:/ti/ccsv8/tools/compiler/ti-cgt-arm_18.1.3.LTS/include
    2755                            .dwattr $C$DW$T$243, DW_AT_decl_line(0x29)
    2756                            .dwattr $C$DW$T$243, DW_AT_decl_column(0x14)
    2757                    
    2758                    $C$DW$T$244     .dwtag  DW_TAG_typedef
    2759                            .dwattr $C$DW$T$244, DW_AT_name("int16")
    2760                            .dwattr $C$DW$T$244, DW_AT_type(*$C$DW$T$8)
    2761                            .dwattr $C$DW$T$244, DW_AT_language(DW_LANG_C)
    2762                            .dwattr $C$DW$T$244, DW_AT_decl_file("C:\ti\simplelink_cc13x0_sdk_2_30_00_20\source\ti\ti154st
    2763                            .dwattr $C$DW$T$244, DW_AT_decl_line(0x3b)
    2764                            .dwattr $C$DW$T$244, DW_AT_decl_column(0x19)
    2765                    
    2766                    $C$DW$T$9       .dwtag  DW_TAG_base_type
    2767                            .dwattr $C$DW$T$9, DW_AT_encoding(DW_ATE_unsigned)
    2768                            .dwattr $C$DW$T$9, DW_AT_name("unsigned short")
    2769                            .dwattr $C$DW$T$9, DW_AT_byte_size(0x02)
    2770                    
    2771                    $C$DW$T$245     .dwtag  DW_TAG_typedef
    2772                            .dwattr $C$DW$T$245, DW_AT_name("___wchar_t")
    2773                            .dwattr $C$DW$T$245, DW_AT_type(*$C$DW$T$9)
    2774                            .dwattr $C$DW$T$245, DW_AT_language(DW_LANG_C)
    2775                            .dwattr $C$DW$T$245, DW_AT_decl_file("C:/ti/ccsv8/tools/compiler/ti-cgt-arm_18.1.3.LTS/include
    2776                            .dwattr $C$DW$T$245, DW_AT_decl_line(0x76)
    2777                            .dwattr $C$DW$T$245, DW_AT_decl_column(0x1a)
    2778                    
    2779                    $C$DW$T$45      .dwtag  DW_TAG_typedef
    2780                            .dwattr $C$DW$T$45, DW_AT_name("__uint16_t")
    2781                            .dwattr $C$DW$T$45, DW_AT_type(*$C$DW$T$9)
    2782                            .dwattr $C$DW$T$45, DW_AT_language(DW_LANG_C)
    2783                            .dwattr $C$DW$T$45, DW_AT_decl_file("C:/ti/ccsv8/tools/compiler/ti-cgt-arm_18.1.3.LTS/include/
    2784                            .dwattr $C$DW$T$45, DW_AT_decl_line(0x3c)
    2785                            .dwattr $C$DW$T$45, DW_AT_decl_column(0x19)
    2786                    
    2787                    $C$DW$T$248     .dwtag  DW_TAG_typedef
    2788                            .dwattr $C$DW$T$248, DW_AT_name("__mode_t")
    2789                            .dwattr $C$DW$T$248, DW_AT_type(*$C$DW$T$45)
    2790                            .dwattr $C$DW$T$248, DW_AT_language(DW_LANG_C)
    2791                            .dwattr $C$DW$T$248, DW_AT_decl_file("C:/ti/ccsv8/tools/compiler/ti-cgt-arm_18.1.3.LTS/include
    2792                            .dwattr $C$DW$T$248, DW_AT_decl_line(0x39)
    2793                            .dwattr $C$DW$T$248, DW_AT_decl_column(0x14)
    2794                    
    2795                    $C$DW$T$97      .dwtag  DW_TAG_typedef
    2796                            .dwattr $C$DW$T$97, DW_AT_name("__uint_least16_t")
    2797                            .dwattr $C$DW$T$97, DW_AT_type(*$C$DW$T$45)
    2798                            .dwattr $C$DW$T$97, DW_AT_language(DW_LANG_C)
    2799                            .dwattr $C$DW$T$97, DW_AT_decl_file("C:/ti/ccsv8/tools/compiler/ti-cgt-arm_18.1.3.LTS/include/
    2800                            .dwattr $C$DW$T$97, DW_AT_decl_line(0x6e)
TI ARM Assembler PC v18.1.3 Wed Nov 28 13:22:08 2018

Tools Copyright (c) 1996-2017 Texas Instruments Incorporated
C:\Users\Adrian\AppData\Local\Temp\{FE5CC9C4-3D95-42C7-8599-A02F5AAB02A5} PAGE   52

    2801                            .dwattr $C$DW$T$97, DW_AT_decl_column(0x14)
    2802                    
    2803                    $C$DW$T$249     .dwtag  DW_TAG_typedef
    2804                            .dwattr $C$DW$T$249, DW_AT_name("__char16_t")
    2805                            .dwattr $C$DW$T$249, DW_AT_type(*$C$DW$T$97)
    2806                            .dwattr $C$DW$T$249, DW_AT_language(DW_LANG_C)
    2807                            .dwattr $C$DW$T$249, DW_AT_decl_file("C:/ti/ccsv8/tools/compiler/ti-cgt-arm_18.1.3.LTS/include
    2808                            .dwattr $C$DW$T$249, DW_AT_decl_line(0x66)
    2809                            .dwattr $C$DW$T$249, DW_AT_decl_column(0x1a)
    2810                    
    2811                    $C$DW$T$98      .dwtag  DW_TAG_typedef
    2812                            .dwattr $C$DW$T$98, DW_AT_name("uint_least16_t")
    2813                            .dwattr $C$DW$T$98, DW_AT_type(*$C$DW$T$97)
    2814                            .dwattr $C$DW$T$98, DW_AT_language(DW_LANG_C)
    2815                            .dwattr $C$DW$T$98, DW_AT_decl_file("C:/ti/ccsv8/tools/compiler/ti-cgt-arm_18.1.3.LTS/include/
    2816                            .dwattr $C$DW$T$98, DW_AT_decl_line(0x2e)
    2817                            .dwattr $C$DW$T$98, DW_AT_decl_column(0x1a)
    2818                    
    2819                    $C$DW$T$125     .dwtag  DW_TAG_typedef
    2820                            .dwattr $C$DW$T$125, DW_AT_name("ICall_FuncID")
    2821                            .dwattr $C$DW$T$125, DW_AT_type(*$C$DW$T$98)
    2822                            .dwattr $C$DW$T$125, DW_AT_language(DW_LANG_C)
    2823                            .dwattr $C$DW$T$125, DW_AT_decl_file("C:/ti/simplelink_cc13x0_sdk_2_30_00_20/source/ti/ti154st
    2824                            .dwattr $C$DW$T$125, DW_AT_decl_line(0x1a7)
    2825                            .dwattr $C$DW$T$125, DW_AT_decl_column(0x18)
    2826                    
    2827                    $C$DW$T$99      .dwtag  DW_TAG_typedef
    2828                            .dwattr $C$DW$T$99, DW_AT_name("ICall_ServiceEnum")
    2829                            .dwattr $C$DW$T$99, DW_AT_type(*$C$DW$T$98)
    2830                            .dwattr $C$DW$T$99, DW_AT_language(DW_LANG_C)
    2831                            .dwattr $C$DW$T$99, DW_AT_decl_file("C:/ti/simplelink_cc13x0_sdk_2_30_00_20/source/ti/ti154sta
    2832                            .dwattr $C$DW$T$99, DW_AT_decl_line(0x1a1)
    2833                            .dwattr $C$DW$T$99, DW_AT_decl_column(0x18)
    2834                    
    2835                    $C$DW$T$46      .dwtag  DW_TAG_typedef
    2836                            .dwattr $C$DW$T$46, DW_AT_name("uint16_t")
    2837                            .dwattr $C$DW$T$46, DW_AT_type(*$C$DW$T$45)
    2838                            .dwattr $C$DW$T$46, DW_AT_language(DW_LANG_C)
    2839                            .dwattr $C$DW$T$46, DW_AT_decl_file("C:/ti/ccsv8/tools/compiler/ti-cgt-arm_18.1.3.LTS/include/
    2840                            .dwattr $C$DW$T$46, DW_AT_decl_line(0x3d)
    2841                            .dwattr $C$DW$T$46, DW_AT_decl_column(0x15)
    2842                    
    2843                    $C$DW$T$47      .dwtag  DW_TAG_pointer_type
    2844                            .dwattr $C$DW$T$47, DW_AT_type(*$C$DW$T$46)
    2845                            .dwattr $C$DW$T$47, DW_AT_address_class(0x20)
    2846                    
    2847                    $C$DW$T$22      .dwtag  DW_TAG_typedef
    2848                            .dwattr $C$DW$T$22, DW_AT_name("uint16")
    2849                            .dwattr $C$DW$T$22, DW_AT_type(*$C$DW$T$9)
    2850                            .dwattr $C$DW$T$22, DW_AT_language(DW_LANG_C)
    2851                            .dwattr $C$DW$T$22, DW_AT_decl_file("C:\ti\simplelink_cc13x0_sdk_2_30_00_20\source\ti\ti154sta
    2852                            .dwattr $C$DW$T$22, DW_AT_decl_line(0x3c)
    2853                            .dwattr $C$DW$T$22, DW_AT_decl_column(0x19)
    2854                    
    2855                    $C$DW$T$81      .dwtag  DW_TAG_volatile_type
TI ARM Assembler PC v18.1.3 Wed Nov 28 13:22:08 2018

Tools Copyright (c) 1996-2017 Texas Instruments Incorporated
C:\Users\Adrian\AppData\Local\Temp\{FE5CC9C4-3D95-42C7-8599-A02F5AAB02A5} PAGE   53

    2856                            .dwattr $C$DW$T$81, DW_AT_type(*$C$DW$T$22)
    2857                    
    2858                    $C$DW$T$250     .dwtag  DW_TAG_typedef
    2859                            .dwattr $C$DW$T$250, DW_AT_name("wchar_t")
    2860                            .dwattr $C$DW$T$250, DW_AT_type(*$C$DW$T$9)
    2861                            .dwattr $C$DW$T$250, DW_AT_language(DW_LANG_C)
    2862                            .dwattr $C$DW$T$250, DW_AT_decl_file("C:/ti/ccsv8/tools/compiler/ti-cgt-arm_18.1.3.LTS/include
    2863                            .dwattr $C$DW$T$250, DW_AT_decl_line(0x6e)
    2864                            .dwattr $C$DW$T$250, DW_AT_decl_column(0x1a)
    2865                    
    2866                    $C$DW$T$10      .dwtag  DW_TAG_base_type
    2867                            .dwattr $C$DW$T$10, DW_AT_encoding(DW_ATE_signed)
    2868                            .dwattr $C$DW$T$10, DW_AT_name("int")
    2869                            .dwattr $C$DW$T$10, DW_AT_byte_size(0x04)
    2870                    
    2871                    $C$DW$T$251     .dwtag  DW_TAG_typedef
    2872                            .dwattr $C$DW$T$251, DW_AT_name("_Mbstatet")
    2873                            .dwattr $C$DW$T$251, DW_AT_type(*$C$DW$T$10)
    2874                            .dwattr $C$DW$T$251, DW_AT_language(DW_LANG_C)
    2875                            .dwattr $C$DW$T$251, DW_AT_decl_file("C:/ti/ccsv8/tools/compiler/ti-cgt-arm_18.1.3.LTS/include
    2876                            .dwattr $C$DW$T$251, DW_AT_decl_line(0x84)
    2877                            .dwattr $C$DW$T$251, DW_AT_decl_column(0x0d)
    2878                    
    2879                    $C$DW$T$252     .dwtag  DW_TAG_typedef
    2880                            .dwattr $C$DW$T$252, DW_AT_name("__mbstate_t")
    2881                            .dwattr $C$DW$T$252, DW_AT_type(*$C$DW$T$251)
    2882                            .dwattr $C$DW$T$252, DW_AT_language(DW_LANG_C)
    2883                            .dwattr $C$DW$T$252, DW_AT_decl_file("C:/ti/ccsv8/tools/compiler/ti-cgt-arm_18.1.3.LTS/include
    2884                            .dwattr $C$DW$T$252, DW_AT_decl_line(0x87)
    2885                            .dwattr $C$DW$T$252, DW_AT_decl_column(0x13)
    2886                    
    2887                    $C$DW$T$253     .dwtag  DW_TAG_typedef
    2888                            .dwattr $C$DW$T$253, DW_AT_name("__accmode_t")
    2889                            .dwattr $C$DW$T$253, DW_AT_type(*$C$DW$T$10)
    2890                            .dwattr $C$DW$T$253, DW_AT_language(DW_LANG_C)
    2891                            .dwattr $C$DW$T$253, DW_AT_decl_file("C:/ti/ccsv8/tools/compiler/ti-cgt-arm_18.1.3.LTS/include
    2892                            .dwattr $C$DW$T$253, DW_AT_decl_line(0x3a)
    2893                            .dwattr $C$DW$T$253, DW_AT_decl_column(0x0e)
    2894                    
    2895                    
    2896                    $C$DW$T$254     .dwtag  DW_TAG_subroutine_type
    2897                            .dwattr $C$DW$T$254, DW_AT_type(*$C$DW$T$10)
    2898                            .dwattr $C$DW$T$254, DW_AT_language(DW_LANG_C)
    2899                    $C$DW$153       .dwtag  DW_TAG_formal_parameter
    2900                            .dwattr $C$DW$153, DW_AT_type(*$C$DW$T$178)
    2901                    
    2902                    $C$DW$154       .dwtag  DW_TAG_formal_parameter
    2903                            .dwattr $C$DW$154, DW_AT_type(*$C$DW$T$178)
    2904                    
    2905                            .dwendtag $C$DW$T$254
    2906                    
    2907                    $C$DW$T$255     .dwtag  DW_TAG_pointer_type
    2908                            .dwattr $C$DW$T$255, DW_AT_type(*$C$DW$T$254)
    2909                            .dwattr $C$DW$T$255, DW_AT_address_class(0x20)
    2910                    
TI ARM Assembler PC v18.1.3 Wed Nov 28 13:22:08 2018

Tools Copyright (c) 1996-2017 Texas Instruments Incorporated
C:\Users\Adrian\AppData\Local\Temp\{FE5CC9C4-3D95-42C7-8599-A02F5AAB02A5} PAGE   54

    2911                    $C$DW$T$256     .dwtag  DW_TAG_typedef
    2912                            .dwattr $C$DW$T$256, DW_AT_name("__TI_compar_fn")
    2913                            .dwattr $C$DW$T$256, DW_AT_type(*$C$DW$T$255)
    2914                            .dwattr $C$DW$T$256, DW_AT_language(DW_LANG_C)
    2915                            .dwattr $C$DW$T$256, DW_AT_decl_file("C:/ti/ccsv8/tools/compiler/ti-cgt-arm_18.1.3.LTS/include
    2916                            .dwattr $C$DW$T$256, DW_AT_decl_line(0xb5)
    2917                            .dwattr $C$DW$T$256, DW_AT_decl_column(0x13)
    2918                    
    2919                    $C$DW$T$257     .dwtag  DW_TAG_typedef
    2920                            .dwattr $C$DW$T$257, DW_AT_name("__cpulevel_t")
    2921                            .dwattr $C$DW$T$257, DW_AT_type(*$C$DW$T$10)
    2922                            .dwattr $C$DW$T$257, DW_AT_language(DW_LANG_C)
    2923                            .dwattr $C$DW$T$257, DW_AT_decl_file("C:/ti/ccsv8/tools/compiler/ti-cgt-arm_18.1.3.LTS/include
    2924                            .dwattr $C$DW$T$257, DW_AT_decl_line(0x4b)
    2925                            .dwattr $C$DW$T$257, DW_AT_decl_column(0x0e)
    2926                    
    2927                    $C$DW$T$258     .dwtag  DW_TAG_typedef
    2928                            .dwattr $C$DW$T$258, DW_AT_name("__cpusetid_t")
    2929                            .dwattr $C$DW$T$258, DW_AT_type(*$C$DW$T$10)
    2930                            .dwattr $C$DW$T$258, DW_AT_language(DW_LANG_C)
    2931                            .dwattr $C$DW$T$258, DW_AT_decl_file("C:/ti/ccsv8/tools/compiler/ti-cgt-arm_18.1.3.LTS/include
    2932                            .dwattr $C$DW$T$258, DW_AT_decl_line(0x4c)
    2933                            .dwattr $C$DW$T$258, DW_AT_decl_column(0x0e)
    2934                    
    2935                    $C$DW$T$259     .dwtag  DW_TAG_typedef
    2936                            .dwattr $C$DW$T$259, DW_AT_name("__cpuwhich_t")
    2937                            .dwattr $C$DW$T$259, DW_AT_type(*$C$DW$T$10)
    2938                            .dwattr $C$DW$T$259, DW_AT_language(DW_LANG_C)
    2939                            .dwattr $C$DW$T$259, DW_AT_decl_file("C:/ti/ccsv8/tools/compiler/ti-cgt-arm_18.1.3.LTS/include
    2940                            .dwattr $C$DW$T$259, DW_AT_decl_line(0x4a)
    2941                            .dwattr $C$DW$T$259, DW_AT_decl_column(0x0e)
    2942                    
    2943                    $C$DW$T$260     .dwtag  DW_TAG_typedef
    2944                            .dwattr $C$DW$T$260, DW_AT_name("__ct_rune_t")
    2945                            .dwattr $C$DW$T$260, DW_AT_type(*$C$DW$T$10)
    2946                            .dwattr $C$DW$T$260, DW_AT_language(DW_LANG_C)
    2947                            .dwattr $C$DW$T$260, DW_AT_decl_file("C:/ti/ccsv8/tools/compiler/ti-cgt-arm_18.1.3.LTS/include
    2948                            .dwattr $C$DW$T$260, DW_AT_decl_line(0x60)
    2949                            .dwattr $C$DW$T$260, DW_AT_decl_column(0x0e)
    2950                    
    2951                    $C$DW$T$261     .dwtag  DW_TAG_typedef
    2952                            .dwattr $C$DW$T$261, DW_AT_name("__rune_t")
    2953                            .dwattr $C$DW$T$261, DW_AT_type(*$C$DW$T$260)
    2954                            .dwattr $C$DW$T$261, DW_AT_language(DW_LANG_C)
    2955                            .dwattr $C$DW$T$261, DW_AT_decl_file("C:/ti/ccsv8/tools/compiler/ti-cgt-arm_18.1.3.LTS/include
    2956                            .dwattr $C$DW$T$261, DW_AT_decl_line(0x61)
    2957                            .dwattr $C$DW$T$261, DW_AT_decl_column(0x15)
    2958                    
    2959                    $C$DW$T$262     .dwtag  DW_TAG_typedef
    2960                            .dwattr $C$DW$T$262, DW_AT_name("__wint_t")
    2961                            .dwattr $C$DW$T$262, DW_AT_type(*$C$DW$T$260)
    2962                            .dwattr $C$DW$T$262, DW_AT_language(DW_LANG_C)
    2963                            .dwattr $C$DW$T$262, DW_AT_decl_file("C:/ti/ccsv8/tools/compiler/ti-cgt-arm_18.1.3.LTS/include
    2964                            .dwattr $C$DW$T$262, DW_AT_decl_line(0x62)
    2965                            .dwattr $C$DW$T$262, DW_AT_decl_column(0x15)
TI ARM Assembler PC v18.1.3 Wed Nov 28 13:22:08 2018

Tools Copyright (c) 1996-2017 Texas Instruments Incorporated
C:\Users\Adrian\AppData\Local\Temp\{FE5CC9C4-3D95-42C7-8599-A02F5AAB02A5} PAGE   55

    2966                    
    2967                    $C$DW$T$112     .dwtag  DW_TAG_typedef
    2968                            .dwattr $C$DW$T$112, DW_AT_name("__int32_t")
    2969                            .dwattr $C$DW$T$112, DW_AT_type(*$C$DW$T$10)
    2970                            .dwattr $C$DW$T$112, DW_AT_language(DW_LANG_C)
    2971                            .dwattr $C$DW$T$112, DW_AT_decl_file("C:/ti/ccsv8/tools/compiler/ti-cgt-arm_18.1.3.LTS/include
    2972                            .dwattr $C$DW$T$112, DW_AT_decl_line(0x3d)
    2973                            .dwattr $C$DW$T$112, DW_AT_decl_column(0x0f)
    2974                    
    2975                    $C$DW$T$263     .dwtag  DW_TAG_typedef
    2976                            .dwattr $C$DW$T$263, DW_AT_name("__blksize_t")
    2977                            .dwattr $C$DW$T$263, DW_AT_type(*$C$DW$T$112)
    2978                            .dwattr $C$DW$T$263, DW_AT_language(DW_LANG_C)
    2979                            .dwattr $C$DW$T$263, DW_AT_decl_file("C:/ti/ccsv8/tools/compiler/ti-cgt-arm_18.1.3.LTS/include
    2980                            .dwattr $C$DW$T$263, DW_AT_decl_line(0x2e)
    2981                            .dwattr $C$DW$T$263, DW_AT_decl_column(0x13)
    2982                    
    2983                    $C$DW$T$264     .dwtag  DW_TAG_typedef
    2984                            .dwattr $C$DW$T$264, DW_AT_name("__clockid_t")
    2985                            .dwattr $C$DW$T$264, DW_AT_type(*$C$DW$T$112)
